ARM GAS  /tmp/ccPF9ufL.s 			page 1


   1              		.syntax unified
   2              		.cpu cortex-m3
   3              		.fpu softvfp
   4              		.eabi_attribute 20, 1
   5              		.eabi_attribute 21, 1
   6              		.eabi_attribute 23, 3
   7              		.eabi_attribute 24, 1
   8              		.eabi_attribute 25, 1
   9              		.eabi_attribute 26, 1
  10              		.eabi_attribute 30, 2
  11              		.eabi_attribute 34, 1
  12              		.eabi_attribute 18, 4
  13              		.thumb
  14              		.file	"ch_test.c"
  15              		.text
  16              	.Ltext0:
  17              		.section	.gnu.lto_.jmpfuncs.cf7c3ec6308678da,"",%progbits
  18 0000 789CB591 		.ascii	"x\234\265\221KK\303@\020\307g\223>b\037\351\333\242"
  18      4B4BC340 
  18      10C76793 
  18      3E621FE9 
  18      DBA2
  19 0012 8765112F 		.ascii	"\207e\021/-D\223h\261\364\244\364\001b\253\320\244\305"
  19      2D449368 
  19      B1F4A4F4 
  19      0162ABD0 
  19      A4C5
  20 0024 AB8F800B 		.ascii	"\253\217\200\013\265\025\223\024\212\007{\364\342\331"
  20      B5159314 
  20      8A077BF4 
  20      E2D9
  21 0032 5E3CFB75 		.ascii	"^<\373u\374<\236\214\273\255m\203\242\036\\vgv\347\367"
  21      FC3C9E8C 
  21      BBAD6D83 
  21      A21E5C76 
  21      6776E7F7 
  22 0046 1F669815 		.ascii	"\037f\230\025@\200\257\326\223\027~\361\274\014\\p\017"
  22      4080AFD6 
  22      93177EF1 
  22      BC0C5C70 
  22      0F
  23 0057 10401F96 		.ascii	"\020@\037\226\035 \241\020\210\036\272\203\267\361d"
  23      1D20A110 
  23      881EBA83 
  23      B7F164
  24 0066 9CA40830 		.ascii	"\234\244\0100\240\347\361d\237\"\304\362\205SD\221 "
  24      A0E7F164 
  24      9F22C4F2 
  24      85534491 
  24      20
  25 0077 30B9307D 		.ascii	"0\2710}\212\012{\206\347\001\225\005$\024\025cb<,\243"
  25      8A0A7B86 
  25      E7019505 
  25      24141563 
  25      623C2CA3 
  26 008b CF5A0934 		.ascii	"\317Z\0114\273%\321_\3520\237Bi\224Ah\236\024\300\020"
  26      BB25D15F 
ARM GAS  /tmp/ccPF9ufL.s 			page 2


  26      EA309F42 
  26      69944168 
  26      9E14C010 
  27 009f E4494196 		.ascii	"\344IA\226\264\214\344oP\010C\236\2430\370\231\204a"
  27      B48CE46F 
  27      5008439E 
  27      A330F899 
  27      8461
  28 00b1 8DB3153F 		.ascii	"\215\263\025?\362:\334Z\354\020\020\337\254\323\310"
  28      F23ADC5A 
  28      EC1010DF 
  28      ACD3C8
  29 00c0 6B62491C 		.ascii	"kbI\034\305\240sqlA\373\333.\342\030J\234\311~\224\300"
  29      C5A07371 
  29      6C41FBDB 
  29      2EE2184A 
  29      9CC97E94 
  30 00d5 70C451D2 		.ascii	"p\304Q\322\217R\030n8J\373Q\006\303\303t\274Y?\313a"
  30      8F52186E 
  30      384AFB51 
  30      06C3C374 
  30      BC593FCB 
  31 00ea 789CB2D5 		.ascii	"x\234\262\325\237F5\373\211\377\362 \306# \031\235j"
  31      9F4635FB 
  31      89FFF220 
  31      C6232019 
  31      9D6A
  32 00fc B56E1820 		.ascii	"\265n\030 5\016\016\233\235v\335\033]VQ\024\322\266"
  32      350E0E9B 
  32      9D76DD1B 
  32      5D565114 
  32      D2B6
  33 010e 6CB7E754 		.ascii	"l\267\347T\310\214\213\033\005\020\012\2203Lb\230\255"
  33      C88C8B1B 
  33      05100A90 
  33      334C6298 
  33      AD
  34 011f 1DBDDB54 		.ascii	"\035\275\333Tj\324\276\030\014\255\333\021l\262PCSU"
  34      6AD4BE18 
  34      0CADDB11 
  34      6CB25043 
  34      5355
  35 0131 D23DEBB9 		.ascii	"\322=\353\271\026i\322\276EZ\326%u\257I\315\352\333"
  35      1669D2BE 
  35      455AD625 
  35      75AF49CD 
  35      EADB
  36 0143 D41941FE 		.ascii	"\324\031A\376x0$z\231\350\252\266G\024\242i\225R\271"
  36      7830247A 
  36      99E8AAB6 
  36      4714A269 
  36      9552B9
  37 0156 B2AB41A0 		.ascii	"\262\253A\240X,\302\272gH\365\212\236\323\023c\273m"
  37      582CC2BA 
  37      6748F58A 
  37      9ED31363 
  37      BB6D
ARM GAS  /tmp/ccPF9ufL.s 			page 3


  38 0168 12D3B21D 		.ascii	"\022\323\262\035b\270\324\261\340\035?t\232\335"
  38      62B8D4B1 
  38      E01D3F74 
  38      9ADD
  39              		.text
  40              		.section	.gnu.lto_.inline.cf7c3ec6308678da,"",%progbits
  41 0000 789CAD51 		.ascii	"x\234\255Q\273J\304@\024=s\223L\222M6\231]u\037\260"
  41      BB4AC440 
  41      143D7393 
  41      4C924D36 
  41      995D751F 
  42 0015 B056DA2D 		.ascii	"\260V\332-\226\376\203\220Z\360\003\\\375\012\321FP"
  42      96FE8390 
  42      5AF0035C 
  42      FD0AD146 
  42      50
  43 0026 21BD205B 		.ascii	"!\275 [\330\373\0036\266b!v\202\205\210\202\262\315"
  43      D8FB0336 
  43      B6622176 
  43      82858882 
  43      B2CD
  44 0038 160A56E2 		.ascii	"\026\012V\342\235\331\354\030\366\321\231\342\346p\316"
  44      9DD9EC18 
  44      F6D199E2 
  44      E670CE
  45 0047 9D7BCEDC 		.ascii	"\235{\316\334!\020\346}o\005\235\000\352\220\004H=_"
  45      2110E67D 
  45      6F059D00 
  45      EA900448 
  45      3D5F
  46 0059 5420075D 		.ascii	"T \007]\303{5f\362,\317\\\254l\010\007\375m\261'\232"
  46      C37B3566 
  46      F22CCF5C 
  46      AC6C0807 
  46      FD6DB127 
  47 006e 80B38ADD 		.ascii	"\200\263\212\335?(tu+y\206`\324#\210w_\021\274\343u"
  47      3F287475 
  47      2B798660 
  47      D4238877 
  47      5F11BCE3 
  48 0083 A5473869 		.ascii	"\245G8i\251\270\200DsX\345\251\365\317\363M\353#\353"
  48      A9B88044 
  48      7358E5A9 
  48      F5CFF34D 
  48      EB23EB
  49 0096 2CF3F989 		.ascii	",\363\371\211!|\0255\030\311Q\257\224\005F\012 \275"
  49      217C1535 
  49      18C951AF 
  49      9405460A 
  49      20BD
  50 00a8 29294220 		.ascii	"))B 9\235\211\324\322D\337\"\316\246]\307\255\356\240"
  50      399D89D4 
  50      D244DF22 
  50      CEA65DC7 
  50      ADEEA0
  51 00bb AB20EF3A 		.ascii	"\253 \357:\232@\214\306\007\313\264\366s\033\333IUD"
  51      9A408CC6 
ARM GAS  /tmp/ccPF9ufL.s 			page 4


  51      07CBB4F6 
  51      731BDB49 
  51      5544
  52 00cd A1202126 		.ascii	"\241 !&G\235\344tg,\322}\032\233E\2516\357\2510k[\263"
  52      479DE474 
  52      672CD27D 
  52      1A9B45A9 
  52      36EFA930 
  53 00e4 F67CB3CE 		.ascii	"\366|\263\316\345I\022\030\251\242\025\276^0^h\212\364"
  53      E5491218 
  53      A9A215BE 
  53      5E305E68 
  53      8AF4
  54 00f6 9B6D2879 		.ascii	"\233m(y9\010g\327\255\320:\323\217\261\374p\025.\\R"
  54      390867D7 
  54      ADD03AD3 
  54      8FB1FC70 
  54      152E5C52 
  55 010a 9ED5745A 		.ascii	"\236\325tZ~\262\247}\333TG\3503\025_oYj\011\217\342"
  55      7EB2A77D 
  55      DB5447E8 
  55      33155F6F 
  55      596A098F 
  56 011f E84B9BBD 		.ascii	"\350K\233\275\212\321\360\306\267\002E:r\271rJM\223"
  56      8AD1F0C6 
  56      B702453A 
  56      72B9724A 
  56      4D93
  57 0131 21C81054 		.ascii	"!\310\020T\020yV\376\225\233\254R4\227\006M\317\237"
  57      107956FE 
  57      959BAC52 
  57      3497064D 
  57      CF9F
  58 0143 ADF62E5E 		.ascii	"\255\366.^\315\371' \026\001\374\002&(\\\267"
  58      CDF92720 
  58      1601FC02 
  58      26285CB7 
  59              		.text
  60              		.section	.gnu.lto_.pureconst.cf7c3ec6308678da,"",%progbits
  61 0000 789C6362 		.ascii	"x\234cb`b\220e\200\000>\006K\026I6IvI\016\011n\011\036"
  61      60629065 
  61      80003E06 
  61      4B164936 
  61      4976490E 
  62 0018 4B5E293E 		.ascii	"K^)>K~K\001KA+!)aK\000*\005\003\017"
  62      4B7E4B01 
  62      4B412B21 
  62      29614B00 
  62      2A05030F 
  63              		.text
  64              		.section	.gnu.lto_print_tokens.cf7c3ec6308678da,"",%progbits
  65 0000 789C8D92 		.ascii	"x\234\215\222\301k\023Q\020\306\347{o\337\356\246IQ"
  65      C16B1351 
  65      10C6E77B 
  65      6FDFEEA6 
  65      4951
  66 0012 C14B41B0 		.ascii	"\301KA\260\324\213\030\330P\275\250\320\377\242\005"
ARM GAS  /tmp/ccPF9ufL.s 			page 5


  66      D48B18D8 
  66      50BDA8D0 
  66      FFA205
  67 0021 F552DA45 		.ascii	"\365R\332E\322E\203\001s\363\320\227\030D\264h\360$"
  67      D2458301 
  67      73F3D097 
  67      1844B468 
  67      F024
  68 0033 E6D09622 		.ascii	"\346\320\226\"\212\010\"\275\210\247\010Z\315A\305\233"
  68      8A0822BD 
  68      88A7085A 
  68      CD41C59B 
  69 0043 DE8260F0 		.ascii	"\336\202`\360\340_\340\3018\223\267\273\246^\364\221"
  69      E05FE0C1 
  69      3893B7BB 
  69      A65EF491 
  70 0053 BC99DD9D 		.ascii	"\274\231\335\235\3377\363\276]E\212\376^\013\3747\232"
  70      DF37F3BE 
  70      5D458AFE 
  70      5E0BFC37 
  70      9A
  71 0064 E82C47F8 		.ascii	"\350,G\370\004\325\371@\324\014\025<\227h\227\274\012"
  71      04D5F940 
  71      D40C153C 
  71      976897BC 
  71      0A
  72 0075 3DA537DE 		.ascii	"=\2457\336\022\331)\323\016\310\226\014 \367\011\264"
  72      12D929D3 
  72      0EC8960C 
  72      20F709B4 
  73 0085 AEB467B0 		.ascii	"\256\264g\260~\036\"\247\347h\333\332{\2037\303\307"
  73      7E1E22A7 
  73      E768DBDA 
  73      7B8337C3 
  73      C7
  74 0096 33B7B65A 		.ascii	"3\267\266Z\035\373k4B\002n|\024\024\203\316\361\005"
  74      1DFB6B34 
  74      42026E7C 
  74      141483CE 
  74      F105
  75 00a8 66C74179 		.ascii	"f\307Ay\373'qdow\357\316$\251\025\225\377\223\334\334"
  75      FB277164 
  75      6F77EFCE 
  75      24A91595 
  75      FF93DCDC 
  76 00bc DB98B1FB 		.ascii	"\333\230\261\373\310\323\377\"\237\251\336`4\372\361"
  76      C8D3FF22 
  76      9FA9DE60 
  76      34FAF1
  77 00cb 7CEB6B17 		.ascii	"|\353k\027\207\212\240\025<\304\034y\034w8\032\216\333"
  77      878AA015 
  77      3CC41C79 
  77      1C77381A 
  77      8EDB
  78 00dd 1C7D4AE0 		.ascii	"\034}J\340\005\274\2310\255(\360\205/\316Q\333\332\316"
  78      05BC9930 
  78      AD28F085 
ARM GAS  /tmp/ccPF9ufL.s 			page 6


  78      2FCE51DB 
  78      DACE
  79 00ef ACBB49D2 		.ascii	"\254\273I\322\214\327\"\357\354\321\022\024\007\335"
  79      8CD722EF 
  79      ECD11214 
  79      07DD
  80 00fd A7D6E0EE 		.ascii	"\247\326\340\356\216\277\202G0)}\215~\332\233\326.$"
  80      8EBF8247 
  80      30297D8D 
  80      7EDA9BD6 
  80      2E24
  81 010f 086AF833 		.ascii	"\010j\3703\314\0224\261\305\372=\265\372\237\207\307"
  81      CC1234B1 
  81      C5FA3DB5 
  81      FA9F87C7 
  82 011f 1D5185E9 		.ascii	"\035Q\205\351\322\203\246\265\007\331E\007r\026\326"
  82      D283A6B5 
  82      07D94507 
  82      7216D6
  83 012e 20A01C29 		.ascii	" \240\034)Li\246.d\210_\246\023<2\203\\P`\011)te\253"
  83      4C69A62E 
  83      64885FA6 
  83      133C3283 
  83      5C506009 
  84 0146 79C34920 		.ascii	"y\303I (\323\023\321\235rH\221%\004\361R\0049r\375\266"
  84      28D313D1 
  84      9D724891 
  84      2504F152 
  84      043972FD 
  85 015b CE98B00A 		.ascii	"\316\230\260\012\214=\225\247}R\223'\254\312X\334\340"
  85      8C3D95A7 
  85      7D529327 
  85      ACCA58DC 
  85      E0
  86 016c A5C9AA0B 		.ascii	"\245\311\252\013N\331O!\235*~\244\264\202d\012\331\014"
  86      4ED94F21 
  86      9D2A7EA4 
  86      B482640A 
  86      D90C
  87 017e D7262865 		.ascii	"\327&(e\226x\304\237\231\230\310\202\2316\306\332\375"
  87      9678C49F 
  87      9998C882 
  87      9936C6DA 
  87      FD
  88 018f 17C3EFC8 		.ascii	"\027\303\357\310\344\275\334$\235\2334]\203JM\232N\333"
  88      E4BDDC24 
  88      9D9B345D 
  88      834A4D9A 
  88      4EDB
  89 01a1 BDA3D7DF 		.ascii	"\275\243\327\337\232\2472\010U\344\337\303\027\202\003"
  89      9AA73208 
  89      55E4DFC3 
  89      178203
  90 01b0 7B9B370E 		.ascii	"{\2337\016\344/F\335\327|\024\375t\367\260\314b\344"
  90      E42F46DD 
  90      D77C14FD 
  90      74F7B0CC 
ARM GAS  /tmp/ccPF9ufL.s 			page 7


  90      62E4
  91 01c2 7D7EA2E6 		.ascii	"}~\242\346\240{,\033\332\255E\036\251\035H\263#QTq\277"
  91      A07B2C1B 
  91      DAAD451E 
  91      A91D48B3 
  91      23515471 
  92 01d7 C6C5AB8D 		.ascii	"\306\305\253\215\312\345d\265\022\257-K\036\305T\224"
  92      CAE564B5 
  92      12AF2D4B 
  92      1EC55494 
  93 01e7 B81CAFD5 		.ascii	"\270\034\257\325\243\3713\245q\336\270r\251\036\235"
  93      A3F933A5 
  93      71DEB872 
  93      A91E9D
  94 01f6 9C5771FD 		.ascii	"\234Wq\3757\016!\274\213"
  94      370E21BC 
  94      8B
  95              		.text
  96              		.section	.gnu.lto_execute_test.cf7c3ec6308678da,"",%progbits
  97 0000 789C7D51 		.ascii	"x\234}Q;O\002A\020\236\331\273\333\343\241\206\316F"
  97      3B4F0241 
  97      109ED9BB 
  97      DBE3A186 
  97      CE46
  98 0012 C5C4D204 		.ascii	"\305\304\322\004\254\350\370\005\266\220h\243\001b\220"
  98      ACE8F805 
  98      B69068A3 
  98      016290
  99 0021 C4ABA4B3 		.ascii	"\304\253\244\263`\021\012\013L\250,\2442t\306Hcq\261"
  99      60110A0B 
  99      4CA82CA4 
  99      3274C648 
  99      6371B1
 100 0034 2231112D 		.ascii	"\"1\021-|u\206\212\304\016lM\014\015\316\356r\207\032"
 100      7C75868A 
 100      C40E6C4D 
 100      0C0DCEEE 
 100      72871A
 101 0047 C2E46E76 		.ascii	"\302\344nvn\366\373\276y\034\003\006\377m\223\336\035"
 101      6EF6FBBE 
 101      791C0306 
 101      FF6D93DE 
 101      1D
 102 0058 4AAFD089 		.ascii	"J\257\320\2116 \253?\003\224\003\214\031\235\004\210"
 102      3620AB3F 
 102      0394038C 
 102      199D0488 
 103 0068 90F9B808 		.ascii	"\220\371\270\010b\316@S\247Mf5\222\224\346_\021J[\310"
 103      62CE4053 
 103      A74D6635 
 103      9294E65F 
 103      114A5BC8 
 104 007c 759A23CA 		.ascii	"u\232#\312\000\020J\3140-\216\245mT\352-\326\356\215"
 104      00104ACC 
 104      302D8EA5 
 104      6D54EA2D 
 104      D6EE8D
ARM GAS  /tmp/ccPF9ufL.s 			page 8


 105 008f 46D7B7F7 		.ascii	"F\327\267\36775l\260\005\216\016\202\015\005\204\240"
 105      37356CB0 
 105      058E0E82 
 105      0D0584A0 
 106 009f 7461E9C8 		.ascii	"ta\351\310,\250\012Q_\005\310\251\317\024y)\227F&O\343"
 106      2CA80A51 
 106      5F05C8A9 
 106      CF147929 
 106      9746264F 
 107 00b4 098E8795 		.ascii	"\011\216\207\225Vm\331\207\351@4O\243\000\031\274@\213"
 107      566DD987 
 107      E940344F 
 107      A30019BC 
 107      408B
 108 00c6 888AD980 		.ascii	"\210\212\331\200\363\262\020\221\002\342\021\014\305"
 108      F3B21091 
 108      02E2110C 
 108      C5
 109 00d3 898C98A3 		.ascii	"\211\214\230\243\256\266\220B\325\222\276i\237\361\002"
 109      AEB69042 
 109      D592BE69 
 109      9FF102
 110 00e2 1A0EB20C 		.ascii	"\032\016\262\0146\211OFU\\\267\377\316\264\240\257d"
 110      36894F46 
 110      555CB7FF 
 110      CEB4A0AF 
 110      64
 111 00f3 FA4A9683 		.ascii	"\372J\226\203\306XI\021Td\216\251\335\357\376+jj\036"
 111      C6584911 
 111      54648EA9 
 111      DDEFFE2B 
 111      6A6A1E
 112 0106 ED75B894 		.ascii	"\355u\270\224\014N*\204\261\363\310%6\240XY\364V\377"
 112      0C4E2A84 
 112      B1F3C825 
 112      36A05859 
 112      F456FF
 113 0119 00D5CFF2 		.ascii	"\000\325\317\362\274O\222\020\376\373\327\244\251^'"
 113      BC4F9210 
 113      FEFBD7A4 
 113      A95E27
 114 0128 61BC40A5 		.ascii	"a\274@\245w\365ak\034H$\320\336\202\036\306\364v\324"
 114      77F5616B 
 114      1C4824D0 
 114      DE821EC6 
 114      F476D4
 115 013b 75071B9E 		.ascii	"u\007\033\236Xpv\007^\013$\335\216N\204\203ca)\366>"
 115      58707607 
 115      5E0B24DD 
 115      8E4E8483 
 115      636129F6 
 116 0150 98CC139E 		.ascii	"\230\314\023\236\255\306\246\316\023\2362\017\3555\251"
 116      ADC6A6CE 
 116      139E320F 
 116      ED35A9
 117 015f E669DD85 		.ascii	"\346i\335\205&e\303\177\346\341j\2367(\367\3345\017"
 117      2665C37F 
ARM GAS  /tmp/ccPF9ufL.s 			page 9


 117      E6E16A9E 
 117      3728F7DC 
 117      350F
 118 0171 A32D457D 		.ascii	"\243-E}\323\235,\267\024\213\305\365S\334;,\306\017"
 118      D39D2CB7 
 118      148BC5F5 
 118      53DC3B2C 
 118      C60F
 119 0183 0AD9786E 		.ascii	"\012\331xn\177W\306\261\034\374\000F\343\226\364"
 119      7F57C6B1 
 119      1CFC0046 
 119      E396F4
 120              		.text
 121              		.section	.gnu.lto_print_line.cf7c3ec6308678da,"",%progbits
 122 0000 789C9593 		.ascii	"x\234\225\223Ah\023A\024\206\3777\263\263\311\3566\332"
 122      41681341 
 122      1486FF37 
 122      B3B3C9EE 
 122      36DA
 123 0012 DE5A102D 		.ascii	"\336Z\020-\365\"\206&\322\223\207\012\275{mA\275\224"
 123      F5228626 
 123      D293870A 
 123      BD7B6D41 
 123      BD94
 124 0024 36885D50 		.ascii	"6\210]P\020\354\315C'\333R\202`\011\236\304\"\264\210"
 124      10ECCD43 
 124      27DB5282 
 124      60099EC4 
 124      22B488
 125 0037 5044F0E8 		.ascii	"PD\360\350I\250\210\220\034j\361\246\267x\361\232c\213"
 125      49A88890 
 125      1C6AF1A6 
 125      B778F19A 
 125      638B
 126 0049 07E37B3B 		.ascii	"\007\343{;;m-BqH\336{\331\367\276\177f\376$\012\012"
 126      3B6D2D42 
 126      7148DE7B 
 126      D9F7BE7F 
 126      66FE240A 
 127 005e A7D70D7E 		.ascii	"\247\327\015~Ok\340\032g\012A\252\375\005h\226\025\005"
 127      4F6BE01A 
 127      670A41AA 
 127      FD056896 
 127      1505
 128 0070 AED0AEF8 		.ascii	"\256\320\256\370X\016\224\336\330\003ll2\202\0352D\362"
 128      580E94DE 
 128      D8036C6C 
 128      32821D32 
 128      44F2
 129 0082 1C8415A5 		.ascii	"\034\204\025\245\003C+\267I\344\324\004\266\255}\326"
 129      03432BB7 
 129      49E4D404 
 129      B6AD7DD6 
 130 0092 FBDCDF19 		.ascii	"\373\334\337\031{\262\225\265\355\357\301\200R\342\215"
 130      7BB295B5 
 130      EDEFC180 
 130      52E28D
ARM GAS  /tmp/ccPF9ufL.s 			page 10


 131 00a1 2F111A84 		.ascii	"/\021\032\204[\374\201\306\363\244\202\277O\342\310"
 131      5BFC81C6 
 131      F3A482BF 
 131      4FE2C8
 132 00b0 DD83F58D 		.ascii	"\335\203\365\2151{Lj\205\352Y\344;\265\333\033\014\336"
 132      317B4C6A 
 132      85EA59E4 
 132      3BB5DB1B 
 132      0CDE
 133 00c2 BE3FFCD1 		.ascii	"\276?\374\321\241\221\012a\201^\321\004\002\316\333"
 133      A1910A61 
 133      815ED104 
 133      02CEDB
 134 00d1 9C0D520A 		.ascii	"\234\015R\012B\016\246\\t\242\242\023K'\341\020\262"
 134      420EA65C 
 134      74A2A213 
 134      4B27E110 
 134      B2
 135 00e2 88C19AB5 		.ascii	"\210\301\232\265\355q7\001\331\221\327,G\276\356\034"
 135      ED713701 
 135      D991D72C 
 135      47BEEE1C 
 136 00f2 294EBA8B 		.ascii	")N\272\213\254\367\341S\270@\257\311\024Rr\034\355\317"
 136      ACF7E153 
 136      B840AFC9 
 136      1452721C 
 136      EDCF
 137 0104 31C7257B 		.ascii	"1\307%{\244\367\220u\277\365\257\270\271{\024l\342E"
 137      A4F79075 
 137      BFF5AFB8 
 137      B97B146C 
 137      E245
 138 0116 D3DA61B6 		.ascii	"\323\332a\266\3411~\331\226T\245\007\271\276\340\245"
 138      E1317ED9 
 138      9654A507 
 138      B9BEE0A5 
 139 0126 8266EA8E 		.ascii	"\202f\352\216GL\025W\323\034\344\2012K\310\240\033["
 139      474C1557 
 139      D31CE481 
 139      324BC8A0 
 139      1B5B
 140 0138 24FC0308 		.ascii	"$\374\003\010\253x#\272\221Cb\226\020$(\020\317\354"
 140      AB7823BA 
 140      91436296 
 140      10242810 
 140      CFEC
 141 014a C33802C2 		.ascii	"\3038\002\302H\310\225\223I6aH\024W[\253\007O\257{U"
 141      48C89593 
 141      49366148 
 141      14575BAB 
 141      074FAF7B 
 142 015f DE99F21B 		.ascii	"\336\231\362\033\012\337\205:ys\356\372[\007\340\237"
 142      0ADF853A 
 142      7973EEFA 
 142      5B07E09F 
 143 016f 82B8C34F 		.ascii	"\202\270\303O|\223\211\016\326~6K^\313\011\335<\372"
 143      7C93890E 
ARM GAS  /tmp/ccPF9ufL.s 			page 11


 143      D67E364B 
 143      5ECB09DD 
 143      3CFA
 144 0181 D2BE830A 		.ascii	"\322\276\203\012\363\324\216f1\335*\211\226\021\243"
 144      F3D48E66 
 144      31DD2A89 
 144      9611A3
 145 0190 C5C0C3FE 		.ascii	"\305\300\303\376\250G\243\37770>e`t\226\201Ia`\345\310"
 145      A847A3FF 
 145      37303E65 
 145      60749681 
 145      496160E5 
 146 01a5 C0F8A481 		.ascii	"\300\370\244\201\376\217\263\217\360\330\300DB$G\032"
 146      FE8FB38F 
 146      F0D8C044 
 146      4224471A 
 147 01b5 4DE9DC45 		.ascii	"M\351\334EL\276\264\317gR:\217bD\004\206\025[;\002|"
 147      4CBEB4CF 
 147      67523A8F 
 147      62440486 
 147      155B3B02 
 148 01ca 45B3D7B9 		.ascii	"E\263\327\271\354Y\267f\331\245,\227\276P\253\325\335"
 148      EC59B766 
 148      D9A52C97 
 148      BE50ABD5 
 148      DD
 149 01db 6BF9EEA3 		.ascii	"k\371\356\243\345\372\375t\261\336X\232\227\272\326"
 149      E5FAFD74 
 149      B1DE589A 
 149      97BAD6
 150 01ea 402279BE 		.ascii	"@\"y\276\261\364\26065E\251\256\304\370\003S\243\267"
 150      B1F4B036 
 150      3545A9AE 
 150      C4F80353 
 150      A3B7
 151 01fc 95       		.ascii	"\225"
 152              		.text
 153              		.section	.gnu.lto_test_printn.part.0.cf7c3ec6308678da,"",%progbits
 154 0000 789C8D92 		.ascii	"x\234\215\222AK\033Q\020\307\347\377\336\256Y\265b\256"
 154      414B1B51 
 154      10C7E7FF 
 154      DEAE59B5 
 154      62AE
 155 0012 4241AB48 		.ascii	"BA\253H\261\201\215`z\366K(X/\222\0045\013F\002MO\036"
 155      B1818D60 
 155      7AF64B28 
 155      582F9204 
 155      350B4602 
 156 0029 F2121444 		.ascii	"\362\022\024Dz\010\201B\325K\203\210T\301b\373\005\202"
 156      7A088142 
 156      D54B8388 
 156      54C162FB 
 156      0582
 157 003b 2713D0D2 		.ascii	"'\023\320\322\263\227\334\275\350Q\017]gv\263i#\205"
 157      B397DCBD 
 157      E8510F5D 
 157      6776B369 
ARM GAS  /tmp/ccPF9ufL.s 			page 12


 157      2385
 158 004d FA783B33 		.ascii	"\372x;3\357\275\371\315\314\233\267\212\024=\035\011"
 158      EFBDF9CD 
 158      CC9BB78A 
 158      143D1D09 
 159 005d FE8E78FB 		.ascii	"\376\216x\373-k\330\004\253z\305\206\005\025h\005-\272"
 159      2D6BD804 
 159      AB7AC586 
 159      05156805 
 159      2DBA
 160 006f EC68400C 		.ascii	"\354h@\014\002\225,\245Qz\007\201\355q\252\033Sko\235"
 160      02952CA5 
 160      517A0781 
 160      ED71AA1B 
 160      536B6F9D 
 161 0083 9C8D982F 		.ascii	"\234\215\230/\225\252\371\355\373\360\300iFAY\320\002"
 161      95AAF9ED 
 161      FBF0C069 
 161      464159D0 
 161      02
 162 0094 2F301628 		.ascii	"/0\026(e\365\346\015\311\306\365\316\247\277I\255\350"
 162      65F5E60D 
 162      C9C6F5CE 
 162      A7BF49AD 
 162      E8
 163 00a5 D573C846 		.ascii	"\325s\310F\325\234Y\027f\263\341\373\263\036,E\023\177"
 163      D59C5917 
 163      66B3E1FB 
 163      B31E2C45 
 163      137F
 164 00b7 28136A15 		.ascii	"(\023j\025\377g\302\373\326\307\221\235\236\204\257"
 164      FF67C2FB 
 164      D6C7919D 
 164      9E84AF
 165 00c6 9F59EA5D 		.ascii	"\237Y\352]\253U\207\251\231\362\255\357\017{\260\025"
 165      AB5587A9 
 165      99F2ADEF 
 165      0F7BB015 
 166 00d6 25FE477E 		.ascii	"%\376G~S\246\355\373\273\337\373c\2404\276b\234;\343"
 166      53A6EDFB 
 166      BBDFFB63 
 166      A034BE62 
 166      9C3BE3
 167 00e9 A14FB388 		.ascii	"\241O\263\210I\373h\323\230\352X\032\207|\222\306A "
 167      49FB68D3 
 167      98EA581A 
 167      877C92C6 
 167      4120
 168 00fb EB2C49E2 		.ascii	"\353,I\342\362\230c)m\237\207%Z7\351\334!\312\203'\237"
 168      F2986329 
 168      6D9F8725 
 168      5A37E9DC 
 168      21CA8327 
 169 0110 34A9C2AB 		.ascii	"4\251\302\253\220\310\243\223r\036*p\275\244J\363\363"
 169      90C8A393 
 169      721E2A70 
 169      BDA44AF3 
ARM GAS  /tmp/ccPF9ufL.s 			page 13


 169      F3
 170 0121 E9541A27 		.ascii	"\351T\032'\374\252\253\300>\355\225\215\211s\335\033"
 170      FCAAABC0 
 170      3EED958D 
 170      8973DD1B 
 171 0131 F460B6C5 		.ascii	"\364`\266\305r\362\220\377A\012w:4S\213\021\242\022"
 171      72F290FF 
 171      410A773A 
 171      34538B11 
 171      A212
 172 0143 F4868BED 		.ascii	"\364\206\213\355\202\375\034E|\355\3003\023%\354at\202"
 172      82FD1C45 
 172      7CEDC033 
 172      1325EC61 
 172      7482
 173 0155 8EC577A0 		.ascii	"\216\305w\240K\015r \241\372:T\204\375$;\204H0\021A"
 173      4B0D7220 
 173      A1FA3A54 
 173      84FD243B 
 173      84483011 
 174 016a F017D3DC 		.ascii	"\360\027\323\334\233\241\350*\272s\225\363\033\025:"
 174      9BA1E82A 
 174      BA7395F3 
 174      1B153A
 175 0179 87AD4AD1 		.ascii	"\207\255J\321\017\263\315\316\322\355_Tn_LF\241\302"
 175      0FB3CDCE 
 175      D2ED5F54 
 175      6E5F4C46 
 175      A1C2
 176 018b 31C75918 		.ascii	"1\307Y\030\224\313\275t\335d8\213\313\357\213\3115/"
 176      94CBBD74 
 176      DD64388B 
 176      CBEF8BC9 
 176      352F
 177 019d 93CCE696 		.ascii	"\223\314\346\226\304v\263\204u\024t\346\303\212.\270"
 177      C476B384 
 177      751474E6 
 177      C38A2EB8 
 178 01ad A901D95B 		.ascii	"\251\001\331[\312\346\012\356\314#\306,\244\304"
 178      CAE60AEE 
 178      CC23C62C 
 178      A4C4
 179              		.text
 180              		.section	.gnu.lto__test_fail.cf7c3ec6308678da,"",%progbits
 181 0000 789C6362 		.ascii	"x\234cb`b@\007\222@\314\311\310\300 \007\244\031\231"
 181      60624007 
 181      9240CCC9 
 181      C8C02007 
 181      A41999
 182 0013 19189926 		.ascii	"\031\030\231&\234c`h\344`bd\0041\030\030\031\352\231"
 182      9C636068 
 182      E4606264 
 182      04311818 
 182      19EA99
 183 0026 18EB2319 		.ascii	"\030\353#\031\301j\3273\035x\360\377\377\2729\355K\317"
 183      C16AD733 
 183      1D78F0FF 
ARM GAS  /tmp/ccPF9ufL.s 			page 14


 183      FFBA39ED 
 183      4BCF
 184 0038 30CE6562 		.ascii	"0\316ebca\314\005\213\2632\26444LP``H\006sC\200$Ho("
 184      6361CC05 
 184      8BB332B4 
 184      34344C50 
 184      60604806 
 185 0053 23138866 		.ascii	"#\023\210f>\313\320\264c\306\267\003\314\211\214\013"
 185      3ECBD0B4 
 185      63C6B703 
 185      CC898C0B 
 186 0063 19591966 		.ascii	"\031Y\031f3\314jlh\020\310dd\250f\370\325\320\001b\001"
 186      33CC6A6C 
 186      6810C864 
 186      64A866F8 
 186      D5D00162 
 187 0078 8D01698C 		.ascii	"\215\001i\214`\314d\204\330\003b1\200\230 \255+\312"
 187      60CC6484 
 187      D8036231 
 187      809820AD 
 187      2BCA
 188 008a F06964C2 		.ascii	"\360id\302\251\361\364\011t\215Lp\215\314\271@\257B"
 188      A9F1F409 
 188      748D4C70 
 188      8DCCB940 
 188      AF42
 189 009c 94338335 		.ascii	"\2243\2035\2463\26200\\dh|p;\031\242\011n\022\304G\214"
 189      A633B230 
 189      305C6468 
 189      7C703B19 
 189      A2096E12 
 190 00b3 209F80EC 		.ascii	" \237\200\354\222\321\323\323\207\240\222\324\342\022"
 190      92D1D3D3 
 190      87A092D4 
 190      E212
 191 00c1 FD9CCC24 		.ascii	"\375\234\314$\375\344\214x\020[/\231\001\000\353}J\243"
 191      FDE48C78 
 191      105B2F99 
 191      0100EB7D 
 191      4AA3
 192              		.text
 193              		.section	.gnu.lto__test_assert.cf7c3ec6308678da,"",%progbits
 194 0000 789C7551 		.ascii	"x\234uQ\261J\003A\020\235\267\263\007!\244\260\260\024"
 194      B14A0341 
 194      109DB7B3 
 194      0721A4B0 
 194      B014
 195 0012 0D7EC01D 		.ascii	"\015~\300\035\370-\006\264\222xH<\360\252\004\033\213"
 195      F82D06B4 
 195      9278483C 
 195      F0AA041B 
 195      8B
 196 0023 6C4220E9 		.ascii	"lB \351\014V\242\"D\004\033\321NR\\ VFD!\220\306\316"
 196      0C56A222 
 196      44041BD1 
 196      4E525C20 
 196      56464421 
ARM GAS  /tmp/ccPF9ufL.s 			page 15


 197 003a 0FB0B6B0 		.ascii	"\017\260\266\2609w\366B$A\227\335\231a\231\367\366\315"
 197      3977F642 
 197      244197DD 
 197      996199F7 
 197      F6CD
 198 004c 5B458A16 		.ascii	"[E\212\026\327\206=\003\020\255\333\014\217\240\272"
 198      D7863D03 
 198      10ADDB0C 
 198      8FA0BA
 199 005b 6F448D9C 		.ascii	"oD\215\234R<\011\310\024t\262J&\317\320\331\265\006"
 199      523C09C8 
 199      1474B24A 
 199      26CFD0D9 
 199      B506
 200 006d A420505D 		.ascii	"\244 P]\261F}\033\216\344^\015?\322\364.i?$\270TyP\004"
 200      B1467D1B 
 200      8EE45E0D 
 200      3FD2F42E 
 200      693F24B8 
 201 0085 62C420CF 		.ascii	"b\304 \317\006i\361\250eL\267H\024:\300\246\215\302"
 201      0669F1A8 
 201      654CB748 
 201      143AC0A6 
 201      8DC2
 202 0097 538292CC 		.ascii	"S\202\222\314#j}>\216\333\\F\317j\250\200\267\020aN"
 202      236A7D3E 
 202      8EDB5C46 
 202      CF6AA880 
 202      B710614E 
 203 00ab 66094C93 		.ascii	"f\011L\223\200\237\251\231\023\255=cN\206\311S\241\333"
 203      809FA999 
 203      13AD3D63 
 203      4E86C953 
 203      A1DB
 204 00bd E89834AD 		.ascii	"\350\2304\255G\260Dk\020vA\252\242K\254\347G\255Xnz"
 204      47B0446B 
 204      107641AA 
 204      A24BACE7 
 204      47AD586E 
 205 00d2 A566FFF4 		.ascii	"\245f\377\364k\3103EYan\216\2752\256 6d*B'\234\316\351"
 205      6BC83345 
 205      59616E8E 
 205      BD32AE20 
 205      36642A42 
 206 00ea AC61CC92 		.ascii	"\254a\314\222\225sD\337\246#\225\216!>\312\023\331\013"
 206      957344DF 
 206      A623958E 
 206      213ECA13 
 206      D90B
 207 00fc 4EAD740B 		.ascii	"N\255t\013y\337\222\227qm\031\376\206\362\277\320\227"
 207      79DF9297 
 207      716D19FE 
 207      86F2BFD0 
 207      97
 208 010d D1E10210 		.ascii	"\321\341\002\0203\240\027;\200\264{\277\303d\316h\347"
 208      33A0173B 
 208      80B47BBF 
ARM GAS  /tmp/ccPF9ufL.s 			page 16


 208      C364CE68 
 208      E7
 209 011e E1D87E8F 		.ascii	"\341\330~\217\\;\325\357\204)3_\014\226\247n\252\333"
 209      5C3BD5EF 
 209      8429335F 
 209      0C96A76E 
 209      AADB
 210 0130 4141BC87 		.ascii	"AA\274\207\364\313\004+\276\037d\273\266W\255\005\007"
 210      F4CB042B 
 210      BE1F64BB 
 210      B657AD05 
 210      07
 211 0141 D16E10EE 		.ascii	"\321n\020\356\357H\355\207\304q\265\362\003b\005t\315"
 211      EF48ED87 
 211      C471B5F2 
 211      03620574 
 211      CD
 212              		.text
 213              		.section	.gnu.lto__test_assert_sequence.cf7c3ec6308678da,"",%progbits
 214 0000 789CAD54 		.ascii	"x\234\255T\335KTA\024?g\346~\355\335M#z0\260\024_\203"
 214      DD4B5441 
 214      143F67E6 
 214      7EEDDD4D 
 214      237A30B0 
 215 0017 5DAAE71E 		.ascii	"]\252\347\036\372\037Z\250'\331\226\270-\265$(A\004"
 215      FA1F5AA8 
 215      27D996B8 
 215      2DB52428 
 215      4104
 216 0029 39EB070A 		.ascii	"9\353\007\012\012\273\210\204}<(\322C%\371\330\022\205"
 216      0ABB8884 
 216      7D3C28D2 
 216      4325F9D8 
 216      1285
 217 003b 9B046AA2 		.ascii	"\233\004j\242`\364b%\010\021\005\211\370\020\005\026"
 217      60F46225 
 217      08110589 
 217      F8100516 
 218 004b DECECCDC 		.ascii	"\336\316\314\334{]\267R\372\030v\357\2349\363;\277\363"
 218      7B5DB752 
 218      FA1876EF 
 218      9C39F33B 
 218      BFF3
 219 005d 792F0306 		.ascii	"y/\003\006\265\353*\375_\232\000\307h\3078 +-\002\024"
 219      B5EB2AFD 
 219      5F9A00C7 
 219      68C73820 
 219      2B2D0214 
 220 0071 1C86A616 		.ascii	"\034\206\246\02683\2469\010\327]|\001 \022\006\306\264"
 220      3833A639 
 220      08D75D7C 
 220      01201206 
 220      C6B4
 221 0083 DED58053 		.ascii	"\336\325\200S&\343\352\306\265$,a1\373\311\021:9\257"
 221      26E3EAC6 
 221      B5242C61 
 221      31FBC911 
ARM GAS  /tmp/ccPF9ufL.s 			page 17


 221      3A39AF
 222 0096 5274B243 		.ascii	"Rt\262C\264\023\0121D)\000B'\343\206kZ6\251:\317\242"
 222      B4130A31 
 222      44290042 
 222      27E3866B 
 222      5A36A93A 
 223 00ac 0C85B5C0 		.ascii	"\014\205\265\300\230\020C\253\275[\037\361\346p\245"
 223      981043AB 
 223      BD5B1FF1 
 223      E670A5
 224 00bb 67547CF7 		.ascii	"gT|\367}\304\034R\330M\010Y\2043t\300f\2651cg\036\332"
 224      7DC41C52 
 224      D84D0859 
 224      843374C0 
 224      66B53163 
 225 00d2 B6B23233 		.ascii	"\266\26223xH\214v\225\304\026\231*\313\243{YN\262\312"
 225      78488C76 
 225      95C41699 
 225      2ACBA37B 
 225      594EB2CA 
 226 00e6 AAEFBF7D 		.ascii	"\252\357\277}\372\371\335\000\036h@\310K\253\014\216"
 226      FAF9DD00 
 226      1E6840C8 
 226      4BAB0C8E 
 227 00f6 630B70C8 		.ascii	"c\013p\310!7\22146i\306H\343\00471\2721\\\211\215K)"
 227      21379134 
 227      3669C648 
 227      E3043731 
 227      BA315C89 
 228 010d 4118AC93 		.ascii	"A\030\254\223\022\021\232\320#D\251Y\003Az\247u\232"
 228      12119AD0 
 228      2344A959 
 228      03417AA7 
 228      759A
 229 011f 9E1B16A4 		.ascii	"\236\033\026\244\221\321\306\347\240ku}\334\312\340"
 229      91D1C6E7 
 229      A06B757D 
 229      DCCAE0
 230 012e 5D3403C6 		.ascii	"]4\003\306k\260)\372\2058\231C3\217\333}J#\007*0_\200"
 230      6BB029FA 
 230      85389943 
 230      338FDB7D 
 230      4A23072A 
 231 0145 EE81EE0F 		.ascii	"\356\201\356\017\305Fm\342\241\343!S\331H\3669`\325"
 231      C5466DE2 
 231      A1E32153 
 231      D948F639 
 231      60D5
 232 0157 54740BB0 		.ascii	"Tt\013\260\000]\217{\257\207\360\330m\270Eh#\260\012"
 232      005D8F7B 
 232      AF87F0D8 
 232      6DB84568 
 232      23B00A
 233 016a D915EB3A 		.ascii	"\331\025\353:\206(\327C\374\231\224\222\244\253Z\306"
 233      8628D743 
 233      FC999492 
 233      A4AB5AC6 
ARM GAS  /tmp/ccPF9ufL.s 			page 18


 234 017a 78C488D5 		.ascii	"x\304\210\325\214\263\320\263V8\026\271%\034T\345b\300"
 234      8CB3D0B3 
 234      563816B9 
 234      251C54E5 
 234      62C0
 235 018c 432E9377 		.ascii	"C.\223w\242\206\275\351\233G1$\012\033\276_\237C\213"
 235      A286BDE9 
 235      9B473124 
 235      0A1BBE5F 
 235      9F438B
 236 019f 4172AF7E 		.ascii	"Ar\257~y\230P\261\224G\276TxP\353\260\350\342S\221\212"
 236      799850B1 
 236      9447BE54 
 236      7850EBB0 
 236      E8E25391 
 237 01b4 7A4FD55D 		.ascii	"zO\325]\307\220E\025\032\005[\020b?\265S\327\231$;O"
 237      C7904515 
 237      1A055B10 
 237      623FB553 
 237      D799243B 
 238 01c9 A505E5C2 		.ascii	"\245\005\345\302V\304R\342\010\232\274L\344\031|@\014"
 238      56C452E2 
 238      089ABC4C 
 238      E4197C40 
 238      0C
 239 01da BF36357E 		.ascii	"\27765~k:?{\245\306\320\212\014\235<\3515\334\331NF"
 239      6B3A3F7B 
 239      A5C6D08A 
 239      0C9D3CE9 
 239      35DCD94E 
 240 01ef CF870BA3 		.ascii	"\317\207\013\2433\200i\002\320\033\022\024)\354'\223"
 240      33806902 
 240      D01B1214 
 240      29EC2793 
 241 01ff ED900AD5 		.ascii	"\355\220\012\325\013T~\346F\350=\011\013mG\316 r\026"
 241      0B547EE6 
 241      46E83D09 
 241      0B6D47CE 
 241      207216
 242 0212 CBA31538 		.ascii	"\313\243\0258\213E\335y\376\276p\"4b^\020>\255e@\017"
 242      8B45DD79 
 242      FEBE7022 
 242      34625E10 
 242      3EAD6540 
 243 0227 4D460FD7 		.ascii	"MF\017\327\2753\265\206\313\3004Qe\245\257>\232I6\302"
 243      BD33B586 
 243      CBC03451 
 243      65A5AF3E 
 243      9A4936C2 
 244 023b 69B808D0 		.ascii	"i\270\010\320&\273i\3014\347j*\276\026\355\220\264n"
 244      26BB69C1 
 244      34E76A2A 
 244      BE16ED90 
 244      B46E
 245 024d 97B9D817 		.ascii	"\227\271\330\027\201\344\225[\335\3254\2052\211;g\343"
 245      81E4955B 
 245      DDD53485 
ARM GAS  /tmp/ccPF9ufL.s 			page 19


 245      32893B67 
 245      E3
 246 025e F54CA254 		.ascii	"\365L\242T\350\027\276\337I5\314\340}\012\341\037F\343"
 246      E817BEDF 
 246      4935CCE0 
 246      7D0AE11F 
 246      46E3
 247 0270 5BD1CCE0 		.ascii	"[\321\314\340\243\3776\032\345\277\035\215\362\237\216"
 247      A3FF361A 
 247      E5BF1D8D 
 247      F29F8E
 248 027f 469A1443 		.ascii	"F\232\024CL\026z\263{r\360pm^\343\303M\333\031\261\035"
 248      4C167AB3 
 248      7B72F070 
 248      6D5EE3C3 
 248      4DDB19B1 
 249 0294 19ED320B 		.ascii	"\031\3552\013AsoX\272\267\031|\246\334\007\016c\362"
 249      41736F58 
 249      BAB7197C 
 249      A6DC070E 
 249      63F2
 250 02a6 23B544DF 		.ascii	"#\265D\337k\031\006\327\363\301\203L\214\211\251\206"
 250      6B1906D7 
 250      F3C1834C 
 250      8C89A986 
 251 02b6 40B4D7A6 		.ascii	"@\264\327\246\016*\021\300\231XJ\310)F\262\224A4&\223"
 251      0E2A11C0 
 251      99584AC8 
 251      2946B294 
 251      41342693 
 252 02ca 29FDEB38 		.ascii	")\375\3538\337\336\221\272\224;\227\312^h\225r2\013"
 252      DFDE91BA 
 252      943B97CA 
 252      5E689572 
 252      320B
 253 02dc 71B9B776 		.ascii	"q\271\267v\\\276\330\226<\316\262m<\337\356\375\000"
 253      5CBED896 
 253      3CCEB26D 
 253      3CDFEEFD 
 253      00
 254 02ed D1CB7004 		.ascii	"\321\313p\004"
 255              		.text
 256              		.section	.gnu.lto__test_assert_time_window.cf7c3ec6308678da,"",%progbits
 257 0000 789C8D94 		.ascii	"x\234\215\224Kh\023A\030\200\377\177gc^>\012\012\"H"
 257      4B681341 
 257      1880FF7F 
 257      67635E3E 
 257      0A0A2248 
 258 0014 2DBD0A5D 		.ascii	"-\275\012]\332\036<y\020\275\010\366\242\025\364T\266"
 258      DA1E3C79 
 258      10BD08F6 
 258      A215F454 
 258      B6
 259 0025 9BD02E24 		.ascii	"\233\320.$YI\326\"xpR\337E\261\224\372\250U\261V\220"
 259      5949D622 
 259      787052DF 
 259      45B194FA 
ARM GAS  /tmp/ccPF9ufL.s 			page 20


 259      A855B156 
 260 003a DA47AA28 		.ascii	"\332G\252(Dm!\266>*\265>\320\213\026$(\342M<\210\210"
 260      446D21B6 
 260      3E2AB53E 
 260      D08B1624 
 260      28E24D3C 
 261 0050 54D67F66 		.ascii	"T\326\177f\323\230,Z\262d\376\231\311\314\377\375\317"
 261      D3982C5A 
 261      B264FE99 
 261      C9CCFFFD 
 261      CF
 262 0061 5D0514F0 		.ascii	"]\005\024\360>\0154\006}\000\037hF\037\240\322\375\002"
 262      3E0D3406 
 262      7D001F68 
 262      461FA0D2 
 262      FD02
 263 0073 201D5014 		.ascii	" \035P\024\366V\003\276\\\235\250\006\036b\250\272\177"
 263      F65603BE 
 263      5C9DA806 
 263      1E62A8BA 
 263      7F
 264 0084 AB886201 		.ascii	"\253\210b\001\010\207\024\246\342\241\275(!\031%\227"
 264      088714A6 
 264      E2A1BD28 
 264      21192597 
 265 0094 779CB12B 		.ascii	"w\234\261+]w&pH\251b\030GPI\240\217\204\342\007\023"
 265      5D772670 
 265      48A96218 
 265      475049A0 
 265      8F84E207 
 266 00a9 21400283 		.ascii	"!@\002\203$\224\220\020a\022\2144}p\204\363\356\032"
 266      24949010 
 266      61128C34 
 266      7D7084F3 
 266      EE1A
 267 00bb 0043929A 		.ascii	"\000C\222\232I\012\003\273Q\0213\233\203\251\367\013"
 267      490A03BB 
 267      5111339B 
 267      83A9F70B 
 268 00cb 2F5FF404 		.ascii	"/_\364\004\213\367\334E.sz\236\261\342n\264\367\362"
 268      8BF7DC45 
 268      2E737A9E 
 268      B1E26EB4 
 268      F7F2
 269 00dd 8AE266E8 		.ascii	"\212\342f\350\334\373\325X\334\315>\377H\321\3518@\301"
 269      DCFBD558 
 269      DCCD3EFF 
 269      48D1E938 
 269      40C1
 270 00ef 19883414 		.ascii	"\031\2104\024\032\214\206*\014\266\241\177#\334\344"
 270      1A8C862A 
 270      0CB6A17F 
 270      23DCE4
 271 00fe 47D279E7 		.ascii	"G\322y\347{\357v\023\325~\270\230\356\346U&\372\366"
 271      7BEF7613 
 271      D57EB898 
 271      EEE65526 
ARM GAS  /tmp/ccPF9ufL.s 			page 21


 271      FAF6
 272 0110 A089CB38 		.ascii	"\240\211\3138=*\310\245\214\264U\270\251\343 \321\350"
 272      3D2AC8A5 
 272      8CB455B8 
 272      A9E320D1 
 272      E8
 273 0121 9983CEAF 		.ascii	"\231\203\316\257\207W\352x\215\266m\030 \030\3003\350"
 273      8757EA78 
 273      8DB66D18 
 273      2018C033 
 273      E8
 274 0132 FCD6F326 		.ascii	"\374\326\363&\213\256\311Z\030\340\274'\327\3375\215"
 274      8BAEC95A 
 274      18E0BC27 
 274      D7DF358D 
 275 0142 BC8BA7BF 		.ascii	"\274\213\247\2779\316*\312\203\002S\322\025\011\366"
 275      39CE2ACA 
 275      830253D2 
 275      1509F6
 276 0151 57C929E0 		.ascii	"W\311)\340\251\015\361$,\337\3678\2744\353i\005,V!k"
 276      A90DF124 
 276      2CDFF738 
 276      BC34EB69 
 276      052C5621 
 277 0166 AE02962A 		.ascii	"\256\002\226*Y\344\235\013\311\237\235\375\275nd\234"
 277      59E49D0B 
 277      C99F9DFD 
 277      BD6E649C 
 278 0176 F3A339FE 		.ascii	"\363\2439\376\323A\207\021H\307\2332\317\225\004X\004"
 278      D3418711 
 278      48C79B32 
 278      CF950458 
 278      04
 279 0187 7162F8AE 		.ascii	"qb\370\256\362\005\247\200\030\251\000\301\226F\214"
 279      F205A780 
 279      18A900C1 
 279      96468C
 280 0196 55805045 		.ascii	"U\200PE\035\017\237\234\316\364\236\312\204\274}6|\316"
 280      1D0F9F9C 
 280      CEF49ECA 
 280      84BC7D36 
 280      7CCE
 281 01a8 595DAFE3 		.ascii	"Y]\257\343-\254\245\252\217K\231!Y\326^:\216\312\203"
 281      2DACA5AA 
 281      8F4B9921 
 281      59D65E3A 
 281      8ECA83
 282 01bb 612987E4 		.ascii	"a)\207\344\361b\303\211\261\314\265\023\224\035\302"
 282      F162C389 
 282      B1CCB513 
 282      941DC2
 283 01ca 4AACADD5 		.ascii	"J\254\255\325\361\266\354\234\020y\261\030\313\277\232"
 283      F1B6EC9C 
 283      1079B118 
 283      CBBF9A
 284 01d9 E701F263 		.ascii	"\347\001\362c\213Eb\012\274.)R\300\215\012\313\243\212"
 284      8B45620A 
ARM GAS  /tmp/ccPF9ufL.s 			page 22


 284      BC2E2952 
 284      C08D0ACB 
 284      A38A
 285 01eb C0276ADC 		.ascii	"\300'j\334\374\371\256'\233HC\332\016\271\306\340\277"
 285      FCF9AE27 
 285      9B4843DA 
 285      0EB9C6E0 
 285      BF
 286 01fc 466691F2 		.ascii	"Ff\221\362W0\022T`\276\304H\215kD\365\246\216p3\360"
 286      57301254 
 286      60BEC448 
 286      8D6B44F5 
 286      A68E7033 
 287 0211 E8F3C357 		.ascii	"\350\363\303W~O\336\370\227^\246cV&\344nYB\374\305d"
 287      7E4FDEF8 
 287      975EA663 
 287      5626E46E 
 287      5942FCC5 
 288 0226 84FE9276 		.ascii	"\204\376\222vS\354o5VZ\311\334\344\3612\207t\274WR\313"
 288      53EC6F35 
 288      565AC9DC 
 288      E4F13287 
 288      74BC5752 
 289 023b 251CA277 		.ascii	"%\034\242w2{\341G\216y=\272q\206\0125Q\360\345\276\364"
 289      327BE147 
 289      8E793DBA 
 289      71860A35 
 289      51F0E5BE 
 290 0250 252094C4 		.ascii	"% \224\304\013\317\305\013\317\016\302/~B\254Bq\371"
 290      0BCFC50B 
 290      CF0EC22F 
 290      7E42AC42 
 290      71F9
 291 0262 6D12265C 		.ascii	"m\022&\\'\305\212\211\024\013x\226\340:N\022\341\337"
 291      27C58A89 
 291      140B7896 
 291      E03A4E12 
 291      E1DF
 292 0274 AAEA7F55 		.ascii	"\252\352\177Ugg:<\212\301\242b8.\213#\256\207\377\006"
 292      67673A3C 
 292      8AC1A262 
 292      382E8B23 
 292      AE87FF06 
 293 0288 E3264795 		.ascii	"\343&G\225\337\302\327\220\316\367E\335<\266\271\227"
 293      DFC2D790 
 293      CEF745DD 
 293      3CB6B997 
 294 0298 DE4158F2 		.ascii	"\336AX\362\001\224\353\233\013\226\330\245\3115\342"
 294      0194EB9B 
 294      0B96D8A5 
 294      C935E2
 295 02a7 438A4249 		.ascii	"C\212BI4\373\372\272:\315\375\331\321\224\255\305\314"
 295      34FBFABA 
 295      3ACDFDD9 
 295      D194ADC5 
 295      CC
 296 02b8 56CD686F 		.ascii	"V\315ho\021\353:\003\032\213\207VJk\327c\332>+i\247"
ARM GAS  /tmp/ccPF9ufL.s 			page 23


 296      11EB3A03 
 296      1A8B8756 
 296      4A6BD763 
 296      DA3E2B69 
 297 02cd B45DCD4D 		.ascii	"\264]\315M\215\015\332\216\035\333\264\346\355M\035"
 297      8D0DDA8E 
 297      1DDBB4E6 
 297      ED4D1D
 298 02dc F5E2A425 		.ascii	"\365\342\244%e\267\304b\221\272v\320Ju\014+\036\267"
 298      65B7C462 
 298      91BA76D0 
 298      4A750C2B 
 298      1EB7
 299 02ee 1205B52D 		.ascii	"\022\005\265-;\233\2666\035 \274a%\243-\266\031\217"
 299      3B9BB636 
 299      1D20BC61 
 299      25A32DB6 
 299      198F
 300 0300 26E97E75 		.ascii	"&\351~u\351\375\244\255\231\011#\266?\022\245k\0356"
 300      E9FDA4AD 
 300      990923B6 
 300      3F12A56B 
 300      1D36
 301 0312 1D6FF0BA 		.ascii	"\035o\360\272`\245H\320=1\323\271*8\276\224\255'm\026"
 301      60A548D0 
 301      3D31D3B9 
 301      2A38BE94 
 301      AD276D16 
 302 0326 4D448286 		.ascii	"MD\202\206\225\210\230\266i%X<\325\366\007\015\001\252"
 302      958898B6 
 302      6925583C 
 302      D5F6070D 
 302      01AA
 303 0338 A0       		.ascii	"\240"
 304              		.text
 305              		.section	.gnu.lto_test_printn.cf7c3ec6308678da,"",%progbits
 306 0000 789C8554 		.ascii	"x\234\205TKH\224Q\024>\347\336\371\037\363\317\350\350"
 306      4B489451 
 306      143EE7DE 
 306      F91FF3CF 
 306      E8E8
 307 0012 A8238690 		.ascii	"\250#\206\220\010m\024\306\2406-\244u{\205j#:\3258\220"
 307      086D14C6 
 307      A0362DA4 
 307      757B856A 
 307      233AD538 
 308 0027 206514B4 		.ascii	" e\024\264\360:3\201\250\301 D\257\215\026\025\265\310"
 308      F03A3381 
 308      A8C12044 
 308      AF8D1615 
 308      B5C8
 309 0039 45BB5633 		.ascii	"E\273V3!4\212\026-\304\244E\266\210 \005\027\021\275"
 309      21348A16 
 309      2DC4A445 
 309      B6882005 
 309      1711BD
 310 004c A0E99CFF 		.ascii	"\240\351\234\377\376w\306L\350\342\3343\367\234\357"
ARM GAS  /tmp/ccPF9ufL.s 			page 24


 310      FE77C64C 
 310      E8E2DC33 
 310      F79CEF
 311 005b 3BEF5180 		.ascii	";\357Q\200\200\275\3472}>\207\000zHb\004P\024^\001L"
 311      80BDE732 
 311      7D3E8700 
 311      7A486204 
 311      50145E01 
 312 0070 B842846E 		.ascii	"\270B\204n6\200\362\344\217^PQ\2116\2531\204\236/-\375"
 312      3680F2E4 
 312      8F5E5051 
 312      8936AB31 
 312      849E2F2D 
 313 0085 2EB9B6B0 		.ascii	".\271\266\260f^\002\341\234\274C8\007\303\276\335\325"
 313      665E02E1 
 313      9CBC4338 
 313      07C3BEDD 
 313      D5
 314 0096 B2E48685 		.ascii	"\262\344\206\205\253\355\236o\367\020Y\017\010\343B"
 314      ABED9E6F 
 314      F710590F 
 314      08E342
 315 00a5 862CDB71 		.ascii	"\206,\333q\303\036\216\237BNDv\302\274R\263\233\327"
 315      C31E8E9F 
 315      424E4476 
 315      C2BC52B3 
 315      9BD7
 316 00b7 9E3E6E9B 		.ascii	"\236>n\233\232\313\026\324\357J\0053H)\037DH!\234\244"
 316      9ACB16D4 
 316      EF4A0533 
 316      48291F44 
 316      48219CA4 
 317 00cb 0776F842 		.ascii	"\007v\370B\204\376\256\201\231\305B\361\335\324\014"
 317      84FEAE81 
 317      99C542F1 
 317      DDD40C
 318 00da AA1A530A 		.ascii	"\252\032S\012\350\2521\225\226\242\341_\252\232Ukg\312"
 318      E8AA3195 
 318      96A2E15F 
 318      AA9A556B 
 318      67CA
 319 00ec 2A5FAC54 		.ascii	"*_\254T\216g0$ \371\277\200\013\242\270Y\251\254\254"
 319      8E673024 
 319      20F9BF80 
 319      0BA2B859 
 319      A9ACAC
 320 00ff 7DFF50C6 		.ascii	"}\377P\306\370\001\204\021Ns\020\037`'\310@\332HJ/x"
 320      F8018411 
 320      4E73101F 
 320      6027C840 
 320      DA484A2F 
 321 0114 4418110D 		.ascii	"D\030\021\015\036u\220A\253\236.;\306W#\333\342d\233"
 321      1E759041 
 321      AB9E2E3B 
 321      C65723DB 
 321      E2649B
 322 0127 275B1369 		.ascii	"'[\023i\234f\272\334\226\000\235\010d+c)\264\005y\245"
ARM GAS  /tmp/ccPF9ufL.s 			page 25


 322      9C66BADC 
 322      96009D08 
 322      642B6329 
 322      B40579A5 
 323 013b 0A1D8378 		.ascii	"\012\035\203x\237\224\332\004\234-\235>\272w\\\350G"
 323      9F94DA04 
 323      9C2D9D3E 
 323      BA775CE8 
 323      47
 324 014c 41429661 		.ascii	"AB\226a\361S\351\375\224\034\304GhA\032m.\304\332]E"
 324      F153E9FD 
 324      941CC447 
 324      68411A6D 
 324      2EC4DA5D 
 325 0161 3F4AC83B 		.ascii	"?J\310;\022`\003\"d\027\270\001\336U\370\251\224*~]"
 325      12600322 
 325      6417B801 
 325      DE55F8A9 
 325      942A7E5D 
 326 0175 8E6630AC 		.ascii	"\216f0\254\203\320\021W\030\035\202-\224K\220u\265\313"
 326      83D01157 
 326      181D822D 
 326      944B9075 
 326      B5CB
 327 0187 11C434A7 		.ascii	"\021\3044\247\364\032r\201\006\200\351\223\252!\203"
 327      F41A7281 
 327      0680E993 
 327      AA2183
 328 0196 5E0AFD9C 		.ascii	"^\012\375\234(\353\210\211f\001\355\202\\\205\334t\356"
 328      28EB8889 
 328      6601ED82 
 328      5C85DC74 
 328      EE
 329 01a7 CB8D3693 		.ascii	"\313\2156\223W4\215\302\3571\343\227@h\275\256\214\254"
 329      57348DC2 
 329      EF31E397 
 329      4068BDAE 
 329      8CAC
 330 01b9 0044B89D 		.ascii	"\000D\270\235{\210\006_\227F\364K\361\200m\331\255\334"
 330      7B88065F 
 330      9746F44B 
 330      F1806DD9 
 330      ADDC
 331 01cb 0563AA27 		.ascii	"\005c\252'\253\217\237\254V\035#-\243\355\303\032}B"
 331      AB8F9FAC 
 331      561D232D 
 331      A3EDC31A 
 331      7D42
 332 01dd 1BEEC29D 		.ascii	"\033\356\302\235\011\2523F\206 \274\2360\021|\007\327"
 332      09AA3346 
 332      8620BC9E 
 332      30117C07 
 332      D7
 333 01ee 73F78471 		.ascii	"s\367\204q\321\270;`5A\032\032\231Li6\320^\373\275\201"
 333      D1B83B60 
 333      35411A1A 
 333      994C6936 
ARM GAS  /tmp/ccPF9ufL.s 			page 26


 333      D05EFBBD 
 334 0203 6AEA82D1 		.ascii	"j\352\202\321\254\360\241T]\031\362\333\245o\313u\306"
 334      ACF0A154 
 334      5D19F2DB 
 334      A56FCB75 
 334      C6
 335 0214 31EE99C8 		.ascii	"1\356\231\310\006PC#\222\256Fke}Nl\200H\243\307\357"
 335      06504323 
 335      92AE466B 
 335      657D4E6C 
 335      8048A3C7 
 336 0229 A8754B72 		.ascii	"\250uKr\030\307\314\253\205\334\333\310*7hjv\351\355"
 336      18C7CCAB 
 336      85DCDBC8 
 336      2A37686A 
 336      76E9ED
 337 023c C231E339 		.ascii	"\3021\3439\256\353\2439\324&\022\035\341\214\374u\216"
 337      AEEBA339 
 337      D426121D 
 337      E18CFC75 
 337      8E
 338 024d 06018975 		.ascii	"\006\001\211u\332P\232\272\241\213v\217\210\004\240"
 338      DA509ABA 
 338      A18B768F 
 338      8804A0
 339 025c 1EC719A8 		.ascii	"\036\307\031\250aC\010\373\020\232\273\341\011\373\255"
 339      614308FB 
 339      109ABBE1 
 339      09FBAD
 340 026b D7146A74 		.ascii	"\327\024jt\023S\234\200\202UJn\272:\215D\032\245?\353"
 340      13539C80 
 340      82554A6E 
 340      BA3A8D44 
 340      1AA53FEB 
 341 027f 0A9DD87E 		.ascii	"\012\235\330~\363N\370A\236[\206\321\252\275\323\224"
 341      F34EF841 
 341      9E5B86D1 
 341      AABDD394 
 342 028f 12B529F1 		.ascii	"\022\265)\361\316Yf\345(\023\276\342\204\315`\203\031"
 342      CE5966E5 
 342      2813BEE2 
 342      84CD6083 
 342      19
 343 02a0 48789F81 		.ascii	"Hx\237\201H\036\301\342\307\322/3\002\275\354\252w\367"
 343      481EC1E2 
 343      C7D22F33 
 343      02BDECAA 
 343      77F7
 344 02b2 AAFB3033 		.ascii	"\252\37303\017\231\306\026\207\372\237p\267\327\333"
 344      0F99C616 
 344      87FA9F70 
 344      B7D7DB
 345 02c1 D9ADC7BF 		.ascii	"\331\255\307\277\254Ux\261UM\233iG\341\231\232\344\377"
 345      AC5578B1 
 345      554D9B69 
 345      47E1999A 
 345      E4FF
ARM GAS  /tmp/ccPF9ufL.s 			page 27


 346 02d3 38447A03 		.ascii	"8Dz\003\023\233\345C&9}\372\250\033;.w\277=\231\354"
 346      139BE543 
 346      26397DFA 
 346      A81B3B2E 
 346      77BF3D99 
 347 02e8 D17F6367 		.ascii	"\321\177cg/\216\365\234\317\014\365\244\206\007\370"
 347      2F8EF59C 
 347      CF0CF5A4 
 347      8607F8
 348 02f7 7B32051E 		.ascii	"{2\005\036\313\201\324\360h\362\210\034\272t\016G\377"
 348      CB81D4F0 
 348      68F2881C 
 348      BA740E47 
 348      FF
 349 0308 00878F22 		.ascii	"\000\207\217\","
 349      2C
 350              		.text
 351              		.section	.gnu.lto_test_print.cf7c3ec6308678da,"",%progbits
 352 0000 789C6D52 		.ascii	"x\234mR1K\\A\020\376\276\335\267\357\275;\015$\301F"
 352      314B5C41 
 352      10FEBEDD 
 352      B7EFBD3B 
 352      0D24C146 
 353 0014 11948085 		.ascii	"\021\224\200\205\012wE\260\314\2778A\323\210\036r\036"
 353      0A7745B0 
 353      CCBF3841 
 353      D3881E72 
 353      1E
 354 0025 2804B44B 		.ascii	"(\004\264K\341\336y\202\250\305a!!ZD\254\022\004K!\225"
 354      E1DE7982 
 354      A8C56121 
 354      215A44AC 
 354      12044B21 
 355 003a 567A9028 		.ascii	"Vz\220(\226\"\302a-\244O\221\313\314\355\235!\342\362"
 355      9622C261 
 355      2DA44F91 
 355      CBCCED9D 
 355      21E2F2
 356 004d DECCECCC 		.ascii	"\336\314\354\314|\337|o\367\031\030<]\357\344}%\351"
 356      7CDF7C6F 
 356      F719183C 
 356      5DEFE47D 
 356      25E9
 357 005f 51F18C41 		.ascii	"Q\361\214AS\277\004*\251a\024\002\033\202\26342v\373"
 357      53BF042A 
 357      A9611402 
 357      1B82B334 
 357      3276FB
 358 0072 1CF05957 		.ascii	"\034\360YWK\340{\035\251y\020\253\306F\216\253\323T"
 358      4BE07B1D 
 358      A97910AB 
 358      C6468EAB 
 358      D354
 359 0084 3ABEC181 		.ascii	":\276\301\201\367;\315\365\223\257\375\233_\252u\377"
 359      F73BCDF5 
 359      93AFFD9B 
 359      5FAA75FF 
ARM GAS  /tmp/ccPF9ufL.s 			page 28


 360 0094 A7D56299 		.ascii	"\247\325b\2312x\210(\022S\262\341p\333\231\350\177%"
 360      32788828 
 360      1253B2E1 
 360      70DB99E8 
 360      7F25
 361 00a6 C7E6B4D9 		.ascii	"\307\346\264\331j\355\337\036\335\337\361u\017\261D"
 361      6AEDDF1E 
 361      DDDFF175 
 361      0FB144
 362 00b5 588A7128 		.ascii	"X\212q(\323\306\230\345\201\220'\262\211R1.\243\015"
 362      D3C698E5 
 362      819027B2 
 362      8952312E 
 362      A30D
 363 00c7 B21C6ADE 		.ascii	"\262\034j\336\327\207\241\354\262\012bE`\201F\234\235"
 363      D787A1EC 
 363      B20A6245 
 363      6081469C 
 363      9D
 364 00d8 A485A8B6 		.ascii	"\244\205\250\266?Qm|:\031\235\345!\035J\214\367\360"
 364      3F516D7C 
 364      3A199DE5 
 364      211D4A8C 
 364      F7F0
 365 00ea B9E2FD4B 		.ascii	"\271\342\375K\021\366\021\277\375\206F\361\022\225@"
 365      11F611BF 
 365      FD8646F1 
 365      129540
 366 00f9 95C51D45 		.ascii	"\225\305\035E\202z\337\205$\343\030\223\321\002\224"
 366      827ADF85 
 366      24E31893 
 366      D10294
 367 0108 864428B4 		.ascii	"\206D(\2641\264\315\021\317\000\322q|S\3364@2B\241\220"
 367      31B4CD11 
 367      CF00D271 
 367      7C53DE34 
 367      403242A1 
 368 011d A803E123 		.ascii	"\250\003\341#dm\313v1\322\304\366\321h\265\001\023\362"
 368      646DCB76 
 368      31D2C4F6 
 368      D168B501 
 368      13F2
 369 012f F29D5202 		.ascii	"\362\235R\002\256\340B\002J\257&.\321\225\231\015L\223"
 369      AEE04202 
 369      4AAF262E 
 369      D195990D 
 369      4C93
 370 0141 C22D5762 		.ascii	"\302-Wb\033\250J\261\015b[\322\367\365_\273\003\335"
 370      1BA84AB1 
 370      0D625BD2 
 370      F7F55FBB 
 370      03DD
 371 0153 112EC8E9 		.ascii	"\021.\310\351\351L\352\355\310\270@\355\241\362\366"
 371      E94CEAED 
 371      C8B840ED 
 371      A1F2F6
 372 0162 B1494B2F 		.ascii	"\261IK/\376]\315\015X\2425b2\366\307m\237\316rz\274"
ARM GAS  /tmp/ccPF9ufL.s 			page 29


 372      FE5DCD0D 
 372      58A23562 
 372      32F6C76D 
 372      9FCE727A 
 373 0177 D7A834EF 		.ascii	"\327\2504\357F\272\242\302*\310\324Z\242?\332`.\227"
 373      46BAA2C2 
 373      2AC8D45A 
 373      A23FDA60 
 373      2E97
 374 0189 0FCFCAFC 		.ascii	"\017\317\312\374\362J~\261<\227/.\314h\234+\"\253~\246"
 374      F24A7EB1 
 374      3C972F2E 
 374      CC689C2B 
 374      22AB7EA6 
 375 019d B8F02137 		.ascii	"\270\360!7\361\027D\377z\307"
 375      F11744FF 
 375      7AC7
 376              		.text
 377              		.section	.gnu.lto_test_println.cf7c3ec6308678da,"",%progbits
 378 0000 789C8D53 		.ascii	"x\234\215S\315k\023Q\020\237y\037\233\315&\261\261z"
 378      CD6B1351 
 378      109F791F 
 378      9BCD26B1 
 378      B17A
 379 0012 B0E24729 		.ascii	"\260\342G)xh\013\311A\212 \010\376\021-h/%\015\262]"
 379      78680BC9 
 379      418A2008 
 379      FE112D68 
 379      2F250DB2 
 380 0027 3050686F 		.ascii	"0Pho\036\372\022#\210\365\020z\320\252\010\006\251\250"
 380      1EFA1223 
 380      88F5107A 
 380      D0AA0806 
 380      A9A8
 381 0039 172F053F 		.ascii	"\027/\005?\016\245\2364V-\036U\012A\257\005=\347\340"
 381      0EA59E34 
 381      562D1E55 
 381      0A41AF05 
 381      3DE7E0
 382 004c 3AB36F77 		.ascii	":\263ow\373\341\241>v\337\233\2357\277\231\337\374\336"
 382      FBE1A13E 
 382      76DF9B9D 
 382      37BF99DF 
 382      FCDE
 383 005e 5B0102F6 		.ascii	"[\001\002\366\217\013\364\256J\273\242\003(Z\237\001"
 383      8F0BF4AE 
 383      4ABBA203 
 383      285A9F01 
 384 006e EAAE4065 		.ascii	"\352\256@e\015i\215\267\256\022\362\366;\000\343\351"
 384      0D698DB7 
 384      AE12F2F6 
 384      3B00E3E9 
 385 007e 66064C5E 		.ascii	"f\006L^#\262\037\020\026\204T\032\027.#\247\023C\320"
 385      23B21F10 
 385      1684541A 
 385      172E23A7 
 385      1343D0
ARM GAS  /tmp/ccPF9ufL.s 			page 30


 386 0091 3666A9BB 		.ascii	"6f\251\273\262vo\340\326\243F\313\374\011C\014\220\012"
 386      B2766FE0 
 386      D6A346CB 
 386      FC09430C 
 386      900A
 387 00a3 9F46A822 		.ascii	"\237F\250\"\\\242\017\034\214\026\241\3662\261\310\365"
 387      5CA20F1C 
 387      8C16A1F6 
 387      32B1C8F5 
 388 00b3 D71B1FDA 		.ascii	"\327\033\037\332h\226L\375w\030\366E\310\221\203\220"
 388      68964CFD 
 388      7718F645 
 388      C8918390 
 389 00c3 2FC47A37 		.ascii	"/\304z7\014\267\267V\177\364\260\277(\260\206\240\240"
 389      0CB7B756 
 389      7FF4B0BF 
 389      28B086A0 
 389      A0
 390 00d4 826D1C02 		.ascii	"\202m\034\002\015\001J\207&\345\222\3471y\262\354\361"
 390      0D014A87 
 390      26E592E7 
 390      3179B2EC 
 390      F1
 391 00e5 68D239A0 		.ascii	"h\3229\240\300<O\005\372t(\221\206\2461\255A\340z4\306"
 391      C03C4F05 
 391      FA742891 
 391      86A631AD 
 391      41E07A34 
 392 00fa 69A66627 		.ascii	"i\246f'P\320\";\320pS\226[\213\033\273Hf\004\214\035"
 392      50D0223B 
 392      D0705396 
 392      5B8B1BBB 
 392      4866048C 
 393 010f 44D2C758 		.ascii	"D\322\307X\374\011\224@J\312O\320\350,\277\034NkZ\303"
 393      FC099440 
 393      4ACA4FD0 
 393      E82CBF1C 
 393      4E6B5AC3 
 394 0123 FCBC7BB2 		.ascii	"\374\274{\262\202O\210(\020\341\025\324\224\026-\336"
 394      824F8828 
 394      10E115D4 
 394      94162DDE 
 395 0133 7D00F7EB 		.ascii	"}\000\367\353\306\024I\224k\32037\331rk\321.\027t\343"
 395      C6144994 
 395      6BD03337 
 395      D9726BD1 
 395      2E1774E3 
 396 0147 4294F71B 		.ascii	"B\224\367\033\345\255\340S\002\373\230\035\205\021\352"
 396      E5ADE053 
 396      02FB981D 
 396      8511EA
 397 0156 38C56629 		.ascii	"8\305f)\021\207\333\340i\214\352<\243P\013\235Lp\336"
 397      1187DBE0 
 397      698CEA3C 
 397      A3500B9D 
 397      4C70DE
 398 0169 283CE778 		.ascii	"(<\347x/E\346(\031#e\214\304=\310\353\2132\201\346}"
ARM GAS  /tmp/ccPF9ufL.s 			page 31


 398      2F45E628 
 398      1923658C 
 398      C43DC8EB 
 398      8B3281E6 
 399 017e CC451270 		.ascii	"\314E\022p\362\016\010\353\267]\321.\300&h\353\343\266"
 399      F20E08EB 
 399      B75DD12E 
 399      C02668EB 
 399      E3B6
 400 0190 BCA8371F 		.ascii	"\274\2507\037\013\001oY\205\024\320\345\212\025Op\271"
 400      0B016F59 
 400      8514D0E5 
 400      8A154F70 
 400      B9
 401 01a1 88DF9B1B 		.ascii	"\210\337\233\033\277\356\034O\012\025Rn\205\270d&\026"
 401      BFEE1C4F 
 401      0A15526E 
 401      85B86426 
 401      16
 402 01b2 E13D34B7 		.ascii	"\341=4\267\353g\3238\336:\264s\026_\201z\021\002\211"
 402      EB67D338 
 402      DE3AB473 
 402      165F817A 
 402      110289
 403 01c5 8CFCF8FD 		.ascii	"\214\374\370\375(W\324|\304|$\257\326\006\254\356>\252"
 403      2857D47C 
 403      C47C24AF 
 403      D606ACEE 
 403      3EAA
 404 01d7 FF167C32 		.ascii	"\377\026|2\201\350Tm\214\244V\373\244\376\007\340\304"
 404      81E8546D 
 404      8CA456FB 
 404      A4FE07E0 
 404      C4
 405 01e8 32F75908 		.ascii	"2\367Y\010\361\322\2735N~\330Mp,\202\305rxRL\351X\200"
 405      F1D2BB35 
 405      4E7ED84D 
 405      702C82C5 
 405      7278524C 
 406 01ff C55370FE 		.ascii	"\305Sp\376\241Y\276\030\340\341\370\302D\344\372\005"
 406      A159BE18 
 406      E0E1F8C2 
 406      44E4FA05 
 407 020f DDE92300 		.ascii	"\335\351#\000_\240\336\355\235I\260v\214S\013\315\014"
 407      5FA0DEED 
 407      9D49B076 
 407      8C530BCD 
 407      0C
 408 0220 A73E512A 		.ascii	"\247>Q*\225\3553\177en\276|5\230.Wg\246\330.U\301\343"
 408      95ED337F 
 408      656EBE7C 
 408      35982E57 
 408      67A6D82E 
 409 0237 75AA3A33 		.ascii	"u\252:3[:\267c\216\251\332\234?+\013\036\374\005B\250"
 409      5B3AB763 
 409      8EA9DA9C 
 409      3F2B0B1E 
ARM GAS  /tmp/ccPF9ufL.s 			page 32


 409      FC0542A8 
 410 024b DA26     		.ascii	"\332&"
 411              		.text
 412              		.section	.gnu.lto_test_emit_token.cf7c3ec6308678da,"",%progbits
 413 0000 789C8D52 		.ascii	"x\234\215RMh\023Q\020\236y\273\333\224\376`\301\223"
 413      4D681351 
 413      109E79BB 
 413      DB94FE60 
 413      C193
 414 0012 52925010 		.ascii	"R\222P\020\005m\266\365\242G\245\247\036r\351\017\352"
 414      056DB6F5 
 414      A247A5A7 
 414      1E72E90F 
 414      EA
 415 0023 296CD7B5 		.ascii	")l\327\265Y\314vK6--\036\372\222\364 \364`)\212\326"
 415      59CC764B 
 415      362D2D1E 
 415      FA92F420 
 415      F460298A 
 416 0038 5ADA2256 		.ascii	"Z\332\"V\005Q<\012\005#\2504\326\006\305\036<\250\004"
 416      05513C0A 
 416      0523A834 
 416      D606C51E 
 416      3CA804
 417 004b 8B07F120 		.ascii	"\213\007\361 \365\324\252\030\347e\223M\377\260\276"
 417      F5D4AA18 
 417      E765934D 
 417      FFB0BE
 418 005a E4EDBC9F 		.ascii	"\344\355\274\237\371f\276y\3370`\260}\034\247\231\225"
 418      F966BE79 
 418      DF3060B0 
 418      7D1CA799 
 418      95
 419 006b 0036C8A2 		.ascii	"\0006\310\242\002\310\306s\000\311j\306\244\025\025"
 419      02C8C673 
 419      00C96AC6 
 419      A41515
 420 007a 788DBCE0 		.ascii	"x\215\274\340\007^'\241\354\036\313\210b\001\010#L\222"
 420      075E27A1 
 420      EC1ECB88 
 420      62010823 
 420      4C92
 421 008c 71E41C8A 		.ascii	"q\344\034\212\030\254\011\3468\237\310\277X\315\262"
 421      18AC09E6 
 421      389FC8BF 
 421      58CDB2
 422 009b C9AB99D1 		.ascii	"\311\253\231\321Y\376\273P@4\221\362\005\020t\204\263"
 422      59FEBB50 
 422      403491F2 
 422      05107484 
 422      B3
 423 00ac B4C160D1 		.ascii	"\264\301`\3210y+\001\027\233\231\311]9\360j65\316\377"
 423      30792B01 
 423      179B99C9 
 423      5D39F06A 
 423      3635CEFF 
 424 00c0 10B4883C 		.ascii	"\020\264\210<\272+\322\302\012\364\021\313\344\013\205"
ARM GAS  /tmp/ccPF9ufL.s 			page 33


 424      BA2BD2C2 
 424      0AF411CB 
 424      E40B85
 425 00cf 85B57B9F 		.ascii	"\205\265{\237'q\177\235\014\032\316a\023(do\223\365"
 425      27717F9D 
 425      0C1ACE61 
 425      1328646F 
 425      93F5
 426 00e1 A185C259 		.ascii	"\241\205\302Y\201Q\316\307\203 \242\321\350\242\257"
 426      8151CEC7 
 426      8320A2D1 
 426      E8A2AF
 427 00f0 A8A11B99 		.ascii	"\250\241\033\231\260R\026R\325e\026\371\265\373\313"
 427      B0521652 
 427      D56516F9 
 427      B5FBCB
 428 00ff CF7022CD 		.ascii	"\317p\"\315\027\371h\206x\004L\224\030\\\330\253\004"
 428      17F96886 
 428      78044C94 
 428      185CD8AB 
 428      04
 429 0110 71265102 		.ascii	"q&Q\002\310Aj\355Cz\376\240\227\322]dV\337MIG4\234'"
 429      C8416AED 
 429      437AFEA0 
 429      97D25D64 
 429      56DF4D49 
 430 0128 56DED9AF 		.ascii	"V\336\331\257k\353\265\215\336n\343\372\307}\336f\351"
 430      6BEBB58D 
 430      DE6EE3FA 
 430      C77DDE66 
 430      E9
 431 0139 E52A29A2 		.ascii	"\345*)\242\341\035\022DG\221\235\321\224h\026\023#\375"
 431      E11D1244 
 431      47919DD1 
 431      94681613 
 431      23FD
 432 014b 3ED196C4 		.ascii	">\321\226\304\224\\E\375\360\035\247\371\215S\246\353"
 432      945C45FD 
 432      F01DA7F9 
 432      8D53A6EB 
 433 015b E0F1A9DC 		.ascii	"\340\361\251\334\377(\335+.\343eHe\337\223Zn\216^\224"
 433      FF28DD2B 
 433      2EE36548 
 433      65DF935A 
 433      6E8E5E94 
 434 016f A7E06692 		.ascii	"\247\340f\222\363\006z\370K\360\223_\026\253*\367\251"
 434      F3067AF8 
 434      4BF0935F 
 434      16AB2AF7 
 434      A9
 435 0180 45B0AA52 		.ascii	"E\260\252R\241\213\360\374K\262\336\003\271\256\374"
 435      A18BF0FC 
 435      4BB2DE03 
 435      B9AEFC
 436 018f 0CA19AE1 		.ascii	"\014\241\232\341\001\2471M\316>\013\231\000U7\354h6"
 436      01A7314D 
 436      CE3E0B99 
ARM GAS  /tmp/ccPF9ufL.s 			page 34


 436      005537EC 
 436      6836
 437 01a1 31BA89F9 		.ascii	"1\272\211\371\212*-Cz,\375\364V\240\034L\241x\305\267"
 437      8A2A2D43 
 437      7A2CFDF4 
 437      56A01C4C 
 437      A178C5B7 
 438 01b5 45975EBB 		.ascii	"E\227^\273{\361?\274zEU\004YzS\263\031\304k\211K)*\224"
 438      7BF13FBC 
 438      7A455504 
 438      597A53B3 
 438      19C46B89 
 439 01cd 1C7D650E 		.ascii	"\034}e\016\362.\332\177\315m\327^\303\273\305\247\337"
 439      F22EDA7F 
 439      CD6DD75E 
 439      C3BBC5A7 
 439      DF
 440 01de 537CF897 		.ascii	"S|\370\227\370\337\246\205\370O\266\212?S\357\337\324"
 440      F8DFA685 
 440      F84FB68A 
 440      3F53EFDF 
 440      D4
 441 01ef 9A5E17AC 		.ascii	"\232^\027\254W\272`\354uZ\251t\201\230\305ru*bg#h\370"
 441      57BA60EC 
 441      755AA974 
 441      8198C572 
 441      752A6267 
 442 0206 90161E97 		.ascii	"\220\026\036\227\262\360\032>F\277\313\363-$\363\223"
 442      B2F01A3E 
 442      46BFCBF3 
 442      2D24F393 
 443 0216 87DD70E5 		.ascii	"\207\335p\345\321E\315E\357 \\\033C!\325\375'\014'\241"
 443      D145CD45 
 443      EF205C1B 
 443      4321D5FD 
 443      270C27A1 
 444 022a C6CC1E55 		.ascii	"\306\314\036U\217F\304:\244C\255\260\221\204}\261?t"
 444      8F46C43A 
 444      A443ADB0 
 444      91847DB1 
 444      3F74
 445 023c B2AEB26E 		.ascii	"\262\256\262nmi\366P\266\243\352\266e\331}j\277\035"
 445      6D69F650 
 445      B6A3EAB6 
 445      65D97D6A 
 445      BF1D
 446 024e 4F38EAE9 		.ascii	"O8\352\351\216p[x\210b\350v\334\210\014\236\260BQP\006"
 446      8E705B78 
 446      8862E876 
 446      DC880C9E 
 446      B0425150 
 447 0263 B5D880D1 		.ascii	"\265\330\200\321\272\013\306\030J\250m\341\316\366N"
 447      BA0BC618 
 447      4AA86DE1 
 447      CEF64E
 448 0272 D5ECD363 		.ascii	"\325\354\323c\003\347\015U\267\034\323\211\364\352:"
 448      03E70D55 
ARM GAS  /tmp/ccPF9ufL.s 			page 35


 448      B71CD389 
 448      F4EA3A
 449 0281 E1029B11 		.ascii	"\341\002\233\021\361D\305'\352\014;\333\357\243Z\214"
 449      F144C527 
 449      EA0C3BDB 
 449      EFA35A8C 
 450 0291 0C7DC851 		.ascii	"\014}\310QX\272o\010wv\004{4\307\350\217\233\307\202"
 450      58BA6F08 
 450      7776047B 
 450      34C7E88F 
 450      9BC782
 451 02a4 875A80C5 		.ascii	"\207Z\200\305\301g\031\226\035\037\206\277\355\3178"
 451      C1671996 
 451      1D1F86BF 
 451      EDCF38
 452 02b3 C9       		.ascii	"\311"
 453              		.text
 454              		.section	.gnu.lto_test_emit_token_i.cf7c3ec6308678da,"",%progbits
 455 0000 789C8D52 		.ascii	"x\234\215R\277KBQ\024>\347\336\253\210\031\010MA\244"
 455      BF4B4251 
 455      143EE7DE 
 455      AB881908 
 455      4D41A4
 456 0013 B8B4D47B 		.ascii	"\270\264\324{XK\377B\273RMb\022%%\005\2715x\237\032"
 456      584BFF42 
 456      BB524D62 
 456      12252505 
 456      B935789F 
 457 0028 040D4938 		.ascii	"\004\015I8\364\003A\2116\261\266\226\006\207\206,\222"
 457      F4034189 
 457      36B1B696 
 457      0687862C 
 457      92
 458 0039 02B71609 		.ascii	"\002\267\026\011\202\240\271%\242\327\271\357\252\331"
 458      82A0B925 
 458      A2D7B9EF 
 458      AAD9
 459 0047 8FA1C37B 		.ascii	"\217\241\303{\357;\367\336\363}\347\273\207\307\200"
 459      EF3BF7DE 
 459      F37DE7BB 
 459      87C780
 460 0056 C1CF98A4 		.ascii	"\301\317\230\244\367\031\001\246\011\321\005\310\012"
 460      F71901A6 
 460      09D105C8 
 460      0A
 461 0063 4D00CBC3 		.ascii	"M\000\313\303\030o\231 \275\342b\024\244\217\243\320"
 461      186F9920 
 461      BDE26214 
 461      A48FA3D0 
 462 0073 DB025125 		.ascii	"\333\002Q%\200\220a\\`f\036\225\006\013AE\312\275\366"
 462      8090615C 
 462      60661E95 
 462      060B4145 
 462      CABDF6
 463 0086 D64B831D 		.ascii	"\326K\203\035\024\353\371\262|\267m\304$R\277\000B\002"
 463      14EBF9B2 
 463      7CB76DC4 
ARM GAS  /tmp/ccPF9ufL.s 			page 36


 463      2452BF00 
 463      4202
 464 0098 618E1618 		.ascii	"a\216\026\030t\200\211\357\0064\267\376\320\334\035"
 464      748089EF 
 464      0634B7FE 
 464      D0DC1D
 465 00a7 BE2E670B 		.ascii	"\276.g\013\362\203\250\016s\374Of\012\277\250\247\254"
 465      F283A80E 
 465      73FC4F66 
 465      0ABFA8A7 
 465      AC
 466 00b8 DEB6EDEA 		.ascii	"\336\266\355\352\353\331c\015\207<\034\342X\301\020"
 466      EBD9630D 
 466      873C1CE2 
 466      58C110
 467 00c7 08C26342 		.ascii	"\010\302cB7\246P\025\273 /e!\010J\215\"B_u\207(2\205"
 467      37A65015 
 467      BB202F65 
 467      21084A8D 
 467      22425F75 
 468 00df FC16B28D 		.ascii	"\374\026\262\215}2\036\307\023\272\377\022\362#8\264"
 468      7D321EC7 
 468      13BAFF12 
 468      F22338B4 
 469 00ef A4F49387 		.ascii	"\244\364\223\207Mx\223\333*\343\272\2532\301;\275\257"
 469      4D7893DB 
 469      2AE3BAAB 
 469      32C13BBD 
 469      AF
 470 0100 E0F2C91A 		.ascii	"\340\362\311\032\354\221t\251\234%\326\004T%E\211\212"
 470      EC9174A9 
 470      9C25D604 
 470      54254589 
 470      8A
 471 0111 450A9922 		.ascii	"E\012\231\"\271\374\277\346\256\"Jj-\223\034\344vr\347"
 471      B9FCBFE6 
 471      AE224A6A 
 471      2D931CE4 
 471      7672E7
 472 0124 A540574C 		.ascii	"\245@WL\220\236s_\325\224\354\315\350\203\377\370\""
 472      909E735F 
 472      D594ECCD 
 472      E883FFF8 
 472      22
 473 0135 B243B9B9 		.ascii	"\262C\271\271\363\366\223\344@\262\247\012\235Bw\327"
 473      F3F693E4 
 473      40B2A70A 
 473      9D4277D7 
 474 0145 8370C670 		.ascii	"\203p\306p\017V\2736\246I\335\210\320\374\350L\3754"
 474      0F56BB36 
 474      A649DD88 
 474      D0FCE84C 
 474      FD34
 475 0157 238661EA 		.ascii	"#\206a\352'\275\270\2216W\223\013fb9\246r#\001>\205"
 475      27BDB891 
 475      3657930B 
 475      666239A6 
ARM GAS  /tmp/ccPF9ufL.s 			page 37


 475      7223013E 
 476 016c B1F4DACA 		.ascii	"\261\364\332\312\272\021\016\367/\246>\001\005\350\211"
 476      BA110EF7 
 476      2FA63E01 
 476      05E889
 477 017b E8       		.ascii	"\350"
 478              		.text
 479              		.section	.gnu.lto_test_execute.cf7c3ec6308678da,"",%progbits
 480 0000 789CED9A 		.ascii	"x\234\355\232{t\024\325\035\307\357ov\223l\036\020\036"
 480      7B7414D5 
 480      1DC7EF6F 
 480      76936C1E 
 480      101E
 481 0012 7943364B 		.ascii	"yC6K\002\344E6\331 B\243E\213\202\202\200H\022\004\004"
 481      02E44536 
 481      D92042A3 
 481      458B8282 
 481      80481204 
 482 0027 7113C264 		.ascii	"q\023\302d1\017$\001\005\037,$ \204\240H+\240\3267\212"
 482      310F2401 
 482      051F2C24 
 482      2084A048 
 482      2BA0D637 
 483 003c E8515450 		.ascii	"\350QTP@@\022\255UJ\201jm\253\200\247\361U\245\307\243"
 483      404012AD 
 483      554A816A 
 483      6DAB80A7 
 483      F155A5C7 
 484 0051 1EC1737C 		.ascii	"\036\301s|\325\364w\357\357\316\354\314\316$M\360\237"
 484      D5F477EF 
 484      EFCEECCC 
 484      CE244DF0 
 484      9F
 485 0062 FE410E67 		.ascii	"\376A\016g\347>\276\277\337\235\373\273\237\337\235"
 485      E73EBEBF 
 485      DF9DFBBB 
 485      9FDF9D
 486 0071 BBB3284C 		.ascii	"\273\263(La\341\177\345\33041\237\261=\300\030\214d"
 486      61E17FE5 
 486      D834319F 
 486      B13DC018 
 486      8C64
 487 0083 A06C3CC6 		.ascii	"\240l<\306\330J\227\002N*8\250\320\356r*\216\3267\031"
 487      D84A9702 
 487      4E2A38A8 
 487      D0EE722A 
 487      8ED63719 
 488 0097 0BC64434 		.ascii	"\013\306D4G\261`\\\004D\221 \222\012\355\256(%\222\004"
 488      47B1605C 
 488      04449120 
 488      920AEDAE 
 488      28259204 
 489 00ab 2E217041 		.ascii	".!pA\014\011\242\251\320\356\212Q\242I\020+\004\261"
 489      0C09A2A9 
 489      D0EE8A51 
 489      A249102B 
 489      04B1
ARM GAS  /tmp/ccPF9ufL.s 			page 38


 490 00bd 90478238 		.ascii	"\220G\2028\350K\205>Thw\365U\372\2202^(\343\241?\011"
 490      E84B853E 
 490      546877F5 
 490      55FA9032 
 490      5E28E3A1 
 491 00d3 FA51A1DD 		.ascii	"\372Q\241\335\325_\351G\202\001B0\000\022H0\220\012"
 491      D55FE947 
 491      82014230 
 491      00124830 
 491      900A
 492 00e5 EDAE0465 		.ascii	"\355\256\004e \011\022\205 \021\222I\220D\205vW\262"
 492      20091285 
 492      20119249 
 492      90448576 
 492      57B2
 493 00f7 92448214 		.ascii	"\222D\202\024!HQR\017\214\306\332\360w\223\260\226\012"
 493      21485152 
 493      0F8CC6DA 
 493      F07793B0 
 493      960A
 494 0109 83B80AD2 		.ascii	"\203\270\012\322\350\332\356\032\244\244\221z\260P\017"
 494      E8DAEE1A 
 494      A4A4917A 
 494      B0500F
 495 0118 0637B94B 		.ascii	"\0067\271K\247B\273\313\255\244\223 C\0102`\010\011"
 495      A742BBCB 
 495      ADA49320 
 495      43083260 
 495      0809
 496 012a 3C546877 		.ascii	"<Thw\015Q<$\310\024\202L\030J\202,*\264\273\206*Y$\030"
 496      0D513C24 
 496      C814824C 
 496      184A822C 
 496      2AB4BB86 
 497 0142 2604C320 		.ascii	"&\004\303 \233\004\303\265B6\344\2202G\211#e\256P\346"
 497      9B04C3B5 
 497      4236E490 
 497      32478923 
 497      65AE50E6 
 498 0156 521CDB5D 		.ascii	"R\034\333]yJ>\265\217\020\355\371\244\207\021\340%\007"
 498      794A3EB5 
 498      8F10EDF9 
 498      A48711E0 
 498      2507
 499 0168 05546877 		.ascii	"\005Thwy\225\002\022\026\012a\241Rt\300\2155\337\273"
 499      79950212 
 499      160A61A1 
 499      5274C08D 
 499      35DFBB
 500 017b 85582B82 		.ascii	"\205X+\202b\222\373\264B1\000/0`+\024\2073\"2\312\025"
 500      6292FBB4 
 500      4231002F 
 500      30602B14 
 500      87332232 
 501 0191 1D131BD7 		.ascii	"\035\023\033\327\247o|\277\376\003\006&$&%\247\244\246"
 501      A76F7CBF 
 501      FE030626 
ARM GAS  /tmp/ccPF9ufL.s 			page 39


 501      242625A7 
 501      A4A6
 502 01a3 0D1A9CEE 		.ascii	"\015\032\234\356\316\360\014\311\314\032:lxvNn^\376"
 502      CEF00CC9 
 502      CC1A3A6C 
 502      78764E6E 
 502      5EFE
 503 01b5 88026F61 		.ascii	"\210\002oa\221\257\030V\314\002\216\231;\223=\032\014"
 503      91AF1856 
 503      CC028E99 
 503      3B933D1A 
 503      0C
 504 01c6 6EEA58FD 		.ascii	"n\352X\375\344\017\216\373~\327\326\374H\360\247\316"
 504      E40F8EFB 
 504      7ED7D6FC 
 504      48F0A7CE 
 505 01d6 4E800020 		.ascii	"N\200\000 \222\031\300*\201\315\304\012x\304Eq\232\031"
 505      9219C02A 
 505      81CDC40A 
 505      78C44571 
 505      9A19
 506 01e8 25DBB683 		.ascii	"%\333\266\203\2336$\267t\0047\006\177F\323\0008\024"
 506      9B3624B7 
 506      74043706 
 506      7F46D300 
 506      3814
 507 01fa 363464E9 		.ascii	"64d\351\"K\260\265|{\323\346\324\226GVi\2268\346\350"
 507      224BB0B5 
 507      7C7BD3E6 
 507      D4964756 
 507      699638E6 
 508 020f 1E8E79CF 		.ascii	"\036\216y\317o\367?\012\3015\301\225_wv\306\2131/\357"
 508      6FF73F0A 
 508      C135C195 
 508      5F7776C6 
 508      8B312FEF 
 509 0223 D1981BDB 		.ascii	"\321\230\033\333\356;~\004\202\2334C\247\202\332\236"
 509      EE3B7E04 
 509      829B3443 
 509      A782DA9E 
 510 0233 0CB931F8 		.ascii	"\014\2711\370\322\374\267\202\315m\235\235\227\010\253"
 510      D2FCB782 
 510      CD6D9D9D 
 510      9708AB
 511 0242 D93DBCD1 		.ascii	"\331=\274\321-\246\341\"\0246\247\207\206\373\216\374"
 511      2DA6E122 
 511      1436A787 
 511      86FB8EFC 
 512 0252 E9518365 		.ascii	"\351Q\203e\244\302\374\3476\244\037\236\003\345\334"
 512      A4C2FCE7 
 512      36A41F9E 
 512      03E5DC
 513 0261 C6F4C3F3 		.ascii	"\306\364\303\363=5=?\350\371A\317\017z~\320\377\203"
 513      3D353D3F 
 513      E8F941CF 
 513      0F7A7ED0 
 513      FF83
ARM GAS  /tmp/ccPF9ufL.s 			page 40


 514 0273 41772A6D 		.ascii	"Aw*m\035\235\235\007\276\177\352\343\023\220\360\024"
 514      1D9D9D07 
 514      BE7FEAE3 
 514      1390F014 
 515 0283 006E9C3B 		.ascii	"\000n\234; \223\361\015\364\031\274\272\240\026X\022"
 515      2093F10D 
 515      F419BCBA 
 515      A0165812 
 516 0293 0B405432 		.ascii	"\013@T2\377H\301\346G\2619\025+,\215\267\014\302\017"
 516      FF48C1E6 
 516      47B13915 
 516      2B2C8DB7 
 516      0CC20F
 517 02a6 971B3F9C 		.ascii	"\227\033?\234\031\370\021\235\311KY\2744\234\367f\243"
 517      19F8119D 
 517      C94B59BC 
 517      349CF766 
 517      A3
 518 02b7 FE20EA73 		.ascii	"\376 \352sx%\227K\363\260e?\266xyK\241\034\245\210W"
 518      7825974B 
 518      F3B0653F 
 518      B678794B 
 518      A11CA588 
 519 02cc 7CBC7B24 		.ascii	"|\274{$\266<\216-\243\360\372\004^K\360\372:^\307\312"
 519      B63C8E2D 
 519      A3F0FA04 
 519      5E4BF0FA 
 519      3A5EC7CA 
 520 02e0 FB1A87D7 		.ascii	"\373\032\207\327\355x\035/\257\023\320(\346\012\254"
 520      ED781D2F 
 520      AF13D028 
 520      E60AAC
 521 02ef ECC4CA95 		.ascii	"\354\304\312\225X\211\235\210\037q\223\260\345Yl\271"
 521      58899D88 
 521      1F7193B0 
 521      E5596CB9 
 522 02ff 4A5E2763 		.ascii	"J^'cc\237)Xy\021+S\271\354j.\233\206-/`\3135\362:\235"
 522      639F2958 
 522      79112B53 
 522      B9EC6A2E 
 522      9B862D2F 
 523 0319 CB4AB1B2 		.ascii	"\313J\261\262\033+e\\V\316e3\260e\027\266\\+\2573\271"
 523      1B2B655C 
 523      56CE6533 
 523      B06517B6 
 523      5C2BAF33 
 524 032e 6C16565E 		.ascii	"l\026V^\306\312l.\273\216\313\346`\313K\3302W^\257\347"
 524      C6CA6C2E 
 524      BB8ECBE6 
 524      60CB4BD8 
 524      32575EAF 
 525 0343 B27958D9 		.ascii	"\262yX\331\213\225\033\270\314\317e\025\330\262\007"
 525      8B951BB8 
 525      CCCF6515 
 525      D8B207
 526 0352 5B2AE575 		.ascii	"[*\345u>\227Ua\345\025\254,\3402\225\313\252\261e\037"
 526      3E975561 
ARM GAS  /tmp/ccPF9ufL.s 			page 41


 526      E515AC2C 
 526      E03295CB 
 526      AAB1651F 
 527 0366 B604E475 		.ascii	"\266\004\344u!\227\335\210\225\003X\251\341\262Z.\253"
 527      2197DD88 
 527      950358A9 
 527      E1B25A2E 
 527      AB
 528 0377 93F1AC97 		.ascii	"\223\361\254\227\327E\\v\023V^\305\312b.k\340\262F\271"
 528      D7455C76 
 528      13565EC5 
 528      CA622E6B 
 528      E0B246B9 
 529 038b 104BE475 		.ascii	"\020K\344u)\227\335\214\2256\254\334\302e\313\270l9"
 529      2997DD8C 
 529      9536ACDC 
 529      C265CBB8 
 529      6C39
 530 039d B61CC296 		.ascii	"\266\034\302\226[\345\3656.\273\035+\257a\345\016.["
 530      5BE5F536 
 530      2EBB1D2B 
 530      AF61E50E 
 530      2E5B
 531 03af C165418E 		.ascii	"\301eA\216I;6\255\324\012\253\200+\233x\365\017Xm\346"
 531      493B36AD 
 531      D40AAB80 
 531      2B9B78F5 
 531      0F586DE6 
 532 03c3 D5D8D5FC 		.ascii	"\325\330\325\3743n\015\3105\274S+\254\025\342u\274\372"
 532      336E0DC8 
 532      35BC532B 
 532      AC15E275 
 532      BCFA
 533 03d5 47ACB608 		.ascii	"G\254\266\010\361z!n\345\215o`\343\006\255p\227\020"
 533      F17A216E 
 533      E58D6F60 
 533      E306AD70 
 533      9710
 534 03e7 23A911AC 		.ascii	"#\251\021\254\031O\026\036\342\200\270a\034n\374+\303"
 534      194F161E 
 534      E280B861 
 534      1C6EFC2B 
 534      C3
 535 03f8 CF68568E 		.ascii	"\317hV\216\260G;\216\262UG\336;\363!\370\341M\210`\017"
 535      B0473B8E 
 535      B25547DE 
 535      3BF321F8 
 535      E14D8860 
 536 040d B0FB5706 		.ascii	"\260\373W\006\203\3750\031ne?\004\327\362R\337Z\340"
 536      83FD3019 
 536      6E653F04 
 536      D7F252DF 
 536      5AE0
 537 041f 463C19FA 		.ascii	"F<\031\372\212\024P\361\014\304\216\263\346\216\343"
 537      8A1450F1 
 537      0CC48EB3 
 537      E68EE3
ARM GAS  /tmp/ccPF9ufL.s 			page 42


 538 042e 9F459115 		.ascii	"\237E\221\025c\272:\276\022\350h\304[\266\006\203\327"
 538      63BA3ABE 
 538      12E868C4 
 538      5BB60683 
 538      D7
 539 043f 04A09F9B 		.ascii	"\004\240\237\233\325<\030\334zi\000\3723\251\017\300"
 539      D53C18DC 
 539      7A6900FA 
 539      33A90FC0 
 540 044f 0072F17E 		.ascii	"\000r\361~\317\\\014t\263:r\221`q\361A\317\\$\272\331"
 540      CF5C0C74 
 540      B33A7291 
 540      6071F141 
 540      CF5C24BA 
 541 0464 3A201F49 		.ascii	": \037I&\037\207\331\252\266\014j \370\311\246\355\340"
 541      261F87D9 
 541      AAB60C6A 
 541      20F8C9A6 
 541      EDE0
 542 0476 DDB82724 		.ascii	"\335\270'$\2731\240d\225\242Y\321_98\330\373\214\207"
 542      BB31A064 
 542      95A259D1 
 542      5F3938D8 
 542      FB8C87
 543 0489 EFF0D63D 		.ascii	"\357\360\326=\2712\330Z\324\203?>\224N\316\230\264\252"
 543      B932D85A 
 543      D4833F3E 
 543      944ECE98 
 543      B4AA
 544 049b 04856277 		.ascii	"\004\205bwEOB\314\030\372=\201~\375\36074V\341\312|"
 544      454F42CC 
 544      18FA3D81 
 544      7EFDF037 
 544      3456E1CA 
 545 04b0 96878BAE 		.ascii	"\226\207\213\256\333\246\242#.\217\024\342\012\020\343"
 545      DBA6A223 
 545      2E8F14E2 
 545      0A10E3
 546 04bf FC9DEE0E 		.ascii	"\374\235\356\016Mgkv\370-\357i\256O\323-\007\2413n\031"
 546      4D676B76 
 546      F82DEF69 
 546      AE4FD32D 
 546      07A1336E 
 547 04d4 2B2DC164 		.ascii	"+-\301d\331\264\336\241\231^\245\302$\375\250{\230)"
 547      D9B4DEA1 
 547      995EA5C2 
 547      24FDA87B 
 547      9829
 548 04e6 D44EB3C2 		.ascii	"\324N\263\302^\036\374\010j\343\323\232(\346\246\302"
 548      5E1EFC08 
 548      6AE3D39A 
 548      28E6A6C2 
 549 04f6 E4000CD6 		.ascii	"\344\000\014\326\002\344d\0371\007\206\327\305t\263"
 549      02E4641F 
 549      310786D7 
 549      C574B3
 550 0505 49E2F65E 		.ascii	"I\342\366^Y\375\325\3464m\234\311\372\255\245\313\021"
ARM GAS  /tmp/ccPF9ufL.s 			page 43


 550      59FDD5E6 
 550      346D9CC9 
 550      FAADA5CB 
 550      11
 551 0516 B518BFC5 		.ascii	"\265\030\277\305\232\277X9R\327\361.wh'~\237M2\255\224"
 551      9ABF5839 
 551      52D7F12E 
 551      7768277E 
 551      9F4D32AD 
 552 052b 1FDEC56E 		.ascii	"\037\336\305n\271F\012\340-:\376|2\201\337G\004b\316"
 552      B9460AE0 
 552      2D3AFE7C 
 552      3281DF47 
 552      0462CE
 553 053e 49F9670F 		.ascii	"I\371g\017Hq\004 \303\315\036\223k\356\351\232\224\027"
 553      48710420 
 553      C3CD1E93 
 553      6BEEE99A 
 553      9417
 554 0550 42A4FC55 		.ascii	"B\244\374U\222\362JW\244DvC\312\366\207\323\311\231"
 554      92F24A57 
 554      A4447643 
 554      CAF687D3 
 554      C999
 555 0562 859429BD 		.ascii	"\205\224)\275$\345\023\021\246\251VR\246XH\371\324H"
 555      24E51311 
 555      A6A95652 
 555      A65848F9 
 555      D448
 556 0574 0AD95D6D 		.ascii	"\012\331]mG\312T\013)\237\232H!\323kT\230f&\345\023"
 556      47CA540B 
 556      299F9A48 
 556      21D36B54 
 556      986626E5 
 557 0589 3D44D82B 		.ascii	"=D\330+I\371D\222r\265\230\233\012\323\015\244D\031"
 557      49F94492 
 557      72B5989B 
 557      0AD30DA4 
 557      4419
 558 059b 4921B369 		.ascii	"I!\263iFRh\234\351FR\246\331\221\"u\026R\246\231V\312"
 558      4652689C 
 558      E94652A6 
 558      D9912275 
 558      1652A699 
 559 05b1 0F1F8748 		.ascii	"\017\037\207H\211@R\256\211\224\244\270$)\377\356\331"
 559      894052AE 
 559      8994A4B8 
 559      2429FFEE 
 559      D9
 560 05c2 9E32C4CD 		.ascii	"\2362\304\315\216\3115\317\354\232\224]!RNJR\316tEJ"
 560      8EC935CF 
 560      EC9A945D 
 560      21524E4A 
 560      52CE7445 
 561 05d7 7437A4EC 		.ascii	"t7\244\354\341\244\354\262#\245\264\227\244\234\021"
 561      E1A4ECB2 
 561      23A5B497 
ARM GAS  /tmp/ccPF9ufL.s 			page 44


 561      A49C11
 562 05e6 612AB392 		.ascii	"a*\263\222Rj!\345\254\221\024\262+\267#\245\314B\312"
 562      526A21E5 
 562      AC9114B2 
 562      2BB723A5 
 562      CC42CA
 563 05f9 59132964 		.ascii	"Y\023)dz\255\0123\314\244\234\321C\204\275\222\2243"
 563      7AAD0A33 
 563      CCA49CD1 
 563      4384BD92 
 563      9433
 564 060b 92947231 		.ascii	"\222\224r17\025f\032H\2111\222Bf3\214\244\32083\215"
 564      3715661A 
 564      48893192 
 564      4266338C 
 564      A4D03833 
 565 0620 A4CCB023 		.ascii	"\244\314\260#E\352,\244\3140\255\224\037\276\011\221"
 565      45EA2CA4 
 565      CC30AD94 
 565      1FBE0991 
 566 0630 E24252AE 		.ascii	"\342BR\256\215\226\244\304JR\276\354\031)Ynv\247Bk>"
 566      8D96A4C4 
 566      4A52BEEC 
 566      1929596E 
 566      76A7426B 
 567 0645 34EC09D6 		.ascii	"4\354\011\326\324\361\275jq1\254\022\037/\374/\000\303"
 567      D4F1BD6A 
 567      7131AC12 
 567      1F2FFC2F 
 567      00C3
 568 0657 E931F7E3 		.ascii	"\3511\367\343/{\330b\204\366\356\355\374P\011{\314;"
 568      2F7BD862 
 568      84F6EEED 
 568      FC50097B 
 568      CC3B
 569 0669 745FD9B5 		.ascii	"t_\331\265\202&\036\220l\341\223\227\304=`\264;~\336"
 569      82261E90 
 569      6CE19397 
 569      C43D60B4 
 569      3B7EDE
 570 067c 0E1ACEFC 		.ascii	"\016\032\316\3748\301\373\364\203q9\304\261\346(\007"
 570      38C1FBF4 
 570      837139C4 
 570      B1E62807 
 571 068c 9F49CB8E 		.ascii	"\237I\313\216\030\273\2518CS\021\213N\216^\012\345\305"
 571      18BBA938 
 571      4353118B 
 571      4E8E5E0A 
 571      E5C5
 572 069e 964D8901 		.ascii	"\226M\211\001\310q\263\007e\214r\303\363\242\017k}\263"
 572      C871B307 
 572      658C72C3 
 572      F3A20F6B 
 572      7DB3
 573 06b0 CBC4D8B9 		.ascii	"\313\304\330\271-\227\274Y\022cV/\023c\235\302\251\230"
 573      2D97BC59 
 573      1263562F 
ARM GAS  /tmp/ccPF9ufL.s 			page 45


 573      13639DC2 
 573      A998
 574 06c2 6D4D8C59 		.ascii	"mM\214Y\226\304hQ\014\211Av\327\331%\306lKb\350\226"
 574      96C46851 
 574      0C894176 
 574      D7D925C6 
 574      6C4B62E8 
 575 06d7 2231C874 		.ascii	"\"1\310t\256\012s\314\211\301\333iV\330+\023c\235B\211"
 575      AE0A73CC 
 575      89C1DB69 
 575      56D82B13 
 575      639D4289 
 576 06eb 719D989B 		.ascii	"q\235\230\233\012\327\033\022\243/\333x,\224\031d7\307"
 576      0AD71B12 
 576      A32FDB78 
 576      2C941964 
 576      37C7
 577 06fd 981934D0 		.ascii	"\230\0314\320\365\306\314\230c\227\031Rg\311\2149\246"
 577      F5C6CC98 
 577      63971952 
 577      67C98C39 
 577      A6
 578 070e B5F2C35A 		.ascii	"\265\362\303ZE\317\2148\314\214\271}df\304s\030prk\233"
 578      45CF8C38 
 578      CC8CB97D 
 578      6466C473 
 578      1870726B 
 579 0723 766D2B20 		.ascii	"vm+ \201\012n\025@@\003\024\263/\233\236\006\255/C\345"
 579      810A6E15 
 579      40400314 
 579      B32F9B9E 
 579      06AD2F43 
 580 0738 031D674E 		.ascii	"\003\035gN\013:y\225\362\356P\024\200|\023={B\364\334"
 580      0B3A7995 
 580      F2EE5014 
 580      807C133D 
 580      7B42F4DC 
 581 074c 3F200023 		.ascii	"? \000#\334\354Y\011OA8<\375\272\203g\017\207g\217\035"
 581      DCEC5909 
 581      4F41383C 
 581      FDBA8367 
 581      0F87678F 
 582 0761 3CF37A09 		.ascii	"<\363z\011\317f\021\270\033\254\360\314\263\300\263"
 582      CF6611B8 
 582      1BACF0CC 
 582      B3C0B3
 583 0770 C5080FD9 		.ascii	"\305\010\017\331\371\355\340\271\301\002\317\026\023"
 583      F9EDE0B9 
 583      C102CF16 
 583      13
 584 077d 3C645AA9 		.ascii	"<dZ\251B\205\031\236\315\212\026\"\354\225\360l\226"
 584      4285199E 
 584      CD8A1622 
 584      EC95F06C 
 584      96
 585 078e F0F8C5DC 		.ascii	"\360\370\305\334T\230o\200\247\277\011\036\262\2530"
 585      54986F80 
ARM GAS  /tmp/ccPF9ufL.s 			page 46


 585      A7BF091E 
 585      B2AB30
 586 079d C24303CD 		.ascii	"\302C\003\3157\302Sa\007\217\324Y\340\251\220K\365\000"
 586      37C25361 
 586      078FD459 
 586      E0A9904B 
 586      F500
 587 07af 8767841F 		.ascii	"\207g\204\037\356\015\301\023\217\360T\366\223\360\014"
 587      EE0DC113 
 587      8FF054F6 
 587      93F00C
 588 07be D0E1D91F 		.ascii	"\320\341\331\037\202'S\005\245+x\262T\276t\377\003\236"
 588      82275305 
 588      A52B78B2 
 588      54BE74FF 
 588      039E
 589 07d0 AC7078F6 		.ascii	"\254px\366\205\340y\010\341\361\272\331\363\022\236"
 589      85E07908 
 589      E1F1BAD9 
 589      F3129E
 590 07df C2707806 		.ascii	"\302px\006v\007\317!\016\317>;x\252z\011\317\343\"p"
 590      7607CF21 
 590      0ECF3E3B 
 590      78AA7A09 
 590      CFE32270 
 591 07f3 0BACF054 		.ascii	"\013\254\360TY\340\331f\204\207\354T;x\026X\340\331"
 591      59E0D966 
 591      8487EC54 
 591      3B781658 
 591      E0D9
 592 0805 6682874C 		.ascii	"f\202\207L\003*T\233\341y\\\321B\204\275\022\236\307"
 592      032A549B 
 592      E1795CD1 
 592      4284BD12 
 592      9EC7
 593 0817 253CAA98 		.ascii	"%<\252\230\233\012\013\015\360$\230\340!\273j#<4\320"
 593      9B0A0B0D 
 593      F02498E0 
 593      21BB6A23 
 593      3C34D0
 594 082a 42233CD5 		.ascii	"B#<\325v\360H\235\005\236j\271T\017sx\274~x,\004\317"
 594      76F0489D 
 594      059E6AB9 
 594      540F7378 
 594      BC7E782C 
 595 0840 00842730 		.ascii	"\000\204'0P\302\223H\360\254:\265\365\311\217\034\032"
 595      50C29348 
 595      F0AC3AB5 
 595      F5C98F1C 
 595      1A
 596 0851 20C30BD8 		.ascii	" \303\013\330\210\000D\351\203\027\351\313\341\253\025"
 596      880044E9 
 596      8317E9CB 
 596      E1AB15
 597 0860 CF373E9C 		.ascii	"\3177>\234O\202\022z\253\317c\324\364\263\216Y\016:"
 597      4F82127A 
 597      ABCF63D4 
ARM GAS  /tmp/ccPF9ufL.s 			page 47


 597      F4B38E59 
 597      0E3A
 598 0872 52219566 		.ascii	"R!\225f\025\241\265\346\242W\264.\306~\356%\312\260"
 598      15A1B5E6 
 598      A257B42E 
 598      C67EEE25 
 598      CAB0
 599 0884 A8CFC768 		.ascii	"\250\317\307h\242<\2716#\351\026\202\367\242\362\002"
 599      A23CB936 
 599      23E91682 
 599      F7A2F202 
 600 0894 B4E516C5 		.ascii	"\264\345\026\305ru\264\237\350\370\2711W\203t\277\210"
 600      7275B49F 
 600      E8F8B931 
 600      578374BF 
 600      88
 601 08a5 649E16E6 		.ascii	"d\236\026\346\244\356@\374\230\203\270\337\016\304\033"
 601      A4EE40FC 
 601      9883B8DF 
 601      0EC41B
 602 08b4 7B09E22E 		.ascii	"{\011\342.\261\0105V\020o\264\200\270\333\010\"\331"
 602      B1083556 
 602      106FB480 
 602      B8DB0822 
 602      D9
 603 08c5 D5DA8158 		.ascii	"\325\332\201Xc\001q\267\011D2\255W\241\316\014\342."
 603      630171B7 
 603      094432AD 
 603      57A1CE0C 
 603      E22E
 604 08d7 2514867A 		.ascii	"%\024\206z\011\342.\011b\255\230\233\012\213\014 &\233"
 604      09E22E09 
 604      62AD989B 
 604      0A8B0C20 
 604      269B
 605 08e9 4024BB3A 		.ascii	"@$\273:#\2104\320\"#\210uv J\235\005\304:\\\216D$\256"
 605      238834D0 
 605      22238875 
 605      76204A9D 
 605      05C43A5C 
 606 0901 3E491297 		.ascii	">I\022\227B\007\237\346\216\373N[\017>\341\247\263Y"
 606      42079FE6 
 606      8EFB4E5B 
 606      0F3EE1A7 
 606      B359
 607 0913 E229B53B 		.ascii	"\342)\265;\374)\245\177a\310\247\006\375\265\346\353"
 607      FC29A57F 
 607      61C8A706 
 607      FDB5E6EB 
 608 0923 106CD1DE 		.ascii	"\020l\321\336M\216R\330\036%\364\023M?z7\031\366\313"
 608      4D8E52D8 
 608      1E25F413 
 608      4D3F7A37 
 608      19F6CB
 609 0936 2E6FBBF0 		.ascii	".o\273\360/\361L\034\030\277\376i\307\213\033\322\303"
 609      2FF14C1C 
 609      18BFFE69 
ARM GAS  /tmp/ccPF9ufL.s 			page 48


 609      C78B1BD2 
 609      C3
 610 0947 38693B72 		.ascii	"8i;r\264\321\017\207\024#'\264\244\241\333\036]\011"
 610      B4D10F87 
 610      142327B4 
 610      A4A1DB1E 
 610      5D09
 611 0959 78D27C8D 		.ascii	"x\322|\215VHs\031\2001\"\220\247\366n\377FO-\357/H\255"
 611      56487319 
 611      80312290 
 611      A7F66EFF 
 611      464F2DEF 
 612 0970 2715CD4B 		.ascii	"'\025\315K\021:\322Sk\365sz\312\371\364\344*2&\227\335"
 612      113AD253 
 612      6BF5737A 
 612      CAF9F4E4 
 612      2A322697 
 613 0985 56FFAB4A 		.ascii	"V\377\253J\376JJ\014\343\013@\211pu\370\275\355\357"
 613      FE4A4A0C 
 613      E30B4089 
 613      7075F8BD 
 613      EDEF
 614 0997 E8BE46DA 		.ascii	"\350\276F\332\037x\235\314x\340\245\365\017\331\350"
 614      1F789DCC 
 614      78E0A5F5 
 614      0FD9E8
 615 09a6 0760EDAF 		.ascii	"\007`\355\257\034\357\262\323\351\340$d\313-\351\320"
 615      1CEFB2D3 
 615      E9E02464 
 615      CB2DE9D0 
 616 09b6 A624F1C2 		.ascii	"\246$\361\302\340\224\022\366\302 \005\270>\215\035"
 616      E09412F6 
 616      C22005B8 
 616      3E8D1D
 617 09c5 2CEE2A65 		.ascii	",\356*e;\267\345\323\273EK\312\336\324\313\224=*p]l"
 617      3BB7E5D3 
 617      BB454BCA 
 617      DED4CB94 
 617      3D2A705D 
 618 09da 4DD99B2C 		.ascii	"M\331\233,){\314\230\262d\327`\227\262\213-){\314\224"
 618      297BCC98 
 618      B264D760 
 618      97B28B2D 
 618      297BCC94 
 619 09ee B264BA44 		.ascii	"\262d\272D\205Fs\312\036\025){P\244\336\022\231\262"
 619      854673CA 
 619      1E15297B 
 619      50A4DE12 
 619      99B2
 620 0a00 4765CA36 		.ascii	"Ge\3126\210\271\251\260\324\220\262\203\330\201\321"
 620      88B9A9B0 
 620      D490B283 
 620      D881D1
 621 0a0f A0652C99 		.ascii	"\240e,\2315\0323\226\306Yj\314\330F\273\214\225:K\306"
 621      351A3396 
 621      C6596ACC 
 621      D846BB8C 
ARM GAS  /tmp/ccPF9ufL.s 			page 49


 621      953A4BC6 
 622 0a23 36AA909D 		.ascii	"6\252\220\235\212\031\273$Mf\354`\276\202bE\236\376"
 622      8A19BB24 
 622      4D66EC60 
 622      BE826245 
 622      9EFE
 623 0a35 48477094 		.ascii	"HGp\224\356?\304\324E\265b\020\356\361\242n\3203\234"
 623      EE3FC4D4 
 623      45B56210 
 623      EEF1A26E 
 623      D0339C
 624 0a48 3246859F 		.ascii	"2F\205\2372\016\205N\031\357\320)\343lW\247\214\364"
 624      320E854E 
 624      19EFD029 
 624      E36C57A7 
 624      8CF4
 625 0a5a 6E40D9FE 		.ascii	"n@\331\376D>\371\262\200rs/A9)\242t\213\025\224\233"
 625      443EF9B2 
 625      8072732F 
 625      413929A2 
 625      748B1594 
 626 0a6f 2DA09C32 		.ascii	"-\240\2342\202Bv\313\354@\271\305\002\312)\023(dz\253"
 626      824276CB 
 626      EC40B9C5 
 626      02CA2913 
 626      28647AAB 
 627 0a83 0ACBCDA0 		.ascii	"\012\313\315\240\234T\264\010a\257\004\345\244\004e"
 627      9C54B408 
 627      61AF04E5 
 627      A40465
 628 0a92 99989B0A 		.ascii	"\231\230\233\012\267\031@q#(\372\326Nf\313\215\240\320"
 628      B7194071 
 628      2328FAD6 
 628      4E66CB8D 
 628      A0D0
 629 0aa4 38B71941 		.ascii	"8\267\031AYn\007\212\324Y@Y\256\275!\342\011\215g\214"
 629      596E078A 
 629      D4594059 
 629      AEBD21E2 
 629      098D678C 
 630 0ab8 13A133C6 		.ascii	"\023\2413\306`\344\347\326t\311O\006\347\207\177\325"
 630      60E4E7D6 
 630      74C94F06 
 630      E7877FD5 
 631 0ac8 7D7A47AC 		.ascii	"}zG\254\335W\335h\341/\374\253n{\210\204\177\360\001"
 631      DD57DD68 
 631      E12FFCAB 
 631      6E7B8884 
 631      7FF001
 632 0adb 12DDEC3B 		.ascii	"\022\335\354;%\354e\2646SO7(\354\344(\264\333\241p{"
 632      25EC65B4 
 632      36534F37 
 632      28ECE428 
 632      B4DBA170 
 633 0af0 2F51F85C 		.ascii	"/Q\370\\\304\341\016+\012\267[P8mD\201\354V\330\241"
 633      C4E10E2B 
 633      0AB75B50 
ARM GAS  /tmp/ccPF9ufL.s 			page 50


 633      386D4481 
 633      EC56D8A1 
 634 0b04 70870585 		.ascii	"p\207\005\205\323&\024\310t%F3\010f\030>W\264 \361~"
 634      D32614C8 
 634      74254633 
 634      0866183E 
 634      57B420F1 
 635 0b19 49C3E792 		.ascii	"I\303\347\222\206\025bz*\254\002\003\016C\2148\220a"
 635      8615627A 
 635      2AAC0203 
 635      0E438C38 
 635      9061
 636 0b2b 108C3CD0 		.ascii	"\020\214<\320`\253\300\010\004\015\033N\204\246\264"
 636      60ABC008 
 636      040D1B4E 
 636      84A6B4
 637 0b3a 201104D3 		.ascii	" \021\004\323\222\371\341\263\020\023\031\300\357\324"
 637      92F9E1B3 
 637      101319C0 
 637      EFD4
 638 0b48 23A1C8D4 		.ascii	"#\241\310\3247\225gN\350\233J\211>t\204\276\"\027\327"
 638      3795674E 
 638      E89B4A89 
 638      3E7484BE 
 638      2217D7
 639 0b5b 8AD0F2A1 		.ascii	"\212\320\362\241.\226\343\030(y]\314\243D\233cV7 \354"
 639      2E96E318 
 639      28795DCC 
 639      A3449B63 
 639      563720EC 
 640 0b6f E220BC6E 		.ascii	"\342 \274n\007B\023\364\222\204\263b\376\315`E\241\011"
 640      074213F4 
 640      9284B362 
 640      FECD6045 
 640      A109
 641 0b81 2C2C7C6B 		.ascii	",,|kd\201,W\203\035\014\315`\241\341[\023\015d|'\306"
 641      64812C57 
 641      831D0CCD 
 641      60A1E15B 
 641      130D647C 
 642 0b97 714D180D 		.ascii	"qM\030\015g\225P0\356\324h8+iX\0154I\025\326\032y\030"
 642      67955030 
 642      EED46838 
 642      2B69580D 
 642      344915D6 
 643 0bae 6AE4814C 		.ascii	"j\344\201L\327\230x\240\341\326\232xXc\313\203\246\264"
 643      D79878A0 
 643      E1D69A78 
 643      5863CB83 
 643      A6B4
 644 0bc0 F0B00607 		.ascii	"\360\260\006\007-\311\004~SYr\341\207\321n\320\334\361"
 644      2DC9047E 
 644      535972E1 
 644      87D16ED0 
 644      DCF1
 645 0bd2 ACCD6E10 		.ascii	"\254\315n\020~\376\233+\036\001\377\011\177\004\210"
 645      7EFE9B2B 
ARM GAS  /tmp/ccPF9ufL.s 			page 51


 645      1E01FF09 
 645      7F0488
 646 0be1 F31FCD62 		.ascii	"\363\037\315b8[\255\010w{{\346\356\327n\266\322A\356"
 646      385BAD08 
 646      777B7BE6 
 646      EED76EB6 
 646      D241EE
 647 0bf4 C6DAB8CB 		.ascii	"\306\332\270\313\346\247S\376\366n\337\272H\215\261"
 647      E6A753FE 
 647      F66EDFBA 
 647      488DB1
 648 0c03 67446C32 		.ascii	"gDl25I\016\373 J\177\376R\237\"\017z\217}\243\243\234"
 648      35490EFB 
 648      204A7FFE 
 648      529F220F 
 648      7A8F7DA3 
 649 0c19 7CAE073D 		.ascii	"|\256\007=\374\252\376/\375@\225\"}7\265\350'H\204,"
 649      FCAAFE2F 
 649      FD409522 
 649      7D37B5E8 
 649      2748842C 
 650 0c2d 85DB3267 		.ascii	"\205\3332g\010\014\352I\303Q\255_\270\006\351g\3024"
 650      080CEA49 
 650      C351AD5F 
 650      B806E967 
 650      C234
 651 0c3f E399502C 		.ascii	"\343\231P,\335h]\024\372f%WNQ\2410\037\027.3\373\367"
 651      DD685D14 
 651      FA662557 
 651      4E51A130 
 651      1F172E33 
 652 0c55 5BFC7CDA 		.ascii	"[\374|\332\271\364\232\275im\323WODjvc\215\357\250\014"
 652      B9F49ABD 
 652      696DD357 
 652      4F446A76 
 652      638DEFA8 
 653 0c6a 69B94384 		.ascii	"i\271C\204e\254\026\262<\343\033h\352#\322N}\247\277"
 653      65AC16B2 
 653      3CE31B68 
 653      EA23D24E 
 653      7DA7BF
 654 0c7d 5F5521E9 		.ascii	"_U!\351\334B\246A(\235\030')f\002\362\315k\354\027\235"
 654      DC42A641 
 654      289D1827 
 654      296602F2 
 654      CD6BEC17 
 655 0c92 09784FB9 		.ascii	"\011xO\271\007\266\244\362{\312\347\363\341\375\205"
 655      07B6A4F2 
 655      7BCAE7F3 
 655      E1FD85
 656 0ca1 B23FAFF5 		.ascii	"\262?\257\365\236t\3361B\274\246n\3528\270\303\372\366"
 656      9E74DE31 
 656      42BCA66E 
 656      EA38B8C3 
 656      FAF6
 657 0cb3 D8FC6296 		.ascii	"\330\374b\226c\367\352\351_\364\216\331\364\253\307"
 657      63F7EAE9 
ARM GAS  /tmp/ccPF9ufL.s 			page 52


 657      5FF48ED9 
 657      F4ABC7
 658 0cc2 1BA1475E 		.ascii	"\033\241G^\347\246x\361vw\263\243\213\267\273\005\335"
 658      E7A678F1 
 658      7677B3A3 
 658      8BB7BB05 
 658      DD
 659 0cd3 FCEAD1F9 		.ascii	"\374\352\321\371D:9\263\354t\353z\273\323mt\360\240"
 659      443A39B3 
 659      EC74EB7A 
 659      BBD36D74 
 659      F0A0
 660 0ce5 B6D8EC74 		.ascii	"\266\330\354t\353\254;\335=\016\303NG\226\353mw\272"
 660      EBAC3BDD 
 660      3D0EC34E 
 660      4796EB6D 
 660      77BA
 661 0cf7 16EB4EA7 		.ascii	"\026\353N\247\333\012\240\311x\003\362\327\032\266\323"
 661      DB0AA0C9 
 661      7803F2D7 
 661      1AB6D3
 662 0d06 F11E9A1C 		.ascii	"\361\036\232\034\357\227;\335F\007\355t\353\201&\251"
 662      EF973BDD 
 662      4607ED74 
 662      EB8126A9 
 663 0d16 C25DC69D 		.ascii	"\302]\306\235\316k\304\217L[M;\035\015w\227i\247k\265"
 663      CE6BC48F 
 663      4C5B4D3B 
 663      1D0D7797 
 663      69A76BB5 
 664 0d2a DDE934A5 		.ascii	"\335\3514\245e\247k\005\323\312\371\341n\207\376\344"
 664      65A76B05 
 664      D3CAF9E1 
 664      6E87FEE4 
 665 0d3a 1B01FC5E 		.ascii	"\033\001\374^\013\344\006XH\377\203\340\360\326\027"
 665      0BE40658 
 665      48FF83E0 
 665      F0D617
 666 0d49 8B3568C7 		.ascii	"\2135h\307\365\344\307\205\260\357Z\343l\276k\0251\207"
 666      F5E4C785 
 666      B0EF5AE3 
 666      6CBE6B15 
 666      3187
 667 0d5b D80B0FDB 		.ascii	"\330\013\017\333\374\246\020\016ey\000.q\263'%_\227"
 667      FCA6100E 
 667      6579002E 
 667      71B32725 
 667      5F97
 668 0d6d DAEC853E 		.ascii	"\332\354\205>\026!\274\035\351\261\267\235\335x+\226"
 668      1621BC1D 
 668      E9B1B79D 
 668      DD782B96 
 669 0d7d D3DEFB72 		.ascii	"\323\336\373r\350;\346\370\236\315[l\212}5\243\011h"
 669      E83BE6F8 
 669      9ECD5B6C 
 669      8A7D35A3 
 669      0968
ARM GAS  /tmp/ccPF9ufL.s 			page 53


 670 0d8f C7D8DB4C 		.ascii	"\307\330\333L\3672\201TexG\321\334t\260\327[H\377\032"
 670      F7328154 
 670      657847D1 
 670      DC74B0D7 
 670      5B48FF1A 
 671 0da3 AB1A1A0B 		.ascii	"\253\032\032\013k\002\025\205\225\325\363x\331[\311"
 671      6B021585 
 671      95D5F378 
 671      D95BC9
 672 0db2 9C0BBDBE 		.ascii	"\234\013\275\276\013\006\360\312\274\232\372J\177\315"
 672      0B06F0CA 
 672      BC9AFA4A 
 672      7FCD
 673 0dc0 BC05FE40 		.ascii	"\274\005\376@\215\3277*N454V-\362\372.\034(*jM}\205"
 673      8DD7372A 
 673      4E343534 
 673      562DF2FA 
 673      2E1C282A 
 674 0dd8 2E1883F7 		.ascii	".\030\203\367\263\320Y\333\240.\212\021\235\225\325"
 674      B3D059DB 
 674      A02E8A11 
 674      9D95D5
 675 0de7 8BBCA380 		.ascii	"\213\274\243\200\245\345\345\345y.\253\016T\004\256"
 675      A5E5E5E5 
 675      792EAB0E 
 675      5404AE
 676 0df6 2E2D9C5E 		.ascii	".-\234^\346)\303>O\351\222@c\025sb\027\033(\372\353"
 676      E629C33E 
 676      4FE99240 
 676      63157362 
 676      171B28FA 
 677 0e0b 6B17056A 		.ascii	"k\027\005j\252\346\227x\370\037K\236Z\277\324S<\306"
 677      AAE69778 
 677      F81F4B9E 
 677      5ABFD453 
 677      3CC6
 678 0e1d 535CE41B 		.ascii	"S\\\344\033\355)\360\370|%\243\306\224\\\340#\355\264"
 678      ED29F0F8 
 678      7C25A3C6 
 678      945CE023 
 678      EDB4
 679 0e2f 1A7FE382 		.ascii	"\032\177\343\202\372\305\265R;\264\264l\312\310\342"
 679      FAC5B552 
 679      3BB4B46C 
 679      CAC8E2
 680 0e3e 09BEA222 		.ascii	"\011\276\242\"\317\014\177\315\222*\317\344@]\225gJ"
 680      CF0C7FCD 
 680      922ACFE4 
 680      405D9567 
 680      4A
 681 0e4f D5FCC092 		.ascii	"\325\374\300\222Z\317\345Uu\015\201\306ed(F\036W\357"
 681      5ACFE555 
 681      750D81C6 
 681      65642846 
 681      1E57EF
 682 0e62 5F2C8661 		.ascii	"_,\206a\211\245e\036a;cr\301\345\201\206\312\372\245"
 682      89A5651E 
ARM GAS  /tmp/ccPF9ufL.s 			page 54


 682      613B6372 
 682      C1E58186 
 682      CAFAA5
 683 0e75 558B97B1 		.ascii	"U\213\227\261\370\202\202\002R^\346o\250\3620\305\313"
 683      F8828202 
 683      525EE66F 
 683      A8F230C5 
 683      CB
 684 0e86 1C9E1CA6 		.ascii	"\034\236\034\246\3442gc\240\266*C\217\\}Ca\265\277\006"
 684      E4326763 
 684      A0B62A43 
 684      8F5C7D43 
 684      61B5BF06 
 685 0e9a 2FF8B1B8 		.ascii	"/\370\261\270Q\\\275\325,\231\233O\257jXR\323X\342\231"
 685      515CBDD5 
 685      2C999B4F 
 685      AF6A5852 
 685      D358E299 
 686 0eae F09B8993 		.ascii	"\360\233\211\223\313\247\217\367\344d\241\217\353\230"
 686      CBA78FF7 
 686      E464A18F 
 686      EB98
 687 0ebc 73AE2793 		.ascii	"s\256'\22392sY\202QTZ~\331e\343KKY\374\204@\235\277"
 687      39327359 
 687      8251545A 
 687      7ED965E3 
 687      4B4B59FC 
 688 0ed4 C6B35836 		.ascii	"\306\263X63\227\264f.M\361_4\234\334/"
 688      3397B466 
 688      2E4DF15F 
 688      349CDC2F 
 689              		.text
 690              		.section	.gnu.lto_.symbol_nodes.cf7c3ec6308678da,"",%progbits
 691 0000 789C4D8E 		.ascii	"x\234M\216]K\024Q\030\307\237\377y\3315\253QX\260\033"
 691      5D4B1451 
 691      18C79FFF 
 691      79D935AB 
 691      5158B01B 
 692 0014 A10FE007 		.ascii	"\241\017\340\007\212.\373\010}\202G\272(A\014q\300\300"
 692      8A2EFB08 
 692      7D8247BA 
 692      28410C71 
 692      C0C0
 693 0026 C860BA88 		.ascii	"\310`\272\210d#h\010\301+g\002o\002\275\030#V\323\332"
 693      64236808 
 693      C12B6702 
 693      6F02BD18 
 693      2356D3DA 
 694 003a 715DDDB4 		.ascii	"q]\335\264V\023*\320\225\316\331sV\317\334\374\376\277"
 694      56132AD0 
 694      95CED973 
 694      56CFDCFC 
 694      FEBF
 695 004c E765CE23 		.ascii	"\347e\316#H\320\033A\356\023M0\321\354:\021\363\213"
 695      48D01B41 
 695      EE134D30 
 695      D1EC3A11 
ARM GAS  /tmp/ccPF9ufL.s 			page 55


 695      F38B
 696 005e A907FA1B 		.ascii	"\251\007\372\033H\261\324\273\200\305\016\204\201(\301"
 696      48B1D4BB 
 696      80C50E84 
 696      8128C1
 697 006d 0866B621 		.ascii	"\010f\266!mu\017,\256\253\342\037X^)D\013\254\274.N"
 697      6D750F2C 
 697      AEABE21F 
 697      585E2944 
 697      0BACBC2E 
 698 0082 416F4169 		.ascii	"AoAi&\375\025\332\256\356\203\365uS\264\301\225@\017"
 698      26FD15DA 
 698      AEEE83F5 
 698      7553B4C1 
 698      95400F
 699 0095 C0D5400F 		.ascii	"\300\325@\017\301C\201v\3007\002\375\001\036\016\364"
 699      C1438176 
 699      C03702FD 
 699      011E0EF4 
 700 00a5 087C33D0 		.ascii	"\010|3\320c\360\255@\177\202o\007G\235\240B\346\250"
 700      63F0AD40 
 700      7F826F07 
 700      479DA042 
 700      E6A8
 701 00b7 06AAE636 		.ascii	"\006\252\3466\234\202#\327\234\234\004\272\340\221+"
 701      9C8223D7 
 701      9C9C04BA 
 701      E0912B
 702 00c6 534467BD 		.ascii	"SDg\275\356\204R\024w\276\300\240h^Z\244k\033\343\252"
 702      EE845214 
 702      77BEC0A0 
 702      685E5AA4 
 702      6B1BE3AA 
 703 00da 42F1DBCF 		.ascii	"B\361\333\317um\371\344\370\256\252Rj\2322\252R~1\256"
 703      756DF9E4 
 703      F8AEAA52 
 703      6A9A32AA 
 703      527E31AE 
 704 00ee 228A3F6D 		.ascii	"\"\212?m\366\244\032\241\324\376`\224\012\207\324\214"
 704      F6A41AA1 
 704      D4FE6094 
 704      0A87D48C 
 705 00fe CADA2825 		.ascii	"\312\332(%\337\315\254a\356Y\016|\320\177\352\370(\266"
 705      DFCDAC61 
 705      EE590E7C 
 705      D07FEAF8 
 705      28B6
 706 0110 BC43AF62 		.ascii	"\274C\257b\347y\237\025J\346[+\017e-\242\374\271\017"
 706      E7799F15 
 706      4AE65B2B 
 706      0F652DA2 
 706      FCB90F
 707 0123 65B95A7F 		.ascii	"e\271Z\177\026\365w\272.\215\321G\237\024\345\277]2"
 707      16F577BA 
 707      2E8DD147 
 707      9F14E5BF 
 707      5D32
ARM GAS  /tmp/ccPF9ufL.s 			page 56


 708 0135 737F57B7 		.ascii	"s\177W\267?\014\313\032Q~\351\222\331X\312|J\226\262"
 708      3F0CCB1A 
 708      517EE992 
 708      D958CA7C 
 708      4A96B2
 709 0148 C629EC0B 		.ascii	"\306)\354\013\345\273\254'\373\315\367>$\313\235\373"
 709      E5BBAC27 
 709      FBCDF73E 
 709      24CB9DFB 
 710 0158 FD1B961B 		.ascii	"\375\033\226\0333R\325\250x\334Z\321\206\351\264c<\347"
 710      3352D5A8 
 710      78DC5AD1 
 710      86E9B463 
 710      3CE7
 711 016a B9604EB2 		.ascii	"\271`N\262\365\227\216E\333\276m\033\277|(\376\014\302"
 711      F5978E45 
 711      DBBE6D1B 
 711      BF7C28FE 
 711      0CC2
 712 017c B90F6992 		.ascii	"\271\017i\222\371\231\327>\234\245Y\375\036\375\007"
 712      F999D73E 
 712      9CA559FD 
 712      1EFD07
 713 018b B7C1EBB0 		.ascii	"\267\301\353\260"
 714              		.text
 715              		.section	.gnu.lto_.refs.cf7c3ec6308678da,"",%progbits
 716 0000 789C2D4B 		.ascii	"x\234-K\011\022\2040\014\202\304\256\266\352z\217O\367"
 716      09128430 
 716      0C82C4AE 
 716      B6EA7A8F 
 716      4FF7
 717 0012 BBE6304C 		.ascii	"\273\3460L d@ x\220\243\000!\242\332\321\230E~\346\311"
 717      20644020 
 717      7890A300 
 717      21A2DAD1 
 717      98457EE6 
 718 0027 1ED48185 		.ascii	"\036\324\201\205\225M\307\3246\245\"r~yC\347\357\376"
 718      954DC7D4 
 718      36A52272 
 718      7E7943E7 
 718      EFFE
 719 0039 5B6B0165 		.ascii	"[k\001e\365\276n\221\022\335S\357\203D\2005\025gl1\276"
 719      F5BE6E91 
 719      12DD53EF 
 719      83448035 
 719      15676C31 
 720 004e C2B7F0FE 		.ascii	"\302\267\360\376\255\206\027\0036\002\336"
 720      AD861703 
 720      3602DE
 721              		.text
 722              		.section	.gnu.lto_.decls.cf7c3ec6308678da,"",%progbits
 723 0000 789CA55B 		.ascii	"x\234\245[\011p\024\327\231\356\327=\222FH\2008lcg\023"
 723      097014D7 
 723      99EED73D 
 723      92464880 
 723      386C6367 
 724 0015 E48D133B 		.ascii	"\344\215\023;\33622x+\313Vjm@f\201*\344P\222\234P\225"
ARM GAS  /tmp/ccPF9ufL.s 			page 57


 724      DE323278 
 724      2BCB566A 
 724      6D406681 
 724      2AE45092 
 725 002c DD4CDAA3 		.ascii	"\335L\332\243\006MY\232QfZ\034\273\225\270\305e#0\010"
 725      064D599A 
 725      51665A1C 
 725      BB95B8C5 
 725      65233008 
 726 0040 71582618 		.ascii	"qX&\030\204\025\002\016\230C\0300\2275\330A\210#\334"
 726      8415020E 
 726      98431830 
 726      9735D841 
 726      8823DC
 727 0053 06733972 		.ascii	"\006s9rl\307k\0340\2629cc\355\377^\277\236\351~\363"
 727      6CC76B1C 
 727      30B23963 
 727      63EDFF5E 
 727      BF9EE97E 
 728 0068 DE4C37EE 		.ascii	"\336L7\356\322\337\323\335\363\336\367\177\377\361\316"
 728      D2DFD3DD 
 728      F3DEF77F 
 728      FFF1CE
 729 0077 1EC9922C 		.ascii	"\036\311\222,]\315\221\244n8*\177\"I\237dKRoI\222\036"
 729      5DCD91A4 
 729      6E382A7F 
 729      22499F64 
 729      4B526F49 
 730 008d 07B90F64 		.ascii	"\007\271\017d%\310\253 \253A\326\202\254\007\331\000"
 730      25C8AB20 
 730      AB41D682 
 730      AC07D900 
 731 009d B209A415 		.ascii	"\262\011\244\025\344\015\220- \012\3106\2207Av\200\354"
 731      E40D902D 
 731      200AC836 
 731      90374176 
 731      80EC
 732 00af 04D90DF2 		.ascii	"\004\331\015\362\026H\034d\017\310; \177\002i\007\331"
 732      16481C64 
 732      0FC83B20 
 732      7F026907 
 732      D9
 733 00c0 07B21FE4 		.ascii	"\007\262\037\344\020\010\250'G\001\310\021\220\343 "
 733      1008A827 
 733      4701C811 
 733      90E320
 734 00cf 17412E81 		.ascii	"\027A.\201t\201\334\004AH\222\362@\276\013\362 \310"
 734      7481DC04 
 734      414892F2 
 734      40BE0BF2 
 734      20C8
 735 00e1 20902120 		.ascii	" \220! \377\016\362\037 1\220\311 ~(;\025>\377\027\344"
 735      FF0EF21F 
 735      203190C9 
 735      207E283B 
 735      153EFF17 
 736 00f6 37207520 		.ascii	"7 u \323Af\202<\0172\027I\216\003\353\353\005\362\237"
ARM GAS  /tmp/ccPF9ufL.s 			page 58


 736      D3416682 
 736      3C0F3217 
 736      498E03EB 
 736      EB05F29F 
 737 010a C8FCCC07 		.ascii	"\310\374\314\007\361\301u\011H\005H\013\334\317\203"
 737      F1C17509 
 737      4805480B 
 737      DCCF83
 738 0119 CFF920A3 		.ascii	"\317\371 \243@\032@\236\002\321@\026\200\310\360\375"
 738      401A409E 
 738      02D14016 
 738      80C8F0FD 
 739 0129 58F80C82 		.ascii	"X\370\014\202 \212\207}\201u[<\354\007\266\255\007\310"
 739      208A877D 
 739      81755B3C 
 739      EC07B6AD 
 739      07C8
 740 013b 41AA0763 		.ascii	"A\252\007c`|\354\207Fd\372\344\024\310\273 \007(\326"
 740      607CEC87 
 740      4664FAE4 
 740      14C8BB20 
 740      0728D6
 741 014e 5F403E04 		.ascii	"_@>\004\371@2\365a\214\205P\326\007\237\237HN[\355\007"
 741      F94032F5 
 741      618C8550 
 741      D6079F9F 
 741      484E5BED 
 742 0163 F6615FC6 		.ascii	"\366a_\306\266,)i[\031\307.\034cl\333\022\344\214}9"
 742      B62C2969 
 742      5B19C72E 
 742      1C636CDB 
 742      12E48C7D 
 743 0178 32B958B6 		.ascii	"2\271X\266\226R{\261\016D}n?.Q\277\0262~\375-2\371X"
 743      96527BB1 
 743      0E447D6E 
 743      3F2E51BF 
 743      16327EFD 
 744 0190 1C44FA59 		.ascii	"\034D\372Y\277^\242\276x\011n\036@\251\372p\236\370"
 744      BF5EA2BE 
 744      78096E1E 
 744      40A9FA70 
 744      9EF8
 745 01a2 A4A41FCF 		.ascii	"\244\244\037\317\303g\023-\203l\337_\223\2349a?p\236"
 745      C367132D 
 745      836CDF5F 
 745      939C3961 
 745      3F709E
 746 01b5 65538CF3 		.ascii	"eS\214\363R\2227\306\263\260dZ\256\213\372\3626Hw\032"
 746      529237C6 
 746      B3B0645A 
 746      AE8BFAF2 
 746      3648771A 
 747 01c9 4C92B7D4 		.ascii	"L\222\267\324v\013\017\343[yu\336\206\277\200\332*Q"
 747      760B0FE3 
 747      5B7975DE 
 747      86BF80DA 
 747      2A51
ARM GAS  /tmp/ccPF9ufL.s 			page 59


 748 01db 5B71DD2E 		.ascii	"[q\335.\032k\334Fr\3403\227\223\327l\216\341v\202\365"
 748      1A6BDC46 
 748      72E03397 
 748      93D76C8E 
 748      E17682F5 
 749 01ef E03ABD68 		.ascii	"\340:\275h\334\260\316\227\341z)\310A\033\027\273~\014"
 749      DCB0CE97 
 749      E17A29C8 
 749      411B17BB 
 749      7E0C
 750 0201 B309EBA0 		.ascii	"\263\011\353\240\030\207@\216\202\234\0009\005r\006"
 750      1887408E 
 750      829C0039 
 750      057206
 751 0210 E42394B4 		.ascii	"\344#\224\264\037\373\352\036\270\277\027\344;H\354"
 751      1FFBEA1E 
 751      B8BF17E4 
 751      3B48EC
 752 021f 03DC66FB 		.ascii	"\003\334f\373H\316<\304y\340\243va_X\371\200}r\021\344"
 752      48CE3CC4 
 752      79E0A376 
 752      615F58F9 
 752      807D7211 
 753 0234 B2C46F73 		.ascii	"\262\304os\366\274\220)\266\225\0338/>\343\344\306\203"
 753      F6BC9029 
 753      B6951B38 
 753      2F3EE3E4 
 753      C683
 754 0246 28B58DDB 		.ascii	"(\265\215\333u\362\364\\\240\276ARj.>Hu\377\013G\027"
 754      75F2F45C 
 754      A0BE4152 
 754      6A2E3E48 
 754      75FF0B47 
 755 025b EE97FA33 		.ascii	"\356\227\3723\272Jh[\263\372\223\363\002\333.P}n\332"
 755      BA4A685B 
 755      B3FA93F3 
 755      02DB2E50 
 755      7D6EDA
 756 026e 9E4C7559 		.ascii	"\236LuY\\\036\345p\031Bci\317=\334\036q\037\375w\232"
 756      5C1EE570 
 756      19426369 
 756      CF3DDC1E 
 756      711FFD77 
 757 0283 6F988F8F 		.ascii	"o\230\217\217\226\367\323:\227q\336\201\\\005\271\001"
 757      96F7D33A 
 757      9771DE81 
 757      5C05B901 
 758 0293 F20DB61B 		.ascii	"\362\015\266\033\224\370d\223\007\316\267\037\323<\264"
 758      94F86493 
 758      07CEB71F 
 758      D33CB4
 759 02a2 1FB82FCE 		.ascii	"\037\270/\316f\364\261:\020-g\341\374\204\203\203\373"
 759      66F4B13A 
 759      102D67E1 
 759      FC848383 
 759      FB
 760 02b3 F3E192D9 		.ascii	"\363\341\222\331\276\354m\306G}\207};\033\231}$\316"
ARM GAS  /tmp/ccPF9ufL.s 			page 60


 760      BEEC6DC6 
 760      477D877D 
 760      3B1B997D 
 760      24CE
 761 02c5 9F2790B3 		.ascii	"\237'\220\263\277\306\276\315\221\223c\324C(9\346Xc"
 761      BFC6BECD 
 761      919363D4 
 761      432839E6 
 761      5863
 762 02d7 901FBECF 		.ascii	"\220\037\276\317\225\3051\210K\346\230e\215a\326\230"
 762      95C53188 
 762      4BE69865 
 762      8D61D698 
 763 02e7 86FB6DDC 		.ascii	"\206\373m\334/\3436\223\007\365\363Az\201|\017%\307"
 763      2FE33693 
 763      07F5F341 
 763      7A817C0F 
 763      25C7
 764 02f9 3F2B762F 		.ascii	"?+v/\300\263\336\360]=|\026\310f\277n\265\307>p\257"
 764      C0B3DEF0 
 764      5D3D7C16 
 764      C866BF6E 
 764      B5C73E70 
 765 030e C3755FF8 		.ascii	"\303u_\370<\001\367\375d\263\015Z\343\2515\316\332\343"
 765      3C01F7FD 
 765      64B30D5A 
 765      E3A935CE 
 765      DAE3
 766 0320 7E4E32C7 		.ascii	"~N2\307\016\354\037+\366x\314\303}0n\007\375es\034\304"
 766      0EEC1F2B 
 766      F678CCC3 
 766      7D306E07 
 766      FD65731C 
 767 0335 E3C311EA 		.ascii	"\343\303\021\352\233\032\232\027\270]>O\333\350\\N\033"
 767      9B1A9A17 
 767      B85D3E4F 
 767      DBE85C4E 
 767      1B
 768 0346 CD93EA0D 		.ascii	"\315\223\352\015c\232\321<\313\030\335\321\253\217\324"
 768      639AD13C 
 768      CB18DDD1 
 768      AB8FD4
 769 0355 60C051D8 		.ascii	"`\300Q\330\324+Wz\001?\356\\e\014\030 I\343\221\212"
 769      D42B577A 
 769      013FEE5C 
 769      650C1820 
 769      49E3918A 
 770 0369 E0919F5C 		.ascii	"\340\221\237\\\344\347\022G\375@\372=\024\205\362\262"
 770      E4E71247 
 770      FD40FA3D 
 770      1485F2B2 
 771 0379 8A5A502E 		.ascii	"\212ZP.$\243\314@[\207\371=>pu\363\332\272\352F\011"
 771      24A3CC40 
 771      5B87F93D 
 771      3E7075F3 
 771      DABAEA46 
 772 038e F40116BA 		.ascii	"\364\001\026\272Bk\275\212\372\220+\302\305\240\024"
ARM GAS  /tmp/ccPF9ufL.s 			page 61


 772      426BBD8A 
 772      FA902BC2 
 772      C5A014
 773 039d 49095AA3 		.ascii	"I\011Z\243\320\252\341\2435\376`\323\223\237\233\274"
 773      D0AAE1A3 
 773      35FE60D3 
 773      939F9BBC 
 774 03ad 90291351 		.ascii	"\220)\023Q\275\225(\317\"K\0157\225\361k\020\313\033"
 774      BD9528CF 
 774      224B0D37 
 774      95F16B10 
 774      CB1B
 775 03bf 3AE77F76 		.ascii	":\347\177vK6\014\277\212V\023\353!\250\017K\257\231"
 775      4B360CBF 
 775      8A5613EB 
 775      21A80F4B 
 775      AF99
 776 03d1 2EF9EBE3 		.ascii	".\371\353\343<W\250(+7\345^E\177D\017SjY\271\311\013"
 776      3C57A828 
 776      2B37E55E 
 776      457F440F 
 776      536A59B9 
 777 03e7 3C2FEB9D 		.ascii	"</\353\235\240\203\343\320\324+M \032:\027\325?b\370"
 777      A083E3D0 
 777      D42B4D20 
 777      1A3A17D5 
 777      3F62F8
 778 03fa 54B49690 		.ascii	"T\264\226\220\371\000\206\020\013\331T\205\030\325\310"
 778      F9008610 
 778      0BD95485 
 778      18D5C8
 779 0409 A93A1114 		.ascii	"\251:\021\024\032\023^Z4\017k\352eF\215\322\030f\321"
 779      1A135E5A 
 779      340F6BEA 
 779      65468DD2 
 779      1866D1
 780 041c F053D00D 		.ascii	"\360S\320\015\236#\266Q\0201kj(\252\267>\0311\036\325"
 780      9E23B651 
 780      10316B6A 
 780      28AAB73E 
 780      19311ED5 
 781 0430 CE2C86AA 		.ascii	"\316,\206\252\303c\030\240\3253\325\315\002\252R\006"
 781      C36318A0 
 781      D533D5CD 
 781      02AA5206 
 782 0440 AA9BD253 		.ascii	"\252\233\322S-d\2306#\013\240?\005\330\342\231\352V"
 782      2D649836 
 782      230BA03F 
 782      05D8E299 
 782      EA56
 783 0452 01D57E19 		.ascii	"\001\325~\031\250\276\221\236jJ\002\0248\033\230\212"
 783      A8BE919E 
 783      6A4A0214 
 783      381B988A 
 784 0462 DEF44C75 		.ascii	"\336\364Lu\273\200*\312@u\2337\257\256Ix\365.\012\260"
 784      BB802ACA 
 784      40759B37 
ARM GAS  /tmp/ccPF9ufL.s 			page 62


 784      AFAE4978 
 784      F52E0AB0 
 785 0476 D333D55D 		.ascii	"\3233\325]\002\252\3753P\335\3411\001d\013\340\001\012"
 785      02AAFD33 
 785      50DDE131 
 785      01640BE0 
 785      010A
 786 0488 F09667AA 		.ascii	"\360\226g\252m\002\252\337\317@u\2677\252o&\274z\017"
 786      6D02AADF 
 786      CF4075B7 
 786      37AA6F26 
 786      BC7A0F
 787 049b 05D8E399 		.ascii	"\005\330\343\231\352\333\002\252wg\240\032\367\230\253"
 787      EADB02AA 
 787      7767A01A 
 787      F798AB
 788 04aa 29007FF2 		.ascii	")\000\177\362Lu\257\200\252\222\201\352;\336\274z4\341"
 788      4C75AF80 
 788      AA9281EA 
 788      3BDEBC7A 
 788      34E1
 789 04bc D5FB28C0 		.ascii	"\325\373(\300>\317T;\004T\357\315@\265\235C5\016\312"
 789      3ECF543B 
 789      0454EFCD 
 789      40B59D43 
 789      350ECA
 790 04cf EE961653 		.ascii	"\356\226\026S\315\006\322U\364\370]B\204\003\350nz\365"
 790      CD06D255 
 790      F4F85D42 
 790      8403E86E 
 790      7AF5
 791 04e1 B4924E97 		.ascii	"\264\222N\227\303\023f5\021\344A e\033\315l\227~\351"
 791      C3136635 
 791      11E44120 
 791      651BCD6C 
 791      977EE9
 792 04f4 79323CCE 		.ascii	"y2<\3164\352\320\2573\317S\016!?tU\237\"\341D\005\027"
 792      34EAD0AF 
 792      33CF530E 
 792      213F7455 
 792      9F22E144 
 793 050a B0289BD7 		.ascii	"\260(\233\327\326\025T\031(-7\342W:\333\346\357;\206"
 793      D6155419 
 793      282D37E2 
 793      573ADBE6 
 793      EF3B86
 794 051d 164C373A 		.ascii	"\026L7:\214+x\2106\251\313\322\\\3319\344J\322\017\245"
 794      8C2B7888 
 794      36A9CBD2 
 794      5CD939E4 
 794      4AD20FA5 
 795 0531 55D867C6 		.ascii	"U\330g\306\032C!\036\303\012\216\240\201N\215G\221l"
 795      1A43211E 
 795      C30A8EA0 
 795      814E8D47 
 795      916C
 796 0543 7F60EA88 		.ascii	"\177`\352\210\357h\317o\250\353\354\356\036\350\336"
ARM GAS  /tmp/ccPF9ufL.s 			page 63


 796      EF68CF6F 
 796      A8EBECEE 
 796      1EE8DE
 797 0552 EF27A8DF 		.ascii	"\357'\250\337\025\2633v\270\267\257\264\200\240\000"
 797      15B33376 
 797      B8B7AFB4 
 797      80A000
 798 0561 886D5263 		.ascii	"\210mRc$\362\254@JL#\276l\334;\030f5\264F\241\260\270"
 798      24F2AC40 
 798      4A4C23BE 
 798      6CDC3B18 
 798      6635B446 
 799 0578 8A4EA31F 		.ascii	"\212N\243\037H\031\213\341\202gP_\352\0313\026\361\257"
 799      48198BE1 
 799      8267505F 
 799      EA193316 
 799      F1AF
 800 058a B442F3A9 		.ascii	"\264B\363\251\304x\314v\334/\001\333i\361\333\267;\220"
 800      C478CC76 
 800      DC2F01DB 
 800      69F1DBB7 
 800      3B90
 801 059c D198EFB0 		.ascii	"\321\230\357\260&1'\212\013\347D*\372=\260s9\361Lq\345"
 801      2631278A 
 801      0BE7442A 
 801      FA3DB073 
 801      39F14C71 
 802 05b1 F9642390 		.ascii	"\371d#\220\245\255$\256\230-\257\270c\016@\0138-\350"
 802      A5AD24AE 
 802      982DAFB8 
 802      630E400B 
 802      382DE8
 803 05c4 FE945860 		.ascii	"\376\224X`f\261,\355\364\014W\350\200k\200\314P-\260"
 803      66B12CED 
 803      F40C57E8 
 803      806B80CC 
 803      502DB0
 804 05d7 3D6EC0FC 		.ascii	"=n\300\374bn\215v\260\003\236\301\012\231\230\231\301"
 804      626E8D76 
 804      B0039EC1 
 804      0A999899 
 804      C1
 805 05e8 54D159E2 		.ascii	"T\321Y\342\373s\350~8\377\205\234? \347\017\341\234"
 805      FB73E87E 
 805      38FF859C 
 805      3F20E70F 
 805      E19C
 806 05fa 3864E9B8 		.ascii	"8d\351\270\314NR\315\234\260\341%SG\312\214(\012\347"
 806      CC4E52CD 
 806      9CB0E125 
 806      5347CA8C 
 806      280AE7
 807 060d BBC97026 		.ascii	"\273\311p&;%\302\340\002\303\340\001\251\3050\032;\333"
 807      3B25C2E0 
 807      02C3E001 
 807      A9C5301A 
 807      3BDB
ARM GAS  /tmp/ccPF9ufL.s 			page 64


 808 061f 8E1CDE83 		.ascii	"\216\034\336\203\026O7F\233ue\351\")w\034\332.OGB\003"
 808      164F3746 
 808      9B7565E9 
 808      2229771C 
 808      DA2E4F47 
 809 0635 6DF03B8D 		.ascii	"m\360;\215q\003\022\015\3768\333\340\377\306m\360W\255"
 809      7103120D 
 809      FE38DBE0 
 809      FFC66DF0 
 809      57AD
 810 0647 066F7527 		.ascii	"\006ou'\227]u'\027Y\364\317\270\350g\352\017\326A\022"
 810      975D7527 
 810      1759F4CF 
 810      B8E867EA 
 810      0FD64112 
 811 065b 1A5F7777 		.ascii	"\032_ww+\222\373.\345rJW.K\267\370\274\032\234\274."
 811      2B92FB2E 
 811      E5724A57 
 811      2E4BB7F8 
 811      BC1A9CBC 
 812 0670 B1BC3E4F 		.ascii	"\261\274>O\345\325y%\276l\237i\365\212a\014)\334\343"
 812      E5D57925 
 812      BE6C9F69 
 812      F58A610C 
 812      29DCE3
 813 0683 8A587DE1 		.ascii	"\212X}\341\354\350\314\346\312\004v\256\302\013\254"
 813      ECE8CCE6 
 813      CA0476AE 
 813      C20BAC
 814 0692 F155C568 		.ascii	"\361U\305h\263\270,\275DJt\011Cz\336\026\322i\306\245"
 814      B3B82CBD 
 814      444A7409 
 814      437ADE16 
 814      D269C6A5 
 815 06a6 99330B12 		.ascii	"\2313\013\022C\202\243\032\263\260 __\345\032\273\353"
 815      4382A31A 
 815      B3B0205F 
 815      5FE51ABB 
 815      EB
 816 06b7 4E8CBDC5 		.ascii	"N\214\275\305\032\213\013;,\227R\262\372w|\343\273\376"
 816      1A8B0B3B 
 816      2C9752B2 
 816      FA777CE3 
 816      BBFE
 817 06c9 6B803502 		.ascii	"k\2005\002\256!%n\012\254\240v\322jm\332h\313\305\327"
 817      AE21256E 
 817      0AACA076 
 817      D26A6DDA 
 817      68CBC5D7 
 818 06dd C12E4735 		.ascii	"\301.G5/>\023i\243\206~\235\352\263\346\316\370\331"
 818      2F3E1369 
 818      A3867E9D 
 818      EAB3E6CE 
 818      F8D9
 819 06ef 7DFC7130 		.ascii	"}\374q0\235\313\246\311\342\2010\375\214p\206\234\350"
 819      9DCBA6C9 
 819      E28130FD 
ARM GAS  /tmp/ccPF9ufL.s 			page 65


 819      8C70869C 
 819      E8
 820 0700 2832B8B8 		.ascii	"(2\270\270\225\357\342\305\330W\030E\226:H\211:Y\344"
 820      95EFE2C5 
 820      D8571845 
 820      963A4889 
 820      3A59E4
 821 0713 2BA2CB8A 		.ascii	"+\242\313\212\014\353bq\265\264.\266U\343\271x\226\314"
 821      0CEB6271 
 821      B5B42EB6 
 821      55E3B978 
 821      96CC
 822 0725 73F1D203 		.ascii	"s\361\322\003\336]<\327\351b: \033\263\214\207\326$"
 822      DE5D3CD7 
 822      E9623A20 
 822      1BB38C87 
 822      D624
 823 0737 0764C7E2 		.ascii	"\007d\307\342\220\316.N\274\277\365a\262g2O\306\317"
 823      90CE2E4E 
 823      BCBFF561 
 823      B267324F 
 823      C6CF
 824 0749 AF336E74 		.ascii	"\2573nt\017\264\270~\333P\002\264\200\000\031>v(Q\230"
 824      0FB4B87E 
 824      DB5002B4 
 824      8000193E 
 824      76285198 
 825 075d FD0EC5B9 		.ascii	"\375\016\305\271\337\241\344&/p\247\350\255p\";\260"
 825      DFA1E426 
 825      2F70A7E8 
 825      AD70223B 
 825      B0
 826 076e 1999B365 		.ascii	"\031\231\263e\266O0\314\2647\242\231\323\215\207,w\274"
 826      B64F30CC 
 826      B437A299 
 826      D38D872C 
 826      77BC
 827 0780 4ACACD49 		.ascii	"J\312\315IF\321a9\325fV\216/\253\317\037g\325[\343\241"
 827      46D16139 
 827      D566568E 
 827      2FABCF1F 
 827      67D55BE3 
 828 0795 DE8A03AF 		.ascii	"\336\212\003\257\337k4\313\316|\233\343.\337\342\277"
 828      DF6B34CB 
 828      CE7C9BE3 
 828      2EDFE2BF 
 829 07a5 ABDFB912 		.ascii	"\253\337\271\022\031\331\311\214\233\223>\343\226\244"
 829      19D9C98C 
 829      9B933EE3 
 829      96A4
 830 07b3 661C7484 		.ascii	"f\034t\204\357\035\020t\204i\206\242\345\334\214s\261"
 830      EF1D1074 
 830      846986A2 
 830      E5DC8C73 
 830      B1
 831 07c4 4BB7B8FE 		.ascii	"K\267\270\376d\027\202\224\202/\232\211"
 831      64178294 
ARM GAS  /tmp/ccPF9ufL.s 			page 66


 831      822F9A89 
 832 07d0 B3D6A5A4 		.ascii	"\263\326\245\244J\016\223*9\316\350\347\344&/\350\256"
 832      4A0E932A 
 832      39CEE8E7 
 832      E4262FE8 
 832      AE
 833 07e1 1C13DF2D 		.ascii	"\034\023\337-\202\370\316?\325\212\026\222i\204\251"
 833      82F8CE3F 
 833      D58A1692 
 833      6984A9
 834 07f0 7A0F29F7 		.ascii	"z\017)\367\212\320\331\315f6\321\201\376E\2034n:\242"
 834      8AD0D9CD 
 834      6636D181 
 834      FE458334 
 834      6E3AA2
 835 0803 E25A0E96 		.ascii	"\342Z\016\226-\\\337\266\036\364\356\3335r\346\001\365"
 835      2D5CDFB6 
 835      1EF4EEDB 
 835      3572E601 
 835      F5
 836 0814 1DAE89F6 		.ascii	"\035\256\211\366\001\3650)\261\332U&\261\306\255f\215"
 836      01F53029 
 836      B1DA5526 
 836      B1C6AD66 
 836      8D
 837 0825 FB23D7B8 		.ascii	"\373#\327\270\363\007\023\223$\314Y\226N\360YuW$\372"
 837      F3071393 
 837      24CC5996 
 837      4EF05975 
 837      5724FA
 838 0838 D37532CE 		.ascii	"\323u2\316\357\365w\304j=\313j\003\267\003]r\330\363"
 838      EFF577C4 
 838      6A3DCB6A 
 838      03B7035D 
 838      72D8F3
 839 084b 5A6D33EB 		.ascii	"Zm3\353\361\026\262\035\353\360x'\337\266\033x\0247"
 839      F116B21D 
 839      EBF07827 
 839      DFB61B78 
 839      1437
 840 085d F7DBAF90 		.ascii	"\367\333\257\220\022\255\202&\230X\374pmkem\333\302"
 840      12AD8226 
 840      9858FC70 
 840      6D6B656D 
 840      DBC2
 841 086f B5EDE4E1 		.ascii	"\265\355\344\341\204\3077\023\217_\027\344\201\305J"
 841      84C73713 
 841      8F5F17E4 
 841      81C54A
 842 087e 45DB88C7 		.ascii	"E\333\210\307\267\337\021\253\355,\253\035\\V/\0359"
 842      B7DF11AB 
 842      ED2CAB1D 
 842      5C562F1D 
 842      39
 843 088f C89FCD3A 		.ascii	"\310\237\315:\366G\322v\013\233.v\014\330m\030\005*"
 843      F647D276 
 843      0B9B2E76 
ARM GAS  /tmp/ccPF9ufL.s 			page 67


 843      0CD86D18 
 843      052A
 844 08a1 6A339B66 		.ascii	"j3\233f\026g$r\205\264\370\300\221c\264\203y\233@\355"
 844      16672472 
 844      85B4F8C0 
 844      9163B483 
 844      799B40ED 
 845 08b5 CB623B98 		.ascii	"\313b;\230l\246\203\311vv0p\213u\335\304\235\013z\216"
 845      6CA683C9 
 845      76763070 
 845      8B75DDC4 
 845      9D0B7A8E 
 846 08c9 3EC13739 		.ascii	">\30179\322\035\327\023e\336[i&G\326.Av\006\213\333"
 846      D21DD713 
 846      65DE5B69 
 846      2647D62E 
 846      4176068B 
 847 08de 2EBF77DF 		.ascii	".\277w\337tb\360>\271/\316\011\306\340\2148d\233Hf6"
 847      7462F03E 
 847      B92FCE09 
 847      C6E08C38 
 847      649B4866 
 848 08f3 05DADAF3 		.ascii	"\005\332\332\363\361\373\013\374<\363\266\300\211\366"
 848      F1FB0BFC 
 848      3CF3B6C0 
 848      89F6
 849 0901 75308ABD 		.ascii	"u0\212\275\215<\357r\310\322\234l\224y\333BEGH\032\037"
 849      8D3CEF72 
 849      C8D29C6C 
 849      9479DB42 
 849      4547481A 
 850 0916 6559BE32 		.ascii	"eY\2762\213\260<\352\212\345\212\366\375)\233\027L'"
 850      8BB03CEA 
 850      8AE58AF6 
 850      FD299B17 
 850      4C27
 851 0928 B13ACD74 		.ascii	"\261:\315t\364$\333K<\221\307\215\233\253\375\220ud"
 851      F424DB4B 
 851      3C91C78D 
 851      9BABFD90 
 851      7564
 852 093a 4D9EE1AD 		.ascii	"M\236\341\255\217\210\311\351\344\304\330\316g\265\331"
 852      8F88C9E9 
 852      E4C4D8CE 
 852      67B5D9
 853 0949 941D1D97 		.ascii	"\224\035\035\227p{J\266\355\251\264d#\352\334;\332S"
 853      707B4AB6 
 853      EDA9B464 
 853      23EADC3B 
 853      DA53
 854 095b 315A0D23 		.ascii	"1Z\015#7\373N\335z\301\245[\315wi\"\224\316o\357\222"
 854      37FB4EDD 
 854      7AC1A55B 
 854      CD776922 
 854      94CE6FEF 
 855 0970 F37697BC 		.ascii	"\363v\227\274\346\331%\205\336\\\202\3739\021\223\217"
 855      E6D92585 
ARM GAS  /tmp/ccPF9ufL.s 			page 68


 855      DE5C82FB 
 855      3911938F 
 856 0980 C52E31BD 		.ascii	"\305.1\275\340\326\244\217\354&\255wc\222xw\352\333"
 856      E0D6A48F 
 856      EC26AD77 
 856      63927877 
 856      EADB
 857 0992 99F419C7 		.ascii	"\231\364\031\307$W&\\\264\233\320\352\331\204B\311y"
 857      2457265C 
 857      B49BD0EA 
 857      D98442C9 
 857      79
 858 09a3 2477AF8E 		.ascii	"$w\257\216\313x\307\352\0349\177H\316\237\312.v\257"
 858      CB78C7EA 
 858      1C397F48 
 858      CE9FCA2E 
 858      76AF
 859 09b5 FE6CE7B3 		.ascii	"\376l\347\263\225\3609\340\275\341\360\016{'\254\242"
 859      95F039E0 
 859      BDE1F00E 
 859      7B27ACA2 
 860 09c5 8332EE20 		.ascii	"\2032\356 \016\271\241\324.\2136\324vd\013V:\037\267"
 860      0EB9A1D4 
 860      2E8B36D4 
 860      76640B56 
 860      3A1FB7
 861 09d8 D00DB576 		.ascii	"\320\015\265v\262:\336G\312\355\026N\313\250\006:I\330"
 861      B23ADE47 
 861      CAED164E 
 861      CBA8063A 
 861      49D8
 862 09ea 306B6681 		.ascii	"0kf\201\317\014\267\224\246\032%\3649g\356\330\320\271"
 862      CF0CB794 
 862      A61A25F4 
 862      3967EED8 
 862      D0B9
 863 09fc FB7AC798 		.ascii	"\373z\307\230\246Vc\306l\343\233\356\347\220\373\251"
 863      A65663C6 
 863      6CE39BEE 
 863      E790FBA9 
 864 0a0c DA55368F 		.ascii	"\332U6\217\360b\212\261\372\013\306j\213\311u.\223\257"
 864      F0628AB1 
 864      FA0BC66A 
 864      8BC9752E 
 864      93AF
 865 0a1e 6EDCFCCE 		.ascii	"n\334\374\316\222\351\315\314\353\203\3259|\214\233"
 865      92E9CDCC 
 865      EB83D539 
 865      7C8C9B
 866 0a2d 4E8C7F96 		.ascii	"N\214\177\226V\032\306qp\350\356\307_6\3423\014<\011"
 866      561AC671 
 866      70E8EEC7 
 866      5F36E233 
 866      0C3C09
 867 0a40 42C872EB 		.ascii	"B\310r\353\256\004\210\310\234\177$\341L\250\370\265"
 867      AE0488C8 
 867      9C7F24E1 
ARM GAS  /tmp/ccPF9ufL.s 			page 69


 867      4CA8F8B5 
 868 0a50 5B787FDA 		.ascii	"[x\177\332 l\254\315\213\275\031q\276v\342\304\217\306"
 868      206CACCD 
 868      8BBD1971 
 868      BE76E2C4 
 868      8FC6
 869 0a62 BFBCE6B7 		.ascii	"\277\274\346\267`\004\357\265R\337\014|#{}\257\325-"
 869      6004EFB5 
 869      52DF0C7C 
 869      237B7DAF 
 869      D52D
 870 0a74 F3DF6BF5 		.ascii	"\363\337k\365N\004\343\010\313=U\255\241\260Nx\377\277"
 870      4E04E308 
 870      CB3D55AD 
 870      A1B04E78 
 870      FFBF
 871 0a86 9B6070EF 		.ascii	"\233`p\357\356~\302\332!\373+\213\222\362\003\202iN"
 871      EE7EC2DA 
 871      21FB2B8B 
 871      92F20382 
 871      694E
 872 0a98 90E6E3F1 		.ascii	"\220\346\343\361\235g\3626\202\025\335\335\317Y(_dD"
 872      9D67F236 
 872      8215DDDD 
 872      CF59285F 
 872      6444
 873 0aaa 999142A5 		.ascii	"\231\221B\245k\323~[<\314\265\325t\177\246x\314r\342"
 873      6BD37E5B 
 873      3CCCB5D5 
 873      747FA678 
 873      CC72E2
 874 0abd 9034FBBF 		.ascii	"\2204\373\277Uh\221\001y\206\015C\003\255\240t\364r"
 874      55689101 
 874      79860D43 
 874      03ADA074 
 874      F472
 875 0acf 74A98EB7 		.ascii	"t\251\216\267|*:%\330\376g\366\321EEf+\366Q\221>|A\351"
 875      7C2A3A25 
 875      D8FE67F6 
 875      D1454566 
 875      2BF65191 
 876 0ae7 637F204B 		.ascii	"c\177 KM~6\327U4\207u',\237\327\335\347\310\361,<\273"
 876      4D7E36D7 
 876      55348775 
 876      272C9FD7 
 876      DDE7C8F1 
 877 0afe 6EC9E88A 		.ascii	"n\311\350\212\027\223H\314x\216\323MTk\236\302\177G"
 877      179348CC 
 877      788ED34D 
 877      546B9EC2 
 877      7F47
 878 0b10 6B362D51 		.ascii	"k6-Q\255\371\234Z\246#\361\220\352b\224dt\315H\243k"
 878      ADF99C5A 
 878      A623F190 
 878      EA629464 
 878      74CD48A3 
 879 0b25 819061BA 		.ascii	"\201\220a\272\255\272\306d-\3722`a\373<\230;O\203\244"
ARM GAS  /tmp/ccPF9ufL.s 			page 70


 879      ADBAC664 
 879      2DFA3260 
 879      61FB3C98 
 879      3B4F83A4 
 880 0b39 683350A2 		.ascii	"h3P\242\377y=%&\274\367\015\013\025f\201\266HqtO\214"
 880      FF793D25 
 880      26BCF70D 
 880      0B156681 
 880      B6487174 
 881 0b4f 134EA671 		.ascii	"\023N\246q\202mB\370\240\364\007<\267\336r\242\243\016"
 881      826D42F8 
 881      A0F4073C 
 881      B7DE72A2 
 881      A30E
 882 0b61 1526B641 		.ascii	"\025&\266A8\250\246\271\270M\210P\233\222\346\222Ne"
 882      38A8A6B9 
 882      B84D8850 
 882      9B92E692 
 882      4E65
 883 0b73 7ADA259C 		.ascii	"z\332%\234\212V\222Q/\363\216\017o\305\220mA\375JJ\254"
 883      8A569251 
 883      2FF38E0F 
 883      6FC5906D 
 883      41FD4A4A 
 884 0b88 8DAEB574 		.ascii	"\215\256\265t\205\315\265\321R\005\257\215.\371\271"
 884      85CDB5D1 
 884      5205AF8D 
 884      2EF9B9
 885 0b97 6B23310E 		.ascii	"k#1\016\331\353Q\230U\307\302sd\325\201\237gXu\314\230"
 885      D9EB5198 
 885      55C7C273 
 885      64D5819F 
 885      675875CC 
 886 0bac 1E5F7C6E 		.ascii	"\036_|n\031Y\033\251\350e\005\267\230[\204\002\256{"
 886      19591BA9 
 886      E86505B7 
 886      985B8402 
 886      AE7B
 887 0bbe 07936DC0 		.ascii	"\007\223m\300[r\216\274$4\301n{\006+t\2005\331\301\352"
 887      5B728EBC 
 887      2434C16E 
 887      7B062B74 
 887      8035D9C1 
 888 0bd3 725D8089 		.ascii	"r]\200\211&\210\000\266\324\0166\3133\230\223\3312;"
 888      268800B6 
 888      D40E36CB 
 888      339893D9 
 888      323B
 889 0be5 D81C3760 		.ascii	"\330\0347`\005bf\313\355`\363<\2039\231m\264\2035\272"
 889      056266CB 
 889      ED60F33C 
 889      8339996D 
 889      B48335BA 
 890 0bf9 011B2066 		.ascii	"\001\033 f\326j\007k\362\014\346d\366\206\035l\271\033"
 890      D66A076B 
 890      F20CE664 
 890      F6861D6C 
ARM GAS  /tmp/ccPF9ufL.s 			page 71


 890      B91B
 891 0c0b B04231B3 		.ascii	"\260B1\263\255v\260\026\317`Nfo\332\301V\273\001{H\314"
 891      AD76B016 
 891      CF604E66 
 891      6FDAC156 
 891      BB017B48 
 892 0c20 6C871D6C 		.ascii	"l\207\035l\255g0'\263]v\260\015n\300\036\0251\253\213"
 892      AD673027 
 892      B35D76B0 
 892      0D6EC01E 
 892      1531AB8B 
 893 0c34 BFF58B06 		.ascii	"\277\365\213\00659\260\233\250\202i\217\275X\263\234"
 893      3539B09B 
 893      A882698F 
 893      BD58B39C 
 894 0c44 6652B693 		.ascii	"fR\266\223\016\327\311\337;\261\267\262\264\231\345"
 894      0ED7C9DF 
 894      3BB1B7B2 
 894      B499E5
 895 0c53 ED84E111 		.ascii	"\355\204\341\021wz\341\250\335\013\333\334xa\230\030"
 895      777AE1A8 
 895      DD0BDBDC 
 895      78619818 
 896 0c63 ECB81D6C 		.ascii	"\354\270\035l\227\033\260\321\342`\237\264\203\305="
 896      971BB0D1 
 896      E2609FB4 
 896      83C53D
 897 0c72 8339999D 		.ascii	"\2039\231\235\262\203\355u\0036N\314\354=;X\207g0;\263"
 897      B283ED75 
 897      03364ECC 
 897      EC3D3B58 
 897      8767303B 
 898 0c87 BAF8D964 		.ascii	"\272\370\331d\3464\017cRg\230\263\273t\024\263\245\016"
 898      E6340F63 
 898      526798B3 
 898      BB7414B3 
 898      A50E
 899 0c99 534C45FB 		.ascii	"SLE\373\023\231\263\335\2319\333\223\231s\230\345\355"
 899      1399B3DD 
 899      9939DB93 
 899      997398E5 
 899      ED
 900 0caa 40A197E3 		.ascii	"@\241\227\3439N\340\035\366\241RE\313\025<\226\257P"
 900      394EE01D 
 900      F6A15245 
 900      CB153C96 
 900      AF50
 901 0cbc F0D27A25 		.ascii	"\360\322z%9\267\220\363*r^M\316\257\221\363Zr~\235\234"
 901      39B790F3 
 901      2A725E4D 
 901      CEAF91F3 
 901      5A727E9D 
 902 0cd1 3790F326 		.ascii	"7\220\363&r\336L\316[\310y\0339o'\347\335\344\334F\316"
 902      72DE4CCE 
 902      5BC8791B 
 902      396F27E7 
 902      DDE4DC46 
ARM GAS  /tmp/ccPF9ufL.s 			page 72


 903 0ce6 7BC8F91D 		.ascii	"{\310\371\035r\336K\316\373\024\333\232\231\231\253"
 903      72DE4BCE 
 903      FB14DB9A 
 903      9999AB
 904 0cf5 2C150408 		.ascii	",\025\004\010s?\310N\315:O\255\337\363J\362\247e\315"
 904      733FC84E 
 904      CD3A4FAD 
 904      DFF34AF2 
 904      A765CD
 905 0d08 7E66993A 		.ascii	"~f\231:/\315~\307\237\225\324\337j|\231\313\235\323"
 905      2FCD7EC7 
 905      9F95D4DF 
 905      6A7C99CB 
 905      9DD3
 906 0d1a 4D3336AE 		.ascii	"M36\2561\262\254\227\2270}T\370/\016)\336a%e\025\013"
 906      31B2AC97 
 906      97307D54 
 906      F82F0E29 
 906      DE612565 
 907 0d30 5437B6EE 		.ascii	"T7\266\356\011\221\3319,w\3567\325CG\333\303\225\302"
 907      0991D939 
 907      2C77EE37 
 907      D54347DB 
 907      C395C2
 908 0d43 A3E9151E 		.ascii	"\243\351\025\036\343*\274\272y\377wS\024^t\247\360D"
 908      E32ABCBA 
 908      79FF7753 
 908      145E74A7 
 908      F044
 909 0d55 7A8527B9 		.ascii	"z\205'\271\012\277\336v\346G)\012[\363\\)<\225^\341"
 909      0ABFDE76 
 909      E647290A 
 909      5BF35C29 
 909      3C955EE1 
 910 0d69 E9548547 		.ascii	"\351T\205G\257t\236^\177f\005\332\263j\226\201_\271"
 910      AF749E5E 
 910      7F6605DA 
 910      B36A9681 
 910      5FB9
 911 0d7b 3CB7225E 		.ascii	"<\267\"^\340\341\215\374Y\205\263M!|MM\357\231m\214"
 911      E0E18DFC 
 911      5985B34D 
 911      217C4D4D 
 911      EF996D8C 
 912 0d8f BD8C6DF4 		.ascii	"\275\214m\364\335\316\273j\342\005\365\031R\342\214"
 912      DDCEBB6A 
 912      E205F519 
 912      52E28C
 913 0d9e C038E78B 		.ascii	"\3008\347\213\346\233\237\304\221\321\303\332/i\"\333"
 913      E69B9FC4 
 913      91D1C3DA 
 913      2F6922DB 
 914 0dae E9EE6AFE 		.ascii	"\351\356j\376\303Qs\251\233\232\2117\3247>\351\224_"
 914      C35173A9 
 914      9B9A8937 
 914      D4373EE9 
 914      945F
ARM GAS  /tmp/ccPF9ufL.s 			page 73


 915 0dc0 5A1447C9 		.ascii	"Z\024G\311W\324\266\232\274W\324\357sC\001\331=\305"
 915      57D4B69A 
 915      BC57D4EF 
 915      734301D9 
 915      3DC5
 916 0dd2 16FBB324 		.ascii	"\026\373\263$\366\357\363\375s\314\362\217\212:\025"
 916      F6EFF3FD 
 916      73CCF28F 
 916      8A3A15
 917 0de1 CCF52357 		.ascii	"\314\365#WV6.\267^\340[\336qWo\221\255\336R7\365\022"
 917      56362EB7 
 917      5EE05BDE 
 917      71576F91 
 917      ADDE5237 
 918 0df7 BE59B07C 		.ascii	"\276Y\260|\311=\365\277Jz\346\243\364\236\371X\260\264"
 918      C93DF5BF 
 918      4A7AE6A3 
 918      F49EF958 
 918      B0B4
 919 0e09 333BB6CB 		.ascii	"3;\266\313i~\257{Qa\226v\260\226\277\324\377\345\006"
 919      697EAF7B 
 919      51619676 
 919      B096BFD4 
 919      FFE506
 920 0e1c 3F676D27 		.ascii	"?gm'\330+\032ja\346P\314\277+^\267\212.)\374\255\242"
 920      D82B1A6A 
 920      61E650CC 
 920      BF2B5EB7 
 920      8A2E29FC 
 921 0e32 6C5BA8E3 		.ascii	"l[\250\343\244\325\375f]\253a\220\215\301\272\031\310"
 921      A4D5FD66 
 921      5DAB6190 
 921      8DC1BA19 
 921      C8
 922 0e43 5A105FE1 		.ascii	"Z\020_\341\267tfA|\231]\020\177\316\355Kn\266u\375\322"
 922      B7746641 
 922      7C995D10 
 922      7FCEED4B 
 922      6EB675FD 
 923 0e58 964FA686 		.ascii	"\226O\246\206e\371n4t\261\032\276\340jX\366\341\261"
 923      65F96E34 
 923      74B11ABE 
 923      E06A58F6 
 923      E1B1
 924 0e6a A5F6A1C3 		.ascii	"\245\366\241\303Rr\322\225\222\253\254\222k\\%\267\377"
 924      5272D295 
 924      92ABAC92 
 924      6B5C25B7 
 924      FF
 925 0e7b D635FA56 		.ascii	"\3265\372V\322W\367\233\277\313\220\245\206\236v%\244"
 925      D257F79B 
 925      BFCB90A5 
 925      869E7625 
 925      A4
 926 0e8c 9B81F540 		.ascii	"\233\201\365@O\232LV;i\317o@\211_a\220\0327\024w?\205"
 926      4F9A4C56 
 926      3B69CF6F 
ARM GAS  /tmp/ccPF9ufL.s 			page 74


 926      40895F61 
 926      901A3714 
 927 0ea3 F8B2CEF6 		.ascii	"\370\262\316\366\213\312\033,\327\233\\\256\247\327"
 927      8BCA1B2C 
 927      D79B5CAE 
 927      A7D7
 928 0eb1 77FD9617 		.ascii	"w\375\226\027\327\326\236n\034\362\015\253\244[\020"
 928      D7D69E6E 
 928      1CF20DAB 
 928      A45B10
 929 0ec0 D7639529 		.ascii	"\327c\225)q\215\273\322P\347c4L\363\011\342\372\012"
 929      718DBBD2 
 929      50E76334 
 929      4CF309E2 
 929      FA0A
 930 0ed2 2FAE875C 		.ascii	"/\256\207\\)\231\301*\231\351K\327\250\327\244\331\257"
 930      2999C12A 
 930      99E94BD7 
 930      A8D7A4D9 
 930      AF
 931 0ee3 79DEE7E9 		.ascii	"y\336\347\351\237\030\232\022\013\202~\024`\266\317"
 931      9F189A12 
 931      0B827E14 
 931      60B6CF
 932 0ef2 6B0BAEF7 		.ascii	"k\013\256\367\361[\260\365#aQ\275\027\274Q\235b\325"
 932      F15BB0F5 
 932      236151BD 
 932      17BC519D 
 932      62D5
 933 0f04 EF4DEBCF 		.ascii	"\357M\353\317\365\314\364E\001\323^\031\230\316\021"
 933      F5CCF445 
 933      01D35E19 
 933      98CE11
 934 0f13 30351B96 		.ascii	"05\033\226\250\326<a-\274\325*\2525\237S\313\334\246"
 934      A8D63C61 
 934      2DBCD52A 
 934      AA359F53 
 934      CBDCA6
 935 0f26 BB90E63D 		.ascii	"\273\220\346=\347y\301\377\256\230oFD\265\026\010\031"
 935      E779C1FF 
 935      AE986F46 
 935      44B51608 
 935      19
 936 0f37 9E48336E 		.ascii	"\236H3n4\012ke\211\011.\364\245\316\242o\255u6\231\253"
 936      340A6B65 
 936      89092EF4 
 936      A5CEA26F 
 936      AD753699 
 937 0f4c A4977AAF 		.ascii	"\244\227z\257'w\374\336\315\216\337\213|n\306S\3038"
 937      2777FCDE 
 937      CD8EDF8B 
 937      7C6EC653 
 937      C338
 938 0f5e 63FF9DF7 		.ascii	"c\377\235\367\"\266\245-v\2664\311\027\254T\243UE\225"
 938      22B6A52D 
 938      76B634C9 
 938      17AC54A3 
ARM GAS  /tmp/ccPF9ufL.s 			page 75


 938      554595
 939 0f71 916AAD48 		.ascii	"\221j\255H\255\322\246\024\225ha=\022\035\025Uk*C\301"
 939      ADD2A614 
 939      9568613D 
 939      121D1555 
 939      6B2A43C1 
 940 0f85 585159A4 		.ascii	"XQY\2446\032\324\242S\003\305\221\012m\204\026\016V"
 940      361AD4A2 
 940      5303C591 
 940      0A6D8416 
 940      0E56
 941 0f97 06C68674 		.ascii	"\006\306\206t-0!\022\015"
 941      2D302112 
 941      0D
 942 0fa0 0C2F2D09 		.ascii	"\014/-\011\214\034>bLQU\350\231\242\211\301`\221\032"
 942      8C1C3E62 
 942      4C5155E8 
 942      99A289C1 
 942      60911A
 943 0fb3 AD7E241C 		.ascii	"\255~$\034\011k\217h\3523\241\242\177\0354t\320\340"
 943      096B8F68 
 943      EA33A1A2 
 943      7F1D3474 
 943      D0E0
 944 0fc5 A2503858 		.ascii	"\242P8XU[\241\025\305\364\212\012m\302\240J);\026\372"
 944      555BA115 
 944      C5F48A0A 
 944      6DC2A04A 
 944      293B16FA 
 945 0fd9 1F2DA067 		.ascii	"\037-\240g\217z\352\351\302b\351\227\337R\265S\245M"
 945      8F7AEAE9 
 945      C262E997 
 945      DF52B553 
 945      A54D
 946 0feb 5928AC83 		.ascii	"Y(\254\203\262\234Z\370\034\032\320\263\002#\"\221\252"
 946      B29C5AF8 
 946      1C1AD0B3 
 946      02232291 
 946      AA
 947 0ffc 7F1A34A8 		.ascii	"\177\0324\250"
 948 1000 C8FCD3B5 		.ascii	"\310\374\323\265\230Nh\003(\276\036\024\224\362k\242"
 948      984E6803 
 948      28BE1E14 
 948      94F26BA2 
 949 1010 5036A047 		.ascii	"P6\240G\236\325\302\2614%+%_X\255\326\262b\232^[\343"
 949      9ED5C2B1 
 949      34252B25 
 949      5F58ADD6 
 949      B2629A5E 
 950 1026 D735355A 		.ascii	"\32755Z\021\231\034\316\321\246h\301Z]\353\201\313\004"
 950      11991CCE 
 950      D1A668C1 
 950      5A5DEB81 
 950      CB04
 951 1038 D5185898 		.ascii	"\325\030X\230O\037\221j\212\036\254\351aj\250\012\205"
 951      4F1F916A 
 951      8A1EACE9 
ARM GAS  /tmp/ccPF9ufL.s 			page 76


 951      616AA80A 
 951      85
 952 1049 B5BEF859 		.ascii	"\265\276\370Y\200\334\207\007\325\250Q}\320\243=H\271"
 952      80DC8707 
 952      D5A8517D 
 952      D0A33D48 
 952      B9
 953 105a C0043554 		.ascii	"\300\0045T\245T\307&\346\233\267j,\246E\365\334`$\\"
 953      A554C726 
 953      E69BB76A 
 953      2CA645F5 
 953      DC60245C 
 954 106e 11D24391 		.ascii	"\021\322C\221\360]\366\307\201\230\366\353Zp\214\346"
 954      F05DF6C7 
 954      8198F6EB 
 954      5A708CE6 
 955 107e D7A6D468 		.ascii	"\327\246\324hA]\253x \301;\022+\212\352\011\207\004"
 955      415DAB78 
 955      20C13B12 
 955      2B8AEA09 
 955      8704
 956 1090 2B635363 		.ascii	"+cSc\372\324\032-\006\374s\361u\250\032\210\371\261"
 956      FAD41A2D 
 956      06FC73F1 
 956      75A81A88 
 956      F9B1
 957 10a2 7B06FF38 		.ascii	"{\006\3778\240\017p\300\222/'\207\302`XVL\007v\212\026"
 957      A00F70C0 
 957      922F2787 
 957      C2605856 
 957      4C07768A 
 958 10b7 AE20651F 		.ascii	"\256 e\037\033\022\320\363l\334Q\270G\362\316\007\264"
 958      1B12D0F3 
 958      6CDC51B8 
 958      47F2CE07 
 958      B4
 959 10c8 6BF293F7 		.ascii	"k\362\223\367U\341\336\344F\253\016Q\277f\221s\037\346"
 959      55E1DEE4 
 959      46AB0E51 
 959      BF669173 
 959      1FE6
 960 10da 692034D4 		.ascii	"i 4\324N;\030\251\256\216\204\213j\"Q=V\004\201..\231"
 960      4E3B18A9 
 960      AE8E848B 
 960      6A22513D 
 960      5604812E 
 961 10f0 829FD584 		.ascii	"\202\237\325\204\252\264h\254hTq1Xc\231\222\005*\003"
 961      AAB468AC 
 961      68547131 
 961      58639992 
 961      052A03
 962 1103 7A0E65F6 		.ascii	"z\016e\366C;L\245Z\2250\037\256\0031=\252\251\325\270"
 962      433B4CA5 
 962      5A95301F 
 962      AE03313D 
 962      AAA9D5B8 
 963 1117 52FF1110 		.ascii	"R\377\021\020\2372\342:=\244V\225\221/\356\341=\374"
ARM GAS  /tmp/ccPF9ufL.s 			page 77


 963      9F32E23A 
 963      3DA45695 
 963      912FEEE1 
 963      3DFC
 964 1129 594979D6 		.ascii	"YIy\326\344($\235\017\356*\224\232Z]\231\250\351\312"
 964      E428249D 
 964      0FEE2A94 
 964      9A5A5D99 
 964      A8E9CA
 965 113c A46ADD34 		.ascii	"\244j\3354\223F8\333\304\376\276\320\371z%\256\217u"
 965      934638DB 
 965      C4FEBED0 
 965      F97A25AE 
 965      8F75
 966 114e F7085696 		.ascii	"\367\010V\226WV\224UiZ\315\217\2349\006\025b$\343\315"
 966      57569455 
 966      695ACD8F 
 966      9C390615 
 966      6224E3CD 
 967 1162 5B821F8D 		.ascii	"[\202\037\215Dp\302\365O\3724\200\335\022\010\205'D"
 967      4470C2F5 
 967      4FFA3480 
 967      DD120885 
 967      2744
 968 1174 FCE461B0 		.ascii	"\374\344a\260\262&\227\\\200'k\372ZW\220\301\201gj'"
 968      B226975C 
 968      80276BFA 
 968      5A5790C1 
 968      81676A27 
 969 1188 4CD0A266 		.ascii	"L\320\242f\004\252\"A\360\000N\255\002r?\261*\362\014"
 969      04AA2241 
 969      F0004EAD 
 969      02723FB1 
 969      2AF20C
 970 119b 7DD03F91 		.ascii	"}\320?\221u\265Q-P\255\305b\352D3\213\003\261Z\260\334"
 970      75B5512D 
 970      50ADC562 
 970      EA44338B 
 970      03B15AB0 
 971 11b0 448FE95A 		.ascii	"D\217\351ZM~\260\012\222\235\302\017a]m\206\253\254"
 971      4D7EB00A 
 971      929DC20F 
 971      615D6D86 
 971      ABAC
 972 11c2 BCE4B121 		.ascii	"\274\344\261!Ec\307>YT>\246d\322`h\210\32580\241j\260"
 972      4563C73E 
 972      59543EA6 
 972      64D26068 
 972      88D53830 
 973 11d9 222F7113 		.ascii	"\"/q\023\320\225\342\322\301 C|e%\305\245\276'\307\214"
 973      D095E2D2 
 973      C120437C 
 973      6525C5A5 
 973      BE27C78C 
 974 11ed 2C95CB4A 		.ascii	",\225\313J\225\221\243J\263\212\213KJ\007\223\363\020"
 974      9591A34A 
 974      B38A8B4B 
ARM GAS  /tmp/ccPF9ufL.s 			page 78


 974      4A0793F3 
 974      10
 975 11fe 5F71F1C8 		.ascii	"_q\361\310R\245\370\251re\\Y\2612\274\264T)-\206{\250"
 975      52A5F8A9 
 975      72655C59 
 975      B132BCB4 
 975      54292D86 
 976 1214 30E2C9F2 		.ascii	"0\342\311\362R\345I\\\263dx\251\374S\263\326cP~|\351"
 976      52E5495C 
 976      B36478A9 
 976      FC53B3D6 
 976      63507E7C 
 977 1229 40965824 		.ascii	"@\226X$\006'p.\376\304\276\304\237?\215\215\322\364"
 977      0627702E 
 977      FEC4BEC4 
 977      9F3F8D8D 
 977      D2F4
 978 123b 3268055A 		.ascii	"2h\005Zu9\344\372\370\357\011#7\011\373\277o\260\362"
 978      7539E4FA 
 978      F8EF0923 
 978      3709FBBF 
 978      6FB0F2
 979 124e 67E5CE1A 		.ascii	"g\345\316\032E\0313\2662\030\001\207\342\246\024\005"
 979      451933B6 
 979      32180187 
 979      E2A61405 
 980 125e 887E246E 		.ascii	"\210~$n\344.\000)D\256\036s\347C3y\003UU\025\230\212"
 980      E42E0029 
 980      44AE1E73 
 980      E7433379 
 980      03555515 
 981 1274 79453082 		.ascii	"yE0\202\221\332\260\256E\373\231\026\215\211ab?\017"
 981      91DAB0AE 
 981      45FB9916 
 981      8D896162 
 981      3F0F
 982 1286 E995A1F0 		.ascii	"\351\225\241\360x\037\306\357\203i;\036\347\341\242"
 982      781FC6EF 
 982      83693B1E 
 982      E7E1A2
 983 1295 60C5D848 		.ascii	"`\305\330H\360\331\201\351\272\012\334K\004+i\311G\\"
 983      F0D981E9 
 983      BA0ADC4B 
 983      042B69C9 
 983      475C
 984 12a7 DA3AE9DF 		.ascii	"\332:\351\337p\230s\211\245\220q\317\016\346\324\323"
 984      70987389 
 984      A59071CF 
 984      0EE6D4D3 
 985 12b7 A6E845C5 		.ascii	"\246\350E\305%ec\312\222\372\252c\241X\000\206\017\250"
 985      256563CA 
 985      92FAAA63 
 985      A1580086 
 985      0FA8
 986 12c9 DB33005D 		.ascii	"\3333\000]\232\036\0301\274l\344\270\3221=\325\252\311"
 986      9A1E1831 
 986      BC6CE4B8 
ARM GAS  /tmp/ccPF9ufL.s 			page 79


 986      D2313DD5 
 986      AAC9
 987 12db EAD41864 		.ascii	"\352\324\030d;\3562\263&\251U\265ZOj\301\323a\254!\217"
 987      3BEE32B3 
 987      26A955B5 
 987      5A4F6AC1 
 987      D361AC21 
 988 12f0 70A4D744 		.ascii	"p\244\327Do-\271\356\215K\225\223FG\232\332\377\003"
 988      6F2DB9EE 
 988      8D4B9593 
 988      46479ADA 
 988      FF03
 989 1302 88E9FEA3 		.ascii	"\210\351\376\243"
 990              		.text
 991              		.section	.gnu.lto_.symtab.cf7c3ec6308678da,"",%progbits
 992 0000 5F746573 		.ascii	"_test_fail\000\000\000\000\000\000\000\000\000\000\000"
 992      745F6661 
 992      696C0000 
 992      00000000 
 992      00000000 
 993 0015 00F10000 		.ascii	"\000\361\000\000\000test_global_fail\000\000\000\000"
 993      00746573 
 993      745F676C 
 993      6F62616C 
 993      5F666169 
 994 002e 00000000 		.ascii	"\000\000\000\000\000\000\000\000\203\001\000\000_te"
 994      00000000 
 994      83010000 
 994      5F7465
 995 003d 73745F61 		.ascii	"st_assert\000\000\000\000\000\000\000\000\000\000\000"
 995      73736572 
 995      74000000 
 995      00000000 
 995      00000000 
 996 0051 00F80000 		.ascii	"\000\370\000\000\000_test_assert_sequence\000\000\000"
 996      005F7465 
 996      73745F61 
 996      73736572 
 996      745F7365 
 997 006e 00000000 		.ascii	"\000\000\000\000\000\000\000\000\000\001\001\000\000"
 997      00000000 
 997      00010100 
 997      00
 998 007b 5F746573 		.ascii	"_test_assert_time_window\000\000\000\000\000\000\000"
 998      745F6173 
 998      73657274 
 998      5F74696D 
 998      655F7769 
 999 009a 00000000 		.ascii	"\000\000\000\000\000\013\001\000\000test_printn\000"
 999      000B0100 
 999      00746573 
 999      745F7072 
 999      696E746E 
 1000 00af 00000000 		.ascii	"\000\000\000\000\000\000\000\000\000\000\000\035\001"
 1000      00000000 
 1000      0000001D 
 1000      01
ARM GAS  /tmp/ccPF9ufL.s 			page 80


 1001 00bc 00007465 		.ascii	"\000\000test_print\000\000\000\000\000\000\000\000\000"
 1001      73745F70 
 1001      72696E74 
 1001      00000000 
 1001      00000000 
 1002 00d1 00000027 		.ascii	"\000\000\000'\001\000\000test_println\000\000\000\000"
 1002      01000074 
 1002      6573745F 
 1002      7072696E 
 1002      746C6E00 
 1003 00e8 00000000 		.ascii	"\000\000\000\000\000\000\000\000.\001\000\000test_e"
 1003      00000000 
 1003      2E010000 
 1003      74657374 
 1003      5F65
 1004 00fa 6D69745F 		.ascii	"mit_token\000\000\000\000\000\000\000\000\000\000\000"
 1004      746F6B65 
 1004      6E000000 
 1004      00000000 
 1004      00000000 
 1005 010e 00320100 		.ascii	"\0002\001\000\000test_emit_token_i\000\000\000\000\000"
 1005      00746573 
 1005      745F656D 
 1005      69745F74 
 1005      6F6B656E 
 1006 0129 00000000 		.ascii	"\000\000\000\000\000\000\0009\001\000\000test_execu"
 1006      00000039 
 1006      01000074 
 1006      6573745F 
 1006      65786563 
 1007 013e 74650000 		.ascii	"te\000\000\000\000\000\000\000\000\000\000\000\000="
 1007      00000000 
 1007      00000000 
 1007      00003D
 1008 014d 01000074 		.ascii	"\001\000\000test_step\000\000\000\000\000\000\000\000"
 1008      6573745F 
 1008      73746570 
 1008      00000000 
 1008      00000000 
 1009 0161 00000000 		.ascii	"\000\000\000\000\214\001\000\000test_suite\000\000\002"
 1009      8C010000 
 1009      74657374 
 1009      5F737569 
 1009      74650000 
 1010 0176 00000000 		.ascii	"\000\000\000\000\000\000\000\000\000\207\001\000\000"
 1010      00000000 
 1010      00870100 
 1010      00
 1011 0183 63685468 		.ascii	"chThdSleep\000\000\002\000\000\000\000\000\000\000\000"
 1011      64536C65 
 1011      65700000 
 1011      02000000 
 1011      00000000 
 1012 0198 00730100 		.ascii	"\000s\001\000\000test_print_port_info\000\000\002\000"
 1012      00746573 
 1012      745F7072 
 1012      696E745F 
ARM GAS  /tmp/ccPF9ufL.s 			page 81


 1012      706F7274 
 1013 01b5 00000000 		.ascii	"\000\000\000\000\000\000\000\000w\001\000\000"
 1013      00000000 
 1013      77010000 
 1014              		.text
 1015              		.section	.gnu.lto_.opts,"",%progbits
 1016 0000 272D6D63 		.ascii	"'-mcpu=cortex-m3' '-mno-thumb-interwork' '-mthumb' "
 1016      70753D63 
 1016      6F727465 
 1016      782D6D33 
 1016      2720272D 
 1017 0033 272D6767 		.ascii	"'-ggdb' '-O2' '-fomit-frame-pointer' '-falign-funct"
 1017      64622720 
 1017      272D4F32 
 1017      2720272D 
 1017      666F6D69 
 1018 0066 696F6E73 		.ascii	"ions=16' '-ffunction-sections' '-fdata-sections' '-"
 1018      3D313627 
 1018      20272D66 
 1018      66756E63 
 1018      74696F6E 
 1019 0099 666E6F2D 		.ascii	"fno-common' '-flto'\000"
 1019      636F6D6D 
 1019      6F6E2720 
 1019      272D666C 
 1019      746F2700 
 1020              		.text
 1021              		.cfi_sections	.debug_frame
 1022              		.section	.text.print_line,"ax",%progbits
 1023              		.align	2
 1024              		.p2align 4,,15
 1025              		.thumb
 1026              		.thumb_func
 1027              		.type	print_line, %function
 1028              	print_line:
 1029              	.LFB220:
 1030              		.file 1 "../../../test/lib/ch_test.c"
 1031              		.loc 1 90 0
 1032              		.cfi_startproc
 1033              		@ args = 0, pretend = 0, frame = 0
 1034              		@ frame_needed = 0, uses_anonymous_args = 0
 1035              	.LVL0:
 1036 0000 70B5     		push	{r4, r5, r6, lr}
 1037              		.cfi_def_cfa_offset 16
 1038              		.cfi_offset 4, -16
 1039              		.cfi_offset 5, -12
 1040              		.cfi_offset 6, -8
 1041              		.cfi_offset 14, -4
 1042 0002 40F20006 		movw	r6, #:lower16:.LANCHOR0
 1043 0006 C0F20006 		movt	r6, #:upper16:.LANCHOR0
 1044              		.loc 1 90 0
 1045 000a 4C25     		movs	r5, #76
 1046              	.LVL1:
 1047              	.L3:
 1048              		.loc 1 94 0 discriminator 2
 1049 000c 3068     		ldr	r0, [r6]
 1050 000e 2D21     		movs	r1, #45
ARM GAS  /tmp/ccPF9ufL.s 			page 82


 1051 0010 0368     		ldr	r3, [r0]
 1052 0012 40F20004 		movw	r4, #:lower16:.LANCHOR0
 1053 0016 9B68     		ldr	r3, [r3, #8]
 1054 0018 9847     		blx	r3
 1055              	.LVL2:
 1056              		.loc 1 93 0 discriminator 2
 1057 001a 013D     		subs	r5, r5, #1
 1058              	.LVL3:
 1059              		.loc 1 94 0 discriminator 2
 1060 001c C0F20004 		movt	r4, #:upper16:.LANCHOR0
 1061              		.loc 1 93 0 discriminator 2
 1062 0020 F4D1     		bne	.L3
 1063              		.loc 1 95 0
 1064 0022 2068     		ldr	r0, [r4]
 1065 0024 40F20001 		movw	r1, #:lower16:.LC0
 1066 0028 0368     		ldr	r3, [r0]
 1067 002a C0F20001 		movt	r1, #:upper16:.LC0
 1068 002e 1B68     		ldr	r3, [r3]
 1069 0030 0222     		movs	r2, #2
 1070 0032 9847     		blx	r3
 1071              	.LVL4:
 1072 0034 70BD     		pop	{r4, r5, r6, pc}
 1073              		.cfi_endproc
 1074              	.LFE220:
 1075              		.size	print_line, .-print_line
 1076 0036 00BFAFF3 		.section	.text._test_fail,"ax",%progbits
 1076      0080AFF3 
 1076      0080
 1077              		.align	2
 1078              		.p2align 4,,15
 1079              		.global	_test_fail
 1080              		.thumb
 1081              		.thumb_func
 1082              		.type	_test_fail, %function
 1083              	_test_fail:
 1084              	.LFB221:
 1085              		.loc 1 102 0
 1086              		.cfi_startproc
 1087              		@ args = 0, pretend = 0, frame = 0
 1088              		@ frame_needed = 0, uses_anonymous_args = 0
 1089              		@ link register save eliminated.
 1090              	.LVL5:
 1091 0000 10B4     		push	{r4}
 1092              		.cfi_def_cfa_offset 4
 1093              		.cfi_offset 4, -4
 1094              		.loc 1 104 0
 1095 0002 40F20001 		movw	r1, #:lower16:.LANCHOR1
 1096              		.loc 1 106 0
 1097 0006 40F20004 		movw	r4, #:lower16:.LANCHOR3
 1098              		.loc 1 105 0
 1099 000a 40F20002 		movw	r2, #:lower16:.LANCHOR2
 1100              		.loc 1 104 0
 1101 000e 0123     		movs	r3, #1
 1102              		.loc 1 106 0
 1103 0010 C0F20004 		movt	r4, #:upper16:.LANCHOR3
 1104              		.loc 1 104 0
 1105 0014 C0F20001 		movt	r1, #:upper16:.LANCHOR1
ARM GAS  /tmp/ccPF9ufL.s 			page 83


 1106              		.loc 1 105 0
 1107 0018 C0F20002 		movt	r2, #:upper16:.LANCHOR2
 1108              		.loc 1 106 0
 1109 001c 2060     		str	r0, [r4]
 1110              		.loc 1 104 0
 1111 001e 0B70     		strb	r3, [r1]
 1112              		.loc 1 108 0
 1113 0020 1846     		mov	r0, r3
 1114              	.LVL6:
 1115              		.loc 1 105 0
 1116 0022 1370     		strb	r3, [r2]
 1117              		.loc 1 108 0
 1118 0024 5DF8044B 		ldr	r4, [sp], #4
 1119 0028 7047     		bx	lr
 1120              		.cfi_endproc
 1121              	.LFE221:
 1122              		.size	_test_fail, .-_test_fail
 1123 002a 00BFAFF3 		.section	.text._test_assert,"ax",%progbits
 1123      0080
 1124              		.align	2
 1125              		.p2align 4,,15
 1126              		.global	_test_assert
 1127              		.thumb
 1128              		.thumb_func
 1129              		.type	_test_assert, %function
 1130              	_test_assert:
 1131              	.LFB222:
 1132              		.loc 1 110 0
 1133              		.cfi_startproc
 1134              		@ args = 0, pretend = 0, frame = 0
 1135              		@ frame_needed = 0, uses_anonymous_args = 0
 1136              		@ link register save eliminated.
 1137              	.LVL7:
 1138 0000 10B4     		push	{r4}
 1139              		.cfi_def_cfa_offset 4
 1140              		.cfi_offset 4, -4
 1141              		.loc 1 112 0
 1142 0002 90B9     		cbnz	r0, .L8
 1143              	.LVL8:
 1144              	.LBB102:
 1145              	.LBB103:
 1146              		.loc 1 104 0
 1147 0004 40F20004 		movw	r4, #:lower16:.LANCHOR1
 1148              		.loc 1 105 0
 1149 0008 40F20002 		movw	r2, #:lower16:.LANCHOR2
 1150              		.loc 1 106 0
 1151 000c 40F20003 		movw	r3, #:lower16:.LANCHOR3
 1152              		.loc 1 104 0
 1153 0010 0120     		movs	r0, #1
 1154              	.LVL9:
 1155 0012 C0F20004 		movt	r4, #:upper16:.LANCHOR1
 1156              		.loc 1 105 0
 1157 0016 C0F20002 		movt	r2, #:upper16:.LANCHOR2
 1158              		.loc 1 106 0
 1159 001a C0F20003 		movt	r3, #:upper16:.LANCHOR3
 1160              		.loc 1 104 0
 1161 001e 2070     		strb	r0, [r4]
ARM GAS  /tmp/ccPF9ufL.s 			page 84


 1162              		.loc 1 105 0
 1163 0020 1070     		strb	r0, [r2]
 1164              		.loc 1 106 0
 1165 0022 1960     		str	r1, [r3]
 1166              	.LBE103:
 1167              	.LBE102:
 1168              		.loc 1 115 0
 1169 0024 5DF8044B 		ldr	r4, [sp], #4
 1170 0028 7047     		bx	lr
 1171              	.LVL10:
 1172              	.L8:
 1173              		.loc 1 114 0
 1174 002a 0020     		movs	r0, #0
 1175              	.LVL11:
 1176              		.loc 1 115 0
 1177 002c 5DF8044B 		ldr	r4, [sp], #4
 1178 0030 7047     		bx	lr
 1179              		.cfi_endproc
 1180              	.LFE222:
 1181              		.size	_test_assert, .-_test_assert
 1182 0032 00BFAFF3 		.section	.text._test_assert_sequence,"ax",%progbits
 1182      0080AFF3 
 1182      0080AFF3 
 1182      0080
 1183              		.align	2
 1184              		.p2align 4,,15
 1185              		.global	_test_assert_sequence
 1186              		.thumb
 1187              		.thumb_func
 1188              		.type	_test_assert_sequence, %function
 1189              	_test_assert_sequence:
 1190              	.LFB223:
 1191              		.loc 1 117 0
 1192              		.cfi_startproc
 1193              		@ args = 0, pretend = 0, frame = 0
 1194              		@ frame_needed = 0, uses_anonymous_args = 0
 1195              		@ link register save eliminated.
 1196              	.LVL12:
 1197 0000 F0B4     		push	{r4, r5, r6, r7}
 1198              		.cfi_def_cfa_offset 16
 1199              		.cfi_offset 4, -16
 1200              		.cfi_offset 5, -12
 1201              		.cfi_offset 6, -8
 1202              		.cfi_offset 7, -4
 1203 0002 40F20006 		movw	r6, #:lower16:.LANCHOR5
 1204              		.loc 1 118 0
 1205 0006 40F20007 		movw	r7, #:lower16:.LANCHOR4
 1206 000a C0F20006 		movt	r6, #:upper16:.LANCHOR5
 1207 000e C0F20007 		movt	r7, #:upper16:.LANCHOR4
 1208 0012 3568     		ldr	r5, [r6]
 1209 0014 3B46     		mov	r3, r7
 1210              		.loc 1 120 0
 1211 0016 05E0     		b	.L10
 1212              	.LVL13:
 1213              	.L13:
 1214              		.loc 1 121 0
 1215 0018 13F8014B 		ldrb	r4, [r3], #1	@ zero_extendqisi2
ARM GAS  /tmp/ccPF9ufL.s 			page 85


 1216              	.LVL14:
 1217 001c 10F8012B 		ldrb	r2, [r0], #1	@ zero_extendqisi2
 1218              	.LVL15:
 1219 0020 9442     		cmp	r4, r2
 1220 0022 06D1     		bne	.L14
 1221              	.LVL16:
 1222              	.L10:
 1223              		.loc 1 120 0 discriminator 1
 1224 0024 AB42     		cmp	r3, r5
 1225 0026 F7D3     		bcc	.L13
 1226              		.loc 1 125 0
 1227 0028 0078     		ldrb	r0, [r0]	@ zero_extendqisi2
 1228              	.LVL17:
 1229 002a 10B9     		cbnz	r0, .L14
 1230              	.LBB104:
 1231              	.LBB105:
 1232              		.loc 1 67 0
 1233 002c 3760     		str	r7, [r6]
 1234              	.LBE105:
 1235              	.LBE104:
 1236              		.loc 1 131 0
 1237 002e F0BC     		pop	{r4, r5, r6, r7}
 1238 0030 7047     		bx	lr
 1239              	.LVL18:
 1240              	.L14:
 1241              	.LBB106:
 1242              	.LBB107:
 1243              		.loc 1 104 0
 1244 0032 40F20004 		movw	r4, #:lower16:.LANCHOR1
 1245              		.loc 1 105 0
 1246 0036 40F20002 		movw	r2, #:lower16:.LANCHOR2
 1247              		.loc 1 106 0
 1248 003a 40F20003 		movw	r3, #:lower16:.LANCHOR3
 1249              		.loc 1 104 0
 1250 003e 0120     		movs	r0, #1
 1251 0040 C0F20004 		movt	r4, #:upper16:.LANCHOR1
 1252              		.loc 1 105 0
 1253 0044 C0F20002 		movt	r2, #:upper16:.LANCHOR2
 1254              		.loc 1 106 0
 1255 0048 C0F20003 		movt	r3, #:upper16:.LANCHOR3
 1256              		.loc 1 104 0
 1257 004c 2070     		strb	r0, [r4]
 1258              		.loc 1 105 0
 1259 004e 1070     		strb	r0, [r2]
 1260              		.loc 1 106 0
 1261 0050 1960     		str	r1, [r3]
 1262              	.LBE107:
 1263              	.LBE106:
 1264              		.loc 1 131 0
 1265 0052 F0BC     		pop	{r4, r5, r6, r7}
 1266 0054 7047     		bx	lr
 1267              		.cfi_endproc
 1268              	.LFE223:
 1269              		.size	_test_assert_sequence, .-_test_assert_sequence
 1270 0056 00BFAFF3 		.section	.text._test_assert_time_window,"ax",%progbits
 1270      0080AFF3 
 1270      0080
ARM GAS  /tmp/ccPF9ufL.s 			page 86


 1271              		.align	2
 1272              		.p2align 4,,15
 1273              		.global	_test_assert_time_window
 1274              		.thumb
 1275              		.thumb_func
 1276              		.type	_test_assert_time_window, %function
 1277              	_test_assert_time_window:
 1278              	.LFB224:
 1279              		.loc 1 135 0
 1280              		.cfi_startproc
 1281              		@ args = 0, pretend = 0, frame = 0
 1282              		@ frame_needed = 0, uses_anonymous_args = 0
 1283              		@ link register save eliminated.
 1284              	.LVL19:
 1285              	.LBB108:
 1286              	.LBB109:
 1287              	.LBB110:
 1288              	.LBB111:
 1289              	.LBB112:
 1290              		.file 2 "../../../os/hal/ports/STM32/LLD/TIMv1/hal_st_lld.h"
 1291              		.loc 2 141 0
 1292 0000 4FF08043 		mov	r3, #1073741824
 1293 0004 5B6A     		ldr	r3, [r3, #36]
 1294              	.LVL20:
 1295              	.LBE112:
 1296              	.LBE111:
 1297              	.LBE110:
 1298              	.LBE109:
 1299              	.LBE108:
 1300              	.LBB113:
 1301              	.LBB114:
 1302              	.LBB115:
 1303              		.file 3 "../../../os/rt/include/chvt.h"
 1304              		.loc 3 452 0
 1305 0006 091A     		subs	r1, r1, r0
 1306              	.LVL21:
 1307 0008 1B1A     		subs	r3, r3, r0
 1308              	.LVL22:
 1309              	.LBE115:
 1310              	.LBE114:
 1311              	.LBE113:
 1312              	.LBB116:
 1313              	.LBB117:
 1314              		.loc 1 112 0
 1315 000a 89B2     		uxth	r1, r1
 1316 000c 9BB2     		uxth	r3, r3
 1317              	.LVL23:
 1318 000e 8B42     		cmp	r3, r1
 1319              	.LBE117:
 1320              	.LBE116:
 1321              		.loc 1 135 0
 1322 0010 10B4     		push	{r4}
 1323              		.cfi_def_cfa_offset 4
 1324              		.cfi_offset 4, -4
 1325              	.LBB121:
 1326              	.LBB120:
 1327              		.loc 1 114 0
ARM GAS  /tmp/ccPF9ufL.s 			page 87


 1328 0012 38BF     		it	cc
 1329 0014 0020     		movcc	r0, #0
 1330              	.LVL24:
 1331              		.loc 1 112 0
 1332 0016 0FD3     		bcc	.L16
 1333              	.LVL25:
 1334              	.LBB118:
 1335              	.LBB119:
 1336              		.loc 1 104 0
 1337 0018 40F20004 		movw	r4, #:lower16:.LANCHOR1
 1338              		.loc 1 105 0
 1339 001c 40F20001 		movw	r1, #:lower16:.LANCHOR2
 1340              		.loc 1 106 0
 1341 0020 40F20003 		movw	r3, #:lower16:.LANCHOR3
 1342              		.loc 1 104 0
 1343 0024 0120     		movs	r0, #1
 1344 0026 C0F20004 		movt	r4, #:upper16:.LANCHOR1
 1345              		.loc 1 105 0
 1346 002a C0F20001 		movt	r1, #:upper16:.LANCHOR2
 1347              		.loc 1 106 0
 1348 002e C0F20003 		movt	r3, #:upper16:.LANCHOR3
 1349              		.loc 1 104 0
 1350 0032 2070     		strb	r0, [r4]
 1351              		.loc 1 105 0
 1352 0034 0870     		strb	r0, [r1]
 1353              		.loc 1 106 0
 1354 0036 1A60     		str	r2, [r3]
 1355              	.LVL26:
 1356              	.L16:
 1357              	.LBE119:
 1358              	.LBE118:
 1359              	.LBE120:
 1360              	.LBE121:
 1361              		.loc 1 139 0
 1362 0038 5DF8044B 		ldr	r4, [sp], #4
 1363 003c 7047     		bx	lr
 1364              		.cfi_endproc
 1365              	.LFE224:
 1366              		.size	_test_assert_time_window, .-_test_assert_time_window
 1367 003e 00BF     		.section	.text.test_printn,"ax",%progbits
 1368              		.align	2
 1369              		.p2align 4,,15
 1370              		.global	test_printn
 1371              		.thumb
 1372              		.thumb_func
 1373              		.type	test_printn, %function
 1374              	test_printn:
 1375              	.LFB225:
 1376              		.loc 1 148 0
 1377              		.cfi_startproc
 1378              		@ args = 0, pretend = 0, frame = 16
 1379              		@ frame_needed = 0, uses_anonymous_args = 0
 1380              	.LVL27:
 1381 0000 70B5     		push	{r4, r5, r6, lr}
 1382              		.cfi_def_cfa_offset 16
 1383              		.cfi_offset 4, -16
 1384              		.cfi_offset 5, -12
ARM GAS  /tmp/ccPF9ufL.s 			page 88


 1385              		.cfi_offset 6, -8
 1386              		.cfi_offset 14, -4
 1387 0002 84B0     		sub	sp, sp, #16
 1388              		.cfi_def_cfa_offset 32
 1389              		.loc 1 151 0
 1390 0004 48B3     		cbz	r0, .L26
 1391 0006 0DF10105 		add	r5, sp, #1
 1392              		.loc 1 156 0
 1393 000a 4CF6CD46 		movw	r6, #52429
 1394 000e 2B46     		mov	r3, r5
 1395 0010 CCF6CC46 		movt	r6, 52428
 1396              	.LVL28:
 1397              	.L22:
 1398 0014 A6FB0012 		umull	r1, r2, r6, r0
 1399 0018 D208     		lsrs	r2, r2, #3
 1400 001a 02EB8201 		add	r1, r2, r2, lsl #2
 1401 001e A0EB4101 		sub	r1, r0, r1, lsl #1
 1402 0022 3031     		adds	r1, r1, #48
 1403 0024 C9B2     		uxtb	r1, r1
 1404 0026 03F8011C 		strb	r1, [r3, #-1]
 1405 002a 1C46     		mov	r4, r3
 1406              	.LVL29:
 1407              		.loc 1 155 0
 1408 002c 1046     		mov	r0, r2
 1409 002e 0133     		adds	r3, r3, #1
 1410              	.LVL30:
 1411 0030 002A     		cmp	r2, #0
 1412 0032 EFD1     		bne	.L22
 1413              		.loc 1 157 0 discriminator 1
 1414 0034 6B46     		mov	r3, sp
 1415 0036 9C42     		cmp	r4, r3
 1416 0038 0DD9     		bls	.L18
 1417 003a 40F20006 		movw	r6, #:lower16:.LANCHOR0
 1418 003e C0F20006 		movt	r6, #:upper16:.LANCHOR0
 1419 0042 02E0     		b	.L25
 1420              	.LVL31:
 1421              	.L27:
 1422 0044 14F8021C 		ldrb	r1, [r4, #-2]	@ zero_extendqisi2
 1423 0048 013C     		subs	r4, r4, #1
 1424              	.LVL32:
 1425              	.L25:
 1426              		.loc 1 158 0
 1427 004a 3068     		ldr	r0, [r6]
 1428              	.LVL33:
 1429 004c 0368     		ldr	r3, [r0]
 1430 004e 9B68     		ldr	r3, [r3, #8]
 1431 0050 9847     		blx	r3
 1432              	.LVL34:
 1433              		.loc 1 157 0
 1434 0052 AC42     		cmp	r4, r5
 1435 0054 F6D1     		bne	.L27
 1436              	.LVL35:
 1437              	.L18:
 1438              		.loc 1 160 0
 1439 0056 04B0     		add	sp, sp, #16
 1440              		@ sp needed
 1441 0058 70BD     		pop	{r4, r5, r6, pc}
ARM GAS  /tmp/ccPF9ufL.s 			page 89


 1442              	.LVL36:
 1443              	.L26:
 1444              	.LBB124:
 1445              	.LBB125:
 1446              		.loc 1 152 0
 1447 005a 40F20003 		movw	r3, #:lower16:.LANCHOR0
 1448 005e C0F20003 		movt	r3, #:upper16:.LANCHOR0
 1449 0062 1868     		ldr	r0, [r3]
 1450              	.LVL37:
 1451 0064 3021     		movs	r1, #48
 1452 0066 0368     		ldr	r3, [r0]
 1453 0068 9B68     		ldr	r3, [r3, #8]
 1454 006a 9847     		blx	r3
 1455              	.LVL38:
 1456              	.LBE125:
 1457              	.LBE124:
 1458              		.loc 1 160 0
 1459 006c 04B0     		add	sp, sp, #16
 1460              		@ sp needed
 1461 006e 70BD     		pop	{r4, r5, r6, pc}
 1462              		.cfi_endproc
 1463              	.LFE225:
 1464              		.size	test_printn, .-test_printn
 1465              		.section	.text.test_print,"ax",%progbits
 1466              		.align	2
 1467              		.p2align 4,,15
 1468              		.global	test_print
 1469              		.thumb
 1470              		.thumb_func
 1471              		.type	test_print, %function
 1472              	test_print:
 1473              	.LFB226:
 1474              		.loc 1 169 0
 1475              		.cfi_startproc
 1476              		@ args = 0, pretend = 0, frame = 0
 1477              		@ frame_needed = 0, uses_anonymous_args = 0
 1478              	.LVL39:
 1479 0000 38B5     		push	{r3, r4, r5, lr}
 1480              		.cfi_def_cfa_offset 16
 1481              		.cfi_offset 3, -16
 1482              		.cfi_offset 4, -12
 1483              		.cfi_offset 5, -8
 1484              		.cfi_offset 14, -4
 1485              		.loc 1 171 0
 1486 0002 0178     		ldrb	r1, [r0]	@ zero_extendqisi2
 1487 0004 61B1     		cbz	r1, .L28
 1488 0006 40F20005 		movw	r5, #:lower16:.LANCHOR0
 1489 000a 0446     		mov	r4, r0
 1490 000c C0F20005 		movt	r5, #:upper16:.LANCHOR0
 1491              	.LVL40:
 1492              	.L31:
 1493              		.loc 1 172 0
 1494 0010 2868     		ldr	r0, [r5]
 1495              	.LVL41:
 1496 0012 0368     		ldr	r3, [r0]
 1497 0014 9B68     		ldr	r3, [r3, #8]
 1498 0016 9847     		blx	r3
ARM GAS  /tmp/ccPF9ufL.s 			page 90


 1499              	.LVL42:
 1500              		.loc 1 171 0
 1501 0018 14F8011F 		ldrb	r1, [r4, #1]!	@ zero_extendqisi2
 1502              	.LVL43:
 1503 001c 0029     		cmp	r1, #0
 1504 001e F7D1     		bne	.L31
 1505              	.LVL44:
 1506              	.L28:
 1507 0020 38BD     		pop	{r3, r4, r5, pc}
 1508              		.cfi_endproc
 1509              	.LFE226:
 1510              		.size	test_print, .-test_print
 1511 0022 00BFAFF3 		.section	.text.test_println,"ax",%progbits
 1511      0080AFF3 
 1511      0080AFF3 
 1511      0080
 1512              		.align	2
 1513              		.p2align 4,,15
 1514              		.global	test_println
 1515              		.thumb
 1516              		.thumb_func
 1517              		.type	test_println, %function
 1518              	test_println:
 1519              	.LFB227:
 1520              		.loc 1 182 0
 1521              		.cfi_startproc
 1522              		@ args = 0, pretend = 0, frame = 0
 1523              		@ frame_needed = 0, uses_anonymous_args = 0
 1524              	.LVL45:
 1525 0000 38B5     		push	{r3, r4, r5, lr}
 1526              		.cfi_def_cfa_offset 16
 1527              		.cfi_offset 3, -16
 1528              		.cfi_offset 4, -12
 1529              		.cfi_offset 5, -8
 1530              		.cfi_offset 14, -4
 1531              	.LBB126:
 1532              	.LBB127:
 1533              		.loc 1 171 0
 1534 0002 0178     		ldrb	r1, [r0]	@ zero_extendqisi2
 1535 0004 40F20005 		movw	r5, #:lower16:.LANCHOR0
 1536 0008 A1B1     		cbz	r1, .L43
 1537 000a 0446     		mov	r4, r0
 1538 000c C0F20005 		movt	r5, #:upper16:.LANCHOR0
 1539              	.LVL46:
 1540              	.L38:
 1541              		.loc 1 172 0
 1542 0010 2868     		ldr	r0, [r5]
 1543              	.LVL47:
 1544 0012 0368     		ldr	r3, [r0]
 1545 0014 9B68     		ldr	r3, [r3, #8]
 1546 0016 9847     		blx	r3
 1547              	.LVL48:
 1548              		.loc 1 171 0
 1549 0018 14F8011F 		ldrb	r1, [r4, #1]!	@ zero_extendqisi2
 1550              	.LVL49:
 1551 001c 0029     		cmp	r1, #0
 1552 001e F7D1     		bne	.L38
ARM GAS  /tmp/ccPF9ufL.s 			page 91


 1553              	.LVL50:
 1554              	.L37:
 1555              	.LBE127:
 1556              	.LBE126:
 1557              		.loc 1 185 0
 1558 0020 2868     		ldr	r0, [r5]
 1559 0022 40F20001 		movw	r1, #:lower16:.LC0
 1560 0026 0368     		ldr	r3, [r0]
 1561 0028 C0F20001 		movt	r1, #:upper16:.LC0
 1562 002c 1B68     		ldr	r3, [r3]
 1563 002e 0222     		movs	r2, #2
 1564 0030 9847     		blx	r3
 1565              	.LVL51:
 1566 0032 38BD     		pop	{r3, r4, r5, pc}
 1567              	.LVL52:
 1568              	.L43:
 1569 0034 C0F20005 		movt	r5, #:upper16:.LANCHOR0
 1570 0038 F2E7     		b	.L37
 1571              		.cfi_endproc
 1572              	.LFE227:
 1573              		.size	test_println, .-test_println
 1574 003a 00BFAFF3 		.section	.text.test_emit_token,"ax",%progbits
 1574      0080
 1575              		.align	2
 1576              		.p2align 4,,15
 1577              		.global	test_emit_token
 1578              		.thumb
 1579              		.thumb_func
 1580              		.type	test_emit_token, %function
 1581              	test_emit_token:
 1582              	.LFB228:
 1583              		.loc 1 195 0
 1584              		.cfi_startproc
 1585              		@ args = 0, pretend = 0, frame = 0
 1586              		@ frame_needed = 0, uses_anonymous_args = 0
 1587              		@ link register save eliminated.
 1588              	.LVL53:
 1589              	.LBB128:
 1590              	.LBB129:
 1591              	.LBB130:
 1592              	.LBB131:
 1593              	.LBB132:
 1594              		.file 4 "../../../os/common/ext/CMSIS/include/cmsis_gcc.h"
 1595              		.loc 4 264 0
 1596 0000 2023     		movs	r3, #32
 1597              	@ 264 "../../../os/common/ext/CMSIS/include/cmsis_gcc.h" 1
 1598 0002 83F31188 		MSR basepri, r3
 1599              	@ 0 "" 2
 1600              		.thumb
 1601              	.LBE132:
 1602              	.LBE131:
 1603              	.LBE130:
 1604              	.LBE129:
 1605              	.LBE128:
 1606              		.loc 1 198 0
 1607 0006 40F20003 		movw	r3, #:lower16:.LANCHOR5
 1608 000a C0F20003 		movt	r3, #:upper16:.LANCHOR5
ARM GAS  /tmp/ccPF9ufL.s 			page 92


 1609 000e 1A68     		ldr	r2, [r3]
 1610 0010 0449     		ldr	r1, .L46
 1611 0012 8A42     		cmp	r2, r1
 1612              		.loc 1 199 0
 1613 0014 3EBF     		ittt	cc
 1614 0016 511C     		addcc	r1, r2, #1
 1615 0018 1960     		strcc	r1, [r3]
 1616              	.LVL54:
 1617 001a 1070     		strbcc	r0, [r2]
 1618              	.LBB133:
 1619              	.LBB134:
 1620              	.LBB135:
 1621              	.LBB136:
 1622              	.LBB137:
 1623              	.LBB138:
 1624              		.loc 4 264 0
 1625 001c 0023     		movs	r3, #0
 1626              	@ 264 "../../../os/common/ext/CMSIS/include/cmsis_gcc.h" 1
 1627 001e 83F31188 		MSR basepri, r3
 1628              	@ 0 "" 2
 1629              		.thumb
 1630 0022 7047     		bx	lr
 1631              	.L47:
 1632              		.align	2
 1633              	.L46:
 1634 0024 10000000 		.word	.LANCHOR4+16
 1635              	.LBE138:
 1636              	.LBE137:
 1637              	.LBE136:
 1638              	.LBE135:
 1639              	.LBE134:
 1640              	.LBE133:
 1641              		.cfi_endproc
 1642              	.LFE228:
 1643              		.size	test_emit_token, .-test_emit_token
 1644 0028 AFF30080 		.section	.text.test_emit_token_i,"ax",%progbits
 1644      AFF30080 
 1645              		.align	2
 1646              		.p2align 4,,15
 1647              		.global	test_emit_token_i
 1648              		.thumb
 1649              		.thumb_func
 1650              		.type	test_emit_token_i, %function
 1651              	test_emit_token_i:
 1652              	.LFB229:
 1653              		.loc 1 210 0
 1654              		.cfi_startproc
 1655              		@ args = 0, pretend = 0, frame = 0
 1656              		@ frame_needed = 0, uses_anonymous_args = 0
 1657              		@ link register save eliminated.
 1658              	.LVL55:
 1659              		.loc 1 212 0
 1660 0000 40F20003 		movw	r3, #:lower16:.LANCHOR5
 1661 0004 C0F20003 		movt	r3, #:upper16:.LANCHOR5
 1662 0008 1A68     		ldr	r2, [r3]
 1663 000a 0349     		ldr	r1, .L50
 1664 000c 8A42     		cmp	r2, r1
ARM GAS  /tmp/ccPF9ufL.s 			page 93


 1665              		.loc 1 213 0
 1666 000e 3EBF     		ittt	cc
 1667 0010 511C     		addcc	r1, r2, #1
 1668 0012 1070     		strbcc	r0, [r2]
 1669 0014 1960     		strcc	r1, [r3]
 1670 0016 7047     		bx	lr
 1671              	.L51:
 1672              		.align	2
 1673              	.L50:
 1674 0018 10000000 		.word	.LANCHOR4+16
 1675              		.cfi_endproc
 1676              	.LFE229:
 1677              		.size	test_emit_token_i, .-test_emit_token_i
 1678 001c AFF30080 		.section	.text.test_execute,"ax",%progbits
 1679              		.align	2
 1680              		.p2align 4,,15
 1681              		.global	test_execute
 1682              		.thumb
 1683              		.thumb_func
 1684              		.type	test_execute, %function
 1685              	test_execute:
 1686              	.LFB230:
 1687              		.loc 1 227 0
 1688              		.cfi_startproc
 1689              		@ args = 0, pretend = 0, frame = 16
 1690              		@ frame_needed = 0, uses_anonymous_args = 0
 1691              	.LVL56:
 1692 0000 2DE9F04F 		push	{r4, r5, r6, r7, r8, r9, r10, fp, lr}
 1693              		.cfi_def_cfa_offset 36
 1694              		.cfi_offset 4, -36
 1695              		.cfi_offset 5, -32
 1696              		.cfi_offset 6, -28
 1697              		.cfi_offset 7, -24
 1698              		.cfi_offset 8, -20
 1699              		.cfi_offset 9, -16
 1700              		.cfi_offset 10, -12
 1701              		.cfi_offset 11, -8
 1702              		.cfi_offset 14, -4
 1703              		.loc 1 230 0
 1704 0004 40F20004 		movw	r4, #:lower16:.LANCHOR0
 1705 0008 C0F20004 		movt	r4, #:upper16:.LANCHOR0
 1706 000c 2060     		str	r0, [r4]
 1707              		.loc 1 231 0
 1708 000e 40F20000 		movw	r0, #:lower16:.LC1
 1709              	.LVL57:
 1710              		.loc 1 227 0
 1711 0012 85B0     		sub	sp, sp, #20
 1712              		.cfi_def_cfa_offset 56
 1713              		.loc 1 231 0
 1714 0014 C0F20000 		movt	r0, #:upper16:.LC1
 1715 0018 FFF7FEFF 		bl	test_println
 1716              	.LVL58:
 1717              		.loc 1 233 0
 1718 001c 40F20000 		movw	r0, #:lower16:.LC2
 1719 0020 C0F20000 		movt	r0, #:upper16:.LC2
 1720 0024 FFF7FEFF 		bl	test_println
 1721              	.LVL59:
ARM GAS  /tmp/ccPF9ufL.s 			page 94


 1722              		.loc 1 237 0
 1723 0028 40F20000 		movw	r0, #:lower16:.LC3
 1724 002c C0F20000 		movt	r0, #:upper16:.LC3
 1725 0030 40F20005 		movw	r5, #:lower16:.LC4
 1726 0034 FFF7FEFF 		bl	test_println
 1727              	.LVL60:
 1728 0038 C0F20005 		movt	r5, #:upper16:.LC4
 1729              	.LBB171:
 1730              	.LBB172:
 1731              		.loc 1 171 0
 1732 003c 2A21     		movs	r1, #42
 1733              	.LVL61:
 1734              	.L54:
 1735              		.loc 1 172 0
 1736 003e 2068     		ldr	r0, [r4]
 1737              	.LVL62:
 1738 0040 0368     		ldr	r3, [r0]
 1739 0042 9B68     		ldr	r3, [r3, #8]
 1740 0044 9847     		blx	r3
 1741              	.LVL63:
 1742              		.loc 1 171 0
 1743 0046 15F8011F 		ldrb	r1, [r5, #1]!	@ zero_extendqisi2
 1744              	.LVL64:
 1745 004a 0029     		cmp	r1, #0
 1746 004c F7D1     		bne	.L54
 1747              	.LBE172:
 1748              	.LBE171:
 1749              		.loc 1 239 0
 1750 004e 40F20000 		movw	r0, #:lower16:.LC14
 1751 0052 C0F20000 		movt	r0, #:upper16:.LC14
 1752 0056 40F20005 		movw	r5, #:lower16:.LC15
 1753              	.LVL65:
 1754 005a FFF7FEFF 		bl	test_println
 1755              	.LVL66:
 1756 005e C0F20005 		movt	r5, #:upper16:.LC15
 1757              	.LBB173:
 1758              	.LBB174:
 1759              		.loc 1 171 0
 1760 0062 2A21     		movs	r1, #42
 1761              	.LVL67:
 1762              	.L87:
 1763              		.loc 1 172 0
 1764 0064 2068     		ldr	r0, [r4]
 1765              	.LVL68:
 1766 0066 0368     		ldr	r3, [r0]
 1767 0068 9B68     		ldr	r3, [r3, #8]
 1768 006a 9847     		blx	r3
 1769              	.LVL69:
 1770              		.loc 1 171 0
 1771 006c 15F8011F 		ldrb	r1, [r5, #1]!	@ zero_extendqisi2
 1772              	.LVL70:
 1773 0070 0029     		cmp	r1, #0
 1774 0072 F7D1     		bne	.L87
 1775              	.LBE174:
 1776              	.LBE173:
 1777              		.loc 1 242 0
 1778 0074 40F20000 		movw	r0, #:lower16:.LC16
ARM GAS  /tmp/ccPF9ufL.s 			page 95


 1779 0078 C0F20000 		movt	r0, #:upper16:.LC16
 1780 007c 40F20005 		movw	r5, #:lower16:.LC17
 1781              	.LVL71:
 1782 0080 FFF7FEFF 		bl	test_println
 1783              	.LVL72:
 1784 0084 C0F20005 		movt	r5, #:upper16:.LC17
 1785              	.LBB175:
 1786              	.LBB176:
 1787              		.loc 1 171 0
 1788 0088 2A21     		movs	r1, #42
 1789              	.LVL73:
 1790              	.L88:
 1791              		.loc 1 172 0
 1792 008a 2068     		ldr	r0, [r4]
 1793              	.LVL74:
 1794 008c 0368     		ldr	r3, [r0]
 1795 008e 9B68     		ldr	r3, [r3, #8]
 1796 0090 9847     		blx	r3
 1797              	.LVL75:
 1798              		.loc 1 171 0
 1799 0092 15F8011F 		ldrb	r1, [r5, #1]!	@ zero_extendqisi2
 1800              	.LVL76:
 1801 0096 0029     		cmp	r1, #0
 1802 0098 F7D1     		bne	.L88
 1803              	.LBE176:
 1804              	.LBE175:
 1805              		.loc 1 246 0
 1806 009a 40F20000 		movw	r0, #:lower16:.LC5
 1807 009e C0F20000 		movt	r0, #:upper16:.LC5
 1808 00a2 0191     		str	r1, [sp, #4]
 1809              		.loc 1 255 0
 1810 00a4 40F20007 		movw	r7, #:lower16:test_suite
 1811              		.loc 1 246 0
 1812 00a8 FFF7FEFF 		bl	test_println
 1813              	.LVL77:
 1814              		.loc 1 249 0
 1815 00ac FFF7FEFF 		bl	test_print_port_info
 1816              	.LVL78:
 1817              		.loc 1 251 0
 1818 00b0 40F20000 		movw	r0, #:lower16:.LC1
 1819 00b4 C0F20000 		movt	r0, #:upper16:.LC1
 1820              		.loc 1 255 0
 1821 00b8 C0F20007 		movt	r7, #:upper16:test_suite
 1822              		.loc 1 251 0
 1823 00bc FFF7FEFF 		bl	test_println
 1824              	.LVL79:
 1825              		.loc 1 253 0
 1826 00c0 40F20002 		movw	r2, #:lower16:.LANCHOR2
 1827 00c4 0199     		ldr	r1, [sp, #4]
 1828              		.loc 1 255 0
 1829 00c6 3B68     		ldr	r3, [r7]
 1830              		.loc 1 253 0
 1831 00c8 C0F20002 		movt	r2, #:upper16:.LANCHOR2
 1832 00cc 0392     		str	r2, [sp, #12]
 1833 00ce 1170     		strb	r1, [r2]
 1834              	.LVL80:
 1835              		.loc 1 255 0
ARM GAS  /tmp/ccPF9ufL.s 			page 96


 1836 00d0 002B     		cmp	r3, #0
 1837 00d2 00F0DC80 		beq	.L58
 1838              	.LBB177:
 1839              	.LBB178:
 1840              	.LBB179:
 1841              	.LBB180:
 1842              		.loc 1 67 0
 1843 00d6 40F20005 		movw	r5, #:lower16:.LANCHOR5
 1844              	.LVL81:
 1845 00da 40F20009 		movw	r9, #:lower16:.LANCHOR4
 1846 00de 0437     		adds	r7, r7, #4
 1847              	.LBE180:
 1848              	.LBE179:
 1849              	.LBE178:
 1850              	.LBE177:
 1851              		.loc 1 254 0
 1852 00e0 0291     		str	r1, [sp, #8]
 1853              	.LBB188:
 1854              	.LBB185:
 1855              	.LBB183:
 1856              	.LBB181:
 1857              		.loc 1 67 0
 1858 00e2 C0F20005 		movt	r5, #:upper16:.LANCHOR5
 1859 00e6 C0F20009 		movt	r9, #:upper16:.LANCHOR4
 1860              	.LVL82:
 1861              	.L59:
 1862 00ea 029A     		ldr	r2, [sp, #8]
 1863              	.LBE181:
 1864              	.LBE183:
 1865              	.LBE185:
 1866              	.LBE188:
 1867              	.LBB189:
 1868              	.LBB190:
 1869              		.loc 1 171 0 discriminator 1
 1870 00ec 0026     		movs	r6, #0
 1871              	.LVL83:
 1872              	.LBE190:
 1873              	.LBE189:
 1874              		.loc 1 257 0 discriminator 1
 1875 00ee 53F82630 		ldr	r3, [r3, r6, lsl #2]
 1876 00f2 0132     		adds	r2, r2, #1
 1877 00f4 0292     		str	r2, [sp, #8]
 1878              	.LVL84:
 1879 00f6 4FEA8608 		lsl	r8, r6, #2
 1880 00fa 002B     		cmp	r3, #0
 1881 00fc 00F0C280 		beq	.L109
 1882              	.LVL85:
 1883              	.L82:
 1884 0100 40F2000A 		movw	r10, #:lower16:.LC6
 1885              		.loc 1 258 0
 1886 0104 FFF7FEFF 		bl	print_line
 1887              	.LVL86:
 1888 0108 C0F2000A 		movt	r10, #:upper16:.LC6
 1889              	.LBB193:
 1890              	.LBB194:
 1891              		.loc 1 171 0
 1892 010c 2D21     		movs	r1, #45
ARM GAS  /tmp/ccPF9ufL.s 			page 97


 1893              	.LVL87:
 1894              	.L61:
 1895              		.loc 1 172 0
 1896 010e 2068     		ldr	r0, [r4]
 1897              	.LVL88:
 1898 0110 40F2000B 		movw	fp, #:lower16:.LANCHOR0
 1899 0114 0368     		ldr	r3, [r0]
 1900 0116 C0F2000B 		movt	fp, #:upper16:.LANCHOR0
 1901 011a 9B68     		ldr	r3, [r3, #8]
 1902 011c 9847     		blx	r3
 1903              	.LVL89:
 1904              		.loc 1 171 0
 1905 011e 1AF8011F 		ldrb	r1, [r10, #1]!	@ zero_extendqisi2
 1906              	.LVL90:
 1907 0122 0029     		cmp	r1, #0
 1908 0124 F3D1     		bne	.L61
 1909              	.LBE194:
 1910              	.LBE193:
 1911              		.loc 1 260 0
 1912 0126 0298     		ldr	r0, [sp, #8]
 1913 0128 FFF7FEFF 		bl	test_printn
 1914              	.LVL91:
 1915              	.LBB195:
 1916              	.LBB196:
 1917              		.loc 1 172 0
 1918 012c DBF80000 		ldr	r0, [fp]
 1919              	.LVL92:
 1920 0130 2E21     		movs	r1, #46
 1921 0132 0368     		ldr	r3, [r0]
 1922              	.LBE196:
 1923              	.LBE195:
 1924              		.loc 1 262 0
 1925 0134 0136     		adds	r6, r6, #1
 1926              	.LVL93:
 1927              	.LBB198:
 1928              	.LBB197:
 1929              		.loc 1 172 0
 1930 0136 9B68     		ldr	r3, [r3, #8]
 1931 0138 9847     		blx	r3
 1932              	.LVL94:
 1933 013a 40F2000B 		movw	fp, #:lower16:.LC18
 1934              	.LBE197:
 1935              	.LBE198:
 1936              		.loc 1 262 0
 1937 013e 3046     		mov	r0, r6
 1938 0140 FFF7FEFF 		bl	test_printn
 1939              	.LVL95:
 1940 0144 C0F2000B 		movt	fp, #:upper16:.LC18
 1941              	.LBB199:
 1942              	.LBB200:
 1943              		.loc 1 171 0
 1944 0148 2021     		movs	r1, #32
 1945              	.LVL96:
 1946              	.L89:
 1947              		.loc 1 172 0
 1948 014a 2068     		ldr	r0, [r4]
 1949              	.LVL97:
ARM GAS  /tmp/ccPF9ufL.s 			page 98


 1950 014c 0268     		ldr	r2, [r0]
 1951 014e 9268     		ldr	r2, [r2, #8]
 1952 0150 9047     		blx	r2
 1953              	.LVL98:
 1954              		.loc 1 171 0
 1955 0152 1BF8011F 		ldrb	r1, [fp, #1]!	@ zero_extendqisi2
 1956              	.LVL99:
 1957 0156 0029     		cmp	r1, #0
 1958 0158 F7D1     		bne	.L89
 1959              	.LBE200:
 1960              	.LBE199:
 1961              		.loc 1 264 0
 1962 015a 57F8043C 		ldr	r3, [r7, #-4]
 1963 015e 53F80830 		ldr	r3, [r3, r8]
 1964 0162 1B68     		ldr	r3, [r3]
 1965              	.LVL100:
 1966              	.LBB201:
 1967              	.LBB202:
 1968              		.loc 1 171 0
 1969 0164 1978     		ldrb	r1, [r3]	@ zero_extendqisi2
 1970 0166 9B46     		mov	fp, r3
 1971              	.LVL101:
 1972 0168 39B1     		cbz	r1, .L66
 1973              	.LVL102:
 1974              	.L67:
 1975              		.loc 1 172 0
 1976 016a 2068     		ldr	r0, [r4]
 1977              	.LVL103:
 1978 016c 0268     		ldr	r2, [r0]
 1979 016e 9268     		ldr	r2, [r2, #8]
 1980 0170 9047     		blx	r2
 1981              	.LVL104:
 1982              		.loc 1 171 0
 1983 0172 1BF8011F 		ldrb	r1, [fp, #1]!	@ zero_extendqisi2
 1984              	.LVL105:
 1985 0176 0029     		cmp	r1, #0
 1986 0178 F7D1     		bne	.L67
 1987              	.LVL106:
 1988              	.L66:
 1989              	.LBE202:
 1990              	.LBE201:
 1991              		.loc 1 265 0
 1992 017a 40F20000 		movw	r0, #:lower16:.LC7
 1993 017e C0F20000 		movt	r0, #:upper16:.LC7
 1994 0182 FFF7FEFF 		bl	test_println
 1995              	.LVL107:
 1996              	.LBB203:
 1997              	.LBB204:
 1998              		.file 5 "../../../os/hal/osal/rt/osal.h"
 1999              		.loc 5 673 0
 2000 0186 4FF4FA60 		mov	r0, #2000
 2001 018a FFF7FEFF 		bl	chThdSleep
 2002              	.LVL108:
 2003              	.LBE204:
 2004              	.LBE203:
 2005              		.loc 1 269 0
 2006 018e 57F8042C 		ldr	r2, [r7, #-4]
ARM GAS  /tmp/ccPF9ufL.s 			page 99


 2007              	.LBB205:
 2008              	.LBB186:
 2009              		.loc 1 81 0
 2010 0192 40F2000B 		movw	fp, #:lower16:.LANCHOR1
 2011              	.LBE186:
 2012              	.LBE205:
 2013              		.loc 1 269 0
 2014 0196 52F80880 		ldr	r8, [r2, r8]
 2015              	.LVL109:
 2016              	.LBB206:
 2017              	.LBB187:
 2018              		.loc 1 81 0
 2019 019a C0F2000B 		movt	fp, #:upper16:.LANCHOR1
 2020              		.loc 1 83 0
 2021 019e D8F80420 		ldr	r2, [r8, #4]
 2022              		.loc 1 81 0
 2023 01a2 0021     		movs	r1, #0
 2024              	.LBB184:
 2025              	.LBB182:
 2026              		.loc 1 67 0
 2027 01a4 C5F80090 		str	r9, [r5]
 2028              	.LBE182:
 2029              	.LBE184:
 2030              		.loc 1 81 0
 2031 01a8 8BF80010 		strb	r1, [fp]
 2032              		.loc 1 83 0
 2033 01ac 02B1     		cbz	r2, .L65
 2034              		.loc 1 84 0
 2035 01ae 9047     		blx	r2
 2036              	.LVL110:
 2037              	.L65:
 2038              		.loc 1 85 0
 2039 01b0 D8F80C20 		ldr	r2, [r8, #12]
 2040 01b4 9047     		blx	r2
 2041              	.LVL111:
 2042              		.loc 1 86 0
 2043 01b6 D8F80820 		ldr	r2, [r8, #8]
 2044 01ba 02B1     		cbz	r2, .L68
 2045              		.loc 1 87 0
 2046 01bc 9047     		blx	r2
 2047              	.LVL112:
 2048              	.L68:
 2049              	.LBE187:
 2050              	.LBE206:
 2051              		.loc 1 270 0
 2052 01be 9BF80030 		ldrb	r3, [fp]	@ zero_extendqisi2
 2053 01c2 002B     		cmp	r3, #0
 2054 01c4 00F08680 		beq	.L69
 2055 01c8 40F20008 		movw	r8, #:lower16:.LC8
 2056              	.LVL113:
 2057 01cc C0F20008 		movt	r8, #:upper16:.LC8
 2058              	.LBB207:
 2059              	.LBB208:
 2060              		.loc 1 171 0
 2061 01d0 2D21     		movs	r1, #45
 2062              	.L71:
 2063              	.LVL114:
ARM GAS  /tmp/ccPF9ufL.s 			page 100


 2064              		.loc 1 172 0
 2065 01d2 2068     		ldr	r0, [r4]
 2066              	.LVL115:
 2067 01d4 0368     		ldr	r3, [r0]
 2068 01d6 9B68     		ldr	r3, [r3, #8]
 2069 01d8 9847     		blx	r3
 2070              	.LVL116:
 2071              		.loc 1 171 0
 2072 01da 18F8011F 		ldrb	r1, [r8, #1]!	@ zero_extendqisi2
 2073              	.LVL117:
 2074 01de 0029     		cmp	r1, #0
 2075 01e0 F7D1     		bne	.L71
 2076              	.LBE208:
 2077              	.LBE207:
 2078              		.loc 1 272 0
 2079 01e2 40F20003 		movw	r3, #:lower16:.LANCHOR6
 2080 01e6 C0F20003 		movt	r3, #:upper16:.LANCHOR6
 2081 01ea 1868     		ldr	r0, [r3]
 2082 01ec 40F20008 		movw	r8, #:lower16:.LC19
 2083              	.LVL118:
 2084 01f0 FFF7FEFF 		bl	test_printn
 2085              	.LVL119:
 2086 01f4 C0F20008 		movt	r8, #:upper16:.LC19
 2087              	.LBB209:
 2088              	.LBB191:
 2089              		.loc 1 171 0
 2090 01f8 2021     		movs	r1, #32
 2091              	.LVL120:
 2092              	.L90:
 2093              		.loc 1 172 0
 2094 01fa 2068     		ldr	r0, [r4]
 2095              	.LVL121:
 2096 01fc 0368     		ldr	r3, [r0]
 2097 01fe 9B68     		ldr	r3, [r3, #8]
 2098 0200 9847     		blx	r3
 2099              	.LVL122:
 2100              		.loc 1 171 0
 2101 0202 18F8011F 		ldrb	r1, [r8, #1]!	@ zero_extendqisi2
 2102              	.LVL123:
 2103 0206 0029     		cmp	r1, #0
 2104 0208 F7D1     		bne	.L90
 2105              	.LVL124:
 2106              	.LBE191:
 2107              	.LBE209:
 2108              	.LBB210:
 2109              	.LBB211:
 2110              		.loc 1 73 0
 2111 020a 2B68     		ldr	r3, [r5]
 2112 020c 4B45     		cmp	r3, r9
 2113 020e 88BF     		it	hi
 2114 0210 DFF8E480 		ldrhi	r8, .L111
 2115              	.LVL125:
 2116 0214 0AD9     		bls	.L75
 2117              	.LVL126:
 2118              	.L76:
 2119              		.loc 1 74 0
 2120 0216 2068     		ldr	r0, [r4]
ARM GAS  /tmp/ccPF9ufL.s 			page 101


 2121 0218 18F8011C 		ldrb	r1, [r8, #-1]	@ zero_extendqisi2
 2122 021c 0368     		ldr	r3, [r0]
 2123 021e 9B68     		ldr	r3, [r3, #8]
 2124 0220 9847     		blx	r3
 2125              	.LVL127:
 2126              		.loc 1 73 0
 2127 0222 2B68     		ldr	r3, [r5]
 2128              	.LVL128:
 2129 0224 9845     		cmp	r8, r3
 2130 0226 08F10108 		add	r8, r8, #1
 2131              	.LVL129:
 2132 022a F4D3     		bcc	.L76
 2133              	.LVL130:
 2134              	.L75:
 2135 022c 40F20008 		movw	r8, #:lower16:.LC9
 2136 0230 C0F20008 		movt	r8, #:upper16:.LC9
 2137              	.LBE211:
 2138              	.LBE210:
 2139              	.LBB212:
 2140              	.LBB192:
 2141              		.loc 1 171 0
 2142 0234 5D21     		movs	r1, #93
 2143              	.L74:
 2144              	.LVL131:
 2145              	.LBE192:
 2146              	.LBE212:
 2147              	.LBB213:
 2148              	.LBB214:
 2149              		.loc 1 172 0
 2150 0236 2068     		ldr	r0, [r4]
 2151              	.LVL132:
 2152 0238 0368     		ldr	r3, [r0]
 2153 023a 9B68     		ldr	r3, [r3, #8]
 2154 023c 9847     		blx	r3
 2155              	.LVL133:
 2156              		.loc 1 171 0
 2157 023e 18F8011F 		ldrb	r1, [r8, #1]!	@ zero_extendqisi2
 2158              	.LVL134:
 2159 0242 0029     		cmp	r1, #0
 2160 0244 F7D1     		bne	.L74
 2161              	.LBE214:
 2162              	.LBE213:
 2163              		.loc 1 276 0
 2164 0246 40F20003 		movw	r3, #:lower16:.LANCHOR3
 2165 024a C0F20003 		movt	r3, #:upper16:.LANCHOR3
 2166 024e 1B68     		ldr	r3, [r3]
 2167              	.LVL135:
 2168              	.LBB215:
 2169              	.LBB216:
 2170              		.loc 1 171 0
 2171 0250 1978     		ldrb	r1, [r3]	@ zero_extendqisi2
 2172 0252 9846     		mov	r8, r3
 2173              	.LVL136:
 2174 0254 39B1     		cbz	r1, .L80
 2175              	.LVL137:
 2176              	.L81:
 2177              		.loc 1 172 0
ARM GAS  /tmp/ccPF9ufL.s 			page 102


 2178 0256 2068     		ldr	r0, [r4]
 2179              	.LVL138:
 2180 0258 0368     		ldr	r3, [r0]
 2181 025a 9B68     		ldr	r3, [r3, #8]
 2182 025c 9847     		blx	r3
 2183              	.LVL139:
 2184              		.loc 1 171 0
 2185 025e 18F8011F 		ldrb	r1, [r8, #1]!	@ zero_extendqisi2
 2186              	.LVL140:
 2187 0262 0029     		cmp	r1, #0
 2188 0264 F7D1     		bne	.L81
 2189              	.LVL141:
 2190              	.L80:
 2191              	.LBE216:
 2192              	.LBE215:
 2193              		.loc 1 277 0
 2194 0266 40F20000 		movw	r0, #:lower16:.LC10
 2195 026a C0F20000 		movt	r0, #:upper16:.LC10
 2196 026e FFF7FEFF 		bl	test_println
 2197              	.LVL142:
 2198              	.L79:
 2199 0272 57F8043C 		ldr	r3, [r7, #-4]
 2200              	.LVL143:
 2201 0276 4FEA8608 		lsl	r8, r6, #2
 2202              		.loc 1 257 0 discriminator 1
 2203 027a 53F82630 		ldr	r3, [r3, r6, lsl #2]
 2204 027e 002B     		cmp	r3, #0
 2205 0280 7FF43EAF 		bne	.L82
 2206              	.LVL144:
 2207              	.L109:
 2208              		.loc 1 255 0
 2209 0284 57F8043B 		ldr	r3, [r7], #4
 2210 0288 002B     		cmp	r3, #0
 2211 028a 7FF42EAF 		bne	.L59
 2212              	.LVL145:
 2213              	.L58:
 2214              		.loc 1 285 0
 2215 028e FFF7FEFF 		bl	print_line
 2216              	.LVL146:
 2217              		.loc 1 286 0
 2218 0292 40F20000 		movw	r0, #:lower16:.LC1
 2219 0296 C0F20000 		movt	r0, #:upper16:.LC1
 2220 029a 40F20005 		movw	r5, #:lower16:.LC20
 2221 029e FFF7FEFF 		bl	test_println
 2222              	.LVL147:
 2223 02a2 C0F20005 		movt	r5, #:upper16:.LC20
 2224              	.LBB217:
 2225              	.LBB218:
 2226              		.loc 1 171 0
 2227 02a6 4621     		movs	r1, #70
 2228              	.LVL148:
 2229              	.L91:
 2230              		.loc 1 172 0
 2231 02a8 2068     		ldr	r0, [r4]
 2232              	.LVL149:
 2233 02aa 0368     		ldr	r3, [r0]
 2234 02ac 9B68     		ldr	r3, [r3, #8]
ARM GAS  /tmp/ccPF9ufL.s 			page 103


 2235 02ae 9847     		blx	r3
 2236              	.LVL150:
 2237              		.loc 1 171 0
 2238 02b0 15F8011F 		ldrb	r1, [r5, #1]!	@ zero_extendqisi2
 2239              	.LVL151:
 2240 02b4 0029     		cmp	r1, #0
 2241 02b6 F7D1     		bne	.L91
 2242              	.LBE218:
 2243              	.LBE217:
 2244              		.loc 1 288 0
 2245 02b8 039A     		ldr	r2, [sp, #12]
 2246 02ba 1378     		ldrb	r3, [r2]	@ zero_extendqisi2
 2247 02bc 8BB9     		cbnz	r3, .L110
 2248              		.loc 1 291 0
 2249 02be 40F20000 		movw	r0, #:lower16:.LC13
 2250 02c2 C0F20000 		movt	r0, #:upper16:.LC13
 2251 02c6 FFF7FEFF 		bl	test_println
 2252              	.LVL152:
 2253              		.loc 1 297 0
 2254 02ca 039B     		ldr	r3, [sp, #12]
 2255 02cc 1878     		ldrb	r0, [r3]	@ zero_extendqisi2
 2256              		.loc 1 298 0
 2257 02ce 05B0     		add	sp, sp, #20
 2258              		@ sp needed
 2259 02d0 BDE8F08F 		pop	{r4, r5, r6, r7, r8, r9, r10, fp, pc}
 2260              	.LVL153:
 2261              	.L69:
 2262              		.loc 1 280 0
 2263 02d4 40F20000 		movw	r0, #:lower16:.LC11
 2264 02d8 C0F20000 		movt	r0, #:upper16:.LC11
 2265 02dc FFF7FEFF 		bl	test_println
 2266              	.LVL154:
 2267 02e0 C7E7     		b	.L79
 2268              	.LVL155:
 2269              	.L110:
 2270              		.loc 1 289 0
 2271 02e2 40F20000 		movw	r0, #:lower16:.LC12
 2272 02e6 C0F20000 		movt	r0, #:upper16:.LC12
 2273 02ea FFF7FEFF 		bl	test_println
 2274              	.LVL156:
 2275              		.loc 1 297 0
 2276 02ee 039B     		ldr	r3, [sp, #12]
 2277 02f0 1878     		ldrb	r0, [r3]	@ zero_extendqisi2
 2278              		.loc 1 298 0
 2279 02f2 05B0     		add	sp, sp, #20
 2280              		@ sp needed
 2281 02f4 BDE8F08F 		pop	{r4, r5, r6, r7, r8, r9, r10, fp, pc}
 2282              	.LVL157:
 2283              	.L112:
 2284              		.align	2
 2285              	.L111:
 2286 02f8 01000000 		.word	.LANCHOR4+1
 2287              		.cfi_endproc
 2288              	.LFE230:
 2289              		.size	test_execute, .-test_execute
 2290              		.global	test_global_fail
 2291              		.global	test_step
ARM GAS  /tmp/ccPF9ufL.s 			page 104


 2292 02fc AFF30080 		.section	.bss.test_failure_message,"aw",%nobits
 2293              		.align	2
 2294              		.set	.LANCHOR3,. + 0
 2295              		.type	test_failure_message, %object
 2296              		.size	test_failure_message, 4
 2297              	test_failure_message:
 2298 0000 00000000 		.space	4
 2299              		.section	.bss.test_local_fail,"aw",%nobits
 2300              		.set	.LANCHOR1,. + 0
 2301              		.type	test_local_fail, %object
 2302              		.size	test_local_fail, 1
 2303              	test_local_fail:
 2304 0000 00       		.space	1
 2305              		.section	.rodata.str1.4,"aMS",%progbits,1
 2306              		.align	2
 2307              	.LC0:
 2308 0000 0D0A00   		.ascii	"\015\012\000"
 2309 0003 00       		.space	1
 2310              	.LC1:
 2311 0004 00       		.ascii	"\000"
 2312 0005 000000   		.space	3
 2313              	.LC2:
 2314 0008 2A2A2A20 		.ascii	"*** ChibiOS/RT Test Suite\000"
 2314      43686962 
 2314      694F532F 
 2314      52542054 
 2314      65737420 
 2315 0022 0000     		.space	2
 2316              	.LC3:
 2317 0024 2A2A2A00 		.ascii	"***\000"
 2318              	.LC4:
 2319 0028 2A2A2A20 		.ascii	"*** Compiled:     \000"
 2319      436F6D70 
 2319      696C6564 
 2319      3A202020 
 2319      202000
 2320 003b 00       		.space	1
 2321              	.LC5:
 2322 003c 53542053 		.ascii	"ST STM32VL-Discovery\000"
 2322      544D3332 
 2322      564C2D44 
 2322      6973636F 
 2322      76657279 
 2323 0051 000000   		.space	3
 2324              	.LC6:
 2325 0054 2D2D2D20 		.ascii	"--- Test Case \000"
 2325      54657374 
 2325      20436173 
 2325      652000
 2326 0063 00       		.space	1
 2327              	.LC7:
 2328 0064 2900     		.ascii	")\000"
 2329 0066 0000     		.space	2
 2330              	.LC8:
 2331 0068 2D2D2D20 		.ascii	"--- Result: FAILURE (#\000"
 2331      52657375 
 2331      6C743A20 
ARM GAS  /tmp/ccPF9ufL.s 			page 105


 2331      4641494C 
 2331      55524520 
 2332 007f 00       		.space	1
 2333              	.LC9:
 2334 0080 5D202200 		.ascii	"] \"\000"
 2335              	.LC10:
 2336 0084 222900   		.ascii	"\")\000"
 2337 0087 00       		.space	1
 2338              	.LC11:
 2339 0088 2D2D2D20 		.ascii	"--- Result: SUCCESS\000"
 2339      52657375 
 2339      6C743A20 
 2339      53554343 
 2339      45535300 
 2340              	.LC12:
 2341 009c 4641494C 		.ascii	"FAILURE\000"
 2341      55524500 
 2342              	.LC13:
 2343 00a4 53554343 		.ascii	"SUCCESS\000"
 2343      45535300 
 2344              	.LC14:
 2345 00ac 4E6F7620 		.ascii	"Nov 28 2017 - 11:58:41\000"
 2345      32382032 
 2345      30313720 
 2345      2D203131 
 2345      3A35383A 
 2346 00c3 00       		.space	1
 2347              	.LC15:
 2348 00c4 2A2A2A20 		.ascii	"*** Platform:     \000"
 2348      506C6174 
 2348      666F726D 
 2348      3A202020 
 2348      202000
 2349 00d7 00       		.space	1
 2350              	.LC16:
 2351 00d8 53544D33 		.ascii	"STM32F100 Value Line Medium Density\000"
 2351      32463130 
 2351      30205661 
 2351      6C756520 
 2351      4C696E65 
 2352              	.LC17:
 2353 00fc 2A2A2A20 		.ascii	"*** Test Board:   \000"
 2353      54657374 
 2353      20426F61 
 2353      72643A20 
 2353      202000
 2354 010f 00       		.space	1
 2355              	.LC18:
 2356 0110 202800   		.ascii	" (\000"
 2357 0113 00       		.space	1
 2358              	.LC19:
 2359 0114 205B00   		.ascii	" [\000"
 2360 0117 00       		.space	1
 2361              	.LC20:
 2362 0118 46696E61 		.ascii	"Final result: \000"
 2362      6C207265 
 2362      73756C74 
ARM GAS  /tmp/ccPF9ufL.s 			page 106


 2362      3A2000
 2363 0127 00       		.section	.bss.test_chp,"aw",%nobits
 2364              		.align	2
 2365              		.set	.LANCHOR0,. + 0
 2366              		.type	test_chp, %object
 2367              		.size	test_chp, 4
 2368              	test_chp:
 2369 0000 00000000 		.space	4
 2370              		.section	.bss.test_tokp,"aw",%nobits
 2371              		.align	2
 2372              		.set	.LANCHOR5,. + 0
 2373              		.type	test_tokp, %object
 2374              		.size	test_tokp, 4
 2375              	test_tokp:
 2376 0000 00000000 		.space	4
 2377              		.section	.bss.test_step,"aw",%nobits
 2378              		.align	2
 2379              		.set	.LANCHOR6,. + 0
 2380              		.type	test_step, %object
 2381              		.size	test_step, 4
 2382              	test_step:
 2383 0000 00000000 		.space	4
 2384              		.section	.bss.test_tokens_buffer,"aw",%nobits
 2385              		.align	2
 2386              		.set	.LANCHOR4,. + 0
 2387              		.type	test_tokens_buffer, %object
 2388              		.size	test_tokens_buffer, 16
 2389              	test_tokens_buffer:
 2390 0000 00000000 		.space	16
 2390      00000000 
 2390      00000000 
 2390      00000000 
 2391              		.section	.bss.test_global_fail,"aw",%nobits
 2392              		.set	.LANCHOR2,. + 0
 2393              		.type	test_global_fail, %object
 2394              		.size	test_global_fail, 1
 2395              	test_global_fail:
 2396 0000 00       		.space	1
 2397              		.text
 2398              	.Letext0:
 2399              		.file 6 "/home/alex/MentorGraphics/Sourcery_CodeBench_Lite_for_ARM_EABI/lib/gcc/arm-none-eabi/4.8.
 2400              		.file 7 "/home/alex/MentorGraphics/Sourcery_CodeBench_Lite_for_ARM_EABI/arm-none-eabi/include/stdi
 2401              		.file 8 "../../../os/common/ports/ARMCMx/compilers/GCC/chtypes.h"
 2402              		.file 9 "../../../os/rt/include/chsystypes.h"
 2403              		.file 10 "../../../os/rt/include/chschd.h"
 2404              		.file 11 "../../../os/common/ports/ARMCMx/chcore.h"
 2405              		.file 12 "../../../os/common/ports/ARMCMx/chcore_v7m.h"
 2406              		.file 13 "../../../os/hal/ports/STM32/LLD/TIMv1/stm32_tim.h"
 2407              		.file 14 "../../../os/rt/include/chtm.h"
 2408              		.file 15 "../../../os/rt/include/chsem.h"
 2409              		.file 16 "../../../os/rt/include/chmtx.h"
 2410              		.file 17 "../../../os/hal/include/hal_streams.h"
 2411              		.file 18 "../../../test/lib/ch_test.h"
 2412              		.file 19 "../../../os/common/ports/ARMCMx/chcore_timer.h"
 2413              		.file 20 "../../../os/rt/include/chsys.h"
 2414              		.file 21 "../../../os/common/ext/CMSIS/include/core_cm3.h"
 2415              		.file 22 "../../../test/rt/source/test/test_root.h"
ARM GAS  /tmp/ccPF9ufL.s 			page 107


 2416              		.file 23 "../../../os/rt/include/chthreads.h"
 2417              		.section	.debug_info,"",%progbits
 2418              	.Ldebug_info0:
 2419 0000 C7120000 		.4byte	0x12c7
 2420 0004 0400     		.2byte	0x4
 2421 0006 00000000 		.4byte	.Ldebug_abbrev0
 2422 000a 04       		.byte	0x4
 2423 000b 01       		.uleb128 0x1
 2424 000c 1E060000 		.4byte	.LASF152
 2425 0010 01       		.byte	0x1
 2426 0011 1E070000 		.4byte	.LASF153
 2427 0015 A6030000 		.4byte	.LASF154
 2428 0019 98000000 		.4byte	.Ldebug_ranges0+0x98
 2429 001d 00000000 		.4byte	0
 2430 0021 00000000 		.4byte	.Ldebug_line0
 2431 0025 02       		.uleb128 0x2
 2432 0026 04       		.byte	0x4
 2433 0027 05       		.byte	0x5
 2434 0028 696E7400 		.ascii	"int\000"
 2435 002c 03       		.uleb128 0x3
 2436 002d 12000000 		.4byte	.LASF2
 2437 0031 06       		.byte	0x6
 2438 0032 D4       		.byte	0xd4
 2439 0033 37000000 		.4byte	0x37
 2440 0037 04       		.uleb128 0x4
 2441 0038 04       		.byte	0x4
 2442 0039 07       		.byte	0x7
 2443 003a 28020000 		.4byte	.LASF0
 2444 003e 04       		.uleb128 0x4
 2445 003f 01       		.byte	0x1
 2446 0040 06       		.byte	0x6
 2447 0041 15010000 		.4byte	.LASF1
 2448 0045 03       		.uleb128 0x3
 2449 0046 ED060000 		.4byte	.LASF3
 2450 004a 07       		.byte	0x7
 2451 004b 2A       		.byte	0x2a
 2452 004c 50000000 		.4byte	0x50
 2453 0050 04       		.uleb128 0x4
 2454 0051 01       		.byte	0x1
 2455 0052 08       		.byte	0x8
 2456 0053 3F040000 		.4byte	.LASF4
 2457 0057 04       		.uleb128 0x4
 2458 0058 02       		.byte	0x2
 2459 0059 05       		.byte	0x5
 2460 005a 55040000 		.4byte	.LASF5
 2461 005e 03       		.uleb128 0x3
 2462 005f A4010000 		.4byte	.LASF6
 2463 0063 07       		.byte	0x7
 2464 0064 36       		.byte	0x36
 2465 0065 69000000 		.4byte	0x69
 2466 0069 04       		.uleb128 0x4
 2467 006a 02       		.byte	0x2
 2468 006b 07       		.byte	0x7
 2469 006c C3050000 		.4byte	.LASF7
 2470 0070 03       		.uleb128 0x3
 2471 0071 37040000 		.4byte	.LASF8
 2472 0075 07       		.byte	0x7
ARM GAS  /tmp/ccPF9ufL.s 			page 108


 2473 0076 4F       		.byte	0x4f
 2474 0077 7B000000 		.4byte	0x7b
 2475 007b 04       		.uleb128 0x4
 2476 007c 04       		.byte	0x4
 2477 007d 05       		.byte	0x5
 2478 007e 61010000 		.4byte	.LASF9
 2479 0082 03       		.uleb128 0x3
 2480 0083 EA040000 		.4byte	.LASF10
 2481 0087 07       		.byte	0x7
 2482 0088 50       		.byte	0x50
 2483 0089 8D000000 		.4byte	0x8d
 2484 008d 04       		.uleb128 0x4
 2485 008e 04       		.byte	0x4
 2486 008f 07       		.byte	0x7
 2487 0090 1C050000 		.4byte	.LASF11
 2488 0094 04       		.uleb128 0x4
 2489 0095 08       		.byte	0x8
 2490 0096 05       		.byte	0x5
 2491 0097 96010000 		.4byte	.LASF12
 2492 009b 03       		.uleb128 0x3
 2493 009c 2B000000 		.4byte	.LASF13
 2494 00a0 07       		.byte	0x7
 2495 00a1 78       		.byte	0x78
 2496 00a2 A6000000 		.4byte	0xa6
 2497 00a6 04       		.uleb128 0x4
 2498 00a7 08       		.byte	0x8
 2499 00a8 07       		.byte	0x7
 2500 00a9 65000000 		.4byte	.LASF14
 2501 00ad 03       		.uleb128 0x3
 2502 00ae 3E010000 		.4byte	.LASF15
 2503 00b2 08       		.byte	0x8
 2504 00b3 39       		.byte	0x39
 2505 00b4 82000000 		.4byte	0x82
 2506 00b8 03       		.uleb128 0x3
 2507 00b9 7C070000 		.4byte	.LASF16
 2508 00bd 08       		.byte	0x8
 2509 00be 3C       		.byte	0x3c
 2510 00bf 45000000 		.4byte	0x45
 2511 00c3 03       		.uleb128 0x3
 2512 00c4 6A010000 		.4byte	.LASF17
 2513 00c8 08       		.byte	0x8
 2514 00c9 3D       		.byte	0x3d
 2515 00ca 45000000 		.4byte	0x45
 2516 00ce 03       		.uleb128 0x3
 2517 00cf FC030000 		.4byte	.LASF18
 2518 00d3 08       		.byte	0x8
 2519 00d4 3E       		.byte	0x3e
 2520 00d5 45000000 		.4byte	0x45
 2521 00d9 03       		.uleb128 0x3
 2522 00da 19040000 		.4byte	.LASF19
 2523 00de 08       		.byte	0x8
 2524 00df 40       		.byte	0x40
 2525 00e0 82000000 		.4byte	0x82
 2526 00e4 03       		.uleb128 0x3
 2527 00e5 88020000 		.4byte	.LASF20
 2528 00e9 08       		.byte	0x8
 2529 00ea 41       		.byte	0x41
ARM GAS  /tmp/ccPF9ufL.s 			page 109


 2530 00eb 70000000 		.4byte	0x70
 2531 00ef 03       		.uleb128 0x3
 2532 00f0 C8020000 		.4byte	.LASF21
 2533 00f4 08       		.byte	0x8
 2534 00f5 43       		.byte	0x43
 2535 00f6 82000000 		.4byte	0x82
 2536 00fa 03       		.uleb128 0x3
 2537 00fb 0F020000 		.4byte	.LASF22
 2538 00ff 08       		.byte	0x8
 2539 0100 45       		.byte	0x45
 2540 0101 70000000 		.4byte	0x70
 2541 0105 03       		.uleb128 0x3
 2542 0106 80050000 		.4byte	.LASF23
 2543 010a 09       		.byte	0x9
 2544 010b 35       		.byte	0x35
 2545 010c 5E000000 		.4byte	0x5e
 2546 0110 03       		.uleb128 0x3
 2547 0111 5A050000 		.4byte	.LASF24
 2548 0115 09       		.byte	0x9
 2549 0116 3F       		.byte	0x3f
 2550 0117 1B010000 		.4byte	0x11b
 2551 011b 05       		.uleb128 0x5
 2552 011c 6C020000 		.4byte	.LASF42
 2553 0120 44       		.byte	0x44
 2554 0121 0A       		.byte	0xa
 2555 0122 9A       		.byte	0x9a
 2556 0123 F9010000 		.4byte	0x1f9
 2557 0127 06       		.uleb128 0x6
 2558 0128 5B020000 		.4byte	.LASF25
 2559 012c 0A       		.byte	0xa
 2560 012d 9B       		.byte	0x9b
 2561 012e 2E020000 		.4byte	0x22e
 2562 0132 00       		.byte	0
 2563 0133 06       		.uleb128 0x6
 2564 0134 85030000 		.4byte	.LASF26
 2565 0138 0A       		.byte	0xa
 2566 0139 9C       		.byte	0x9c
 2567 013a D9000000 		.4byte	0xd9
 2568 013e 08       		.byte	0x8
 2569 013f 07       		.uleb128 0x7
 2570 0140 63747800 		.ascii	"ctx\000"
 2571 0144 0A       		.byte	0xa
 2572 0145 9D       		.byte	0x9d
 2573 0146 4B040000 		.4byte	0x44b
 2574 014a 0C       		.byte	0xc
 2575 014b 06       		.uleb128 0x6
 2576 014c 03060000 		.4byte	.LASF27
 2577 0150 0A       		.byte	0xa
 2578 0151 9F       		.byte	0x9f
 2579 0152 04020000 		.4byte	0x204
 2580 0156 10       		.byte	0x10
 2581 0157 06       		.uleb128 0x6
 2582 0158 3F050000 		.4byte	.LASF28
 2583 015c 0A       		.byte	0xa
 2584 015d A0       		.byte	0xa0
 2585 015e 04020000 		.4byte	0x204
 2586 0162 14       		.byte	0x14
ARM GAS  /tmp/ccPF9ufL.s 			page 110


 2587 0163 06       		.uleb128 0x6
 2588 0164 56020000 		.4byte	.LASF29
 2589 0168 0A       		.byte	0xa
 2590 0169 A7       		.byte	0xa7
 2591 016a F2060000 		.4byte	0x6f2
 2592 016e 18       		.byte	0x18
 2593 016f 06       		.uleb128 0x6
 2594 0170 2E050000 		.4byte	.LASF30
 2595 0174 0A       		.byte	0xa
 2596 0175 B0       		.byte	0xb0
 2597 0176 04070000 		.4byte	0x704
 2598 017a 1C       		.byte	0x1c
 2599 017b 06       		.uleb128 0x6
 2600 017c 5B010000 		.4byte	.LASF31
 2601 0180 0A       		.byte	0xa
 2602 0181 B5       		.byte	0xb5
 2603 0182 C3000000 		.4byte	0xc3
 2604 0186 20       		.byte	0x20
 2605 0187 06       		.uleb128 0x6
 2606 0188 18070000 		.4byte	.LASF32
 2607 018c 0A       		.byte	0xa
 2608 018d B9       		.byte	0xb9
 2609 018e B8000000 		.4byte	0xb8
 2610 0192 21       		.byte	0x21
 2611 0193 06       		.uleb128 0x6
 2612 0194 04040000 		.4byte	.LASF33
 2613 0198 0A       		.byte	0xa
 2614 0199 BE       		.byte	0xbe
 2615 019a CE000000 		.4byte	0xce
 2616 019e 22       		.byte	0x22
 2617 019f 08       		.uleb128 0x8
 2618 01a0 7500     		.ascii	"u\000"
 2619 01a2 0A       		.byte	0xa
 2620 01a3 0F01     		.2byte	0x10f
 2621 01a5 27060000 		.4byte	0x627
 2622 01a9 24       		.byte	0x24
 2623 01aa 09       		.uleb128 0x9
 2624 01ab D8010000 		.4byte	.LASF34
 2625 01af 0A       		.byte	0xa
 2626 01b0 1401     		.2byte	0x114
 2627 01b2 0A020000 		.4byte	0x20a
 2628 01b6 28       		.byte	0x28
 2629 01b7 09       		.uleb128 0x9
 2630 01b8 52010000 		.4byte	.LASF35
 2631 01bc 0A       		.byte	0xa
 2632 01bd 1A01     		.2byte	0x11a
 2633 01bf 2E020000 		.4byte	0x22e
 2634 01c3 2C       		.byte	0x2c
 2635 01c4 09       		.uleb128 0x9
 2636 01c5 8E020000 		.4byte	.LASF36
 2637 01c9 0A       		.byte	0xa
 2638 01ca 2001     		.2byte	0x120
 2639 01cc EF000000 		.4byte	0xef
 2640 01d0 34       		.byte	0x34
 2641 01d1 09       		.uleb128 0x9
 2642 01d2 96070000 		.4byte	.LASF37
 2643 01d6 0A       		.byte	0xa
ARM GAS  /tmp/ccPF9ufL.s 			page 111


 2644 01d7 2701     		.2byte	0x127
 2645 01d9 EC060000 		.4byte	0x6ec
 2646 01dd 38       		.byte	0x38
 2647 01de 09       		.uleb128 0x9
 2648 01df 00030000 		.4byte	.LASF38
 2649 01e3 0A       		.byte	0xa
 2650 01e4 2B01     		.2byte	0x12b
 2651 01e6 D9000000 		.4byte	0xd9
 2652 01ea 3C       		.byte	0x3c
 2653 01eb 09       		.uleb128 0x9
 2654 01ec 61020000 		.4byte	.LASF39
 2655 01f0 0A       		.byte	0xa
 2656 01f1 3201     		.2byte	0x132
 2657 01f3 E1020000 		.4byte	0x2e1
 2658 01f7 40       		.byte	0x40
 2659 01f8 00       		.byte	0
 2660 01f9 03       		.uleb128 0x3
 2661 01fa 12030000 		.4byte	.LASF40
 2662 01fe 09       		.byte	0x9
 2663 01ff 44       		.byte	0x44
 2664 0200 04020000 		.4byte	0x204
 2665 0204 0A       		.uleb128 0xa
 2666 0205 04       		.byte	0x4
 2667 0206 10010000 		.4byte	0x110
 2668 020a 03       		.uleb128 0x3
 2669 020b 5B070000 		.4byte	.LASF41
 2670 020f 09       		.byte	0x9
 2671 0210 49       		.byte	0x49
 2672 0211 15020000 		.4byte	0x215
 2673 0215 05       		.uleb128 0x5
 2674 0216 06050000 		.4byte	.LASF43
 2675 021a 04       		.byte	0x4
 2676 021b 0A       		.byte	0xa
 2677 021c 88       		.byte	0x88
 2678 021d 2E020000 		.4byte	0x22e
 2679 0221 06       		.uleb128 0x6
 2680 0222 19000000 		.4byte	.LASF44
 2681 0226 0A       		.byte	0xa
 2682 0227 89       		.byte	0x89
 2683 0228 04020000 		.4byte	0x204
 2684 022c 00       		.byte	0
 2685 022d 00       		.byte	0
 2686 022e 03       		.uleb128 0x3
 2687 022f C1060000 		.4byte	.LASF45
 2688 0233 09       		.byte	0x9
 2689 0234 50       		.byte	0x50
 2690 0235 39020000 		.4byte	0x239
 2691 0239 05       		.uleb128 0x5
 2692 023a DC000000 		.4byte	.LASF46
 2693 023e 08       		.byte	0x8
 2694 023f 0A       		.byte	0xa
 2695 0240 8F       		.byte	0x8f
 2696 0241 5E020000 		.4byte	0x25e
 2697 0245 06       		.uleb128 0x6
 2698 0246 19000000 		.4byte	.LASF44
 2699 024a 0A       		.byte	0xa
 2700 024b 90       		.byte	0x90
ARM GAS  /tmp/ccPF9ufL.s 			page 112


 2701 024c 04020000 		.4byte	0x204
 2702 0250 00       		.byte	0
 2703 0251 06       		.uleb128 0x6
 2704 0252 34000000 		.4byte	.LASF47
 2705 0256 0A       		.byte	0xa
 2706 0257 91       		.byte	0x91
 2707 0258 04020000 		.4byte	0x204
 2708 025c 04       		.byte	0x4
 2709 025d 00       		.byte	0
 2710 025e 03       		.uleb128 0x3
 2711 025f 00000000 		.4byte	.LASF48
 2712 0263 09       		.byte	0x9
 2713 0264 57       		.byte	0x57
 2714 0265 69020000 		.4byte	0x269
 2715 0269 0B       		.uleb128 0xb
 2716 026a BA020000 		.4byte	.LASF49
 2717 026e 1C       		.byte	0x1c
 2718 026f 0A       		.byte	0xa
 2719 0270 6A01     		.2byte	0x16a
 2720 0272 C5020000 		.4byte	0x2c5
 2721 0276 09       		.uleb128 0x9
 2722 0277 5B020000 		.4byte	.LASF25
 2723 027b 0A       		.byte	0xa
 2724 027c 6B01     		.2byte	0x16b
 2725 027e 2E020000 		.4byte	0x22e
 2726 0282 00       		.byte	0
 2727 0283 09       		.uleb128 0x9
 2728 0284 85030000 		.4byte	.LASF26
 2729 0288 0A       		.byte	0xa
 2730 0289 6C01     		.2byte	0x16c
 2731 028b D9000000 		.4byte	0xd9
 2732 028f 08       		.byte	0x8
 2733 0290 08       		.uleb128 0x8
 2734 0291 63747800 		.ascii	"ctx\000"
 2735 0295 0A       		.byte	0xa
 2736 0296 6E01     		.2byte	0x16e
 2737 0298 4B040000 		.4byte	0x44b
 2738 029c 0C       		.byte	0xc
 2739 029d 09       		.uleb128 0x9
 2740 029e 03060000 		.4byte	.LASF27
 2741 02a2 0A       		.byte	0xa
 2742 02a3 7101     		.2byte	0x171
 2743 02a5 04020000 		.4byte	0x204
 2744 02a9 10       		.byte	0x10
 2745 02aa 09       		.uleb128 0x9
 2746 02ab 3F050000 		.4byte	.LASF28
 2747 02af 0A       		.byte	0xa
 2748 02b0 7201     		.2byte	0x172
 2749 02b2 04020000 		.4byte	0x204
 2750 02b6 14       		.byte	0x14
 2751 02b7 09       		.uleb128 0x9
 2752 02b8 8A030000 		.4byte	.LASF50
 2753 02bc 0A       		.byte	0xa
 2754 02bd 7501     		.2byte	0x175
 2755 02bf 04020000 		.4byte	0x204
 2756 02c3 18       		.byte	0x18
 2757 02c4 00       		.byte	0
ARM GAS  /tmp/ccPF9ufL.s 			page 113


 2758 02c5 03       		.uleb128 0x3
 2759 02c6 8A050000 		.4byte	.LASF51
 2760 02ca 09       		.byte	0x9
 2761 02cb 5C       		.byte	0x5c
 2762 02cc D0020000 		.4byte	0x2d0
 2763 02d0 0A       		.uleb128 0xa
 2764 02d1 04       		.byte	0x4
 2765 02d2 D6020000 		.4byte	0x2d6
 2766 02d6 0C       		.uleb128 0xc
 2767 02d7 E1020000 		.4byte	0x2e1
 2768 02db 0D       		.uleb128 0xd
 2769 02dc E1020000 		.4byte	0x2e1
 2770 02e0 00       		.byte	0
 2771 02e1 0E       		.uleb128 0xe
 2772 02e2 04       		.byte	0x4
 2773 02e3 03       		.uleb128 0x3
 2774 02e4 09040000 		.4byte	.LASF52
 2775 02e8 09       		.byte	0x9
 2776 02e9 61       		.byte	0x61
 2777 02ea EE020000 		.4byte	0x2ee
 2778 02ee 0B       		.uleb128 0xb
 2779 02ef A9040000 		.4byte	.LASF53
 2780 02f3 14       		.byte	0x14
 2781 02f4 0A       		.byte	0xa
 2782 02f5 4501     		.2byte	0x145
 2783 02f7 3D030000 		.4byte	0x33d
 2784 02fb 09       		.uleb128 0x9
 2785 02fc 19000000 		.4byte	.LASF44
 2786 0300 0A       		.byte	0xa
 2787 0301 4601     		.2byte	0x146
 2788 0303 0A070000 		.4byte	0x70a
 2789 0307 00       		.byte	0
 2790 0308 09       		.uleb128 0x9
 2791 0309 34000000 		.4byte	.LASF47
 2792 030d 0A       		.byte	0xa
 2793 030e 4701     		.2byte	0x147
 2794 0310 0A070000 		.4byte	0x70a
 2795 0314 04       		.byte	0x4
 2796 0315 09       		.uleb128 0x9
 2797 0316 1E000000 		.4byte	.LASF54
 2798 031a 0A       		.byte	0xa
 2799 031b 4801     		.2byte	0x148
 2800 031d 05010000 		.4byte	0x105
 2801 0321 08       		.byte	0x8
 2802 0322 09       		.uleb128 0x9
 2803 0323 8C010000 		.4byte	.LASF55
 2804 0327 0A       		.byte	0xa
 2805 0328 4901     		.2byte	0x149
 2806 032a C5020000 		.4byte	0x2c5
 2807 032e 0C       		.byte	0xc
 2808 032f 08       		.uleb128 0x8
 2809 0330 70617200 		.ascii	"par\000"
 2810 0334 0A       		.byte	0xa
 2811 0335 4B01     		.2byte	0x14b
 2812 0337 E1020000 		.4byte	0x2e1
 2813 033b 10       		.byte	0x10
 2814 033c 00       		.byte	0
ARM GAS  /tmp/ccPF9ufL.s 			page 114


 2815 033d 03       		.uleb128 0x3
 2816 033e B4000000 		.4byte	.LASF56
 2817 0342 09       		.byte	0x9
 2818 0343 66       		.byte	0x66
 2819 0344 48030000 		.4byte	0x348
 2820 0348 0B       		.uleb128 0xb
 2821 0349 25030000 		.4byte	.LASF57
 2822 034d 0C       		.byte	0xc
 2823 034e 0A       		.byte	0xa
 2824 034f 5501     		.2byte	0x155
 2825 0351 8A030000 		.4byte	0x38a
 2826 0355 09       		.uleb128 0x9
 2827 0356 19000000 		.4byte	.LASF44
 2828 035a 0A       		.byte	0xa
 2829 035b 5601     		.2byte	0x156
 2830 035d 0A070000 		.4byte	0x70a
 2831 0361 00       		.byte	0
 2832 0362 09       		.uleb128 0x9
 2833 0363 34000000 		.4byte	.LASF47
 2834 0367 0A       		.byte	0xa
 2835 0368 5801     		.2byte	0x158
 2836 036a 0A070000 		.4byte	0x70a
 2837 036e 04       		.byte	0x4
 2838 036f 09       		.uleb128 0x9
 2839 0370 1E000000 		.4byte	.LASF54
 2840 0374 0A       		.byte	0xa
 2841 0375 5A01     		.2byte	0x15a
 2842 0377 05010000 		.4byte	0x105
 2843 037b 08       		.byte	0x8
 2844 037c 09       		.uleb128 0x9
 2845 037d 5F040000 		.4byte	.LASF58
 2846 0381 0A       		.byte	0xa
 2847 0382 6201     		.2byte	0x162
 2848 0384 05010000 		.4byte	0x105
 2849 0388 0A       		.byte	0xa
 2850 0389 00       		.byte	0
 2851 038a 03       		.uleb128 0x3
 2852 038b 45000000 		.4byte	.LASF59
 2853 038f 09       		.byte	0x9
 2854 0390 6B       		.byte	0x6b
 2855 0391 95030000 		.4byte	0x395
 2856 0395 0B       		.uleb128 0xb
 2857 0396 21040000 		.4byte	.LASF60
 2858 039a 04       		.byte	0x4
 2859 039b 0A       		.byte	0xa
 2860 039c 7C01     		.2byte	0x17c
 2861 039e B0030000 		.4byte	0x3b0
 2862 03a2 09       		.uleb128 0x9
 2863 03a3 A1050000 		.4byte	.LASF61
 2864 03a7 0A       		.byte	0xa
 2865 03a8 8401     		.2byte	0x184
 2866 03aa 10070000 		.4byte	0x710
 2867 03ae 00       		.byte	0
 2868 03af 00       		.byte	0
 2869 03b0 03       		.uleb128 0x3
 2870 03b1 97020000 		.4byte	.LASF62
 2871 03b5 09       		.byte	0x9
ARM GAS  /tmp/ccPF9ufL.s 			page 115


 2872 03b6 70       		.byte	0x70
 2873 03b7 BB030000 		.4byte	0x3bb
 2874 03bb 0B       		.uleb128 0xb
 2875 03bc 6F040000 		.4byte	.LASF63
 2876 03c0 74       		.byte	0x74
 2877 03c1 0A       		.byte	0xa
 2878 03c2 9C01     		.2byte	0x19c
 2879 03c4 09040000 		.4byte	0x409
 2880 03c8 09       		.uleb128 0x9
 2881 03c9 E7060000 		.4byte	.LASF64
 2882 03cd 0A       		.byte	0xa
 2883 03ce A001     		.2byte	0x1a0
 2884 03d0 5E020000 		.4byte	0x25e
 2885 03d4 00       		.byte	0
 2886 03d5 09       		.uleb128 0x9
 2887 03d6 76020000 		.4byte	.LASF65
 2888 03da 0A       		.byte	0xa
 2889 03db A401     		.2byte	0x1a4
 2890 03dd 3D030000 		.4byte	0x33d
 2891 03e1 1C       		.byte	0x1c
 2892 03e2 08       		.uleb128 0x8
 2893 03e3 64626700 		.ascii	"dbg\000"
 2894 03e7 0A       		.byte	0xa
 2895 03e8 A801     		.2byte	0x1a8
 2896 03ea 8A030000 		.4byte	0x38a
 2897 03ee 28       		.byte	0x28
 2898 03ef 09       		.uleb128 0x9
 2899 03f0 7D020000 		.4byte	.LASF66
 2900 03f4 0A       		.byte	0xa
 2901 03f5 AC01     		.2byte	0x1ac
 2902 03f7 10010000 		.4byte	0x110
 2903 03fb 2C       		.byte	0x2c
 2904 03fc 08       		.uleb128 0x8
 2905 03fd 746D00   		.ascii	"tm\000"
 2906 0400 0A       		.byte	0xa
 2907 0401 B101     		.2byte	0x1b1
 2908 0403 1C060000 		.4byte	0x61c
 2909 0407 70       		.byte	0x70
 2910 0408 00       		.byte	0
 2911 0409 04       		.uleb128 0x4
 2912 040a 04       		.byte	0x4
 2913 040b 07       		.byte	0x7
 2914 040c 09030000 		.4byte	.LASF67
 2915 0410 0F       		.uleb128 0xf
 2916 0411 82000000 		.4byte	0x82
 2917 0415 10       		.uleb128 0x10
 2918 0416 82000000 		.4byte	0x82
 2919 041a 25040000 		.4byte	0x425
 2920 041e 11       		.uleb128 0x11
 2921 041f 09040000 		.4byte	0x409
 2922 0423 01       		.byte	0x1
 2923 0424 00       		.byte	0
 2924 0425 10       		.uleb128 0x10
 2925 0426 82000000 		.4byte	0x82
 2926 042a 35040000 		.4byte	0x435
 2927 042e 11       		.uleb128 0x11
 2928 042f 09040000 		.4byte	0x409
ARM GAS  /tmp/ccPF9ufL.s 			page 116


 2929 0433 03       		.byte	0x3
 2930 0434 00       		.byte	0
 2931 0435 03       		.uleb128 0x3
 2932 0436 BA010000 		.4byte	.LASF68
 2933 043a 0B       		.byte	0xb
 2934 043b 65       		.byte	0x65
 2935 043c E1020000 		.4byte	0x2e1
 2936 0440 03       		.uleb128 0x3
 2937 0441 D9020000 		.4byte	.LASF69
 2938 0445 0B       		.byte	0xb
 2939 0446 6D       		.byte	0x6d
 2940 0447 9B000000 		.4byte	0x9b
 2941 044b 05       		.uleb128 0x5
 2942 044c 57030000 		.4byte	.LASF70
 2943 0450 04       		.byte	0x4
 2944 0451 0B       		.byte	0xb
 2945 0452 89       		.byte	0x89
 2946 0453 63040000 		.4byte	0x463
 2947 0457 07       		.uleb128 0x7
 2948 0458 737000   		.ascii	"sp\000"
 2949 045b 0B       		.byte	0xb
 2950 045c 8A       		.byte	0x8a
 2951 045d DF040000 		.4byte	0x4df
 2952 0461 00       		.byte	0
 2953 0462 00       		.byte	0
 2954 0463 0B       		.uleb128 0xb
 2955 0464 39000000 		.4byte	.LASF71
 2956 0468 24       		.byte	0x24
 2957 0469 0C       		.byte	0xc
 2958 046a 5901     		.2byte	0x159
 2959 046c DF040000 		.4byte	0x4df
 2960 0470 08       		.uleb128 0x8
 2961 0471 723400   		.ascii	"r4\000"
 2962 0474 0C       		.byte	0xc
 2963 0475 6C01     		.2byte	0x16c
 2964 0477 35040000 		.4byte	0x435
 2965 047b 00       		.byte	0
 2966 047c 08       		.uleb128 0x8
 2967 047d 723500   		.ascii	"r5\000"
 2968 0480 0C       		.byte	0xc
 2969 0481 6D01     		.2byte	0x16d
 2970 0483 35040000 		.4byte	0x435
 2971 0487 04       		.byte	0x4
 2972 0488 08       		.uleb128 0x8
 2973 0489 723600   		.ascii	"r6\000"
 2974 048c 0C       		.byte	0xc
 2975 048d 6E01     		.2byte	0x16e
 2976 048f 35040000 		.4byte	0x435
 2977 0493 08       		.byte	0x8
 2978 0494 08       		.uleb128 0x8
 2979 0495 723700   		.ascii	"r7\000"
 2980 0498 0C       		.byte	0xc
 2981 0499 6F01     		.2byte	0x16f
 2982 049b 35040000 		.4byte	0x435
 2983 049f 0C       		.byte	0xc
 2984 04a0 08       		.uleb128 0x8
 2985 04a1 723800   		.ascii	"r8\000"
ARM GAS  /tmp/ccPF9ufL.s 			page 117


 2986 04a4 0C       		.byte	0xc
 2987 04a5 7001     		.2byte	0x170
 2988 04a7 35040000 		.4byte	0x435
 2989 04ab 10       		.byte	0x10
 2990 04ac 08       		.uleb128 0x8
 2991 04ad 723900   		.ascii	"r9\000"
 2992 04b0 0C       		.byte	0xc
 2993 04b1 7101     		.2byte	0x171
 2994 04b3 35040000 		.4byte	0x435
 2995 04b7 14       		.byte	0x14
 2996 04b8 08       		.uleb128 0x8
 2997 04b9 72313000 		.ascii	"r10\000"
 2998 04bd 0C       		.byte	0xc
 2999 04be 7201     		.2byte	0x172
 3000 04c0 35040000 		.4byte	0x435
 3001 04c4 18       		.byte	0x18
 3002 04c5 08       		.uleb128 0x8
 3003 04c6 72313100 		.ascii	"r11\000"
 3004 04ca 0C       		.byte	0xc
 3005 04cb 7301     		.2byte	0x173
 3006 04cd 35040000 		.4byte	0x435
 3007 04d1 1C       		.byte	0x1c
 3008 04d2 08       		.uleb128 0x8
 3009 04d3 6C7200   		.ascii	"lr\000"
 3010 04d6 0C       		.byte	0xc
 3011 04d7 7401     		.2byte	0x174
 3012 04d9 35040000 		.4byte	0x435
 3013 04dd 20       		.byte	0x20
 3014 04de 00       		.byte	0
 3015 04df 0A       		.uleb128 0xa
 3016 04e0 04       		.byte	0x4
 3017 04e1 63040000 		.4byte	0x463
 3018 04e5 12       		.uleb128 0x12
 3019 04e6 60       		.byte	0x60
 3020 04e7 0D       		.byte	0xd
 3021 04e8 A101     		.2byte	0x1a1
 3022 04ea F1050000 		.4byte	0x5f1
 3023 04ee 08       		.uleb128 0x8
 3024 04ef 43523100 		.ascii	"CR1\000"
 3025 04f3 0D       		.byte	0xd
 3026 04f4 A201     		.2byte	0x1a2
 3027 04f6 10040000 		.4byte	0x410
 3028 04fa 00       		.byte	0
 3029 04fb 08       		.uleb128 0x8
 3030 04fc 43523200 		.ascii	"CR2\000"
 3031 0500 0D       		.byte	0xd
 3032 0501 A301     		.2byte	0x1a3
 3033 0503 10040000 		.4byte	0x410
 3034 0507 04       		.byte	0x4
 3035 0508 09       		.uleb128 0x9
 3036 0509 67020000 		.4byte	.LASF72
 3037 050d 0D       		.byte	0xd
 3038 050e A401     		.2byte	0x1a4
 3039 0510 10040000 		.4byte	0x410
 3040 0514 08       		.byte	0x8
 3041 0515 09       		.uleb128 0x9
 3042 0516 0D000000 		.4byte	.LASF73
ARM GAS  /tmp/ccPF9ufL.s 			page 118


 3043 051a 0D       		.byte	0xd
 3044 051b A501     		.2byte	0x1a5
 3045 051d 10040000 		.4byte	0x410
 3046 0521 0C       		.byte	0xc
 3047 0522 08       		.uleb128 0x8
 3048 0523 535200   		.ascii	"SR\000"
 3049 0526 0D       		.byte	0xd
 3050 0527 A601     		.2byte	0x1a6
 3051 0529 10040000 		.4byte	0x410
 3052 052d 10       		.byte	0x10
 3053 052e 08       		.uleb128 0x8
 3054 052f 45475200 		.ascii	"EGR\000"
 3055 0533 0D       		.byte	0xd
 3056 0534 A701     		.2byte	0x1a7
 3057 0536 10040000 		.4byte	0x410
 3058 053a 14       		.byte	0x14
 3059 053b 09       		.uleb128 0x9
 3060 053c 03010000 		.4byte	.LASF74
 3061 0540 0D       		.byte	0xd
 3062 0541 A801     		.2byte	0x1a8
 3063 0543 10040000 		.4byte	0x410
 3064 0547 18       		.byte	0x18
 3065 0548 09       		.uleb128 0x9
 3066 0549 09010000 		.4byte	.LASF75
 3067 054d 0D       		.byte	0xd
 3068 054e A901     		.2byte	0x1a9
 3069 0550 10040000 		.4byte	0x410
 3070 0554 1C       		.byte	0x1c
 3071 0555 09       		.uleb128 0x9
 3072 0556 91010000 		.4byte	.LASF76
 3073 055a 0D       		.byte	0xd
 3074 055b AA01     		.2byte	0x1aa
 3075 055d 10040000 		.4byte	0x410
 3076 0561 20       		.byte	0x20
 3077 0562 08       		.uleb128 0x8
 3078 0563 434E5400 		.ascii	"CNT\000"
 3079 0567 0D       		.byte	0xd
 3080 0568 AB01     		.2byte	0x1ab
 3081 056a 10040000 		.4byte	0x410
 3082 056e 24       		.byte	0x24
 3083 056f 08       		.uleb128 0x8
 3084 0570 50534300 		.ascii	"PSC\000"
 3085 0574 0D       		.byte	0xd
 3086 0575 AC01     		.2byte	0x1ac
 3087 0577 10040000 		.4byte	0x410
 3088 057b 28       		.byte	0x28
 3089 057c 08       		.uleb128 0x8
 3090 057d 41525200 		.ascii	"ARR\000"
 3091 0581 0D       		.byte	0xd
 3092 0582 AD01     		.2byte	0x1ad
 3093 0584 10040000 		.4byte	0x410
 3094 0588 2C       		.byte	0x2c
 3095 0589 08       		.uleb128 0x8
 3096 058a 52435200 		.ascii	"RCR\000"
 3097 058e 0D       		.byte	0xd
 3098 058f AE01     		.2byte	0x1ae
 3099 0591 10040000 		.4byte	0x410
ARM GAS  /tmp/ccPF9ufL.s 			page 119


 3100 0595 30       		.byte	0x30
 3101 0596 08       		.uleb128 0x8
 3102 0597 43435200 		.ascii	"CCR\000"
 3103 059b 0D       		.byte	0xd
 3104 059c AF01     		.2byte	0x1af
 3105 059e F1050000 		.4byte	0x5f1
 3106 05a2 34       		.byte	0x34
 3107 05a3 09       		.uleb128 0x9
 3108 05a4 D7000000 		.4byte	.LASF77
 3109 05a8 0D       		.byte	0xd
 3110 05a9 B001     		.2byte	0x1b0
 3111 05ab 10040000 		.4byte	0x410
 3112 05af 44       		.byte	0x44
 3113 05b0 08       		.uleb128 0x8
 3114 05b1 44435200 		.ascii	"DCR\000"
 3115 05b5 0D       		.byte	0xd
 3116 05b6 B101     		.2byte	0x1b1
 3117 05b8 10040000 		.4byte	0x410
 3118 05bc 48       		.byte	0x48
 3119 05bd 09       		.uleb128 0x9
 3120 05be 55050000 		.4byte	.LASF78
 3121 05c2 0D       		.byte	0xd
 3122 05c3 B201     		.2byte	0x1b2
 3123 05c5 10040000 		.4byte	0x410
 3124 05c9 4C       		.byte	0x4c
 3125 05ca 08       		.uleb128 0x8
 3126 05cb 4F5200   		.ascii	"OR\000"
 3127 05ce 0D       		.byte	0xd
 3128 05cf B301     		.2byte	0x1b3
 3129 05d1 10040000 		.4byte	0x410
 3130 05d5 50       		.byte	0x50
 3131 05d6 09       		.uleb128 0x9
 3132 05d7 0F010000 		.4byte	.LASF79
 3133 05db 0D       		.byte	0xd
 3134 05dc B401     		.2byte	0x1b4
 3135 05de 10040000 		.4byte	0x410
 3136 05e2 54       		.byte	0x54
 3137 05e3 09       		.uleb128 0x9
 3138 05e4 C7040000 		.4byte	.LASF80
 3139 05e8 0D       		.byte	0xd
 3140 05e9 B501     		.2byte	0x1b5
 3141 05eb F6050000 		.4byte	0x5f6
 3142 05ef 58       		.byte	0x58
 3143 05f0 00       		.byte	0
 3144 05f1 0F       		.uleb128 0xf
 3145 05f2 25040000 		.4byte	0x425
 3146 05f6 0F       		.uleb128 0xf
 3147 05f7 15040000 		.4byte	0x415
 3148 05fb 13       		.uleb128 0x13
 3149 05fc AE020000 		.4byte	.LASF81
 3150 0600 0D       		.byte	0xd
 3151 0601 B601     		.2byte	0x1b6
 3152 0603 E5040000 		.4byte	0x4e5
 3153 0607 14       		.uleb128 0x14
 3154 0608 04       		.byte	0x4
 3155 0609 0E       		.byte	0xe
 3156 060a 38       		.byte	0x38
ARM GAS  /tmp/ccPF9ufL.s 			page 120


 3157 060b 1C060000 		.4byte	0x61c
 3158 060f 06       		.uleb128 0x6
 3159 0610 BC050000 		.4byte	.LASF82
 3160 0614 0E       		.byte	0xe
 3161 0615 3C       		.byte	0x3c
 3162 0616 AD000000 		.4byte	0xad
 3163 061a 00       		.byte	0
 3164 061b 00       		.byte	0
 3165 061c 03       		.uleb128 0x3
 3166 061d 46030000 		.4byte	.LASF83
 3167 0621 0E       		.byte	0xe
 3168 0622 3D       		.byte	0x3d
 3169 0623 07060000 		.4byte	0x607
 3170 0627 15       		.uleb128 0x15
 3171 0628 04       		.byte	0x4
 3172 0629 0A       		.byte	0xa
 3173 062a D2       		.byte	0xd2
 3174 062b 8A060000 		.4byte	0x68a
 3175 062f 16       		.uleb128 0x16
 3176 0630 24000000 		.4byte	.LASF84
 3177 0634 0A       		.byte	0xa
 3178 0635 D9       		.byte	0xd9
 3179 0636 E4000000 		.4byte	0xe4
 3180 063a 16       		.uleb128 0x16
 3181 063b 90000000 		.4byte	.LASF85
 3182 063f 0A       		.byte	0xa
 3183 0640 E0       		.byte	0xe0
 3184 0641 E4000000 		.4byte	0xe4
 3185 0645 16       		.uleb128 0x16
 3186 0646 47070000 		.4byte	.LASF86
 3187 064a 0A       		.byte	0xa
 3188 064b E7       		.byte	0xe7
 3189 064c E1020000 		.4byte	0x2e1
 3190 0650 16       		.uleb128 0x16
 3191 0651 47020000 		.4byte	.LASF87
 3192 0655 0A       		.byte	0xa
 3193 0656 EE       		.byte	0xee
 3194 0657 8A060000 		.4byte	0x68a
 3195 065b 16       		.uleb128 0x16
 3196 065c AC000000 		.4byte	.LASF88
 3197 0660 0A       		.byte	0xa
 3198 0661 F3       		.byte	0xf3
 3199 0662 E4000000 		.4byte	0xe4
 3200 0666 16       		.uleb128 0x16
 3201 0667 35020000 		.4byte	.LASF89
 3202 066b 0A       		.byte	0xa
 3203 066c FC       		.byte	0xfc
 3204 066d B5060000 		.4byte	0x6b5
 3205 0671 17       		.uleb128 0x17
 3206 0672 F3040000 		.4byte	.LASF90
 3207 0676 0A       		.byte	0xa
 3208 0677 0501     		.2byte	0x105
 3209 0679 EC060000 		.4byte	0x6ec
 3210 067d 17       		.uleb128 0x17
 3211 067e 68040000 		.4byte	.LASF91
 3212 0682 0A       		.byte	0xa
 3213 0683 0D01     		.2byte	0x10d
ARM GAS  /tmp/ccPF9ufL.s 			page 121


 3214 0685 EF000000 		.4byte	0xef
 3215 0689 00       		.byte	0
 3216 068a 0A       		.uleb128 0xa
 3217 068b 04       		.byte	0x4
 3218 068c F9010000 		.4byte	0x1f9
 3219 0690 05       		.uleb128 0x5
 3220 0691 BA040000 		.4byte	.LASF92
 3221 0695 0C       		.byte	0xc
 3222 0696 0F       		.byte	0xf
 3223 0697 34       		.byte	0x34
 3224 0698 B5060000 		.4byte	0x6b5
 3225 069c 06       		.uleb128 0x6
 3226 069d 5B020000 		.4byte	.LASF25
 3227 06a1 0F       		.byte	0xf
 3228 06a2 35       		.byte	0x35
 3229 06a3 2E020000 		.4byte	0x22e
 3230 06a7 00       		.byte	0
 3231 06a8 07       		.uleb128 0x7
 3232 06a9 636E7400 		.ascii	"cnt\000"
 3233 06ad 0F       		.byte	0xf
 3234 06ae 37       		.byte	0x37
 3235 06af FA000000 		.4byte	0xfa
 3236 06b3 08       		.byte	0x8
 3237 06b4 00       		.byte	0
 3238 06b5 0A       		.uleb128 0xa
 3239 06b6 04       		.byte	0x4
 3240 06b7 90060000 		.4byte	0x690
 3241 06bb 05       		.uleb128 0x5
 3242 06bc D1060000 		.4byte	.LASF93
 3243 06c0 10       		.byte	0x10
 3244 06c1 10       		.byte	0x10
 3245 06c2 39       		.byte	0x39
 3246 06c3 EC060000 		.4byte	0x6ec
 3247 06c7 06       		.uleb128 0x6
 3248 06c8 5B020000 		.4byte	.LASF25
 3249 06cc 10       		.byte	0x10
 3250 06cd 3A       		.byte	0x3a
 3251 06ce 2E020000 		.4byte	0x22e
 3252 06d2 00       		.byte	0
 3253 06d3 06       		.uleb128 0x6
 3254 06d4 16050000 		.4byte	.LASF94
 3255 06d8 10       		.byte	0x10
 3256 06d9 3C       		.byte	0x3c
 3257 06da 04020000 		.4byte	0x204
 3258 06de 08       		.byte	0x8
 3259 06df 06       		.uleb128 0x6
 3260 06e0 19000000 		.4byte	.LASF44
 3261 06e4 10       		.byte	0x10
 3262 06e5 3E       		.byte	0x3e
 3263 06e6 20070000 		.4byte	0x720
 3264 06ea 0C       		.byte	0xc
 3265 06eb 00       		.byte	0
 3266 06ec 0A       		.uleb128 0xa
 3267 06ed 04       		.byte	0x4
 3268 06ee BB060000 		.4byte	0x6bb
 3269 06f2 0A       		.uleb128 0xa
 3270 06f3 04       		.byte	0x4
ARM GAS  /tmp/ccPF9ufL.s 			page 122


 3271 06f4 F8060000 		.4byte	0x6f8
 3272 06f8 18       		.uleb128 0x18
 3273 06f9 FD060000 		.4byte	0x6fd
 3274 06fd 04       		.uleb128 0x4
 3275 06fe 01       		.byte	0x1
 3276 06ff 08       		.byte	0x8
 3277 0700 3A050000 		.4byte	.LASF95
 3278 0704 0A       		.uleb128 0xa
 3279 0705 04       		.byte	0x4
 3280 0706 40040000 		.4byte	0x440
 3281 070a 0A       		.uleb128 0xa
 3282 070b 04       		.byte	0x4
 3283 070c E3020000 		.4byte	0x2e3
 3284 0710 0F       		.uleb128 0xf
 3285 0711 F2060000 		.4byte	0x6f2
 3286 0715 03       		.uleb128 0x3
 3287 0716 EC010000 		.4byte	.LASF96
 3288 071a 10       		.byte	0x10
 3289 071b 34       		.byte	0x34
 3290 071c BB060000 		.4byte	0x6bb
 3291 0720 0A       		.uleb128 0xa
 3292 0721 04       		.byte	0x4
 3293 0722 15070000 		.4byte	0x715
 3294 0726 04       		.uleb128 0x4
 3295 0727 01       		.byte	0x1
 3296 0728 02       		.byte	0x2
 3297 0729 31040000 		.4byte	.LASF97
 3298 072d 05       		.uleb128 0x5
 3299 072e 79040000 		.4byte	.LASF98
 3300 0732 10       		.byte	0x10
 3301 0733 11       		.byte	0x11
 3302 0734 46       		.byte	0x46
 3303 0735 6A070000 		.4byte	0x76a
 3304 0739 06       		.uleb128 0x6
 3305 073a FA020000 		.4byte	.LASF99
 3306 073e 11       		.byte	0x11
 3307 073f 47       		.byte	0x47
 3308 0740 8E070000 		.4byte	0x78e
 3309 0744 00       		.byte	0
 3310 0745 06       		.uleb128 0x6
 3311 0746 35050000 		.4byte	.LASF100
 3312 074a 11       		.byte	0x11
 3313 074b 47       		.byte	0x47
 3314 074c B3070000 		.4byte	0x7b3
 3315 0750 04       		.byte	0x4
 3316 0751 07       		.uleb128 0x7
 3317 0752 70757400 		.ascii	"put\000"
 3318 0756 11       		.byte	0x11
 3319 0757 47       		.byte	0x47
 3320 0758 CD070000 		.4byte	0x7cd
 3321 075c 08       		.byte	0x8
 3322 075d 07       		.uleb128 0x7
 3323 075e 67657400 		.ascii	"get\000"
 3324 0762 11       		.byte	0x11
 3325 0763 47       		.byte	0x47
 3326 0764 E2070000 		.4byte	0x7e2
 3327 0768 0C       		.byte	0xc
ARM GAS  /tmp/ccPF9ufL.s 			page 123


 3328 0769 00       		.byte	0
 3329 076a 19       		.uleb128 0x19
 3330 076b 2C000000 		.4byte	0x2c
 3331 076f 83070000 		.4byte	0x783
 3332 0773 0D       		.uleb128 0xd
 3333 0774 E1020000 		.4byte	0x2e1
 3334 0778 0D       		.uleb128 0xd
 3335 0779 83070000 		.4byte	0x783
 3336 077d 0D       		.uleb128 0xd
 3337 077e 2C000000 		.4byte	0x2c
 3338 0782 00       		.byte	0
 3339 0783 0A       		.uleb128 0xa
 3340 0784 04       		.byte	0x4
 3341 0785 89070000 		.4byte	0x789
 3342 0789 18       		.uleb128 0x18
 3343 078a 45000000 		.4byte	0x45
 3344 078e 0A       		.uleb128 0xa
 3345 078f 04       		.byte	0x4
 3346 0790 6A070000 		.4byte	0x76a
 3347 0794 19       		.uleb128 0x19
 3348 0795 2C000000 		.4byte	0x2c
 3349 0799 AD070000 		.4byte	0x7ad
 3350 079d 0D       		.uleb128 0xd
 3351 079e E1020000 		.4byte	0x2e1
 3352 07a2 0D       		.uleb128 0xd
 3353 07a3 AD070000 		.4byte	0x7ad
 3354 07a7 0D       		.uleb128 0xd
 3355 07a8 2C000000 		.4byte	0x2c
 3356 07ac 00       		.byte	0
 3357 07ad 0A       		.uleb128 0xa
 3358 07ae 04       		.byte	0x4
 3359 07af 45000000 		.4byte	0x45
 3360 07b3 0A       		.uleb128 0xa
 3361 07b4 04       		.byte	0x4
 3362 07b5 94070000 		.4byte	0x794
 3363 07b9 19       		.uleb128 0x19
 3364 07ba E4000000 		.4byte	0xe4
 3365 07be CD070000 		.4byte	0x7cd
 3366 07c2 0D       		.uleb128 0xd
 3367 07c3 E1020000 		.4byte	0x2e1
 3368 07c7 0D       		.uleb128 0xd
 3369 07c8 45000000 		.4byte	0x45
 3370 07cc 00       		.byte	0
 3371 07cd 0A       		.uleb128 0xa
 3372 07ce 04       		.byte	0x4
 3373 07cf B9070000 		.4byte	0x7b9
 3374 07d3 19       		.uleb128 0x19
 3375 07d4 E4000000 		.4byte	0xe4
 3376 07d8 E2070000 		.4byte	0x7e2
 3377 07dc 0D       		.uleb128 0xd
 3378 07dd E1020000 		.4byte	0x2e1
 3379 07e1 00       		.byte	0
 3380 07e2 0A       		.uleb128 0xa
 3381 07e3 04       		.byte	0x4
 3382 07e4 D3070000 		.4byte	0x7d3
 3383 07e8 14       		.uleb128 0x14
 3384 07e9 04       		.byte	0x4
ARM GAS  /tmp/ccPF9ufL.s 			page 124


 3385 07ea 11       		.byte	0x11
 3386 07eb 4F       		.byte	0x4f
 3387 07ec FD070000 		.4byte	0x7fd
 3388 07f0 07       		.uleb128 0x7
 3389 07f1 766D7400 		.ascii	"vmt\000"
 3390 07f5 11       		.byte	0x11
 3391 07f6 51       		.byte	0x51
 3392 07f7 FD070000 		.4byte	0x7fd
 3393 07fb 00       		.byte	0
 3394 07fc 00       		.byte	0
 3395 07fd 0A       		.uleb128 0xa
 3396 07fe 04       		.byte	0x4
 3397 07ff 03080000 		.4byte	0x803
 3398 0803 18       		.uleb128 0x18
 3399 0804 2D070000 		.4byte	0x72d
 3400 0808 03       		.uleb128 0x3
 3401 0809 FA010000 		.4byte	.LASF101
 3402 080d 11       		.byte	0x11
 3403 080e 53       		.byte	0x53
 3404 080f E8070000 		.4byte	0x7e8
 3405 0813 0A       		.uleb128 0xa
 3406 0814 04       		.byte	0x4
 3407 0815 19080000 		.4byte	0x819
 3408 0819 1A       		.uleb128 0x1a
 3409 081a 14       		.uleb128 0x14
 3410 081b 10       		.byte	0x10
 3411 081c 12       		.byte	0x12
 3412 081d 3D       		.byte	0x3d
 3413 081e 53080000 		.4byte	0x853
 3414 0822 06       		.uleb128 0x6
 3415 0823 56020000 		.4byte	.LASF29
 3416 0827 12       		.byte	0x12
 3417 0828 3E       		.byte	0x3e
 3418 0829 F2060000 		.4byte	0x6f2
 3419 082d 00       		.byte	0
 3420 082e 06       		.uleb128 0x6
 3421 082f 64030000 		.4byte	.LASF102
 3422 0833 12       		.byte	0x12
 3423 0834 3F       		.byte	0x3f
 3424 0835 13080000 		.4byte	0x813
 3425 0839 04       		.byte	0x4
 3426 083a 06       		.uleb128 0x6
 3427 083b FA000000 		.4byte	.LASF103
 3428 083f 12       		.byte	0x12
 3429 0840 40       		.byte	0x40
 3430 0841 13080000 		.4byte	0x813
 3431 0845 08       		.byte	0x8
 3432 0846 06       		.uleb128 0x6
 3433 0847 4D040000 		.4byte	.LASF104
 3434 084b 12       		.byte	0x12
 3435 084c 41       		.byte	0x41
 3436 084d 13080000 		.4byte	0x813
 3437 0851 0C       		.byte	0xc
 3438 0852 00       		.byte	0
 3439 0853 03       		.uleb128 0x3
 3440 0854 E4020000 		.4byte	.LASF105
 3441 0858 12       		.byte	0x12
ARM GAS  /tmp/ccPF9ufL.s 			page 125


 3442 0859 42       		.byte	0x42
 3443 085a 1A080000 		.4byte	0x81a
 3444 085e 1B       		.uleb128 0x1b
 3445 085f 93050000 		.4byte	.LASF111
 3446 0863 04       		.byte	0x4
 3447 0864 0601     		.2byte	0x106
 3448 0866 03       		.byte	0x3
 3449 0867 78080000 		.4byte	0x878
 3450 086b 1C       		.uleb128 0x1c
 3451 086c F4010000 		.4byte	.LASF114
 3452 0870 04       		.byte	0x4
 3453 0871 0601     		.2byte	0x106
 3454 0873 82000000 		.4byte	0x82
 3455 0877 00       		.byte	0
 3456 0878 1D       		.uleb128 0x1d
 3457 0879 D7040000 		.4byte	.LASF108
 3458 087d 02       		.byte	0x2
 3459 087e 8B       		.byte	0x8b
 3460 087f 05010000 		.4byte	0x105
 3461 0883 03       		.byte	0x3
 3462 0884 1E       		.uleb128 0x1e
 3463 0885 5B000000 		.4byte	.LASF106
 3464 0889 0C       		.byte	0xc
 3465 088a 5202     		.2byte	0x252
 3466 088c 03       		.byte	0x3
 3467 088d 1E       		.uleb128 0x1e
 3468 088e 46010000 		.4byte	.LASF107
 3469 0892 0C       		.byte	0xc
 3470 0893 6A02     		.2byte	0x26a
 3471 0895 03       		.byte	0x3
 3472 0896 1D       		.uleb128 0x1d
 3473 0897 D6050000 		.4byte	.LASF109
 3474 089b 13       		.byte	0x13
 3475 089c 69       		.byte	0x69
 3476 089d 05010000 		.4byte	0x105
 3477 08a1 03       		.byte	0x3
 3478 08a2 1E       		.uleb128 0x1e
 3479 08a3 91040000 		.4byte	.LASF110
 3480 08a7 14       		.byte	0x14
 3481 08a8 7601     		.2byte	0x176
 3482 08aa 03       		.byte	0x3
 3483 08ab 1B       		.uleb128 0x1b
 3484 08ac 84070000 		.4byte	.LASF112
 3485 08b0 14       		.byte	0x14
 3486 08b1 8201     		.2byte	0x182
 3487 08b3 03       		.byte	0x3
 3488 08b4 C6080000 		.4byte	0x8c6
 3489 08b8 1F       		.uleb128 0x1f
 3490 08b9 0A070000 		.4byte	.LASF124
 3491 08bd D6080000 		.4byte	0x8d6
 3492 08c1 84070000 		.4byte	.LASF112
 3493 08c5 00       		.byte	0
 3494 08c6 10       		.uleb128 0x10
 3495 08c7 FD060000 		.4byte	0x6fd
 3496 08cb D6080000 		.4byte	0x8d6
 3497 08cf 11       		.uleb128 0x11
 3498 08d0 09040000 		.4byte	0x409
ARM GAS  /tmp/ccPF9ufL.s 			page 126


 3499 08d4 0B       		.byte	0xb
 3500 08d5 00       		.byte	0
 3501 08d6 18       		.uleb128 0x18
 3502 08d7 C6080000 		.4byte	0x8c6
 3503 08db 20       		.uleb128 0x20
 3504 08dc 15020000 		.4byte	.LASF113
 3505 08e0 03       		.byte	0x3
 3506 08e1 8801     		.2byte	0x188
 3507 08e3 05010000 		.4byte	0x105
 3508 08e7 03       		.byte	0x3
 3509 08e8 21       		.uleb128 0x21
 3510 08e9 6A070000 		.4byte	.LASF119
 3511 08ed 03       		.byte	0x3
 3512 08ee C001     		.2byte	0x1c0
 3513 08f0 26070000 		.4byte	0x726
 3514 08f4 03       		.byte	0x3
 3515 08f5 1E090000 		.4byte	0x91e
 3516 08f9 1C       		.uleb128 0x1c
 3517 08fa 80030000 		.4byte	.LASF115
 3518 08fe 03       		.byte	0x3
 3519 08ff C001     		.2byte	0x1c0
 3520 0901 05010000 		.4byte	0x105
 3521 0905 1C       		.uleb128 0x1c
 3522 0906 90070000 		.4byte	.LASF116
 3523 090a 03       		.byte	0x3
 3524 090b C101     		.2byte	0x1c1
 3525 090d 05010000 		.4byte	0x105
 3526 0911 22       		.uleb128 0x22
 3527 0912 656E6400 		.ascii	"end\000"
 3528 0916 03       		.byte	0x3
 3529 0917 C201     		.2byte	0x1c2
 3530 0919 05010000 		.4byte	0x105
 3531 091d 00       		.byte	0
 3532 091e 23       		.uleb128 0x23
 3533 091f 3A070000 		.4byte	.LASF117
 3534 0923 01       		.byte	0x1
 3535 0924 41       		.byte	0x41
 3536 0925 01       		.byte	0x1
 3537 0926 24       		.uleb128 0x24
 3538 0927 A3020000 		.4byte	.LASF121
 3539 092b 01       		.byte	0x1
 3540 092c 66       		.byte	0x66
 3541 092d 26070000 		.4byte	0x726
 3542 0931 01       		.byte	0x1
 3543 0932 42090000 		.4byte	0x942
 3544 0936 25       		.uleb128 0x25
 3545 0937 6D736700 		.ascii	"msg\000"
 3546 093b 01       		.byte	0x1
 3547 093c 66       		.byte	0x66
 3548 093d F2060000 		.4byte	0x6f2
 3549 0941 00       		.byte	0
 3550 0942 20       		.uleb128 0x20
 3551 0943 C3010000 		.4byte	.LASF118
 3552 0947 05       		.byte	0x5
 3553 0948 6802     		.2byte	0x268
 3554 094a 05010000 		.4byte	0x105
 3555 094e 03       		.byte	0x3
ARM GAS  /tmp/ccPF9ufL.s 			page 127


 3556 094f 21       		.uleb128 0x21
 3557 0950 92030000 		.4byte	.LASF120
 3558 0954 05       		.byte	0x5
 3559 0955 7B02     		.2byte	0x27b
 3560 0957 26070000 		.4byte	0x726
 3561 095b 03       		.byte	0x3
 3562 095c 85090000 		.4byte	0x985
 3563 0960 1C       		.uleb128 0x1c
 3564 0961 80030000 		.4byte	.LASF115
 3565 0965 05       		.byte	0x5
 3566 0966 7B02     		.2byte	0x27b
 3567 0968 05010000 		.4byte	0x105
 3568 096c 1C       		.uleb128 0x1c
 3569 096d 90070000 		.4byte	.LASF116
 3570 0971 05       		.byte	0x5
 3571 0972 7C02     		.2byte	0x27c
 3572 0974 05010000 		.4byte	0x105
 3573 0978 22       		.uleb128 0x22
 3574 0979 656E6400 		.ascii	"end\000"
 3575 097d 05       		.byte	0x5
 3576 097e 7D02     		.2byte	0x27d
 3577 0980 05010000 		.4byte	0x105
 3578 0984 00       		.byte	0
 3579 0985 24       		.uleb128 0x24
 3580 0986 4E070000 		.4byte	.LASF122
 3581 098a 01       		.byte	0x1
 3582 098b 6E       		.byte	0x6e
 3583 098c 26070000 		.4byte	0x726
 3584 0990 01       		.byte	0x1
 3585 0991 AC090000 		.4byte	0x9ac
 3586 0995 26       		.uleb128 0x26
 3587 0996 86000000 		.4byte	.LASF123
 3588 099a 01       		.byte	0x1
 3589 099b 6E       		.byte	0x6e
 3590 099c 26070000 		.4byte	0x726
 3591 09a0 25       		.uleb128 0x25
 3592 09a1 6D736700 		.ascii	"msg\000"
 3593 09a5 01       		.byte	0x1
 3594 09a6 6E       		.byte	0x6e
 3595 09a7 F2060000 		.4byte	0x6f2
 3596 09ab 00       		.byte	0
 3597 09ac 27       		.uleb128 0x27
 3598 09ad FA040000 		.4byte	.LASF125
 3599 09b1 01       		.byte	0x1
 3600 09b2 94       		.byte	0x94
 3601 09b3 01       		.byte	0x1
 3602 09b4 D6090000 		.4byte	0x9d6
 3603 09b8 25       		.uleb128 0x25
 3604 09b9 6E00     		.ascii	"n\000"
 3605 09bb 01       		.byte	0x1
 3606 09bc 94       		.byte	0x94
 3607 09bd 82000000 		.4byte	0x82
 3608 09c1 28       		.uleb128 0x28
 3609 09c2 62756600 		.ascii	"buf\000"
 3610 09c6 01       		.byte	0x1
 3611 09c7 95       		.byte	0x95
 3612 09c8 D6090000 		.4byte	0x9d6
ARM GAS  /tmp/ccPF9ufL.s 			page 128


 3613 09cc 28       		.uleb128 0x28
 3614 09cd 7000     		.ascii	"p\000"
 3615 09cf 01       		.byte	0x1
 3616 09d0 95       		.byte	0x95
 3617 09d1 E6090000 		.4byte	0x9e6
 3618 09d5 00       		.byte	0
 3619 09d6 10       		.uleb128 0x10
 3620 09d7 FD060000 		.4byte	0x6fd
 3621 09db E6090000 		.4byte	0x9e6
 3622 09df 11       		.uleb128 0x11
 3623 09e0 09040000 		.4byte	0x409
 3624 09e4 0F       		.byte	0xf
 3625 09e5 00       		.byte	0
 3626 09e6 0A       		.uleb128 0xa
 3627 09e7 04       		.byte	0x4
 3628 09e8 FD060000 		.4byte	0x6fd
 3629 09ec 27       		.uleb128 0x27
 3630 09ed EF020000 		.4byte	.LASF126
 3631 09f1 01       		.byte	0x1
 3632 09f2 A9       		.byte	0xa9
 3633 09f3 01       		.byte	0x1
 3634 09f4 040A0000 		.4byte	0xa04
 3635 09f8 26       		.uleb128 0x26
 3636 09f9 D4020000 		.4byte	.LASF127
 3637 09fd 01       		.byte	0x1
 3638 09fe A9       		.byte	0xa9
 3639 09ff F2060000 		.4byte	0x6f2
 3640 0a03 00       		.byte	0
 3641 0a04 1E       		.uleb128 0x1e
 3642 0a05 E0010000 		.4byte	.LASF128
 3643 0a09 05       		.byte	0x5
 3644 0a0a EB01     		.2byte	0x1eb
 3645 0a0c 03       		.byte	0x3
 3646 0a0d 1E       		.uleb128 0x1e
 3647 0a0e 9B040000 		.4byte	.LASF129
 3648 0a12 05       		.byte	0x5
 3649 0a13 F601     		.2byte	0x1f6
 3650 0a15 03       		.byte	0x3
 3651 0a16 1B       		.uleb128 0x1b
 3652 0a17 45050000 		.4byte	.LASF130
 3653 0a1b 05       		.byte	0x5
 3654 0a1c 9F02     		.2byte	0x29f
 3655 0a1e 03       		.byte	0x3
 3656 0a1f 300A0000 		.4byte	0xa30
 3657 0a23 1C       		.uleb128 0x1c
 3658 0a24 80030000 		.4byte	.LASF115
 3659 0a28 05       		.byte	0x5
 3660 0a29 9F02     		.2byte	0x29f
 3661 0a2b 05010000 		.4byte	0x105
 3662 0a2f 00       		.byte	0
 3663 0a30 29       		.uleb128 0x29
 3664 0a31 3C020000 		.4byte	.LASF155
 3665 0a35 01       		.byte	0x1
 3666 0a36 5A       		.byte	0x5a
 3667 0a37 00000000 		.4byte	.LFB220
 3668 0a3b 36000000 		.4byte	.LFE220-.LFB220
 3669 0a3f 01       		.uleb128 0x1
ARM GAS  /tmp/ccPF9ufL.s 			page 129


 3670 0a40 9C       		.byte	0x9c
 3671 0a41 770A0000 		.4byte	0xa77
 3672 0a45 2A       		.uleb128 0x2a
 3673 0a46 6900     		.ascii	"i\000"
 3674 0a48 01       		.byte	0x1
 3675 0a49 5B       		.byte	0x5b
 3676 0a4a 37000000 		.4byte	0x37
 3677 0a4e 00000000 		.4byte	.LLST0
 3678 0a52 2B       		.uleb128 0x2b
 3679 0a53 1A000000 		.4byte	.LVL2
 3680 0a57 620A0000 		.4byte	0xa62
 3681 0a5b 2C       		.uleb128 0x2c
 3682 0a5c 01       		.uleb128 0x1
 3683 0a5d 51       		.byte	0x51
 3684 0a5e 02       		.uleb128 0x2
 3685 0a5f 08       		.byte	0x8
 3686 0a60 2D       		.byte	0x2d
 3687 0a61 00       		.byte	0
 3688 0a62 2D       		.uleb128 0x2d
 3689 0a63 34000000 		.4byte	.LVL4
 3690 0a67 2C       		.uleb128 0x2c
 3691 0a68 01       		.uleb128 0x1
 3692 0a69 52       		.byte	0x52
 3693 0a6a 01       		.uleb128 0x1
 3694 0a6b 32       		.byte	0x32
 3695 0a6c 2C       		.uleb128 0x2c
 3696 0a6d 01       		.uleb128 0x1
 3697 0a6e 51       		.byte	0x51
 3698 0a6f 05       		.uleb128 0x5
 3699 0a70 03       		.byte	0x3
 3700 0a71 00000000 		.4byte	.LC0
 3701 0a75 00       		.byte	0
 3702 0a76 00       		.byte	0
 3703 0a77 2E       		.uleb128 0x2e
 3704 0a78 26090000 		.4byte	0x926
 3705 0a7c 00000000 		.4byte	.LFB221
 3706 0a80 2A000000 		.4byte	.LFE221-.LFB221
 3707 0a84 01       		.uleb128 0x1
 3708 0a85 9C       		.byte	0x9c
 3709 0a86 940A0000 		.4byte	0xa94
 3710 0a8a 2F       		.uleb128 0x2f
 3711 0a8b 36090000 		.4byte	0x936
 3712 0a8f 44000000 		.4byte	.LLST1
 3713 0a93 00       		.byte	0
 3714 0a94 2E       		.uleb128 0x2e
 3715 0a95 85090000 		.4byte	0x985
 3716 0a99 00000000 		.4byte	.LFB222
 3717 0a9d 32000000 		.4byte	.LFE222-.LFB222
 3718 0aa1 01       		.uleb128 0x1
 3719 0aa2 9C       		.byte	0x9c
 3720 0aa3 D10A0000 		.4byte	0xad1
 3721 0aa7 2F       		.uleb128 0x2f
 3722 0aa8 95090000 		.4byte	0x995
 3723 0aac 66000000 		.4byte	.LLST2
 3724 0ab0 30       		.uleb128 0x30
 3725 0ab1 A0090000 		.4byte	0x9a0
 3726 0ab5 01       		.uleb128 0x1
ARM GAS  /tmp/ccPF9ufL.s 			page 130


 3727 0ab6 51       		.byte	0x51
 3728 0ab7 31       		.uleb128 0x31
 3729 0ab8 26090000 		.4byte	0x926
 3730 0abc 04000000 		.4byte	.LBB102
 3731 0ac0 20000000 		.4byte	.LBE102-.LBB102
 3732 0ac4 01       		.byte	0x1
 3733 0ac5 71       		.byte	0x71
 3734 0ac6 2F       		.uleb128 0x2f
 3735 0ac7 36090000 		.4byte	0x936
 3736 0acb A0000000 		.4byte	.LLST3
 3737 0acf 00       		.byte	0
 3738 0ad0 00       		.byte	0
 3739 0ad1 32       		.uleb128 0x32
 3740 0ad2 6A030000 		.4byte	.LASF132
 3741 0ad6 01       		.byte	0x1
 3742 0ad7 75       		.byte	0x75
 3743 0ad8 26070000 		.4byte	0x726
 3744 0adc 00000000 		.4byte	.LFB223
 3745 0ae0 56000000 		.4byte	.LFE223-.LFB223
 3746 0ae4 01       		.uleb128 0x1
 3747 0ae5 9C       		.byte	0x9c
 3748 0ae6 3B0B0000 		.4byte	0xb3b
 3749 0aea 33       		.uleb128 0x33
 3750 0aeb 4D020000 		.4byte	.LASF131
 3751 0aef 01       		.byte	0x1
 3752 0af0 75       		.byte	0x75
 3753 0af1 E6090000 		.4byte	0x9e6
 3754 0af5 B3000000 		.4byte	.LLST4
 3755 0af9 34       		.uleb128 0x34
 3756 0afa 6D736700 		.ascii	"msg\000"
 3757 0afe 01       		.byte	0x1
 3758 0aff 75       		.byte	0x75
 3759 0b00 F2060000 		.4byte	0x6f2
 3760 0b04 01       		.uleb128 0x1
 3761 0b05 51       		.byte	0x51
 3762 0b06 2A       		.uleb128 0x2a
 3763 0b07 637000   		.ascii	"cp\000"
 3764 0b0a 01       		.byte	0x1
 3765 0b0b 76       		.byte	0x76
 3766 0b0c E6090000 		.4byte	0x9e6
 3767 0b10 DE000000 		.4byte	.LLST5
 3768 0b14 35       		.uleb128 0x35
 3769 0b15 1E090000 		.4byte	0x91e
 3770 0b19 2C000000 		.4byte	.LBB104
 3771 0b1d 02000000 		.4byte	.LBE104-.LBB104
 3772 0b21 01       		.byte	0x1
 3773 0b22 80       		.byte	0x80
 3774 0b23 31       		.uleb128 0x31
 3775 0b24 26090000 		.4byte	0x926
 3776 0b28 32000000 		.4byte	.LBB106
 3777 0b2c 20000000 		.4byte	.LBE106-.LBB106
 3778 0b30 01       		.byte	0x1
 3779 0b31 7A       		.byte	0x7a
 3780 0b32 30       		.uleb128 0x30
 3781 0b33 36090000 		.4byte	0x936
 3782 0b37 01       		.uleb128 0x1
 3783 0b38 51       		.byte	0x51
ARM GAS  /tmp/ccPF9ufL.s 			page 131


 3784 0b39 00       		.byte	0
 3785 0b3a 00       		.byte	0
 3786 0b3b 32       		.uleb128 0x32
 3787 0b3c 73010000 		.4byte	.LASF133
 3788 0b40 01       		.byte	0x1
 3789 0b41 85       		.byte	0x85
 3790 0b42 26070000 		.4byte	0x726
 3791 0b46 00000000 		.4byte	.LFB224
 3792 0b4a 3E000000 		.4byte	.LFE224-.LFB224
 3793 0b4e 01       		.uleb128 0x1
 3794 0b4f 9C       		.byte	0x9c
 3795 0b50 590C0000 		.4byte	0xc59
 3796 0b54 33       		.uleb128 0x33
 3797 0b55 90070000 		.4byte	.LASF116
 3798 0b59 01       		.byte	0x1
 3799 0b5a 85       		.byte	0x85
 3800 0b5b 05010000 		.4byte	0x105
 3801 0b5f 19010000 		.4byte	.LLST6
 3802 0b63 36       		.uleb128 0x36
 3803 0b64 656E6400 		.ascii	"end\000"
 3804 0b68 01       		.byte	0x1
 3805 0b69 86       		.byte	0x86
 3806 0b6a 05010000 		.4byte	0x105
 3807 0b6e 3A010000 		.4byte	.LLST7
 3808 0b72 34       		.uleb128 0x34
 3809 0b73 6D736700 		.ascii	"msg\000"
 3810 0b77 01       		.byte	0x1
 3811 0b78 87       		.byte	0x87
 3812 0b79 F2060000 		.4byte	0x6f2
 3813 0b7d 01       		.uleb128 0x1
 3814 0b7e 52       		.byte	0x52
 3815 0b7f 37       		.uleb128 0x37
 3816 0b80 42090000 		.4byte	0x942
 3817 0b84 00000000 		.4byte	.LBB108
 3818 0b88 06000000 		.4byte	.LBE108-.LBB108
 3819 0b8c 01       		.byte	0x1
 3820 0b8d 89       		.byte	0x89
 3821 0b8e C40B0000 		.4byte	0xbc4
 3822 0b92 38       		.uleb128 0x38
 3823 0b93 DB080000 		.4byte	0x8db
 3824 0b97 00000000 		.4byte	.LBB109
 3825 0b9b 06000000 		.4byte	.LBE109-.LBB109
 3826 0b9f 05       		.byte	0x5
 3827 0ba0 6A02     		.2byte	0x26a
 3828 0ba2 38       		.uleb128 0x38
 3829 0ba3 96080000 		.4byte	0x896
 3830 0ba7 00000000 		.4byte	.LBB110
 3831 0bab 06000000 		.4byte	.LBE110-.LBB110
 3832 0baf 03       		.byte	0x3
 3833 0bb0 8D01     		.2byte	0x18d
 3834 0bb2 35       		.uleb128 0x35
 3835 0bb3 78080000 		.4byte	0x878
 3836 0bb7 00000000 		.4byte	.LBB111
 3837 0bbb 06000000 		.4byte	.LBE111-.LBB111
 3838 0bbf 13       		.byte	0x13
 3839 0bc0 6B       		.byte	0x6b
 3840 0bc1 00       		.byte	0
ARM GAS  /tmp/ccPF9ufL.s 			page 132


 3841 0bc2 00       		.byte	0
 3842 0bc3 00       		.byte	0
 3843 0bc4 37       		.uleb128 0x37
 3844 0bc5 4F090000 		.4byte	0x94f
 3845 0bc9 06000000 		.4byte	.LBB113
 3846 0bcd 04000000 		.4byte	.LBE113-.LBB113
 3847 0bd1 01       		.byte	0x1
 3848 0bd2 89       		.byte	0x89
 3849 0bd3 1F0C0000 		.4byte	0xc1f
 3850 0bd7 2F       		.uleb128 0x2f
 3851 0bd8 78090000 		.4byte	0x978
 3852 0bdc 5B010000 		.4byte	.LLST8
 3853 0be0 2F       		.uleb128 0x2f
 3854 0be1 6C090000 		.4byte	0x96c
 3855 0be5 7C010000 		.4byte	.LLST9
 3856 0be9 2F       		.uleb128 0x2f
 3857 0bea 60090000 		.4byte	0x960
 3858 0bee 8F010000 		.4byte	.LLST10
 3859 0bf2 38       		.uleb128 0x38
 3860 0bf3 E8080000 		.4byte	0x8e8
 3861 0bf7 06000000 		.4byte	.LBB114
 3862 0bfb 04000000 		.4byte	.LBE114-.LBB114
 3863 0bff 05       		.byte	0x5
 3864 0c00 7F02     		.2byte	0x27f
 3865 0c02 2F       		.uleb128 0x2f
 3866 0c03 11090000 		.4byte	0x911
 3867 0c07 5B010000 		.4byte	.LLST8
 3868 0c0b 2F       		.uleb128 0x2f
 3869 0c0c 05090000 		.4byte	0x905
 3870 0c10 7C010000 		.4byte	.LLST9
 3871 0c14 2F       		.uleb128 0x2f
 3872 0c15 F9080000 		.4byte	0x8f9
 3873 0c19 8F010000 		.4byte	.LLST10
 3874 0c1d 00       		.byte	0
 3875 0c1e 00       		.byte	0
 3876 0c1f 39       		.uleb128 0x39
 3877 0c20 85090000 		.4byte	0x985
 3878 0c24 0A000000 		.4byte	.LBB116
 3879 0c28 00000000 		.4byte	.Ldebug_ranges0+0
 3880 0c2c 01       		.byte	0x1
 3881 0c2d 89       		.byte	0x89
 3882 0c2e 30       		.uleb128 0x30
 3883 0c2f A0090000 		.4byte	0x9a0
 3884 0c33 01       		.uleb128 0x1
 3885 0c34 52       		.byte	0x52
 3886 0c35 2F       		.uleb128 0x2f
 3887 0c36 95090000 		.4byte	0x995
 3888 0c3a A2010000 		.4byte	.LLST14
 3889 0c3e 31       		.uleb128 0x31
 3890 0c3f 26090000 		.4byte	0x926
 3891 0c43 18000000 		.4byte	.LBB118
 3892 0c47 20000000 		.4byte	.LBE118-.LBB118
 3893 0c4b 01       		.byte	0x1
 3894 0c4c 71       		.byte	0x71
 3895 0c4d 2F       		.uleb128 0x2f
 3896 0c4e 36090000 		.4byte	0x936
 3897 0c52 E7010000 		.4byte	.LLST15
ARM GAS  /tmp/ccPF9ufL.s 			page 133


 3898 0c56 00       		.byte	0
 3899 0c57 00       		.byte	0
 3900 0c58 00       		.byte	0
 3901 0c59 3A       		.uleb128 0x3a
 3902 0c5a AC090000 		.4byte	0x9ac
 3903 0c5e 00000000 		.4byte	.LFB225
 3904 0c62 70000000 		.4byte	.LFE225-.LFB225
 3905 0c66 01       		.uleb128 0x1
 3906 0c67 9C       		.byte	0x9c
 3907 0c68 B70C0000 		.4byte	0xcb7
 3908 0c6c 2F       		.uleb128 0x2f
 3909 0c6d B8090000 		.4byte	0x9b8
 3910 0c71 FA010000 		.4byte	.LLST16
 3911 0c75 3B       		.uleb128 0x3b
 3912 0c76 C1090000 		.4byte	0x9c1
 3913 0c7a 02       		.uleb128 0x2
 3914 0c7b 91       		.byte	0x91
 3915 0c7c 60       		.sleb128 -32
 3916 0c7d 3C       		.uleb128 0x3c
 3917 0c7e CC090000 		.4byte	0x9cc
 3918 0c82 3C020000 		.4byte	.LLST17
 3919 0c86 3D       		.uleb128 0x3d
 3920 0c87 5A000000 		.4byte	.LBB124
 3921 0c8b 12000000 		.4byte	.LBE124-.LBB124
 3922 0c8f 3E       		.uleb128 0x3e
 3923 0c90 B8090000 		.4byte	0x9b8
 3924 0c94 00       		.byte	0
 3925 0c95 3D       		.uleb128 0x3d
 3926 0c96 5A000000 		.4byte	.LBB125
 3927 0c9a 12000000 		.4byte	.LBE125-.LBB125
 3928 0c9e 3F       		.uleb128 0x3f
 3929 0c9f C1090000 		.4byte	0x9c1
 3930 0ca3 3F       		.uleb128 0x3f
 3931 0ca4 CC090000 		.4byte	0x9cc
 3932 0ca8 2D       		.uleb128 0x2d
 3933 0ca9 6C000000 		.4byte	.LVL38
 3934 0cad 2C       		.uleb128 0x2c
 3935 0cae 01       		.uleb128 0x1
 3936 0caf 51       		.byte	0x51
 3937 0cb0 02       		.uleb128 0x2
 3938 0cb1 08       		.byte	0x8
 3939 0cb2 30       		.byte	0x30
 3940 0cb3 00       		.byte	0
 3941 0cb4 00       		.byte	0
 3942 0cb5 00       		.byte	0
 3943 0cb6 00       		.byte	0
 3944 0cb7 3A       		.uleb128 0x3a
 3945 0cb8 EC090000 		.4byte	0x9ec
 3946 0cbc 00000000 		.4byte	.LFB226
 3947 0cc0 22000000 		.4byte	.LFE226-.LFB226
 3948 0cc4 01       		.uleb128 0x1
 3949 0cc5 9C       		.byte	0x9c
 3950 0cc6 D40C0000 		.4byte	0xcd4
 3951 0cca 2F       		.uleb128 0x2f
 3952 0ccb F8090000 		.4byte	0x9f8
 3953 0ccf 8C020000 		.4byte	.LLST18
 3954 0cd3 00       		.byte	0
ARM GAS  /tmp/ccPF9ufL.s 			page 134


 3955 0cd4 40       		.uleb128 0x40
 3956 0cd5 31010000 		.4byte	.LASF134
 3957 0cd9 01       		.byte	0x1
 3958 0cda B6       		.byte	0xb6
 3959 0cdb 00000000 		.4byte	.LFB227
 3960 0cdf 3A000000 		.4byte	.LFE227-.LFB227
 3961 0ce3 01       		.uleb128 0x1
 3962 0ce4 9C       		.byte	0x9c
 3963 0ce5 2A0D0000 		.4byte	0xd2a
 3964 0ce9 33       		.uleb128 0x33
 3965 0cea D4020000 		.4byte	.LASF127
 3966 0cee 01       		.byte	0x1
 3967 0cef B6       		.byte	0xb6
 3968 0cf0 F2060000 		.4byte	0x6f2
 3969 0cf4 C2020000 		.4byte	.LLST19
 3970 0cf8 37       		.uleb128 0x37
 3971 0cf9 EC090000 		.4byte	0x9ec
 3972 0cfd 02000000 		.4byte	.LBB126
 3973 0d01 1E000000 		.4byte	.LBE126-.LBB126
 3974 0d05 01       		.byte	0x1
 3975 0d06 B8       		.byte	0xb8
 3976 0d07 150D0000 		.4byte	0xd15
 3977 0d0b 2F       		.uleb128 0x2f
 3978 0d0c F8090000 		.4byte	0x9f8
 3979 0d10 EE020000 		.4byte	.LLST20
 3980 0d14 00       		.byte	0
 3981 0d15 2D       		.uleb128 0x2d
 3982 0d16 32000000 		.4byte	.LVL51
 3983 0d1a 2C       		.uleb128 0x2c
 3984 0d1b 01       		.uleb128 0x1
 3985 0d1c 52       		.byte	0x52
 3986 0d1d 01       		.uleb128 0x1
 3987 0d1e 32       		.byte	0x32
 3988 0d1f 2C       		.uleb128 0x2c
 3989 0d20 01       		.uleb128 0x1
 3990 0d21 51       		.byte	0x51
 3991 0d22 05       		.uleb128 0x5
 3992 0d23 03       		.byte	0x3
 3993 0d24 00000000 		.4byte	.LC0
 3994 0d28 00       		.byte	0
 3995 0d29 00       		.byte	0
 3996 0d2a 41       		.uleb128 0x41
 3997 0d2b 21010000 		.4byte	.LASF135
 3998 0d2f 01       		.byte	0x1
 3999 0d30 C3       		.byte	0xc3
 4000 0d31 00000000 		.4byte	.LFB228
 4001 0d35 28000000 		.4byte	.LFE228-.LFB228
 4002 0d39 01       		.uleb128 0x1
 4003 0d3a 9C       		.byte	0x9c
 4004 0d3b F20D0000 		.4byte	0xdf2
 4005 0d3f 42       		.uleb128 0x42
 4006 0d40 F6030000 		.4byte	.LASF136
 4007 0d44 01       		.byte	0x1
 4008 0d45 C3       		.byte	0xc3
 4009 0d46 FD060000 		.4byte	0x6fd
 4010 0d4a 01       		.uleb128 0x1
 4011 0d4b 50       		.byte	0x50
ARM GAS  /tmp/ccPF9ufL.s 			page 135


 4012 0d4c 37       		.uleb128 0x37
 4013 0d4d 040A0000 		.4byte	0xa04
 4014 0d51 00000000 		.4byte	.LBB128
 4015 0d55 06000000 		.4byte	.LBE128-.LBB128
 4016 0d59 01       		.byte	0x1
 4017 0d5a C5       		.byte	0xc5
 4018 0d5b 990D0000 		.4byte	0xd99
 4019 0d5f 38       		.uleb128 0x38
 4020 0d60 A2080000 		.4byte	0x8a2
 4021 0d64 00000000 		.4byte	.LBB129
 4022 0d68 06000000 		.4byte	.LBE129-.LBB129
 4023 0d6c 05       		.byte	0x5
 4024 0d6d ED01     		.2byte	0x1ed
 4025 0d6f 38       		.uleb128 0x38
 4026 0d70 84080000 		.4byte	0x884
 4027 0d74 00000000 		.4byte	.LBB130
 4028 0d78 06000000 		.4byte	.LBE130-.LBB130
 4029 0d7c 14       		.byte	0x14
 4030 0d7d 7801     		.2byte	0x178
 4031 0d7f 38       		.uleb128 0x38
 4032 0d80 5E080000 		.4byte	0x85e
 4033 0d84 00000000 		.4byte	.LBB131
 4034 0d88 06000000 		.4byte	.LBE131-.LBB131
 4035 0d8c 0C       		.byte	0xc
 4036 0d8d 5A02     		.2byte	0x25a
 4037 0d8f 3E       		.uleb128 0x3e
 4038 0d90 6B080000 		.4byte	0x86b
 4039 0d94 20       		.byte	0x20
 4040 0d95 00       		.byte	0
 4041 0d96 00       		.byte	0
 4042 0d97 00       		.byte	0
 4043 0d98 00       		.byte	0
 4044 0d99 31       		.uleb128 0x31
 4045 0d9a 0D0A0000 		.4byte	0xa0d
 4046 0d9e 1C000000 		.4byte	.LBB133
 4047 0da2 0C000000 		.4byte	.LBE133-.LBB133
 4048 0da6 01       		.byte	0x1
 4049 0da7 C8       		.byte	0xc8
 4050 0da8 38       		.uleb128 0x38
 4051 0da9 AB080000 		.4byte	0x8ab
 4052 0dad 1C000000 		.4byte	.LBB134
 4053 0db1 0C000000 		.4byte	.LBE134-.LBB134
 4054 0db5 05       		.byte	0x5
 4055 0db6 F801     		.2byte	0x1f8
 4056 0db8 3D       		.uleb128 0x3d
 4057 0db9 1C000000 		.4byte	.LBB135
 4058 0dbd 0C000000 		.4byte	.LBE135-.LBB135
 4059 0dc1 3F       		.uleb128 0x3f
 4060 0dc2 B8080000 		.4byte	0x8b8
 4061 0dc6 38       		.uleb128 0x38
 4062 0dc7 8D080000 		.4byte	0x88d
 4063 0dcb 1C000000 		.4byte	.LBB136
 4064 0dcf 0C000000 		.4byte	.LBE136-.LBB136
 4065 0dd3 14       		.byte	0x14
 4066 0dd4 8F01     		.2byte	0x18f
 4067 0dd6 38       		.uleb128 0x38
 4068 0dd7 5E080000 		.4byte	0x85e
ARM GAS  /tmp/ccPF9ufL.s 			page 136


 4069 0ddb 1C000000 		.4byte	.LBB137
 4070 0ddf 0C000000 		.4byte	.LBE137-.LBB137
 4071 0de3 0C       		.byte	0xc
 4072 0de4 6D02     		.2byte	0x26d
 4073 0de6 3E       		.uleb128 0x3e
 4074 0de7 6B080000 		.4byte	0x86b
 4075 0deb 00       		.byte	0
 4076 0dec 00       		.byte	0
 4077 0ded 00       		.byte	0
 4078 0dee 00       		.byte	0
 4079 0def 00       		.byte	0
 4080 0df0 00       		.byte	0
 4081 0df1 00       		.byte	0
 4082 0df2 41       		.uleb128 0x41
 4083 0df3 6E050000 		.4byte	.LASF137
 4084 0df7 01       		.byte	0x1
 4085 0df8 D2       		.byte	0xd2
 4086 0df9 00000000 		.4byte	.LFB229
 4087 0dfd 1C000000 		.4byte	.LFE229-.LFB229
 4088 0e01 01       		.uleb128 0x1
 4089 0e02 9C       		.byte	0x9c
 4090 0e03 150E0000 		.4byte	0xe15
 4091 0e07 42       		.uleb128 0x42
 4092 0e08 F6030000 		.4byte	.LASF136
 4093 0e0c 01       		.byte	0x1
 4094 0e0d D2       		.byte	0xd2
 4095 0e0e FD060000 		.4byte	0x6fd
 4096 0e12 01       		.uleb128 0x1
 4097 0e13 50       		.byte	0x50
 4098 0e14 00       		.byte	0
 4099 0e15 43       		.uleb128 0x43
 4100 0e16 DA060000 		.4byte	.LASF138
 4101 0e1a 01       		.byte	0x1
 4102 0e1b 4D       		.byte	0x4d
 4103 0e1c 01       		.byte	0x1
 4104 0e1d 2D0E0000 		.4byte	0xe2d
 4105 0e21 25       		.uleb128 0x25
 4106 0e22 74637000 		.ascii	"tcp\000"
 4107 0e26 01       		.byte	0x1
 4108 0e27 4D       		.byte	0x4d
 4109 0e28 2D0E0000 		.4byte	0xe2d
 4110 0e2c 00       		.byte	0
 4111 0e2d 0A       		.uleb128 0xa
 4112 0e2e 04       		.byte	0x4
 4113 0e2f 330E0000 		.4byte	0xe33
 4114 0e33 18       		.uleb128 0x18
 4115 0e34 53080000 		.4byte	0x853
 4116 0e38 43       		.uleb128 0x43
 4117 0e39 AD010000 		.4byte	.LASF139
 4118 0e3d 01       		.byte	0x1
 4119 0e3e 46       		.byte	0x46
 4120 0e3f 01       		.byte	0x1
 4121 0e40 4F0E0000 		.4byte	0xe4f
 4122 0e44 28       		.uleb128 0x28
 4123 0e45 637000   		.ascii	"cp\000"
 4124 0e48 01       		.byte	0x1
 4125 0e49 47       		.byte	0x47
ARM GAS  /tmp/ccPF9ufL.s 			page 137


 4126 0e4a E6090000 		.4byte	0x9e6
 4127 0e4e 00       		.byte	0
 4128 0e4f 44       		.uleb128 0x44
 4129 0e50 ED000000 		.4byte	.LASF140
 4130 0e54 01       		.byte	0x1
 4131 0e55 E3       		.byte	0xe3
 4132 0e56 E4000000 		.4byte	0xe4
 4133 0e5a 00000000 		.4byte	.LFB230
 4134 0e5e FC020000 		.4byte	.LFE230-.LFB230
 4135 0e62 01       		.uleb128 0x1
 4136 0e63 9C       		.byte	0x9c
 4137 0e64 F7110000 		.4byte	0x11f7
 4138 0e68 33       		.uleb128 0x33
 4139 0e69 54000000 		.4byte	.LASF141
 4140 0e6d 01       		.byte	0x1
 4141 0e6e E3       		.byte	0xe3
 4142 0e6f F7110000 		.4byte	0x11f7
 4143 0e73 2F030000 		.4byte	.LLST21
 4144 0e77 2A       		.uleb128 0x2a
 4145 0e78 6900     		.ascii	"i\000"
 4146 0e7a 01       		.byte	0x1
 4147 0e7b E4       		.byte	0xe4
 4148 0e7c 25000000 		.4byte	0x25
 4149 0e80 5F030000 		.4byte	.LLST22
 4150 0e84 2A       		.uleb128 0x2a
 4151 0e85 6A00     		.ascii	"j\000"
 4152 0e87 01       		.byte	0x1
 4153 0e88 E4       		.byte	0xe4
 4154 0e89 25000000 		.4byte	0x25
 4155 0e8d B8030000 		.4byte	.LLST23
 4156 0e91 37       		.uleb128 0x37
 4157 0e92 EC090000 		.4byte	0x9ec
 4158 0e96 3C000000 		.4byte	.LBB171
 4159 0e9a 12000000 		.4byte	.LBE171-.LBB171
 4160 0e9e 01       		.byte	0x1
 4161 0e9f EE       		.byte	0xee
 4162 0ea0 AE0E0000 		.4byte	0xeae
 4163 0ea4 2F       		.uleb128 0x2f
 4164 0ea5 F8090000 		.4byte	0x9f8
 4165 0ea9 F0030000 		.4byte	.LLST24
 4166 0ead 00       		.byte	0
 4167 0eae 37       		.uleb128 0x37
 4168 0eaf EC090000 		.4byte	0x9ec
 4169 0eb3 62000000 		.4byte	.LBB173
 4170 0eb7 12000000 		.4byte	.LBE173-.LBB173
 4171 0ebb 01       		.byte	0x1
 4172 0ebc F1       		.byte	0xf1
 4173 0ebd CB0E0000 		.4byte	0xecb
 4174 0ec1 2F       		.uleb128 0x2f
 4175 0ec2 F8090000 		.4byte	0x9f8
 4176 0ec6 2B040000 		.4byte	.LLST25
 4177 0eca 00       		.byte	0
 4178 0ecb 37       		.uleb128 0x37
 4179 0ecc EC090000 		.4byte	0x9ec
 4180 0ed0 88000000 		.4byte	.LBB175
 4181 0ed4 12000000 		.4byte	.LBE175-.LBB175
 4182 0ed8 01       		.byte	0x1
ARM GAS  /tmp/ccPF9ufL.s 			page 138


 4183 0ed9 F5       		.byte	0xf5
 4184 0eda E80E0000 		.4byte	0xee8
 4185 0ede 2F       		.uleb128 0x2f
 4186 0edf F8090000 		.4byte	0x9f8
 4187 0ee3 66040000 		.4byte	.LLST26
 4188 0ee7 00       		.byte	0
 4189 0ee8 45       		.uleb128 0x45
 4190 0ee9 150E0000 		.4byte	0xe15
 4191 0eed D6000000 		.4byte	.LBB177
 4192 0ef1 18000000 		.4byte	.Ldebug_ranges0+0x18
 4193 0ef5 01       		.byte	0x1
 4194 0ef6 0D01     		.2byte	0x10d
 4195 0ef8 150F0000 		.4byte	0xf15
 4196 0efc 2F       		.uleb128 0x2f
 4197 0efd 210E0000 		.4byte	0xe21
 4198 0f01 A1040000 		.4byte	.LLST27
 4199 0f05 46       		.uleb128 0x46
 4200 0f06 1E090000 		.4byte	0x91e
 4201 0f0a D6000000 		.4byte	.LBB179
 4202 0f0e 40000000 		.4byte	.Ldebug_ranges0+0x40
 4203 0f12 01       		.byte	0x1
 4204 0f13 50       		.byte	0x50
 4205 0f14 00       		.byte	0
 4206 0f15 45       		.uleb128 0x45
 4207 0f16 EC090000 		.4byte	0x9ec
 4208 0f1a EC000000 		.4byte	.LBB189
 4209 0f1e 60000000 		.4byte	.Ldebug_ranges0+0x60
 4210 0f22 01       		.byte	0x1
 4211 0f23 1101     		.2byte	0x111
 4212 0f25 330F0000 		.4byte	0xf33
 4213 0f29 2F       		.uleb128 0x2f
 4214 0f2a F8090000 		.4byte	0x9f8
 4215 0f2e BF040000 		.4byte	.LLST28
 4216 0f32 00       		.byte	0
 4217 0f33 47       		.uleb128 0x47
 4218 0f34 EC090000 		.4byte	0x9ec
 4219 0f38 0C010000 		.4byte	.LBB193
 4220 0f3c 1A000000 		.4byte	.LBE193-.LBB193
 4221 0f40 01       		.byte	0x1
 4222 0f41 0301     		.2byte	0x103
 4223 0f43 510F0000 		.4byte	0xf51
 4224 0f47 2F       		.uleb128 0x2f
 4225 0f48 F8090000 		.4byte	0x9f8
 4226 0f4c FA040000 		.4byte	.LLST29
 4227 0f50 00       		.byte	0
 4228 0f51 45       		.uleb128 0x45
 4229 0f52 EC090000 		.4byte	0x9ec
 4230 0f56 2C010000 		.4byte	.LBB195
 4231 0f5a 80000000 		.4byte	.Ldebug_ranges0+0x80
 4232 0f5e 01       		.byte	0x1
 4233 0f5f 0501     		.2byte	0x105
 4234 0f61 770F0000 		.4byte	0xf77
 4235 0f65 48       		.uleb128 0x48
 4236 0f66 F8090000 		.4byte	0x9f8
 4237 0f6a 2D       		.uleb128 0x2d
 4238 0f6b 3A010000 		.4byte	.LVL94
 4239 0f6f 2C       		.uleb128 0x2c
ARM GAS  /tmp/ccPF9ufL.s 			page 139


 4240 0f70 01       		.uleb128 0x1
 4241 0f71 51       		.byte	0x51
 4242 0f72 02       		.uleb128 0x2
 4243 0f73 08       		.byte	0x8
 4244 0f74 2E       		.byte	0x2e
 4245 0f75 00       		.byte	0
 4246 0f76 00       		.byte	0
 4247 0f77 47       		.uleb128 0x47
 4248 0f78 EC090000 		.4byte	0x9ec
 4249 0f7c 48010000 		.4byte	.LBB199
 4250 0f80 12000000 		.4byte	.LBE199-.LBB199
 4251 0f84 01       		.byte	0x1
 4252 0f85 0701     		.2byte	0x107
 4253 0f87 950F0000 		.4byte	0xf95
 4254 0f8b 2F       		.uleb128 0x2f
 4255 0f8c F8090000 		.4byte	0x9f8
 4256 0f90 40050000 		.4byte	.LLST31
 4257 0f94 00       		.byte	0
 4258 0f95 47       		.uleb128 0x47
 4259 0f96 EC090000 		.4byte	0x9ec
 4260 0f9a 64010000 		.4byte	.LBB201
 4261 0f9e 16000000 		.4byte	.LBE201-.LBB201
 4262 0fa2 01       		.byte	0x1
 4263 0fa3 0801     		.2byte	0x108
 4264 0fa5 B30F0000 		.4byte	0xfb3
 4265 0fa9 2F       		.uleb128 0x2f
 4266 0faa F8090000 		.4byte	0x9f8
 4267 0fae 7B050000 		.4byte	.LLST32
 4268 0fb2 00       		.byte	0
 4269 0fb3 47       		.uleb128 0x47
 4270 0fb4 160A0000 		.4byte	0xa16
 4271 0fb8 86010000 		.4byte	.LBB203
 4272 0fbc 08000000 		.4byte	.LBE203-.LBB203
 4273 0fc0 01       		.byte	0x1
 4274 0fc1 0B01     		.2byte	0x10b
 4275 0fc3 E20F0000 		.4byte	0xfe2
 4276 0fc7 2F       		.uleb128 0x2f
 4277 0fc8 230A0000 		.4byte	0xa23
 4278 0fcc B1050000 		.4byte	.LLST33
 4279 0fd0 49       		.uleb128 0x49
 4280 0fd1 8E010000 		.4byte	.LVL108
 4281 0fd5 B1120000 		.4byte	0x12b1
 4282 0fd9 2C       		.uleb128 0x2c
 4283 0fda 01       		.uleb128 0x1
 4284 0fdb 50       		.byte	0x50
 4285 0fdc 03       		.uleb128 0x3
 4286 0fdd 0A       		.byte	0xa
 4287 0fde D007     		.2byte	0x7d0
 4288 0fe0 00       		.byte	0
 4289 0fe1 00       		.byte	0
 4290 0fe2 47       		.uleb128 0x47
 4291 0fe3 EC090000 		.4byte	0x9ec
 4292 0fe7 D0010000 		.4byte	.LBB207
 4293 0feb 12000000 		.4byte	.LBE207-.LBB207
 4294 0fef 01       		.byte	0x1
 4295 0ff0 0F01     		.2byte	0x10f
 4296 0ff2 00100000 		.4byte	0x1000
ARM GAS  /tmp/ccPF9ufL.s 			page 140


 4297 0ff6 2F       		.uleb128 0x2f
 4298 0ff7 F8090000 		.4byte	0x9f8
 4299 0ffb D5050000 		.4byte	.LLST34
 4300 0fff 00       		.byte	0
 4301 1000 47       		.uleb128 0x47
 4302 1001 380E0000 		.4byte	0xe38
 4303 1005 0A020000 		.4byte	.LBB210
 4304 1009 2A000000 		.4byte	.LBE210-.LBB210
 4305 100d 01       		.byte	0x1
 4306 100e 1201     		.2byte	0x112
 4307 1010 28100000 		.4byte	0x1028
 4308 1014 3D       		.uleb128 0x3d
 4309 1015 0A020000 		.4byte	.LBB211
 4310 1019 2A000000 		.4byte	.LBE211-.LBB211
 4311 101d 3C       		.uleb128 0x3c
 4312 101e 440E0000 		.4byte	0xe44
 4313 1022 00060000 		.4byte	.LLST35
 4314 1026 00       		.byte	0
 4315 1027 00       		.byte	0
 4316 1028 47       		.uleb128 0x47
 4317 1029 EC090000 		.4byte	0x9ec
 4318 102d 36020000 		.4byte	.LBB213
 4319 1031 10000000 		.4byte	.LBE213-.LBB213
 4320 1035 01       		.byte	0x1
 4321 1036 1301     		.2byte	0x113
 4322 1038 46100000 		.4byte	0x1046
 4323 103c 2F       		.uleb128 0x2f
 4324 103d F8090000 		.4byte	0x9f8
 4325 1041 3D060000 		.4byte	.LLST36
 4326 1045 00       		.byte	0
 4327 1046 47       		.uleb128 0x47
 4328 1047 EC090000 		.4byte	0x9ec
 4329 104b 50020000 		.4byte	.LBB215
 4330 104f 16000000 		.4byte	.LBE215-.LBB215
 4331 1053 01       		.byte	0x1
 4332 1054 1401     		.2byte	0x114
 4333 1056 64100000 		.4byte	0x1064
 4334 105a 2F       		.uleb128 0x2f
 4335 105b F8090000 		.4byte	0x9f8
 4336 105f 68060000 		.4byte	.LLST37
 4337 1063 00       		.byte	0
 4338 1064 47       		.uleb128 0x47
 4339 1065 EC090000 		.4byte	0x9ec
 4340 1069 A6020000 		.4byte	.LBB217
 4341 106d 12000000 		.4byte	.LBE217-.LBB217
 4342 1071 01       		.byte	0x1
 4343 1072 1F01     		.2byte	0x11f
 4344 1074 82100000 		.4byte	0x1082
 4345 1078 2F       		.uleb128 0x2f
 4346 1079 F8090000 		.4byte	0x9f8
 4347 107d 9E060000 		.4byte	.LLST38
 4348 1081 00       		.byte	0
 4349 1082 4A       		.uleb128 0x4a
 4350 1083 1C000000 		.4byte	.LVL58
 4351 1087 D40C0000 		.4byte	0xcd4
 4352 108b 99100000 		.4byte	0x1099
 4353 108f 2C       		.uleb128 0x2c
ARM GAS  /tmp/ccPF9ufL.s 			page 141


 4354 1090 01       		.uleb128 0x1
 4355 1091 50       		.byte	0x50
 4356 1092 05       		.uleb128 0x5
 4357 1093 03       		.byte	0x3
 4358 1094 04000000 		.4byte	.LC1
 4359 1098 00       		.byte	0
 4360 1099 4A       		.uleb128 0x4a
 4361 109a 28000000 		.4byte	.LVL59
 4362 109e D40C0000 		.4byte	0xcd4
 4363 10a2 B0100000 		.4byte	0x10b0
 4364 10a6 2C       		.uleb128 0x2c
 4365 10a7 01       		.uleb128 0x1
 4366 10a8 50       		.byte	0x50
 4367 10a9 05       		.uleb128 0x5
 4368 10aa 03       		.byte	0x3
 4369 10ab 08000000 		.4byte	.LC2
 4370 10af 00       		.byte	0
 4371 10b0 4A       		.uleb128 0x4a
 4372 10b1 38000000 		.4byte	.LVL60
 4373 10b5 D40C0000 		.4byte	0xcd4
 4374 10b9 C7100000 		.4byte	0x10c7
 4375 10bd 2C       		.uleb128 0x2c
 4376 10be 01       		.uleb128 0x1
 4377 10bf 50       		.byte	0x50
 4378 10c0 05       		.uleb128 0x5
 4379 10c1 03       		.byte	0x3
 4380 10c2 24000000 		.4byte	.LC3
 4381 10c6 00       		.byte	0
 4382 10c7 4A       		.uleb128 0x4a
 4383 10c8 5E000000 		.4byte	.LVL66
 4384 10cc D40C0000 		.4byte	0xcd4
 4385 10d0 DE100000 		.4byte	0x10de
 4386 10d4 2C       		.uleb128 0x2c
 4387 10d5 01       		.uleb128 0x1
 4388 10d6 50       		.byte	0x50
 4389 10d7 05       		.uleb128 0x5
 4390 10d8 03       		.byte	0x3
 4391 10d9 AC000000 		.4byte	.LC14
 4392 10dd 00       		.byte	0
 4393 10de 4A       		.uleb128 0x4a
 4394 10df 84000000 		.4byte	.LVL72
 4395 10e3 D40C0000 		.4byte	0xcd4
 4396 10e7 F5100000 		.4byte	0x10f5
 4397 10eb 2C       		.uleb128 0x2c
 4398 10ec 01       		.uleb128 0x1
 4399 10ed 50       		.byte	0x50
 4400 10ee 05       		.uleb128 0x5
 4401 10ef 03       		.byte	0x3
 4402 10f0 D8000000 		.4byte	.LC16
 4403 10f4 00       		.byte	0
 4404 10f5 4A       		.uleb128 0x4a
 4405 10f6 AC000000 		.4byte	.LVL77
 4406 10fa D40C0000 		.4byte	0xcd4
 4407 10fe 0C110000 		.4byte	0x110c
 4408 1102 2C       		.uleb128 0x2c
 4409 1103 01       		.uleb128 0x1
 4410 1104 50       		.byte	0x50
ARM GAS  /tmp/ccPF9ufL.s 			page 142


 4411 1105 05       		.uleb128 0x5
 4412 1106 03       		.byte	0x3
 4413 1107 3C000000 		.4byte	.LC5
 4414 110b 00       		.byte	0
 4415 110c 4B       		.uleb128 0x4b
 4416 110d B0000000 		.4byte	.LVL78
 4417 1111 C3120000 		.4byte	0x12c3
 4418 1115 4A       		.uleb128 0x4a
 4419 1116 C0000000 		.4byte	.LVL79
 4420 111a D40C0000 		.4byte	0xcd4
 4421 111e 2C110000 		.4byte	0x112c
 4422 1122 2C       		.uleb128 0x2c
 4423 1123 01       		.uleb128 0x1
 4424 1124 50       		.byte	0x50
 4425 1125 05       		.uleb128 0x5
 4426 1126 03       		.byte	0x3
 4427 1127 04000000 		.4byte	.LC1
 4428 112b 00       		.byte	0
 4429 112c 4B       		.uleb128 0x4b
 4430 112d 08010000 		.4byte	.LVL86
 4431 1131 300A0000 		.4byte	0xa30
 4432 1135 4A       		.uleb128 0x4a
 4433 1136 2C010000 		.4byte	.LVL91
 4434 113a AC090000 		.4byte	0x9ac
 4435 113e 4A110000 		.4byte	0x114a
 4436 1142 2C       		.uleb128 0x2c
 4437 1143 01       		.uleb128 0x1
 4438 1144 50       		.byte	0x50
 4439 1145 03       		.uleb128 0x3
 4440 1146 91       		.byte	0x91
 4441 1147 50       		.sleb128 -48
 4442 1148 06       		.byte	0x6
 4443 1149 00       		.byte	0
 4444 114a 4A       		.uleb128 0x4a
 4445 114b 44010000 		.4byte	.LVL95
 4446 114f AC090000 		.4byte	0x9ac
 4447 1153 5E110000 		.4byte	0x115e
 4448 1157 2C       		.uleb128 0x2c
 4449 1158 01       		.uleb128 0x1
 4450 1159 50       		.byte	0x50
 4451 115a 02       		.uleb128 0x2
 4452 115b 76       		.byte	0x76
 4453 115c 00       		.sleb128 0
 4454 115d 00       		.byte	0
 4455 115e 4A       		.uleb128 0x4a
 4456 115f 86010000 		.4byte	.LVL107
 4457 1163 D40C0000 		.4byte	0xcd4
 4458 1167 75110000 		.4byte	0x1175
 4459 116b 2C       		.uleb128 0x2c
 4460 116c 01       		.uleb128 0x1
 4461 116d 50       		.byte	0x50
 4462 116e 05       		.uleb128 0x5
 4463 116f 03       		.byte	0x3
 4464 1170 64000000 		.4byte	.LC7
 4465 1174 00       		.byte	0
 4466 1175 4B       		.uleb128 0x4b
 4467 1176 F4010000 		.4byte	.LVL119
ARM GAS  /tmp/ccPF9ufL.s 			page 143


 4468 117a AC090000 		.4byte	0x9ac
 4469 117e 4A       		.uleb128 0x4a
 4470 117f 72020000 		.4byte	.LVL142
 4471 1183 D40C0000 		.4byte	0xcd4
 4472 1187 95110000 		.4byte	0x1195
 4473 118b 2C       		.uleb128 0x2c
 4474 118c 01       		.uleb128 0x1
 4475 118d 50       		.byte	0x50
 4476 118e 05       		.uleb128 0x5
 4477 118f 03       		.byte	0x3
 4478 1190 84000000 		.4byte	.LC10
 4479 1194 00       		.byte	0
 4480 1195 4B       		.uleb128 0x4b
 4481 1196 92020000 		.4byte	.LVL146
 4482 119a 300A0000 		.4byte	0xa30
 4483 119e 4A       		.uleb128 0x4a
 4484 119f A2020000 		.4byte	.LVL147
 4485 11a3 D40C0000 		.4byte	0xcd4
 4486 11a7 B5110000 		.4byte	0x11b5
 4487 11ab 2C       		.uleb128 0x2c
 4488 11ac 01       		.uleb128 0x1
 4489 11ad 50       		.byte	0x50
 4490 11ae 05       		.uleb128 0x5
 4491 11af 03       		.byte	0x3
 4492 11b0 04000000 		.4byte	.LC1
 4493 11b4 00       		.byte	0
 4494 11b5 4A       		.uleb128 0x4a
 4495 11b6 CA020000 		.4byte	.LVL152
 4496 11ba D40C0000 		.4byte	0xcd4
 4497 11be CC110000 		.4byte	0x11cc
 4498 11c2 2C       		.uleb128 0x2c
 4499 11c3 01       		.uleb128 0x1
 4500 11c4 50       		.byte	0x50
 4501 11c5 05       		.uleb128 0x5
 4502 11c6 03       		.byte	0x3
 4503 11c7 A4000000 		.4byte	.LC13
 4504 11cb 00       		.byte	0
 4505 11cc 4A       		.uleb128 0x4a
 4506 11cd E0020000 		.4byte	.LVL154
 4507 11d1 D40C0000 		.4byte	0xcd4
 4508 11d5 E3110000 		.4byte	0x11e3
 4509 11d9 2C       		.uleb128 0x2c
 4510 11da 01       		.uleb128 0x1
 4511 11db 50       		.byte	0x50
 4512 11dc 05       		.uleb128 0x5
 4513 11dd 03       		.byte	0x3
 4514 11de 88000000 		.4byte	.LC11
 4515 11e2 00       		.byte	0
 4516 11e3 49       		.uleb128 0x49
 4517 11e4 EE020000 		.4byte	.LVL156
 4518 11e8 D40C0000 		.4byte	0xcd4
 4519 11ec 2C       		.uleb128 0x2c
 4520 11ed 01       		.uleb128 0x1
 4521 11ee 50       		.byte	0x50
 4522 11ef 05       		.uleb128 0x5
 4523 11f0 03       		.byte	0x3
 4524 11f1 9C000000 		.4byte	.LC12
ARM GAS  /tmp/ccPF9ufL.s 			page 144


 4525 11f5 00       		.byte	0
 4526 11f6 00       		.byte	0
 4527 11f7 0A       		.uleb128 0xa
 4528 11f8 04       		.byte	0x4
 4529 11f9 08080000 		.4byte	0x808
 4530 11fd 4C       		.uleb128 0x4c
 4531 11fe F3050000 		.4byte	.LASF142
 4532 1202 01       		.byte	0x1
 4533 1203 37       		.byte	0x37
 4534 1204 26070000 		.4byte	0x726
 4535 1208 05       		.uleb128 0x5
 4536 1209 03       		.byte	0x3
 4537 120a 00000000 		.4byte	test_local_fail
 4538 120e 4C       		.uleb128 0x4c
 4539 120f F5060000 		.4byte	.LASF143
 4540 1213 01       		.byte	0x1
 4541 1214 38       		.byte	0x38
 4542 1215 F2060000 		.4byte	0x6f2
 4543 1219 05       		.uleb128 0x5
 4544 121a 03       		.byte	0x3
 4545 121b 00000000 		.4byte	test_failure_message
 4546 121f 4C       		.uleb128 0x4c
 4547 1220 99000000 		.4byte	.LASF144
 4548 1224 01       		.byte	0x1
 4549 1225 39       		.byte	0x39
 4550 1226 D6090000 		.4byte	0x9d6
 4551 122a 05       		.uleb128 0x5
 4552 122b 03       		.byte	0x3
 4553 122c 00000000 		.4byte	test_tokens_buffer
 4554 1230 4C       		.uleb128 0x4c
 4555 1231 7C000000 		.4byte	.LASF145
 4556 1235 01       		.byte	0x1
 4557 1236 3A       		.byte	0x3a
 4558 1237 E6090000 		.4byte	0x9e6
 4559 123b 05       		.uleb128 0x5
 4560 123c 03       		.byte	0x3
 4561 123d 00000000 		.4byte	test_tokp
 4562 1241 4C       		.uleb128 0x4c
 4563 1242 EA050000 		.4byte	.LASF146
 4564 1246 01       		.byte	0x1
 4565 1247 3B       		.byte	0x3b
 4566 1248 F7110000 		.4byte	0x11f7
 4567 124c 05       		.uleb128 0x5
 4568 124d 03       		.byte	0x3
 4569 124e 00000000 		.4byte	test_chp
 4570 1252 4D       		.uleb128 0x4d
 4571 1253 CA000000 		.4byte	.LASF147
 4572 1257 15       		.byte	0x15
 4573 1258 9606     		.2byte	0x696
 4574 125a 5E120000 		.4byte	0x125e
 4575 125e 0F       		.uleb128 0xf
 4576 125f 70000000 		.4byte	0x70
 4577 1263 4E       		.uleb128 0x4e
 4578 1264 636800   		.ascii	"ch\000"
 4579 1267 0A       		.byte	0xa
 4580 1268 D201     		.2byte	0x1d2
 4581 126a B0030000 		.4byte	0x3b0
ARM GAS  /tmp/ccPF9ufL.s 			page 145


 4582 126e 4F       		.uleb128 0x4f
 4583 126f 3C030000 		.4byte	.LASF148
 4584 1273 01       		.byte	0x1
 4585 1274 28       		.byte	0x28
 4586 1275 37000000 		.4byte	0x37
 4587 1279 05       		.uleb128 0x5
 4588 127a 03       		.byte	0x3
 4589 127b 00000000 		.4byte	test_step
 4590 127f 4F       		.uleb128 0x4f
 4591 1280 AB050000 		.4byte	.LASF149
 4592 1284 01       		.byte	0x1
 4593 1285 2D       		.byte	0x2d
 4594 1286 26070000 		.4byte	0x726
 4595 128a 05       		.uleb128 0x5
 4596 128b 03       		.byte	0x3
 4597 128c 00000000 		.4byte	test_global_fail
 4598 1290 10       		.uleb128 0x10
 4599 1291 9B120000 		.4byte	0x129b
 4600 1295 9B120000 		.4byte	0x129b
 4601 1299 50       		.uleb128 0x50
 4602 129a 00       		.byte	0
 4603 129b 0A       		.uleb128 0xa
 4604 129c 04       		.byte	0x4
 4605 129d A1120000 		.4byte	0x12a1
 4606 12a1 18       		.uleb128 0x18
 4607 12a2 2D0E0000 		.4byte	0xe2d
 4608 12a6 51       		.uleb128 0x51
 4609 12a7 63050000 		.4byte	.LASF150
 4610 12ab 16       		.byte	0x16
 4611 12ac 2D       		.byte	0x2d
 4612 12ad 90120000 		.4byte	0x1290
 4613 12b1 52       		.uleb128 0x52
 4614 12b2 CC040000 		.4byte	.LASF151
 4615 12b6 17       		.byte	0x17
 4616 12b7 0901     		.2byte	0x109
 4617 12b9 C3120000 		.4byte	0x12c3
 4618 12bd 0D       		.uleb128 0xd
 4619 12be 05010000 		.4byte	0x105
 4620 12c2 00       		.byte	0
 4621 12c3 53       		.uleb128 0x53
 4622 12c4 09060000 		.4byte	.LASF156
 4623 12c8 16       		.byte	0x16
 4624 12c9 5F       		.byte	0x5f
 4625 12ca 00       		.byte	0
 4626              		.section	.debug_abbrev,"",%progbits
 4627              	.Ldebug_abbrev0:
 4628 0000 01       		.uleb128 0x1
 4629 0001 11       		.uleb128 0x11
 4630 0002 01       		.byte	0x1
 4631 0003 25       		.uleb128 0x25
 4632 0004 0E       		.uleb128 0xe
 4633 0005 13       		.uleb128 0x13
 4634 0006 0B       		.uleb128 0xb
 4635 0007 03       		.uleb128 0x3
 4636 0008 0E       		.uleb128 0xe
 4637 0009 1B       		.uleb128 0x1b
 4638 000a 0E       		.uleb128 0xe
ARM GAS  /tmp/ccPF9ufL.s 			page 146


 4639 000b 55       		.uleb128 0x55
 4640 000c 17       		.uleb128 0x17
 4641 000d 11       		.uleb128 0x11
 4642 000e 01       		.uleb128 0x1
 4643 000f 10       		.uleb128 0x10
 4644 0010 17       		.uleb128 0x17
 4645 0011 00       		.byte	0
 4646 0012 00       		.byte	0
 4647 0013 02       		.uleb128 0x2
 4648 0014 24       		.uleb128 0x24
 4649 0015 00       		.byte	0
 4650 0016 0B       		.uleb128 0xb
 4651 0017 0B       		.uleb128 0xb
 4652 0018 3E       		.uleb128 0x3e
 4653 0019 0B       		.uleb128 0xb
 4654 001a 03       		.uleb128 0x3
 4655 001b 08       		.uleb128 0x8
 4656 001c 00       		.byte	0
 4657 001d 00       		.byte	0
 4658 001e 03       		.uleb128 0x3
 4659 001f 16       		.uleb128 0x16
 4660 0020 00       		.byte	0
 4661 0021 03       		.uleb128 0x3
 4662 0022 0E       		.uleb128 0xe
 4663 0023 3A       		.uleb128 0x3a
 4664 0024 0B       		.uleb128 0xb
 4665 0025 3B       		.uleb128 0x3b
 4666 0026 0B       		.uleb128 0xb
 4667 0027 49       		.uleb128 0x49
 4668 0028 13       		.uleb128 0x13
 4669 0029 00       		.byte	0
 4670 002a 00       		.byte	0
 4671 002b 04       		.uleb128 0x4
 4672 002c 24       		.uleb128 0x24
 4673 002d 00       		.byte	0
 4674 002e 0B       		.uleb128 0xb
 4675 002f 0B       		.uleb128 0xb
 4676 0030 3E       		.uleb128 0x3e
 4677 0031 0B       		.uleb128 0xb
 4678 0032 03       		.uleb128 0x3
 4679 0033 0E       		.uleb128 0xe
 4680 0034 00       		.byte	0
 4681 0035 00       		.byte	0
 4682 0036 05       		.uleb128 0x5
 4683 0037 13       		.uleb128 0x13
 4684 0038 01       		.byte	0x1
 4685 0039 03       		.uleb128 0x3
 4686 003a 0E       		.uleb128 0xe
 4687 003b 0B       		.uleb128 0xb
 4688 003c 0B       		.uleb128 0xb
 4689 003d 3A       		.uleb128 0x3a
 4690 003e 0B       		.uleb128 0xb
 4691 003f 3B       		.uleb128 0x3b
 4692 0040 0B       		.uleb128 0xb
 4693 0041 01       		.uleb128 0x1
 4694 0042 13       		.uleb128 0x13
 4695 0043 00       		.byte	0
ARM GAS  /tmp/ccPF9ufL.s 			page 147


 4696 0044 00       		.byte	0
 4697 0045 06       		.uleb128 0x6
 4698 0046 0D       		.uleb128 0xd
 4699 0047 00       		.byte	0
 4700 0048 03       		.uleb128 0x3
 4701 0049 0E       		.uleb128 0xe
 4702 004a 3A       		.uleb128 0x3a
 4703 004b 0B       		.uleb128 0xb
 4704 004c 3B       		.uleb128 0x3b
 4705 004d 0B       		.uleb128 0xb
 4706 004e 49       		.uleb128 0x49
 4707 004f 13       		.uleb128 0x13
 4708 0050 38       		.uleb128 0x38
 4709 0051 0B       		.uleb128 0xb
 4710 0052 00       		.byte	0
 4711 0053 00       		.byte	0
 4712 0054 07       		.uleb128 0x7
 4713 0055 0D       		.uleb128 0xd
 4714 0056 00       		.byte	0
 4715 0057 03       		.uleb128 0x3
 4716 0058 08       		.uleb128 0x8
 4717 0059 3A       		.uleb128 0x3a
 4718 005a 0B       		.uleb128 0xb
 4719 005b 3B       		.uleb128 0x3b
 4720 005c 0B       		.uleb128 0xb
 4721 005d 49       		.uleb128 0x49
 4722 005e 13       		.uleb128 0x13
 4723 005f 38       		.uleb128 0x38
 4724 0060 0B       		.uleb128 0xb
 4725 0061 00       		.byte	0
 4726 0062 00       		.byte	0
 4727 0063 08       		.uleb128 0x8
 4728 0064 0D       		.uleb128 0xd
 4729 0065 00       		.byte	0
 4730 0066 03       		.uleb128 0x3
 4731 0067 08       		.uleb128 0x8
 4732 0068 3A       		.uleb128 0x3a
 4733 0069 0B       		.uleb128 0xb
 4734 006a 3B       		.uleb128 0x3b
 4735 006b 05       		.uleb128 0x5
 4736 006c 49       		.uleb128 0x49
 4737 006d 13       		.uleb128 0x13
 4738 006e 38       		.uleb128 0x38
 4739 006f 0B       		.uleb128 0xb
 4740 0070 00       		.byte	0
 4741 0071 00       		.byte	0
 4742 0072 09       		.uleb128 0x9
 4743 0073 0D       		.uleb128 0xd
 4744 0074 00       		.byte	0
 4745 0075 03       		.uleb128 0x3
 4746 0076 0E       		.uleb128 0xe
 4747 0077 3A       		.uleb128 0x3a
 4748 0078 0B       		.uleb128 0xb
 4749 0079 3B       		.uleb128 0x3b
 4750 007a 05       		.uleb128 0x5
 4751 007b 49       		.uleb128 0x49
 4752 007c 13       		.uleb128 0x13
ARM GAS  /tmp/ccPF9ufL.s 			page 148


 4753 007d 38       		.uleb128 0x38
 4754 007e 0B       		.uleb128 0xb
 4755 007f 00       		.byte	0
 4756 0080 00       		.byte	0
 4757 0081 0A       		.uleb128 0xa
 4758 0082 0F       		.uleb128 0xf
 4759 0083 00       		.byte	0
 4760 0084 0B       		.uleb128 0xb
 4761 0085 0B       		.uleb128 0xb
 4762 0086 49       		.uleb128 0x49
 4763 0087 13       		.uleb128 0x13
 4764 0088 00       		.byte	0
 4765 0089 00       		.byte	0
 4766 008a 0B       		.uleb128 0xb
 4767 008b 13       		.uleb128 0x13
 4768 008c 01       		.byte	0x1
 4769 008d 03       		.uleb128 0x3
 4770 008e 0E       		.uleb128 0xe
 4771 008f 0B       		.uleb128 0xb
 4772 0090 0B       		.uleb128 0xb
 4773 0091 3A       		.uleb128 0x3a
 4774 0092 0B       		.uleb128 0xb
 4775 0093 3B       		.uleb128 0x3b
 4776 0094 05       		.uleb128 0x5
 4777 0095 01       		.uleb128 0x1
 4778 0096 13       		.uleb128 0x13
 4779 0097 00       		.byte	0
 4780 0098 00       		.byte	0
 4781 0099 0C       		.uleb128 0xc
 4782 009a 15       		.uleb128 0x15
 4783 009b 01       		.byte	0x1
 4784 009c 27       		.uleb128 0x27
 4785 009d 19       		.uleb128 0x19
 4786 009e 01       		.uleb128 0x1
 4787 009f 13       		.uleb128 0x13
 4788 00a0 00       		.byte	0
 4789 00a1 00       		.byte	0
 4790 00a2 0D       		.uleb128 0xd
 4791 00a3 05       		.uleb128 0x5
 4792 00a4 00       		.byte	0
 4793 00a5 49       		.uleb128 0x49
 4794 00a6 13       		.uleb128 0x13
 4795 00a7 00       		.byte	0
 4796 00a8 00       		.byte	0
 4797 00a9 0E       		.uleb128 0xe
 4798 00aa 0F       		.uleb128 0xf
 4799 00ab 00       		.byte	0
 4800 00ac 0B       		.uleb128 0xb
 4801 00ad 0B       		.uleb128 0xb
 4802 00ae 00       		.byte	0
 4803 00af 00       		.byte	0
 4804 00b0 0F       		.uleb128 0xf
 4805 00b1 35       		.uleb128 0x35
 4806 00b2 00       		.byte	0
 4807 00b3 49       		.uleb128 0x49
 4808 00b4 13       		.uleb128 0x13
 4809 00b5 00       		.byte	0
ARM GAS  /tmp/ccPF9ufL.s 			page 149


 4810 00b6 00       		.byte	0
 4811 00b7 10       		.uleb128 0x10
 4812 00b8 01       		.uleb128 0x1
 4813 00b9 01       		.byte	0x1
 4814 00ba 49       		.uleb128 0x49
 4815 00bb 13       		.uleb128 0x13
 4816 00bc 01       		.uleb128 0x1
 4817 00bd 13       		.uleb128 0x13
 4818 00be 00       		.byte	0
 4819 00bf 00       		.byte	0
 4820 00c0 11       		.uleb128 0x11
 4821 00c1 21       		.uleb128 0x21
 4822 00c2 00       		.byte	0
 4823 00c3 49       		.uleb128 0x49
 4824 00c4 13       		.uleb128 0x13
 4825 00c5 2F       		.uleb128 0x2f
 4826 00c6 0B       		.uleb128 0xb
 4827 00c7 00       		.byte	0
 4828 00c8 00       		.byte	0
 4829 00c9 12       		.uleb128 0x12
 4830 00ca 13       		.uleb128 0x13
 4831 00cb 01       		.byte	0x1
 4832 00cc 0B       		.uleb128 0xb
 4833 00cd 0B       		.uleb128 0xb
 4834 00ce 3A       		.uleb128 0x3a
 4835 00cf 0B       		.uleb128 0xb
 4836 00d0 3B       		.uleb128 0x3b
 4837 00d1 05       		.uleb128 0x5
 4838 00d2 01       		.uleb128 0x1
 4839 00d3 13       		.uleb128 0x13
 4840 00d4 00       		.byte	0
 4841 00d5 00       		.byte	0
 4842 00d6 13       		.uleb128 0x13
 4843 00d7 16       		.uleb128 0x16
 4844 00d8 00       		.byte	0
 4845 00d9 03       		.uleb128 0x3
 4846 00da 0E       		.uleb128 0xe
 4847 00db 3A       		.uleb128 0x3a
 4848 00dc 0B       		.uleb128 0xb
 4849 00dd 3B       		.uleb128 0x3b
 4850 00de 05       		.uleb128 0x5
 4851 00df 49       		.uleb128 0x49
 4852 00e0 13       		.uleb128 0x13
 4853 00e1 00       		.byte	0
 4854 00e2 00       		.byte	0
 4855 00e3 14       		.uleb128 0x14
 4856 00e4 13       		.uleb128 0x13
 4857 00e5 01       		.byte	0x1
 4858 00e6 0B       		.uleb128 0xb
 4859 00e7 0B       		.uleb128 0xb
 4860 00e8 3A       		.uleb128 0x3a
 4861 00e9 0B       		.uleb128 0xb
 4862 00ea 3B       		.uleb128 0x3b
 4863 00eb 0B       		.uleb128 0xb
 4864 00ec 01       		.uleb128 0x1
 4865 00ed 13       		.uleb128 0x13
 4866 00ee 00       		.byte	0
ARM GAS  /tmp/ccPF9ufL.s 			page 150


 4867 00ef 00       		.byte	0
 4868 00f0 15       		.uleb128 0x15
 4869 00f1 17       		.uleb128 0x17
 4870 00f2 01       		.byte	0x1
 4871 00f3 0B       		.uleb128 0xb
 4872 00f4 0B       		.uleb128 0xb
 4873 00f5 3A       		.uleb128 0x3a
 4874 00f6 0B       		.uleb128 0xb
 4875 00f7 3B       		.uleb128 0x3b
 4876 00f8 0B       		.uleb128 0xb
 4877 00f9 01       		.uleb128 0x1
 4878 00fa 13       		.uleb128 0x13
 4879 00fb 00       		.byte	0
 4880 00fc 00       		.byte	0
 4881 00fd 16       		.uleb128 0x16
 4882 00fe 0D       		.uleb128 0xd
 4883 00ff 00       		.byte	0
 4884 0100 03       		.uleb128 0x3
 4885 0101 0E       		.uleb128 0xe
 4886 0102 3A       		.uleb128 0x3a
 4887 0103 0B       		.uleb128 0xb
 4888 0104 3B       		.uleb128 0x3b
 4889 0105 0B       		.uleb128 0xb
 4890 0106 49       		.uleb128 0x49
 4891 0107 13       		.uleb128 0x13
 4892 0108 00       		.byte	0
 4893 0109 00       		.byte	0
 4894 010a 17       		.uleb128 0x17
 4895 010b 0D       		.uleb128 0xd
 4896 010c 00       		.byte	0
 4897 010d 03       		.uleb128 0x3
 4898 010e 0E       		.uleb128 0xe
 4899 010f 3A       		.uleb128 0x3a
 4900 0110 0B       		.uleb128 0xb
 4901 0111 3B       		.uleb128 0x3b
 4902 0112 05       		.uleb128 0x5
 4903 0113 49       		.uleb128 0x49
 4904 0114 13       		.uleb128 0x13
 4905 0115 00       		.byte	0
 4906 0116 00       		.byte	0
 4907 0117 18       		.uleb128 0x18
 4908 0118 26       		.uleb128 0x26
 4909 0119 00       		.byte	0
 4910 011a 49       		.uleb128 0x49
 4911 011b 13       		.uleb128 0x13
 4912 011c 00       		.byte	0
 4913 011d 00       		.byte	0
 4914 011e 19       		.uleb128 0x19
 4915 011f 15       		.uleb128 0x15
 4916 0120 01       		.byte	0x1
 4917 0121 27       		.uleb128 0x27
 4918 0122 19       		.uleb128 0x19
 4919 0123 49       		.uleb128 0x49
 4920 0124 13       		.uleb128 0x13
 4921 0125 01       		.uleb128 0x1
 4922 0126 13       		.uleb128 0x13
 4923 0127 00       		.byte	0
ARM GAS  /tmp/ccPF9ufL.s 			page 151


 4924 0128 00       		.byte	0
 4925 0129 1A       		.uleb128 0x1a
 4926 012a 15       		.uleb128 0x15
 4927 012b 00       		.byte	0
 4928 012c 27       		.uleb128 0x27
 4929 012d 19       		.uleb128 0x19
 4930 012e 00       		.byte	0
 4931 012f 00       		.byte	0
 4932 0130 1B       		.uleb128 0x1b
 4933 0131 2E       		.uleb128 0x2e
 4934 0132 01       		.byte	0x1
 4935 0133 03       		.uleb128 0x3
 4936 0134 0E       		.uleb128 0xe
 4937 0135 3A       		.uleb128 0x3a
 4938 0136 0B       		.uleb128 0xb
 4939 0137 3B       		.uleb128 0x3b
 4940 0138 05       		.uleb128 0x5
 4941 0139 27       		.uleb128 0x27
 4942 013a 19       		.uleb128 0x19
 4943 013b 20       		.uleb128 0x20
 4944 013c 0B       		.uleb128 0xb
 4945 013d 01       		.uleb128 0x1
 4946 013e 13       		.uleb128 0x13
 4947 013f 00       		.byte	0
 4948 0140 00       		.byte	0
 4949 0141 1C       		.uleb128 0x1c
 4950 0142 05       		.uleb128 0x5
 4951 0143 00       		.byte	0
 4952 0144 03       		.uleb128 0x3
 4953 0145 0E       		.uleb128 0xe
 4954 0146 3A       		.uleb128 0x3a
 4955 0147 0B       		.uleb128 0xb
 4956 0148 3B       		.uleb128 0x3b
 4957 0149 05       		.uleb128 0x5
 4958 014a 49       		.uleb128 0x49
 4959 014b 13       		.uleb128 0x13
 4960 014c 00       		.byte	0
 4961 014d 00       		.byte	0
 4962 014e 1D       		.uleb128 0x1d
 4963 014f 2E       		.uleb128 0x2e
 4964 0150 00       		.byte	0
 4965 0151 03       		.uleb128 0x3
 4966 0152 0E       		.uleb128 0xe
 4967 0153 3A       		.uleb128 0x3a
 4968 0154 0B       		.uleb128 0xb
 4969 0155 3B       		.uleb128 0x3b
 4970 0156 0B       		.uleb128 0xb
 4971 0157 27       		.uleb128 0x27
 4972 0158 19       		.uleb128 0x19
 4973 0159 49       		.uleb128 0x49
 4974 015a 13       		.uleb128 0x13
 4975 015b 20       		.uleb128 0x20
 4976 015c 0B       		.uleb128 0xb
 4977 015d 00       		.byte	0
 4978 015e 00       		.byte	0
 4979 015f 1E       		.uleb128 0x1e
 4980 0160 2E       		.uleb128 0x2e
ARM GAS  /tmp/ccPF9ufL.s 			page 152


 4981 0161 00       		.byte	0
 4982 0162 03       		.uleb128 0x3
 4983 0163 0E       		.uleb128 0xe
 4984 0164 3A       		.uleb128 0x3a
 4985 0165 0B       		.uleb128 0xb
 4986 0166 3B       		.uleb128 0x3b
 4987 0167 05       		.uleb128 0x5
 4988 0168 27       		.uleb128 0x27
 4989 0169 19       		.uleb128 0x19
 4990 016a 20       		.uleb128 0x20
 4991 016b 0B       		.uleb128 0xb
 4992 016c 00       		.byte	0
 4993 016d 00       		.byte	0
 4994 016e 1F       		.uleb128 0x1f
 4995 016f 34       		.uleb128 0x34
 4996 0170 00       		.byte	0
 4997 0171 03       		.uleb128 0x3
 4998 0172 0E       		.uleb128 0xe
 4999 0173 49       		.uleb128 0x49
 5000 0174 13       		.uleb128 0x13
 5001 0175 34       		.uleb128 0x34
 5002 0176 19       		.uleb128 0x19
 5003 0177 1C       		.uleb128 0x1c
 5004 0178 0E       		.uleb128 0xe
 5005 0179 00       		.byte	0
 5006 017a 00       		.byte	0
 5007 017b 20       		.uleb128 0x20
 5008 017c 2E       		.uleb128 0x2e
 5009 017d 00       		.byte	0
 5010 017e 03       		.uleb128 0x3
 5011 017f 0E       		.uleb128 0xe
 5012 0180 3A       		.uleb128 0x3a
 5013 0181 0B       		.uleb128 0xb
 5014 0182 3B       		.uleb128 0x3b
 5015 0183 05       		.uleb128 0x5
 5016 0184 27       		.uleb128 0x27
 5017 0185 19       		.uleb128 0x19
 5018 0186 49       		.uleb128 0x49
 5019 0187 13       		.uleb128 0x13
 5020 0188 20       		.uleb128 0x20
 5021 0189 0B       		.uleb128 0xb
 5022 018a 00       		.byte	0
 5023 018b 00       		.byte	0
 5024 018c 21       		.uleb128 0x21
 5025 018d 2E       		.uleb128 0x2e
 5026 018e 01       		.byte	0x1
 5027 018f 03       		.uleb128 0x3
 5028 0190 0E       		.uleb128 0xe
 5029 0191 3A       		.uleb128 0x3a
 5030 0192 0B       		.uleb128 0xb
 5031 0193 3B       		.uleb128 0x3b
 5032 0194 05       		.uleb128 0x5
 5033 0195 27       		.uleb128 0x27
 5034 0196 19       		.uleb128 0x19
 5035 0197 49       		.uleb128 0x49
 5036 0198 13       		.uleb128 0x13
 5037 0199 20       		.uleb128 0x20
ARM GAS  /tmp/ccPF9ufL.s 			page 153


 5038 019a 0B       		.uleb128 0xb
 5039 019b 01       		.uleb128 0x1
 5040 019c 13       		.uleb128 0x13
 5041 019d 00       		.byte	0
 5042 019e 00       		.byte	0
 5043 019f 22       		.uleb128 0x22
 5044 01a0 05       		.uleb128 0x5
 5045 01a1 00       		.byte	0
 5046 01a2 03       		.uleb128 0x3
 5047 01a3 08       		.uleb128 0x8
 5048 01a4 3A       		.uleb128 0x3a
 5049 01a5 0B       		.uleb128 0xb
 5050 01a6 3B       		.uleb128 0x3b
 5051 01a7 05       		.uleb128 0x5
 5052 01a8 49       		.uleb128 0x49
 5053 01a9 13       		.uleb128 0x13
 5054 01aa 00       		.byte	0
 5055 01ab 00       		.byte	0
 5056 01ac 23       		.uleb128 0x23
 5057 01ad 2E       		.uleb128 0x2e
 5058 01ae 00       		.byte	0
 5059 01af 03       		.uleb128 0x3
 5060 01b0 0E       		.uleb128 0xe
 5061 01b1 3A       		.uleb128 0x3a
 5062 01b2 0B       		.uleb128 0xb
 5063 01b3 3B       		.uleb128 0x3b
 5064 01b4 0B       		.uleb128 0xb
 5065 01b5 27       		.uleb128 0x27
 5066 01b6 19       		.uleb128 0x19
 5067 01b7 20       		.uleb128 0x20
 5068 01b8 0B       		.uleb128 0xb
 5069 01b9 00       		.byte	0
 5070 01ba 00       		.byte	0
 5071 01bb 24       		.uleb128 0x24
 5072 01bc 2E       		.uleb128 0x2e
 5073 01bd 01       		.byte	0x1
 5074 01be 3F       		.uleb128 0x3f
 5075 01bf 19       		.uleb128 0x19
 5076 01c0 03       		.uleb128 0x3
 5077 01c1 0E       		.uleb128 0xe
 5078 01c2 3A       		.uleb128 0x3a
 5079 01c3 0B       		.uleb128 0xb
 5080 01c4 3B       		.uleb128 0x3b
 5081 01c5 0B       		.uleb128 0xb
 5082 01c6 27       		.uleb128 0x27
 5083 01c7 19       		.uleb128 0x19
 5084 01c8 49       		.uleb128 0x49
 5085 01c9 13       		.uleb128 0x13
 5086 01ca 20       		.uleb128 0x20
 5087 01cb 0B       		.uleb128 0xb
 5088 01cc 01       		.uleb128 0x1
 5089 01cd 13       		.uleb128 0x13
 5090 01ce 00       		.byte	0
 5091 01cf 00       		.byte	0
 5092 01d0 25       		.uleb128 0x25
 5093 01d1 05       		.uleb128 0x5
 5094 01d2 00       		.byte	0
ARM GAS  /tmp/ccPF9ufL.s 			page 154


 5095 01d3 03       		.uleb128 0x3
 5096 01d4 08       		.uleb128 0x8
 5097 01d5 3A       		.uleb128 0x3a
 5098 01d6 0B       		.uleb128 0xb
 5099 01d7 3B       		.uleb128 0x3b
 5100 01d8 0B       		.uleb128 0xb
 5101 01d9 49       		.uleb128 0x49
 5102 01da 13       		.uleb128 0x13
 5103 01db 00       		.byte	0
 5104 01dc 00       		.byte	0
 5105 01dd 26       		.uleb128 0x26
 5106 01de 05       		.uleb128 0x5
 5107 01df 00       		.byte	0
 5108 01e0 03       		.uleb128 0x3
 5109 01e1 0E       		.uleb128 0xe
 5110 01e2 3A       		.uleb128 0x3a
 5111 01e3 0B       		.uleb128 0xb
 5112 01e4 3B       		.uleb128 0x3b
 5113 01e5 0B       		.uleb128 0xb
 5114 01e6 49       		.uleb128 0x49
 5115 01e7 13       		.uleb128 0x13
 5116 01e8 00       		.byte	0
 5117 01e9 00       		.byte	0
 5118 01ea 27       		.uleb128 0x27
 5119 01eb 2E       		.uleb128 0x2e
 5120 01ec 01       		.byte	0x1
 5121 01ed 3F       		.uleb128 0x3f
 5122 01ee 19       		.uleb128 0x19
 5123 01ef 03       		.uleb128 0x3
 5124 01f0 0E       		.uleb128 0xe
 5125 01f1 3A       		.uleb128 0x3a
 5126 01f2 0B       		.uleb128 0xb
 5127 01f3 3B       		.uleb128 0x3b
 5128 01f4 0B       		.uleb128 0xb
 5129 01f5 27       		.uleb128 0x27
 5130 01f6 19       		.uleb128 0x19
 5131 01f7 20       		.uleb128 0x20
 5132 01f8 0B       		.uleb128 0xb
 5133 01f9 01       		.uleb128 0x1
 5134 01fa 13       		.uleb128 0x13
 5135 01fb 00       		.byte	0
 5136 01fc 00       		.byte	0
 5137 01fd 28       		.uleb128 0x28
 5138 01fe 34       		.uleb128 0x34
 5139 01ff 00       		.byte	0
 5140 0200 03       		.uleb128 0x3
 5141 0201 08       		.uleb128 0x8
 5142 0202 3A       		.uleb128 0x3a
 5143 0203 0B       		.uleb128 0xb
 5144 0204 3B       		.uleb128 0x3b
 5145 0205 0B       		.uleb128 0xb
 5146 0206 49       		.uleb128 0x49
 5147 0207 13       		.uleb128 0x13
 5148 0208 00       		.byte	0
 5149 0209 00       		.byte	0
 5150 020a 29       		.uleb128 0x29
 5151 020b 2E       		.uleb128 0x2e
ARM GAS  /tmp/ccPF9ufL.s 			page 155


 5152 020c 01       		.byte	0x1
 5153 020d 03       		.uleb128 0x3
 5154 020e 0E       		.uleb128 0xe
 5155 020f 3A       		.uleb128 0x3a
 5156 0210 0B       		.uleb128 0xb
 5157 0211 3B       		.uleb128 0x3b
 5158 0212 0B       		.uleb128 0xb
 5159 0213 27       		.uleb128 0x27
 5160 0214 19       		.uleb128 0x19
 5161 0215 11       		.uleb128 0x11
 5162 0216 01       		.uleb128 0x1
 5163 0217 12       		.uleb128 0x12
 5164 0218 06       		.uleb128 0x6
 5165 0219 40       		.uleb128 0x40
 5166 021a 18       		.uleb128 0x18
 5167 021b 9742     		.uleb128 0x2117
 5168 021d 19       		.uleb128 0x19
 5169 021e 01       		.uleb128 0x1
 5170 021f 13       		.uleb128 0x13
 5171 0220 00       		.byte	0
 5172 0221 00       		.byte	0
 5173 0222 2A       		.uleb128 0x2a
 5174 0223 34       		.uleb128 0x34
 5175 0224 00       		.byte	0
 5176 0225 03       		.uleb128 0x3
 5177 0226 08       		.uleb128 0x8
 5178 0227 3A       		.uleb128 0x3a
 5179 0228 0B       		.uleb128 0xb
 5180 0229 3B       		.uleb128 0x3b
 5181 022a 0B       		.uleb128 0xb
 5182 022b 49       		.uleb128 0x49
 5183 022c 13       		.uleb128 0x13
 5184 022d 02       		.uleb128 0x2
 5185 022e 17       		.uleb128 0x17
 5186 022f 00       		.byte	0
 5187 0230 00       		.byte	0
 5188 0231 2B       		.uleb128 0x2b
 5189 0232 898201   		.uleb128 0x4109
 5190 0235 01       		.byte	0x1
 5191 0236 11       		.uleb128 0x11
 5192 0237 01       		.uleb128 0x1
 5193 0238 01       		.uleb128 0x1
 5194 0239 13       		.uleb128 0x13
 5195 023a 00       		.byte	0
 5196 023b 00       		.byte	0
 5197 023c 2C       		.uleb128 0x2c
 5198 023d 8A8201   		.uleb128 0x410a
 5199 0240 00       		.byte	0
 5200 0241 02       		.uleb128 0x2
 5201 0242 18       		.uleb128 0x18
 5202 0243 9142     		.uleb128 0x2111
 5203 0245 18       		.uleb128 0x18
 5204 0246 00       		.byte	0
 5205 0247 00       		.byte	0
 5206 0248 2D       		.uleb128 0x2d
 5207 0249 898201   		.uleb128 0x4109
 5208 024c 01       		.byte	0x1
ARM GAS  /tmp/ccPF9ufL.s 			page 156


 5209 024d 11       		.uleb128 0x11
 5210 024e 01       		.uleb128 0x1
 5211 024f 00       		.byte	0
 5212 0250 00       		.byte	0
 5213 0251 2E       		.uleb128 0x2e
 5214 0252 2E       		.uleb128 0x2e
 5215 0253 01       		.byte	0x1
 5216 0254 31       		.uleb128 0x31
 5217 0255 13       		.uleb128 0x13
 5218 0256 11       		.uleb128 0x11
 5219 0257 01       		.uleb128 0x1
 5220 0258 12       		.uleb128 0x12
 5221 0259 06       		.uleb128 0x6
 5222 025a 40       		.uleb128 0x40
 5223 025b 18       		.uleb128 0x18
 5224 025c 9742     		.uleb128 0x2117
 5225 025e 19       		.uleb128 0x19
 5226 025f 01       		.uleb128 0x1
 5227 0260 13       		.uleb128 0x13
 5228 0261 00       		.byte	0
 5229 0262 00       		.byte	0
 5230 0263 2F       		.uleb128 0x2f
 5231 0264 05       		.uleb128 0x5
 5232 0265 00       		.byte	0
 5233 0266 31       		.uleb128 0x31
 5234 0267 13       		.uleb128 0x13
 5235 0268 02       		.uleb128 0x2
 5236 0269 17       		.uleb128 0x17
 5237 026a 00       		.byte	0
 5238 026b 00       		.byte	0
 5239 026c 30       		.uleb128 0x30
 5240 026d 05       		.uleb128 0x5
 5241 026e 00       		.byte	0
 5242 026f 31       		.uleb128 0x31
 5243 0270 13       		.uleb128 0x13
 5244 0271 02       		.uleb128 0x2
 5245 0272 18       		.uleb128 0x18
 5246 0273 00       		.byte	0
 5247 0274 00       		.byte	0
 5248 0275 31       		.uleb128 0x31
 5249 0276 1D       		.uleb128 0x1d
 5250 0277 01       		.byte	0x1
 5251 0278 31       		.uleb128 0x31
 5252 0279 13       		.uleb128 0x13
 5253 027a 11       		.uleb128 0x11
 5254 027b 01       		.uleb128 0x1
 5255 027c 12       		.uleb128 0x12
 5256 027d 06       		.uleb128 0x6
 5257 027e 58       		.uleb128 0x58
 5258 027f 0B       		.uleb128 0xb
 5259 0280 59       		.uleb128 0x59
 5260 0281 0B       		.uleb128 0xb
 5261 0282 00       		.byte	0
 5262 0283 00       		.byte	0
 5263 0284 32       		.uleb128 0x32
 5264 0285 2E       		.uleb128 0x2e
 5265 0286 01       		.byte	0x1
ARM GAS  /tmp/ccPF9ufL.s 			page 157


 5266 0287 3F       		.uleb128 0x3f
 5267 0288 19       		.uleb128 0x19
 5268 0289 03       		.uleb128 0x3
 5269 028a 0E       		.uleb128 0xe
 5270 028b 3A       		.uleb128 0x3a
 5271 028c 0B       		.uleb128 0xb
 5272 028d 3B       		.uleb128 0x3b
 5273 028e 0B       		.uleb128 0xb
 5274 028f 27       		.uleb128 0x27
 5275 0290 19       		.uleb128 0x19
 5276 0291 49       		.uleb128 0x49
 5277 0292 13       		.uleb128 0x13
 5278 0293 11       		.uleb128 0x11
 5279 0294 01       		.uleb128 0x1
 5280 0295 12       		.uleb128 0x12
 5281 0296 06       		.uleb128 0x6
 5282 0297 40       		.uleb128 0x40
 5283 0298 18       		.uleb128 0x18
 5284 0299 9742     		.uleb128 0x2117
 5285 029b 19       		.uleb128 0x19
 5286 029c 01       		.uleb128 0x1
 5287 029d 13       		.uleb128 0x13
 5288 029e 00       		.byte	0
 5289 029f 00       		.byte	0
 5290 02a0 33       		.uleb128 0x33
 5291 02a1 05       		.uleb128 0x5
 5292 02a2 00       		.byte	0
 5293 02a3 03       		.uleb128 0x3
 5294 02a4 0E       		.uleb128 0xe
 5295 02a5 3A       		.uleb128 0x3a
 5296 02a6 0B       		.uleb128 0xb
 5297 02a7 3B       		.uleb128 0x3b
 5298 02a8 0B       		.uleb128 0xb
 5299 02a9 49       		.uleb128 0x49
 5300 02aa 13       		.uleb128 0x13
 5301 02ab 02       		.uleb128 0x2
 5302 02ac 17       		.uleb128 0x17
 5303 02ad 00       		.byte	0
 5304 02ae 00       		.byte	0
 5305 02af 34       		.uleb128 0x34
 5306 02b0 05       		.uleb128 0x5
 5307 02b1 00       		.byte	0
 5308 02b2 03       		.uleb128 0x3
 5309 02b3 08       		.uleb128 0x8
 5310 02b4 3A       		.uleb128 0x3a
 5311 02b5 0B       		.uleb128 0xb
 5312 02b6 3B       		.uleb128 0x3b
 5313 02b7 0B       		.uleb128 0xb
 5314 02b8 49       		.uleb128 0x49
 5315 02b9 13       		.uleb128 0x13
 5316 02ba 02       		.uleb128 0x2
 5317 02bb 18       		.uleb128 0x18
 5318 02bc 00       		.byte	0
 5319 02bd 00       		.byte	0
 5320 02be 35       		.uleb128 0x35
 5321 02bf 1D       		.uleb128 0x1d
 5322 02c0 00       		.byte	0
ARM GAS  /tmp/ccPF9ufL.s 			page 158


 5323 02c1 31       		.uleb128 0x31
 5324 02c2 13       		.uleb128 0x13
 5325 02c3 11       		.uleb128 0x11
 5326 02c4 01       		.uleb128 0x1
 5327 02c5 12       		.uleb128 0x12
 5328 02c6 06       		.uleb128 0x6
 5329 02c7 58       		.uleb128 0x58
 5330 02c8 0B       		.uleb128 0xb
 5331 02c9 59       		.uleb128 0x59
 5332 02ca 0B       		.uleb128 0xb
 5333 02cb 00       		.byte	0
 5334 02cc 00       		.byte	0
 5335 02cd 36       		.uleb128 0x36
 5336 02ce 05       		.uleb128 0x5
 5337 02cf 00       		.byte	0
 5338 02d0 03       		.uleb128 0x3
 5339 02d1 08       		.uleb128 0x8
 5340 02d2 3A       		.uleb128 0x3a
 5341 02d3 0B       		.uleb128 0xb
 5342 02d4 3B       		.uleb128 0x3b
 5343 02d5 0B       		.uleb128 0xb
 5344 02d6 49       		.uleb128 0x49
 5345 02d7 13       		.uleb128 0x13
 5346 02d8 02       		.uleb128 0x2
 5347 02d9 17       		.uleb128 0x17
 5348 02da 00       		.byte	0
 5349 02db 00       		.byte	0
 5350 02dc 37       		.uleb128 0x37
 5351 02dd 1D       		.uleb128 0x1d
 5352 02de 01       		.byte	0x1
 5353 02df 31       		.uleb128 0x31
 5354 02e0 13       		.uleb128 0x13
 5355 02e1 11       		.uleb128 0x11
 5356 02e2 01       		.uleb128 0x1
 5357 02e3 12       		.uleb128 0x12
 5358 02e4 06       		.uleb128 0x6
 5359 02e5 58       		.uleb128 0x58
 5360 02e6 0B       		.uleb128 0xb
 5361 02e7 59       		.uleb128 0x59
 5362 02e8 0B       		.uleb128 0xb
 5363 02e9 01       		.uleb128 0x1
 5364 02ea 13       		.uleb128 0x13
 5365 02eb 00       		.byte	0
 5366 02ec 00       		.byte	0
 5367 02ed 38       		.uleb128 0x38
 5368 02ee 1D       		.uleb128 0x1d
 5369 02ef 01       		.byte	0x1
 5370 02f0 31       		.uleb128 0x31
 5371 02f1 13       		.uleb128 0x13
 5372 02f2 11       		.uleb128 0x11
 5373 02f3 01       		.uleb128 0x1
 5374 02f4 12       		.uleb128 0x12
 5375 02f5 06       		.uleb128 0x6
 5376 02f6 58       		.uleb128 0x58
 5377 02f7 0B       		.uleb128 0xb
 5378 02f8 59       		.uleb128 0x59
 5379 02f9 05       		.uleb128 0x5
ARM GAS  /tmp/ccPF9ufL.s 			page 159


 5380 02fa 00       		.byte	0
 5381 02fb 00       		.byte	0
 5382 02fc 39       		.uleb128 0x39
 5383 02fd 1D       		.uleb128 0x1d
 5384 02fe 01       		.byte	0x1
 5385 02ff 31       		.uleb128 0x31
 5386 0300 13       		.uleb128 0x13
 5387 0301 52       		.uleb128 0x52
 5388 0302 01       		.uleb128 0x1
 5389 0303 55       		.uleb128 0x55
 5390 0304 17       		.uleb128 0x17
 5391 0305 58       		.uleb128 0x58
 5392 0306 0B       		.uleb128 0xb
 5393 0307 59       		.uleb128 0x59
 5394 0308 0B       		.uleb128 0xb
 5395 0309 00       		.byte	0
 5396 030a 00       		.byte	0
 5397 030b 3A       		.uleb128 0x3a
 5398 030c 2E       		.uleb128 0x2e
 5399 030d 01       		.byte	0x1
 5400 030e 31       		.uleb128 0x31
 5401 030f 13       		.uleb128 0x13
 5402 0310 11       		.uleb128 0x11
 5403 0311 01       		.uleb128 0x1
 5404 0312 12       		.uleb128 0x12
 5405 0313 06       		.uleb128 0x6
 5406 0314 40       		.uleb128 0x40
 5407 0315 18       		.uleb128 0x18
 5408 0316 9642     		.uleb128 0x2116
 5409 0318 19       		.uleb128 0x19
 5410 0319 01       		.uleb128 0x1
 5411 031a 13       		.uleb128 0x13
 5412 031b 00       		.byte	0
 5413 031c 00       		.byte	0
 5414 031d 3B       		.uleb128 0x3b
 5415 031e 34       		.uleb128 0x34
 5416 031f 00       		.byte	0
 5417 0320 31       		.uleb128 0x31
 5418 0321 13       		.uleb128 0x13
 5419 0322 02       		.uleb128 0x2
 5420 0323 18       		.uleb128 0x18
 5421 0324 00       		.byte	0
 5422 0325 00       		.byte	0
 5423 0326 3C       		.uleb128 0x3c
 5424 0327 34       		.uleb128 0x34
 5425 0328 00       		.byte	0
 5426 0329 31       		.uleb128 0x31
 5427 032a 13       		.uleb128 0x13
 5428 032b 02       		.uleb128 0x2
 5429 032c 17       		.uleb128 0x17
 5430 032d 00       		.byte	0
 5431 032e 00       		.byte	0
 5432 032f 3D       		.uleb128 0x3d
 5433 0330 0B       		.uleb128 0xb
 5434 0331 01       		.byte	0x1
 5435 0332 11       		.uleb128 0x11
 5436 0333 01       		.uleb128 0x1
ARM GAS  /tmp/ccPF9ufL.s 			page 160


 5437 0334 12       		.uleb128 0x12
 5438 0335 06       		.uleb128 0x6
 5439 0336 00       		.byte	0
 5440 0337 00       		.byte	0
 5441 0338 3E       		.uleb128 0x3e
 5442 0339 05       		.uleb128 0x5
 5443 033a 00       		.byte	0
 5444 033b 31       		.uleb128 0x31
 5445 033c 13       		.uleb128 0x13
 5446 033d 1C       		.uleb128 0x1c
 5447 033e 0B       		.uleb128 0xb
 5448 033f 00       		.byte	0
 5449 0340 00       		.byte	0
 5450 0341 3F       		.uleb128 0x3f
 5451 0342 34       		.uleb128 0x34
 5452 0343 00       		.byte	0
 5453 0344 31       		.uleb128 0x31
 5454 0345 13       		.uleb128 0x13
 5455 0346 00       		.byte	0
 5456 0347 00       		.byte	0
 5457 0348 40       		.uleb128 0x40
 5458 0349 2E       		.uleb128 0x2e
 5459 034a 01       		.byte	0x1
 5460 034b 3F       		.uleb128 0x3f
 5461 034c 19       		.uleb128 0x19
 5462 034d 03       		.uleb128 0x3
 5463 034e 0E       		.uleb128 0xe
 5464 034f 3A       		.uleb128 0x3a
 5465 0350 0B       		.uleb128 0xb
 5466 0351 3B       		.uleb128 0x3b
 5467 0352 0B       		.uleb128 0xb
 5468 0353 27       		.uleb128 0x27
 5469 0354 19       		.uleb128 0x19
 5470 0355 11       		.uleb128 0x11
 5471 0356 01       		.uleb128 0x1
 5472 0357 12       		.uleb128 0x12
 5473 0358 06       		.uleb128 0x6
 5474 0359 40       		.uleb128 0x40
 5475 035a 18       		.uleb128 0x18
 5476 035b 9642     		.uleb128 0x2116
 5477 035d 19       		.uleb128 0x19
 5478 035e 01       		.uleb128 0x1
 5479 035f 13       		.uleb128 0x13
 5480 0360 00       		.byte	0
 5481 0361 00       		.byte	0
 5482 0362 41       		.uleb128 0x41
 5483 0363 2E       		.uleb128 0x2e
 5484 0364 01       		.byte	0x1
 5485 0365 3F       		.uleb128 0x3f
 5486 0366 19       		.uleb128 0x19
 5487 0367 03       		.uleb128 0x3
 5488 0368 0E       		.uleb128 0xe
 5489 0369 3A       		.uleb128 0x3a
 5490 036a 0B       		.uleb128 0xb
 5491 036b 3B       		.uleb128 0x3b
 5492 036c 0B       		.uleb128 0xb
 5493 036d 27       		.uleb128 0x27
ARM GAS  /tmp/ccPF9ufL.s 			page 161


 5494 036e 19       		.uleb128 0x19
 5495 036f 11       		.uleb128 0x11
 5496 0370 01       		.uleb128 0x1
 5497 0371 12       		.uleb128 0x12
 5498 0372 06       		.uleb128 0x6
 5499 0373 40       		.uleb128 0x40
 5500 0374 18       		.uleb128 0x18
 5501 0375 9742     		.uleb128 0x2117
 5502 0377 19       		.uleb128 0x19
 5503 0378 01       		.uleb128 0x1
 5504 0379 13       		.uleb128 0x13
 5505 037a 00       		.byte	0
 5506 037b 00       		.byte	0
 5507 037c 42       		.uleb128 0x42
 5508 037d 05       		.uleb128 0x5
 5509 037e 00       		.byte	0
 5510 037f 03       		.uleb128 0x3
 5511 0380 0E       		.uleb128 0xe
 5512 0381 3A       		.uleb128 0x3a
 5513 0382 0B       		.uleb128 0xb
 5514 0383 3B       		.uleb128 0x3b
 5515 0384 0B       		.uleb128 0xb
 5516 0385 49       		.uleb128 0x49
 5517 0386 13       		.uleb128 0x13
 5518 0387 02       		.uleb128 0x2
 5519 0388 18       		.uleb128 0x18
 5520 0389 00       		.byte	0
 5521 038a 00       		.byte	0
 5522 038b 43       		.uleb128 0x43
 5523 038c 2E       		.uleb128 0x2e
 5524 038d 01       		.byte	0x1
 5525 038e 03       		.uleb128 0x3
 5526 038f 0E       		.uleb128 0xe
 5527 0390 3A       		.uleb128 0x3a
 5528 0391 0B       		.uleb128 0xb
 5529 0392 3B       		.uleb128 0x3b
 5530 0393 0B       		.uleb128 0xb
 5531 0394 27       		.uleb128 0x27
 5532 0395 19       		.uleb128 0x19
 5533 0396 20       		.uleb128 0x20
 5534 0397 0B       		.uleb128 0xb
 5535 0398 01       		.uleb128 0x1
 5536 0399 13       		.uleb128 0x13
 5537 039a 00       		.byte	0
 5538 039b 00       		.byte	0
 5539 039c 44       		.uleb128 0x44
 5540 039d 2E       		.uleb128 0x2e
 5541 039e 01       		.byte	0x1
 5542 039f 3F       		.uleb128 0x3f
 5543 03a0 19       		.uleb128 0x19
 5544 03a1 03       		.uleb128 0x3
 5545 03a2 0E       		.uleb128 0xe
 5546 03a3 3A       		.uleb128 0x3a
 5547 03a4 0B       		.uleb128 0xb
 5548 03a5 3B       		.uleb128 0x3b
 5549 03a6 0B       		.uleb128 0xb
 5550 03a7 27       		.uleb128 0x27
ARM GAS  /tmp/ccPF9ufL.s 			page 162


 5551 03a8 19       		.uleb128 0x19
 5552 03a9 49       		.uleb128 0x49
 5553 03aa 13       		.uleb128 0x13
 5554 03ab 11       		.uleb128 0x11
 5555 03ac 01       		.uleb128 0x1
 5556 03ad 12       		.uleb128 0x12
 5557 03ae 06       		.uleb128 0x6
 5558 03af 40       		.uleb128 0x40
 5559 03b0 18       		.uleb128 0x18
 5560 03b1 9642     		.uleb128 0x2116
 5561 03b3 19       		.uleb128 0x19
 5562 03b4 01       		.uleb128 0x1
 5563 03b5 13       		.uleb128 0x13
 5564 03b6 00       		.byte	0
 5565 03b7 00       		.byte	0
 5566 03b8 45       		.uleb128 0x45
 5567 03b9 1D       		.uleb128 0x1d
 5568 03ba 01       		.byte	0x1
 5569 03bb 31       		.uleb128 0x31
 5570 03bc 13       		.uleb128 0x13
 5571 03bd 52       		.uleb128 0x52
 5572 03be 01       		.uleb128 0x1
 5573 03bf 55       		.uleb128 0x55
 5574 03c0 17       		.uleb128 0x17
 5575 03c1 58       		.uleb128 0x58
 5576 03c2 0B       		.uleb128 0xb
 5577 03c3 59       		.uleb128 0x59
 5578 03c4 05       		.uleb128 0x5
 5579 03c5 01       		.uleb128 0x1
 5580 03c6 13       		.uleb128 0x13
 5581 03c7 00       		.byte	0
 5582 03c8 00       		.byte	0
 5583 03c9 46       		.uleb128 0x46
 5584 03ca 1D       		.uleb128 0x1d
 5585 03cb 00       		.byte	0
 5586 03cc 31       		.uleb128 0x31
 5587 03cd 13       		.uleb128 0x13
 5588 03ce 52       		.uleb128 0x52
 5589 03cf 01       		.uleb128 0x1
 5590 03d0 55       		.uleb128 0x55
 5591 03d1 17       		.uleb128 0x17
 5592 03d2 58       		.uleb128 0x58
 5593 03d3 0B       		.uleb128 0xb
 5594 03d4 59       		.uleb128 0x59
 5595 03d5 0B       		.uleb128 0xb
 5596 03d6 00       		.byte	0
 5597 03d7 00       		.byte	0
 5598 03d8 47       		.uleb128 0x47
 5599 03d9 1D       		.uleb128 0x1d
 5600 03da 01       		.byte	0x1
 5601 03db 31       		.uleb128 0x31
 5602 03dc 13       		.uleb128 0x13
 5603 03dd 11       		.uleb128 0x11
 5604 03de 01       		.uleb128 0x1
 5605 03df 12       		.uleb128 0x12
 5606 03e0 06       		.uleb128 0x6
 5607 03e1 58       		.uleb128 0x58
ARM GAS  /tmp/ccPF9ufL.s 			page 163


 5608 03e2 0B       		.uleb128 0xb
 5609 03e3 59       		.uleb128 0x59
 5610 03e4 05       		.uleb128 0x5
 5611 03e5 01       		.uleb128 0x1
 5612 03e6 13       		.uleb128 0x13
 5613 03e7 00       		.byte	0
 5614 03e8 00       		.byte	0
 5615 03e9 48       		.uleb128 0x48
 5616 03ea 05       		.uleb128 0x5
 5617 03eb 00       		.byte	0
 5618 03ec 31       		.uleb128 0x31
 5619 03ed 13       		.uleb128 0x13
 5620 03ee 00       		.byte	0
 5621 03ef 00       		.byte	0
 5622 03f0 49       		.uleb128 0x49
 5623 03f1 898201   		.uleb128 0x4109
 5624 03f4 01       		.byte	0x1
 5625 03f5 11       		.uleb128 0x11
 5626 03f6 01       		.uleb128 0x1
 5627 03f7 31       		.uleb128 0x31
 5628 03f8 13       		.uleb128 0x13
 5629 03f9 00       		.byte	0
 5630 03fa 00       		.byte	0
 5631 03fb 4A       		.uleb128 0x4a
 5632 03fc 898201   		.uleb128 0x4109
 5633 03ff 01       		.byte	0x1
 5634 0400 11       		.uleb128 0x11
 5635 0401 01       		.uleb128 0x1
 5636 0402 31       		.uleb128 0x31
 5637 0403 13       		.uleb128 0x13
 5638 0404 01       		.uleb128 0x1
 5639 0405 13       		.uleb128 0x13
 5640 0406 00       		.byte	0
 5641 0407 00       		.byte	0
 5642 0408 4B       		.uleb128 0x4b
 5643 0409 898201   		.uleb128 0x4109
 5644 040c 00       		.byte	0
 5645 040d 11       		.uleb128 0x11
 5646 040e 01       		.uleb128 0x1
 5647 040f 31       		.uleb128 0x31
 5648 0410 13       		.uleb128 0x13
 5649 0411 00       		.byte	0
 5650 0412 00       		.byte	0
 5651 0413 4C       		.uleb128 0x4c
 5652 0414 34       		.uleb128 0x34
 5653 0415 00       		.byte	0
 5654 0416 03       		.uleb128 0x3
 5655 0417 0E       		.uleb128 0xe
 5656 0418 3A       		.uleb128 0x3a
 5657 0419 0B       		.uleb128 0xb
 5658 041a 3B       		.uleb128 0x3b
 5659 041b 0B       		.uleb128 0xb
 5660 041c 49       		.uleb128 0x49
 5661 041d 13       		.uleb128 0x13
 5662 041e 02       		.uleb128 0x2
 5663 041f 18       		.uleb128 0x18
 5664 0420 00       		.byte	0
ARM GAS  /tmp/ccPF9ufL.s 			page 164


 5665 0421 00       		.byte	0
 5666 0422 4D       		.uleb128 0x4d
 5667 0423 34       		.uleb128 0x34
 5668 0424 00       		.byte	0
 5669 0425 03       		.uleb128 0x3
 5670 0426 0E       		.uleb128 0xe
 5671 0427 3A       		.uleb128 0x3a
 5672 0428 0B       		.uleb128 0xb
 5673 0429 3B       		.uleb128 0x3b
 5674 042a 05       		.uleb128 0x5
 5675 042b 49       		.uleb128 0x49
 5676 042c 13       		.uleb128 0x13
 5677 042d 3F       		.uleb128 0x3f
 5678 042e 19       		.uleb128 0x19
 5679 042f 3C       		.uleb128 0x3c
 5680 0430 19       		.uleb128 0x19
 5681 0431 00       		.byte	0
 5682 0432 00       		.byte	0
 5683 0433 4E       		.uleb128 0x4e
 5684 0434 34       		.uleb128 0x34
 5685 0435 00       		.byte	0
 5686 0436 03       		.uleb128 0x3
 5687 0437 08       		.uleb128 0x8
 5688 0438 3A       		.uleb128 0x3a
 5689 0439 0B       		.uleb128 0xb
 5690 043a 3B       		.uleb128 0x3b
 5691 043b 05       		.uleb128 0x5
 5692 043c 49       		.uleb128 0x49
 5693 043d 13       		.uleb128 0x13
 5694 043e 3F       		.uleb128 0x3f
 5695 043f 19       		.uleb128 0x19
 5696 0440 3C       		.uleb128 0x3c
 5697 0441 19       		.uleb128 0x19
 5698 0442 00       		.byte	0
 5699 0443 00       		.byte	0
 5700 0444 4F       		.uleb128 0x4f
 5701 0445 34       		.uleb128 0x34
 5702 0446 00       		.byte	0
 5703 0447 03       		.uleb128 0x3
 5704 0448 0E       		.uleb128 0xe
 5705 0449 3A       		.uleb128 0x3a
 5706 044a 0B       		.uleb128 0xb
 5707 044b 3B       		.uleb128 0x3b
 5708 044c 0B       		.uleb128 0xb
 5709 044d 49       		.uleb128 0x49
 5710 044e 13       		.uleb128 0x13
 5711 044f 3F       		.uleb128 0x3f
 5712 0450 19       		.uleb128 0x19
 5713 0451 02       		.uleb128 0x2
 5714 0452 18       		.uleb128 0x18
 5715 0453 00       		.byte	0
 5716 0454 00       		.byte	0
 5717 0455 50       		.uleb128 0x50
 5718 0456 21       		.uleb128 0x21
 5719 0457 00       		.byte	0
 5720 0458 00       		.byte	0
 5721 0459 00       		.byte	0
ARM GAS  /tmp/ccPF9ufL.s 			page 165


 5722 045a 51       		.uleb128 0x51
 5723 045b 34       		.uleb128 0x34
 5724 045c 00       		.byte	0
 5725 045d 03       		.uleb128 0x3
 5726 045e 0E       		.uleb128 0xe
 5727 045f 3A       		.uleb128 0x3a
 5728 0460 0B       		.uleb128 0xb
 5729 0461 3B       		.uleb128 0x3b
 5730 0462 0B       		.uleb128 0xb
 5731 0463 49       		.uleb128 0x49
 5732 0464 13       		.uleb128 0x13
 5733 0465 3F       		.uleb128 0x3f
 5734 0466 19       		.uleb128 0x19
 5735 0467 3C       		.uleb128 0x3c
 5736 0468 19       		.uleb128 0x19
 5737 0469 00       		.byte	0
 5738 046a 00       		.byte	0
 5739 046b 52       		.uleb128 0x52
 5740 046c 2E       		.uleb128 0x2e
 5741 046d 01       		.byte	0x1
 5742 046e 3F       		.uleb128 0x3f
 5743 046f 19       		.uleb128 0x19
 5744 0470 03       		.uleb128 0x3
 5745 0471 0E       		.uleb128 0xe
 5746 0472 3A       		.uleb128 0x3a
 5747 0473 0B       		.uleb128 0xb
 5748 0474 3B       		.uleb128 0x3b
 5749 0475 05       		.uleb128 0x5
 5750 0476 27       		.uleb128 0x27
 5751 0477 19       		.uleb128 0x19
 5752 0478 3C       		.uleb128 0x3c
 5753 0479 19       		.uleb128 0x19
 5754 047a 01       		.uleb128 0x1
 5755 047b 13       		.uleb128 0x13
 5756 047c 00       		.byte	0
 5757 047d 00       		.byte	0
 5758 047e 53       		.uleb128 0x53
 5759 047f 2E       		.uleb128 0x2e
 5760 0480 00       		.byte	0
 5761 0481 3F       		.uleb128 0x3f
 5762 0482 19       		.uleb128 0x19
 5763 0483 03       		.uleb128 0x3
 5764 0484 0E       		.uleb128 0xe
 5765 0485 3A       		.uleb128 0x3a
 5766 0486 0B       		.uleb128 0xb
 5767 0487 3B       		.uleb128 0x3b
 5768 0488 0B       		.uleb128 0xb
 5769 0489 27       		.uleb128 0x27
 5770 048a 19       		.uleb128 0x19
 5771 048b 3C       		.uleb128 0x3c
 5772 048c 19       		.uleb128 0x19
 5773 048d 00       		.byte	0
 5774 048e 00       		.byte	0
 5775 048f 00       		.byte	0
 5776              		.section	.debug_loc,"",%progbits
 5777              	.Ldebug_loc0:
 5778              	.LLST0:
ARM GAS  /tmp/ccPF9ufL.s 			page 166


 5779 0000 00000000 		.4byte	.LVL0
 5780 0004 0C000000 		.4byte	.LVL1
 5781 0008 0200     		.2byte	0x2
 5782 000a 30       		.byte	0x30
 5783 000b 9F       		.byte	0x9f
 5784 000c 0C000000 		.4byte	.LVL1
 5785 0010 1A000000 		.4byte	.LVL2
 5786 0014 0600     		.2byte	0x6
 5787 0016 08       		.byte	0x8
 5788 0017 4C       		.byte	0x4c
 5789 0018 75       		.byte	0x75
 5790 0019 00       		.sleb128 0
 5791 001a 1C       		.byte	0x1c
 5792 001b 9F       		.byte	0x9f
 5793 001c 1A000000 		.4byte	.LVL2
 5794 0020 1C000000 		.4byte	.LVL3
 5795 0024 0600     		.2byte	0x6
 5796 0026 08       		.byte	0x8
 5797 0027 4D       		.byte	0x4d
 5798 0028 75       		.byte	0x75
 5799 0029 00       		.sleb128 0
 5800 002a 1C       		.byte	0x1c
 5801 002b 9F       		.byte	0x9f
 5802 002c 1C000000 		.4byte	.LVL3
 5803 0030 36000000 		.4byte	.LFE220
 5804 0034 0600     		.2byte	0x6
 5805 0036 08       		.byte	0x8
 5806 0037 4C       		.byte	0x4c
 5807 0038 75       		.byte	0x75
 5808 0039 00       		.sleb128 0
 5809 003a 1C       		.byte	0x1c
 5810 003b 9F       		.byte	0x9f
 5811 003c 00000000 		.4byte	0
 5812 0040 00000000 		.4byte	0
 5813              	.LLST1:
 5814 0044 00000000 		.4byte	.LVL5
 5815 0048 22000000 		.4byte	.LVL6
 5816 004c 0100     		.2byte	0x1
 5817 004e 50       		.byte	0x50
 5818 004f 22000000 		.4byte	.LVL6
 5819 0053 2A000000 		.4byte	.LFE221
 5820 0057 0500     		.2byte	0x5
 5821 0059 03       		.byte	0x3
 5822 005a 00000000 		.4byte	test_failure_message
 5823 005e 00000000 		.4byte	0
 5824 0062 00000000 		.4byte	0
 5825              	.LLST2:
 5826 0066 00000000 		.4byte	.LVL7
 5827 006a 12000000 		.4byte	.LVL9
 5828 006e 0100     		.2byte	0x1
 5829 0070 50       		.byte	0x50
 5830 0071 12000000 		.4byte	.LVL9
 5831 0075 2A000000 		.4byte	.LVL10
 5832 0079 0400     		.2byte	0x4
 5833 007b F3       		.byte	0xf3
 5834 007c 01       		.uleb128 0x1
 5835 007d 50       		.byte	0x50
ARM GAS  /tmp/ccPF9ufL.s 			page 167


 5836 007e 9F       		.byte	0x9f
 5837 007f 2A000000 		.4byte	.LVL10
 5838 0083 2C000000 		.4byte	.LVL11
 5839 0087 0100     		.2byte	0x1
 5840 0089 50       		.byte	0x50
 5841 008a 2C000000 		.4byte	.LVL11
 5842 008e 32000000 		.4byte	.LFE222
 5843 0092 0400     		.2byte	0x4
 5844 0094 F3       		.byte	0xf3
 5845 0095 01       		.uleb128 0x1
 5846 0096 50       		.byte	0x50
 5847 0097 9F       		.byte	0x9f
 5848 0098 00000000 		.4byte	0
 5849 009c 00000000 		.4byte	0
 5850              	.LLST3:
 5851 00a0 04000000 		.4byte	.LVL8
 5852 00a4 2A000000 		.4byte	.LVL10
 5853 00a8 0100     		.2byte	0x1
 5854 00aa 51       		.byte	0x51
 5855 00ab 00000000 		.4byte	0
 5856 00af 00000000 		.4byte	0
 5857              	.LLST4:
 5858 00b3 00000000 		.4byte	.LVL12
 5859 00b7 20000000 		.4byte	.LVL15
 5860 00bb 0100     		.2byte	0x1
 5861 00bd 50       		.byte	0x50
 5862 00be 20000000 		.4byte	.LVL15
 5863 00c2 24000000 		.4byte	.LVL16
 5864 00c6 0300     		.2byte	0x3
 5865 00c8 70       		.byte	0x70
 5866 00c9 7F       		.sleb128 -1
 5867 00ca 9F       		.byte	0x9f
 5868 00cb 24000000 		.4byte	.LVL16
 5869 00cf 2A000000 		.4byte	.LVL17
 5870 00d3 0100     		.2byte	0x1
 5871 00d5 50       		.byte	0x50
 5872 00d6 00000000 		.4byte	0
 5873 00da 00000000 		.4byte	0
 5874              	.LLST5:
 5875 00de 00000000 		.4byte	.LVL12
 5876 00e2 18000000 		.4byte	.LVL13
 5877 00e6 0600     		.2byte	0x6
 5878 00e8 03       		.byte	0x3
 5879 00e9 00000000 		.4byte	test_tokens_buffer
 5880 00ed 9F       		.byte	0x9f
 5881 00ee 18000000 		.4byte	.LVL13
 5882 00f2 1C000000 		.4byte	.LVL14
 5883 00f6 0100     		.2byte	0x1
 5884 00f8 53       		.byte	0x53
 5885 00f9 1C000000 		.4byte	.LVL14
 5886 00fd 24000000 		.4byte	.LVL16
 5887 0101 0300     		.2byte	0x3
 5888 0103 73       		.byte	0x73
 5889 0104 7F       		.sleb128 -1
 5890 0105 9F       		.byte	0x9f
 5891 0106 24000000 		.4byte	.LVL16
 5892 010a 32000000 		.4byte	.LVL18
ARM GAS  /tmp/ccPF9ufL.s 			page 168


 5893 010e 0100     		.2byte	0x1
 5894 0110 53       		.byte	0x53
 5895 0111 00000000 		.4byte	0
 5896 0115 00000000 		.4byte	0
 5897              	.LLST6:
 5898 0119 00000000 		.4byte	.LVL19
 5899 011d 16000000 		.4byte	.LVL24
 5900 0121 0100     		.2byte	0x1
 5901 0123 50       		.byte	0x50
 5902 0124 16000000 		.4byte	.LVL24
 5903 0128 3E000000 		.4byte	.LFE224
 5904 012c 0400     		.2byte	0x4
 5905 012e F3       		.byte	0xf3
 5906 012f 01       		.uleb128 0x1
 5907 0130 50       		.byte	0x50
 5908 0131 9F       		.byte	0x9f
 5909 0132 00000000 		.4byte	0
 5910 0136 00000000 		.4byte	0
 5911              	.LLST7:
 5912 013a 00000000 		.4byte	.LVL19
 5913 013e 08000000 		.4byte	.LVL21
 5914 0142 0100     		.2byte	0x1
 5915 0144 51       		.byte	0x51
 5916 0145 08000000 		.4byte	.LVL21
 5917 0149 3E000000 		.4byte	.LFE224
 5918 014d 0400     		.2byte	0x4
 5919 014f F3       		.byte	0xf3
 5920 0150 01       		.uleb128 0x1
 5921 0151 51       		.byte	0x51
 5922 0152 9F       		.byte	0x9f
 5923 0153 00000000 		.4byte	0
 5924 0157 00000000 		.4byte	0
 5925              	.LLST8:
 5926 015b 06000000 		.4byte	.LVL20
 5927 015f 08000000 		.4byte	.LVL21
 5928 0163 0100     		.2byte	0x1
 5929 0165 51       		.byte	0x51
 5930 0166 08000000 		.4byte	.LVL21
 5931 016a 3E000000 		.4byte	.LFE224
 5932 016e 0400     		.2byte	0x4
 5933 0170 F3       		.byte	0xf3
 5934 0171 01       		.uleb128 0x1
 5935 0172 51       		.byte	0x51
 5936 0173 9F       		.byte	0x9f
 5937 0174 00000000 		.4byte	0
 5938 0178 00000000 		.4byte	0
 5939              	.LLST9:
 5940 017c 06000000 		.4byte	.LVL20
 5941 0180 16000000 		.4byte	.LVL24
 5942 0184 0100     		.2byte	0x1
 5943 0186 50       		.byte	0x50
 5944 0187 00000000 		.4byte	0
 5945 018b 00000000 		.4byte	0
 5946              	.LLST10:
 5947 018f 06000000 		.4byte	.LVL20
 5948 0193 0A000000 		.4byte	.LVL22
 5949 0197 0100     		.2byte	0x1
ARM GAS  /tmp/ccPF9ufL.s 			page 169


 5950 0199 53       		.byte	0x53
 5951 019a 00000000 		.4byte	0
 5952 019e 00000000 		.4byte	0
 5953              	.LLST14:
 5954 01a2 06000000 		.4byte	.LVL20
 5955 01a6 08000000 		.4byte	.LVL21
 5956 01aa 1400     		.2byte	0x14
 5957 01ac 73       		.byte	0x73
 5958 01ad 00       		.sleb128 0
 5959 01ae 70       		.byte	0x70
 5960 01af 00       		.sleb128 0
 5961 01b0 1C       		.byte	0x1c
 5962 01b1 0A       		.byte	0xa
 5963 01b2 FFFF     		.2byte	0xffff
 5964 01b4 1A       		.byte	0x1a
 5965 01b5 71       		.byte	0x71
 5966 01b6 00       		.sleb128 0
 5967 01b7 70       		.byte	0x70
 5968 01b8 00       		.sleb128 0
 5969 01b9 1C       		.byte	0x1c
 5970 01ba 0A       		.byte	0xa
 5971 01bb FFFF     		.2byte	0xffff
 5972 01bd 1A       		.byte	0x1a
 5973 01be 2D       		.byte	0x2d
 5974 01bf 9F       		.byte	0x9f
 5975 01c0 08000000 		.4byte	.LVL21
 5976 01c4 0A000000 		.4byte	.LVL22
 5977 01c8 1500     		.2byte	0x15
 5978 01ca 73       		.byte	0x73
 5979 01cb 00       		.sleb128 0
 5980 01cc 70       		.byte	0x70
 5981 01cd 00       		.sleb128 0
 5982 01ce 1C       		.byte	0x1c
 5983 01cf 0A       		.byte	0xa
 5984 01d0 FFFF     		.2byte	0xffff
 5985 01d2 1A       		.byte	0x1a
 5986 01d3 F3       		.byte	0xf3
 5987 01d4 01       		.uleb128 0x1
 5988 01d5 51       		.byte	0x51
 5989 01d6 70       		.byte	0x70
 5990 01d7 00       		.sleb128 0
 5991 01d8 1C       		.byte	0x1c
 5992 01d9 0A       		.byte	0xa
 5993 01da FFFF     		.2byte	0xffff
 5994 01dc 1A       		.byte	0x1a
 5995 01dd 2D       		.byte	0x2d
 5996 01de 9F       		.byte	0x9f
 5997 01df 00000000 		.4byte	0
 5998 01e3 00000000 		.4byte	0
 5999              	.LLST15:
 6000 01e7 18000000 		.4byte	.LVL25
 6001 01eb 38000000 		.4byte	.LVL26
 6002 01ef 0100     		.2byte	0x1
 6003 01f1 52       		.byte	0x52
 6004 01f2 00000000 		.4byte	0
 6005 01f6 00000000 		.4byte	0
 6006              	.LLST16:
ARM GAS  /tmp/ccPF9ufL.s 			page 170


 6007 01fa 00000000 		.4byte	.LVL27
 6008 01fe 14000000 		.4byte	.LVL28
 6009 0202 0100     		.2byte	0x1
 6010 0204 50       		.byte	0x50
 6011 0205 14000000 		.4byte	.LVL28
 6012 0209 2C000000 		.4byte	.LVL29
 6013 020d 0100     		.2byte	0x1
 6014 020f 50       		.byte	0x50
 6015 0210 2C000000 		.4byte	.LVL29
 6016 0214 44000000 		.4byte	.LVL31
 6017 0218 0100     		.2byte	0x1
 6018 021a 52       		.byte	0x52
 6019 021b 5A000000 		.4byte	.LVL36
 6020 021f 64000000 		.4byte	.LVL37
 6021 0223 0100     		.2byte	0x1
 6022 0225 50       		.byte	0x50
 6023 0226 64000000 		.4byte	.LVL37
 6024 022a 70000000 		.4byte	.LFE225
 6025 022e 0400     		.2byte	0x4
 6026 0230 F3       		.byte	0xf3
 6027 0231 01       		.uleb128 0x1
 6028 0232 50       		.byte	0x50
 6029 0233 9F       		.byte	0x9f
 6030 0234 00000000 		.4byte	0
 6031 0238 00000000 		.4byte	0
 6032              	.LLST17:
 6033 023c 14000000 		.4byte	.LVL28
 6034 0240 2C000000 		.4byte	.LVL29
 6035 0244 0300     		.2byte	0x3
 6036 0246 73       		.byte	0x73
 6037 0247 7F       		.sleb128 -1
 6038 0248 9F       		.byte	0x9f
 6039 0249 2C000000 		.4byte	.LVL29
 6040 024d 30000000 		.4byte	.LVL30
 6041 0251 0100     		.2byte	0x1
 6042 0253 53       		.byte	0x53
 6043 0254 30000000 		.4byte	.LVL30
 6044 0258 44000000 		.4byte	.LVL31
 6045 025c 0100     		.2byte	0x1
 6046 025e 54       		.byte	0x54
 6047 025f 44000000 		.4byte	.LVL31
 6048 0263 4A000000 		.4byte	.LVL32
 6049 0267 0300     		.2byte	0x3
 6050 0269 74       		.byte	0x74
 6051 026a 7F       		.sleb128 -1
 6052 026b 9F       		.byte	0x9f
 6053 026c 4A000000 		.4byte	.LVL32
 6054 0270 4C000000 		.4byte	.LVL33
 6055 0274 0100     		.2byte	0x1
 6056 0276 54       		.byte	0x54
 6057 0277 4C000000 		.4byte	.LVL33
 6058 027b 56000000 		.4byte	.LVL35
 6059 027f 0300     		.2byte	0x3
 6060 0281 74       		.byte	0x74
 6061 0282 7F       		.sleb128 -1
 6062 0283 9F       		.byte	0x9f
 6063 0284 00000000 		.4byte	0
ARM GAS  /tmp/ccPF9ufL.s 			page 171


 6064 0288 00000000 		.4byte	0
 6065              	.LLST18:
 6066 028c 00000000 		.4byte	.LVL39
 6067 0290 10000000 		.4byte	.LVL40
 6068 0294 0100     		.2byte	0x1
 6069 0296 50       		.byte	0x50
 6070 0297 10000000 		.4byte	.LVL40
 6071 029b 12000000 		.4byte	.LVL41
 6072 029f 0100     		.2byte	0x1
 6073 02a1 54       		.byte	0x54
 6074 02a2 12000000 		.4byte	.LVL41
 6075 02a6 1C000000 		.4byte	.LVL43
 6076 02aa 0300     		.2byte	0x3
 6077 02ac 74       		.byte	0x74
 6078 02ad 01       		.sleb128 1
 6079 02ae 9F       		.byte	0x9f
 6080 02af 1C000000 		.4byte	.LVL43
 6081 02b3 20000000 		.4byte	.LVL44
 6082 02b7 0100     		.2byte	0x1
 6083 02b9 54       		.byte	0x54
 6084 02ba 00000000 		.4byte	0
 6085 02be 00000000 		.4byte	0
 6086              	.LLST19:
 6087 02c2 00000000 		.4byte	.LVL45
 6088 02c6 10000000 		.4byte	.LVL46
 6089 02ca 0100     		.2byte	0x1
 6090 02cc 50       		.byte	0x50
 6091 02cd 10000000 		.4byte	.LVL46
 6092 02d1 34000000 		.4byte	.LVL52
 6093 02d5 0400     		.2byte	0x4
 6094 02d7 F3       		.byte	0xf3
 6095 02d8 01       		.uleb128 0x1
 6096 02d9 50       		.byte	0x50
 6097 02da 9F       		.byte	0x9f
 6098 02db 34000000 		.4byte	.LVL52
 6099 02df 3A000000 		.4byte	.LFE227
 6100 02e3 0100     		.2byte	0x1
 6101 02e5 50       		.byte	0x50
 6102 02e6 00000000 		.4byte	0
 6103 02ea 00000000 		.4byte	0
 6104              	.LLST20:
 6105 02ee 00000000 		.4byte	.LVL45
 6106 02f2 10000000 		.4byte	.LVL46
 6107 02f6 0100     		.2byte	0x1
 6108 02f8 50       		.byte	0x50
 6109 02f9 10000000 		.4byte	.LVL46
 6110 02fd 12000000 		.4byte	.LVL47
 6111 0301 0100     		.2byte	0x1
 6112 0303 54       		.byte	0x54
 6113 0304 12000000 		.4byte	.LVL47
 6114 0308 1C000000 		.4byte	.LVL49
 6115 030c 0300     		.2byte	0x3
 6116 030e 74       		.byte	0x74
 6117 030f 01       		.sleb128 1
 6118 0310 9F       		.byte	0x9f
 6119 0311 1C000000 		.4byte	.LVL49
 6120 0315 20000000 		.4byte	.LVL50
ARM GAS  /tmp/ccPF9ufL.s 			page 172


 6121 0319 0100     		.2byte	0x1
 6122 031b 54       		.byte	0x54
 6123 031c 34000000 		.4byte	.LVL52
 6124 0320 3A000000 		.4byte	.LFE227
 6125 0324 0100     		.2byte	0x1
 6126 0326 50       		.byte	0x50
 6127 0327 00000000 		.4byte	0
 6128 032b 00000000 		.4byte	0
 6129              	.LLST21:
 6130 032f 00000000 		.4byte	.LVL56
 6131 0333 12000000 		.4byte	.LVL57
 6132 0337 0100     		.2byte	0x1
 6133 0339 50       		.byte	0x50
 6134 033a 12000000 		.4byte	.LVL57
 6135 033e 1B000000 		.4byte	.LVL58-1
 6136 0342 0500     		.2byte	0x5
 6137 0344 03       		.byte	0x3
 6138 0345 00000000 		.4byte	test_chp
 6139 0349 1B000000 		.4byte	.LVL58-1
 6140 034d FC020000 		.4byte	.LFE230
 6141 0351 0400     		.2byte	0x4
 6142 0353 F3       		.byte	0xf3
 6143 0354 01       		.uleb128 0x1
 6144 0355 50       		.byte	0x50
 6145 0356 9F       		.byte	0x9f
 6146 0357 00000000 		.4byte	0
 6147 035b 00000000 		.4byte	0
 6148              	.LLST22:
 6149 035f D0000000 		.4byte	.LVL80
 6150 0363 EA000000 		.4byte	.LVL82
 6151 0367 0200     		.2byte	0x2
 6152 0369 30       		.byte	0x30
 6153 036a 9F       		.byte	0x9f
 6154 036b EA000000 		.4byte	.LVL82
 6155 036f F6000000 		.4byte	.LVL84
 6156 0373 0200     		.2byte	0x2
 6157 0375 91       		.byte	0x91
 6158 0376 50       		.sleb128 -48
 6159 0377 F6000000 		.4byte	.LVL84
 6160 037b 00010000 		.4byte	.LVL85
 6161 037f 0300     		.2byte	0x3
 6162 0381 72       		.byte	0x72
 6163 0382 7F       		.sleb128 -1
 6164 0383 9F       		.byte	0x9f
 6165 0384 00010000 		.4byte	.LVL85
 6166 0388 84020000 		.4byte	.LVL144
 6167 038c 0600     		.2byte	0x6
 6168 038e 91       		.byte	0x91
 6169 038f 50       		.sleb128 -48
 6170 0390 06       		.byte	0x6
 6171 0391 31       		.byte	0x31
 6172 0392 1C       		.byte	0x1c
 6173 0393 9F       		.byte	0x9f
 6174 0394 84020000 		.4byte	.LVL144
 6175 0398 8E020000 		.4byte	.LVL145
 6176 039c 0200     		.2byte	0x2
 6177 039e 91       		.byte	0x91
ARM GAS  /tmp/ccPF9ufL.s 			page 173


 6178 039f 50       		.sleb128 -48
 6179 03a0 D4020000 		.4byte	.LVL153
 6180 03a4 E2020000 		.4byte	.LVL155
 6181 03a8 0600     		.2byte	0x6
 6182 03aa 91       		.byte	0x91
 6183 03ab 50       		.sleb128 -48
 6184 03ac 06       		.byte	0x6
 6185 03ad 31       		.byte	0x31
 6186 03ae 1C       		.byte	0x1c
 6187 03af 9F       		.byte	0x9f
 6188 03b0 00000000 		.4byte	0
 6189 03b4 00000000 		.4byte	0
 6190              	.LLST23:
 6191 03b8 EE000000 		.4byte	.LVL83
 6192 03bc 36010000 		.4byte	.LVL93
 6193 03c0 0100     		.2byte	0x1
 6194 03c2 56       		.byte	0x56
 6195 03c3 36010000 		.4byte	.LVL93
 6196 03c7 76020000 		.4byte	.LVL143
 6197 03cb 0300     		.2byte	0x3
 6198 03cd 76       		.byte	0x76
 6199 03ce 7F       		.sleb128 -1
 6200 03cf 9F       		.byte	0x9f
 6201 03d0 76020000 		.4byte	.LVL143
 6202 03d4 8E020000 		.4byte	.LVL145
 6203 03d8 0100     		.2byte	0x1
 6204 03da 56       		.byte	0x56
 6205 03db D4020000 		.4byte	.LVL153
 6206 03df E2020000 		.4byte	.LVL155
 6207 03e3 0300     		.2byte	0x3
 6208 03e5 76       		.byte	0x76
 6209 03e6 7F       		.sleb128 -1
 6210 03e7 9F       		.byte	0x9f
 6211 03e8 00000000 		.4byte	0
 6212 03ec 00000000 		.4byte	0
 6213              	.LLST24:
 6214 03f0 38000000 		.4byte	.LVL60
 6215 03f4 3E000000 		.4byte	.LVL61
 6216 03f8 0600     		.2byte	0x6
 6217 03fa 03       		.byte	0x3
 6218 03fb 28000000 		.4byte	.LC4
 6219 03ff 9F       		.byte	0x9f
 6220 0400 3E000000 		.4byte	.LVL61
 6221 0404 40000000 		.4byte	.LVL62
 6222 0408 0100     		.2byte	0x1
 6223 040a 55       		.byte	0x55
 6224 040b 40000000 		.4byte	.LVL62
 6225 040f 4A000000 		.4byte	.LVL64
 6226 0413 0300     		.2byte	0x3
 6227 0415 75       		.byte	0x75
 6228 0416 01       		.sleb128 1
 6229 0417 9F       		.byte	0x9f
 6230 0418 4A000000 		.4byte	.LVL64
 6231 041c 5A000000 		.4byte	.LVL65
 6232 0420 0100     		.2byte	0x1
 6233 0422 55       		.byte	0x55
 6234 0423 00000000 		.4byte	0
ARM GAS  /tmp/ccPF9ufL.s 			page 174


 6235 0427 00000000 		.4byte	0
 6236              	.LLST25:
 6237 042b 5E000000 		.4byte	.LVL66
 6238 042f 64000000 		.4byte	.LVL67
 6239 0433 0600     		.2byte	0x6
 6240 0435 03       		.byte	0x3
 6241 0436 C4000000 		.4byte	.LC15
 6242 043a 9F       		.byte	0x9f
 6243 043b 64000000 		.4byte	.LVL67
 6244 043f 66000000 		.4byte	.LVL68
 6245 0443 0100     		.2byte	0x1
 6246 0445 55       		.byte	0x55
 6247 0446 66000000 		.4byte	.LVL68
 6248 044a 70000000 		.4byte	.LVL70
 6249 044e 0300     		.2byte	0x3
 6250 0450 75       		.byte	0x75
 6251 0451 01       		.sleb128 1
 6252 0452 9F       		.byte	0x9f
 6253 0453 70000000 		.4byte	.LVL70
 6254 0457 80000000 		.4byte	.LVL71
 6255 045b 0100     		.2byte	0x1
 6256 045d 55       		.byte	0x55
 6257 045e 00000000 		.4byte	0
 6258 0462 00000000 		.4byte	0
 6259              	.LLST26:
 6260 0466 84000000 		.4byte	.LVL72
 6261 046a 8A000000 		.4byte	.LVL73
 6262 046e 0600     		.2byte	0x6
 6263 0470 03       		.byte	0x3
 6264 0471 FC000000 		.4byte	.LC17
 6265 0475 9F       		.byte	0x9f
 6266 0476 8A000000 		.4byte	.LVL73
 6267 047a 8C000000 		.4byte	.LVL74
 6268 047e 0100     		.2byte	0x1
 6269 0480 55       		.byte	0x55
 6270 0481 8C000000 		.4byte	.LVL74
 6271 0485 96000000 		.4byte	.LVL76
 6272 0489 0300     		.2byte	0x3
 6273 048b 75       		.byte	0x75
 6274 048c 01       		.sleb128 1
 6275 048d 9F       		.byte	0x9f
 6276 048e 96000000 		.4byte	.LVL76
 6277 0492 DA000000 		.4byte	.LVL81
 6278 0496 0100     		.2byte	0x1
 6279 0498 55       		.byte	0x55
 6280 0499 00000000 		.4byte	0
 6281 049d 00000000 		.4byte	0
 6282              	.LLST27:
 6283 04a1 9A010000 		.4byte	.LVL109
 6284 04a5 CC010000 		.4byte	.LVL113
 6285 04a9 0100     		.2byte	0x1
 6286 04ab 58       		.byte	0x58
 6287 04ac D4020000 		.4byte	.LVL153
 6288 04b0 E2020000 		.4byte	.LVL155
 6289 04b4 0100     		.2byte	0x1
 6290 04b6 58       		.byte	0x58
 6291 04b7 00000000 		.4byte	0
ARM GAS  /tmp/ccPF9ufL.s 			page 175


 6292 04bb 00000000 		.4byte	0
 6293              	.LLST28:
 6294 04bf F4010000 		.4byte	.LVL119
 6295 04c3 FA010000 		.4byte	.LVL120
 6296 04c7 0600     		.2byte	0x6
 6297 04c9 03       		.byte	0x3
 6298 04ca 14010000 		.4byte	.LC19
 6299 04ce 9F       		.byte	0x9f
 6300 04cf FA010000 		.4byte	.LVL120
 6301 04d3 FC010000 		.4byte	.LVL121
 6302 04d7 0100     		.2byte	0x1
 6303 04d9 58       		.byte	0x58
 6304 04da FC010000 		.4byte	.LVL121
 6305 04de 06020000 		.4byte	.LVL123
 6306 04e2 0300     		.2byte	0x3
 6307 04e4 78       		.byte	0x78
 6308 04e5 01       		.sleb128 1
 6309 04e6 9F       		.byte	0x9f
 6310 04e7 06020000 		.4byte	.LVL123
 6311 04eb 14020000 		.4byte	.LVL125
 6312 04ef 0100     		.2byte	0x1
 6313 04f1 58       		.byte	0x58
 6314 04f2 00000000 		.4byte	0
 6315 04f6 00000000 		.4byte	0
 6316              	.LLST29:
 6317 04fa 08010000 		.4byte	.LVL86
 6318 04fe 0E010000 		.4byte	.LVL87
 6319 0502 0600     		.2byte	0x6
 6320 0504 03       		.byte	0x3
 6321 0505 54000000 		.4byte	.LC6
 6322 0509 9F       		.byte	0x9f
 6323 050a 0E010000 		.4byte	.LVL87
 6324 050e 10010000 		.4byte	.LVL88
 6325 0512 0100     		.2byte	0x1
 6326 0514 5A       		.byte	0x5a
 6327 0515 10010000 		.4byte	.LVL88
 6328 0519 22010000 		.4byte	.LVL90
 6329 051d 0300     		.2byte	0x3
 6330 051f 7A       		.byte	0x7a
 6331 0520 01       		.sleb128 1
 6332 0521 9F       		.byte	0x9f
 6333 0522 22010000 		.4byte	.LVL90
 6334 0526 84020000 		.4byte	.LVL144
 6335 052a 0100     		.2byte	0x1
 6336 052c 5A       		.byte	0x5a
 6337 052d D4020000 		.4byte	.LVL153
 6338 0531 E2020000 		.4byte	.LVL155
 6339 0535 0100     		.2byte	0x1
 6340 0537 5A       		.byte	0x5a
 6341 0538 00000000 		.4byte	0
 6342 053c 00000000 		.4byte	0
 6343              	.LLST31:
 6344 0540 44010000 		.4byte	.LVL95
 6345 0544 4A010000 		.4byte	.LVL96
 6346 0548 0600     		.2byte	0x6
 6347 054a 03       		.byte	0x3
 6348 054b 10010000 		.4byte	.LC18
ARM GAS  /tmp/ccPF9ufL.s 			page 176


 6349 054f 9F       		.byte	0x9f
 6350 0550 4A010000 		.4byte	.LVL96
 6351 0554 4C010000 		.4byte	.LVL97
 6352 0558 0100     		.2byte	0x1
 6353 055a 5B       		.byte	0x5b
 6354 055b 4C010000 		.4byte	.LVL97
 6355 055f 56010000 		.4byte	.LVL99
 6356 0563 0300     		.2byte	0x3
 6357 0565 7B       		.byte	0x7b
 6358 0566 01       		.sleb128 1
 6359 0567 9F       		.byte	0x9f
 6360 0568 56010000 		.4byte	.LVL99
 6361 056c 68010000 		.4byte	.LVL101
 6362 0570 0100     		.2byte	0x1
 6363 0572 5B       		.byte	0x5b
 6364 0573 00000000 		.4byte	0
 6365 0577 00000000 		.4byte	0
 6366              	.LLST32:
 6367 057b 64010000 		.4byte	.LVL100
 6368 057f 6A010000 		.4byte	.LVL102
 6369 0583 0100     		.2byte	0x1
 6370 0585 53       		.byte	0x53
 6371 0586 6A010000 		.4byte	.LVL102
 6372 058a 6C010000 		.4byte	.LVL103
 6373 058e 0100     		.2byte	0x1
 6374 0590 5B       		.byte	0x5b
 6375 0591 6C010000 		.4byte	.LVL103
 6376 0595 76010000 		.4byte	.LVL105
 6377 0599 0300     		.2byte	0x3
 6378 059b 7B       		.byte	0x7b
 6379 059c 01       		.sleb128 1
 6380 059d 9F       		.byte	0x9f
 6381 059e 76010000 		.4byte	.LVL105
 6382 05a2 7A010000 		.4byte	.LVL106
 6383 05a6 0100     		.2byte	0x1
 6384 05a8 5B       		.byte	0x5b
 6385 05a9 00000000 		.4byte	0
 6386 05ad 00000000 		.4byte	0
 6387              	.LLST33:
 6388 05b1 86010000 		.4byte	.LVL107
 6389 05b5 84020000 		.4byte	.LVL144
 6390 05b9 0400     		.2byte	0x4
 6391 05bb 0A       		.byte	0xa
 6392 05bc D007     		.2byte	0x7d0
 6393 05be 9F       		.byte	0x9f
 6394 05bf D4020000 		.4byte	.LVL153
 6395 05c3 E2020000 		.4byte	.LVL155
 6396 05c7 0400     		.2byte	0x4
 6397 05c9 0A       		.byte	0xa
 6398 05ca D007     		.2byte	0x7d0
 6399 05cc 9F       		.byte	0x9f
 6400 05cd 00000000 		.4byte	0
 6401 05d1 00000000 		.4byte	0
 6402              	.LLST34:
 6403 05d5 D2010000 		.4byte	.LVL114
 6404 05d9 D4010000 		.4byte	.LVL115
 6405 05dd 0100     		.2byte	0x1
ARM GAS  /tmp/ccPF9ufL.s 			page 177


 6406 05df 58       		.byte	0x58
 6407 05e0 D4010000 		.4byte	.LVL115
 6408 05e4 DE010000 		.4byte	.LVL117
 6409 05e8 0300     		.2byte	0x3
 6410 05ea 78       		.byte	0x78
 6411 05eb 01       		.sleb128 1
 6412 05ec 9F       		.byte	0x9f
 6413 05ed DE010000 		.4byte	.LVL117
 6414 05f1 F0010000 		.4byte	.LVL118
 6415 05f5 0100     		.2byte	0x1
 6416 05f7 58       		.byte	0x58
 6417 05f8 00000000 		.4byte	0
 6418 05fc 00000000 		.4byte	0
 6419              	.LLST35:
 6420 0600 0A020000 		.4byte	.LVL124
 6421 0604 16020000 		.4byte	.LVL126
 6422 0608 0600     		.2byte	0x6
 6423 060a 03       		.byte	0x3
 6424 060b 00000000 		.4byte	test_tokens_buffer
 6425 060f 9F       		.byte	0x9f
 6426 0610 16020000 		.4byte	.LVL126
 6427 0614 24020000 		.4byte	.LVL128
 6428 0618 0300     		.2byte	0x3
 6429 061a 78       		.byte	0x78
 6430 061b 7F       		.sleb128 -1
 6431 061c 9F       		.byte	0x9f
 6432 061d 24020000 		.4byte	.LVL128
 6433 0621 2A020000 		.4byte	.LVL129
 6434 0625 0100     		.2byte	0x1
 6435 0627 58       		.byte	0x58
 6436 0628 2A020000 		.4byte	.LVL129
 6437 062c 2C020000 		.4byte	.LVL130
 6438 0630 0300     		.2byte	0x3
 6439 0632 78       		.byte	0x78
 6440 0633 7F       		.sleb128 -1
 6441 0634 9F       		.byte	0x9f
 6442 0635 00000000 		.4byte	0
 6443 0639 00000000 		.4byte	0
 6444              	.LLST36:
 6445 063d 36020000 		.4byte	.LVL131
 6446 0641 38020000 		.4byte	.LVL132
 6447 0645 0100     		.2byte	0x1
 6448 0647 58       		.byte	0x58
 6449 0648 38020000 		.4byte	.LVL132
 6450 064c 42020000 		.4byte	.LVL134
 6451 0650 0300     		.2byte	0x3
 6452 0652 78       		.byte	0x78
 6453 0653 01       		.sleb128 1
 6454 0654 9F       		.byte	0x9f
 6455 0655 42020000 		.4byte	.LVL134
 6456 0659 54020000 		.4byte	.LVL136
 6457 065d 0100     		.2byte	0x1
 6458 065f 58       		.byte	0x58
 6459 0660 00000000 		.4byte	0
 6460 0664 00000000 		.4byte	0
 6461              	.LLST37:
 6462 0668 50020000 		.4byte	.LVL135
ARM GAS  /tmp/ccPF9ufL.s 			page 178


 6463 066c 56020000 		.4byte	.LVL137
 6464 0670 0100     		.2byte	0x1
 6465 0672 53       		.byte	0x53
 6466 0673 56020000 		.4byte	.LVL137
 6467 0677 58020000 		.4byte	.LVL138
 6468 067b 0100     		.2byte	0x1
 6469 067d 58       		.byte	0x58
 6470 067e 58020000 		.4byte	.LVL138
 6471 0682 62020000 		.4byte	.LVL140
 6472 0686 0300     		.2byte	0x3
 6473 0688 78       		.byte	0x78
 6474 0689 01       		.sleb128 1
 6475 068a 9F       		.byte	0x9f
 6476 068b 62020000 		.4byte	.LVL140
 6477 068f 66020000 		.4byte	.LVL141
 6478 0693 0100     		.2byte	0x1
 6479 0695 58       		.byte	0x58
 6480 0696 00000000 		.4byte	0
 6481 069a 00000000 		.4byte	0
 6482              	.LLST38:
 6483 069e A2020000 		.4byte	.LVL147
 6484 06a2 A8020000 		.4byte	.LVL148
 6485 06a6 0600     		.2byte	0x6
 6486 06a8 03       		.byte	0x3
 6487 06a9 18010000 		.4byte	.LC20
 6488 06ad 9F       		.byte	0x9f
 6489 06ae A8020000 		.4byte	.LVL148
 6490 06b2 AA020000 		.4byte	.LVL149
 6491 06b6 0100     		.2byte	0x1
 6492 06b8 55       		.byte	0x55
 6493 06b9 AA020000 		.4byte	.LVL149
 6494 06bd B4020000 		.4byte	.LVL151
 6495 06c1 0300     		.2byte	0x3
 6496 06c3 75       		.byte	0x75
 6497 06c4 01       		.sleb128 1
 6498 06c5 9F       		.byte	0x9f
 6499 06c6 B4020000 		.4byte	.LVL151
 6500 06ca D4020000 		.4byte	.LVL153
 6501 06ce 0100     		.2byte	0x1
 6502 06d0 55       		.byte	0x55
 6503 06d1 E2020000 		.4byte	.LVL155
 6504 06d5 F8020000 		.4byte	.LVL157
 6505 06d9 0100     		.2byte	0x1
 6506 06db 55       		.byte	0x55
 6507 06dc 00000000 		.4byte	0
 6508 06e0 00000000 		.4byte	0
 6509              		.section	.debug_aranges,"",%progbits
 6510 0000 6C000000 		.4byte	0x6c
 6511 0004 0200     		.2byte	0x2
 6512 0006 00000000 		.4byte	.Ldebug_info0
 6513 000a 04       		.byte	0x4
 6514 000b 00       		.byte	0
 6515 000c 0000     		.2byte	0
 6516 000e 0000     		.2byte	0
 6517 0010 00000000 		.4byte	.LFB220
 6518 0014 36000000 		.4byte	.LFE220-.LFB220
 6519 0018 00000000 		.4byte	.LFB221
ARM GAS  /tmp/ccPF9ufL.s 			page 179


 6520 001c 2A000000 		.4byte	.LFE221-.LFB221
 6521 0020 00000000 		.4byte	.LFB222
 6522 0024 32000000 		.4byte	.LFE222-.LFB222
 6523 0028 00000000 		.4byte	.LFB223
 6524 002c 56000000 		.4byte	.LFE223-.LFB223
 6525 0030 00000000 		.4byte	.LFB224
 6526 0034 3E000000 		.4byte	.LFE224-.LFB224
 6527 0038 00000000 		.4byte	.LFB225
 6528 003c 70000000 		.4byte	.LFE225-.LFB225
 6529 0040 00000000 		.4byte	.LFB226
 6530 0044 22000000 		.4byte	.LFE226-.LFB226
 6531 0048 00000000 		.4byte	.LFB227
 6532 004c 3A000000 		.4byte	.LFE227-.LFB227
 6533 0050 00000000 		.4byte	.LFB228
 6534 0054 28000000 		.4byte	.LFE228-.LFB228
 6535 0058 00000000 		.4byte	.LFB229
 6536 005c 1C000000 		.4byte	.LFE229-.LFB229
 6537 0060 00000000 		.4byte	.LFB230
 6538 0064 FC020000 		.4byte	.LFE230-.LFB230
 6539 0068 00000000 		.4byte	0
 6540 006c 00000000 		.4byte	0
 6541              		.section	.debug_ranges,"",%progbits
 6542              	.Ldebug_ranges0:
 6543 0000 0A000000 		.4byte	.LBB116
 6544 0004 10000000 		.4byte	.LBE116
 6545 0008 12000000 		.4byte	.LBB121
 6546 000c 38000000 		.4byte	.LBE121
 6547 0010 00000000 		.4byte	0
 6548 0014 00000000 		.4byte	0
 6549 0018 D6000000 		.4byte	.LBB177
 6550 001c E0000000 		.4byte	.LBE177
 6551 0020 E2000000 		.4byte	.LBB188
 6552 0024 EC000000 		.4byte	.LBE188
 6553 0028 92010000 		.4byte	.LBB205
 6554 002c 96010000 		.4byte	.LBE205
 6555 0030 9A010000 		.4byte	.LBB206
 6556 0034 BE010000 		.4byte	.LBE206
 6557 0038 00000000 		.4byte	0
 6558 003c 00000000 		.4byte	0
 6559 0040 D6000000 		.4byte	.LBB179
 6560 0044 E0000000 		.4byte	.LBE179
 6561 0048 E2000000 		.4byte	.LBB183
 6562 004c EC000000 		.4byte	.LBE183
 6563 0050 A4010000 		.4byte	.LBB184
 6564 0054 A8010000 		.4byte	.LBE184
 6565 0058 00000000 		.4byte	0
 6566 005c 00000000 		.4byte	0
 6567 0060 EC000000 		.4byte	.LBB189
 6568 0064 EE000000 		.4byte	.LBE189
 6569 0068 F8010000 		.4byte	.LBB209
 6570 006c 0A020000 		.4byte	.LBE209
 6571 0070 34020000 		.4byte	.LBB212
 6572 0074 36020000 		.4byte	.LBE212
 6573 0078 00000000 		.4byte	0
 6574 007c 00000000 		.4byte	0
 6575 0080 2C010000 		.4byte	.LBB195
 6576 0084 34010000 		.4byte	.LBE195
ARM GAS  /tmp/ccPF9ufL.s 			page 180


 6577 0088 36010000 		.4byte	.LBB198
 6578 008c 3E010000 		.4byte	.LBE198
 6579 0090 00000000 		.4byte	0
 6580 0094 00000000 		.4byte	0
 6581 0098 00000000 		.4byte	.LFB220
 6582 009c 36000000 		.4byte	.LFE220
 6583 00a0 00000000 		.4byte	.LFB221
 6584 00a4 2A000000 		.4byte	.LFE221
 6585 00a8 00000000 		.4byte	.LFB222
 6586 00ac 32000000 		.4byte	.LFE222
 6587 00b0 00000000 		.4byte	.LFB223
 6588 00b4 56000000 		.4byte	.LFE223
 6589 00b8 00000000 		.4byte	.LFB224
 6590 00bc 3E000000 		.4byte	.LFE224
 6591 00c0 00000000 		.4byte	.LFB225
 6592 00c4 70000000 		.4byte	.LFE225
 6593 00c8 00000000 		.4byte	.LFB226
 6594 00cc 22000000 		.4byte	.LFE226
 6595 00d0 00000000 		.4byte	.LFB227
 6596 00d4 3A000000 		.4byte	.LFE227
 6597 00d8 00000000 		.4byte	.LFB228
 6598 00dc 28000000 		.4byte	.LFE228
 6599 00e0 00000000 		.4byte	.LFB229
 6600 00e4 1C000000 		.4byte	.LFE229
 6601 00e8 00000000 		.4byte	.LFB230
 6602 00ec FC020000 		.4byte	.LFE230
 6603 00f0 00000000 		.4byte	0
 6604 00f4 00000000 		.4byte	0
 6605              		.section	.debug_line,"",%progbits
 6606              	.Ldebug_line0:
 6607 0000 58050000 		.section	.debug_str,"MS",%progbits,1
 6607      02000D03 
 6607      00000201 
 6607      FB0E0D00 
 6607      01010101 
 6608              	.LASF48:
 6609 0000 72656164 		.ascii	"ready_list_t\000"
 6609      795F6C69 
 6609      73745F74 
 6609      00
 6610              	.LASF73:
 6611 000d 44494552 		.ascii	"DIER\000"
 6611      00
 6612              	.LASF2:
 6613 0012 73697A65 		.ascii	"size_t\000"
 6613      5F7400
 6614              	.LASF44:
 6615 0019 6E657874 		.ascii	"next\000"
 6615      00
 6616              	.LASF54:
 6617 001e 64656C74 		.ascii	"delta\000"
 6617      6100
 6618              	.LASF84:
 6619 0024 7264796D 		.ascii	"rdymsg\000"
 6619      736700
 6620              	.LASF13:
 6621 002b 75696E74 		.ascii	"uint64_t\000"
ARM GAS  /tmp/ccPF9ufL.s 			page 181


 6621      36345F74 
 6621      00
 6622              	.LASF47:
 6623 0034 70726576 		.ascii	"prev\000"
 6623      00
 6624              	.LASF71:
 6625 0039 706F7274 		.ascii	"port_intctx\000"
 6625      5F696E74 
 6625      63747800 
 6626              	.LASF59:
 6627 0045 73797374 		.ascii	"system_debug_t\000"
 6627      656D5F64 
 6627      65627567 
 6627      5F7400
 6628              	.LASF141:
 6629 0054 73747265 		.ascii	"stream\000"
 6629      616D00
 6630              	.LASF106:
 6631 005b 706F7274 		.ascii	"port_lock\000"
 6631      5F6C6F63 
 6631      6B00
 6632              	.LASF14:
 6633 0065 6C6F6E67 		.ascii	"long long unsigned int\000"
 6633      206C6F6E 
 6633      6720756E 
 6633      7369676E 
 6633      65642069 
 6634              	.LASF145:
 6635 007c 74657374 		.ascii	"test_tokp\000"
 6635      5F746F6B 
 6635      7000
 6636              	.LASF123:
 6637 0086 636F6E64 		.ascii	"condition\000"
 6637      6974696F 
 6637      6E00
 6638              	.LASF85:
 6639 0090 65786974 		.ascii	"exitcode\000"
 6639      636F6465 
 6639      00
 6640              	.LASF144:
 6641 0099 74657374 		.ascii	"test_tokens_buffer\000"
 6641      5F746F6B 
 6641      656E735F 
 6641      62756666 
 6641      657200
 6642              	.LASF88:
 6643 00ac 73656E74 		.ascii	"sentmsg\000"
 6643      6D736700 
 6644              	.LASF56:
 6645 00b4 76697274 		.ascii	"virtual_timers_list_t\000"
 6645      75616C5F 
 6645      74696D65 
 6645      72735F6C 
 6645      6973745F 
 6646              	.LASF147:
 6647 00ca 49544D5F 		.ascii	"ITM_RxBuffer\000"
 6647      52784275 
ARM GAS  /tmp/ccPF9ufL.s 			page 182


 6647      66666572 
 6647      00
 6648              	.LASF77:
 6649 00d7 42445452 		.ascii	"BDTR\000"
 6649      00
 6650              	.LASF46:
 6651 00dc 63685F74 		.ascii	"ch_threads_queue\000"
 6651      68726561 
 6651      64735F71 
 6651      75657565 
 6651      00
 6652              	.LASF140:
 6653 00ed 74657374 		.ascii	"test_execute\000"
 6653      5F657865 
 6653      63757465 
 6653      00
 6654              	.LASF103:
 6655 00fa 74656172 		.ascii	"teardown\000"
 6655      646F776E 
 6655      00
 6656              	.LASF74:
 6657 0103 43434D52 		.ascii	"CCMR1\000"
 6657      3100
 6658              	.LASF75:
 6659 0109 43434D52 		.ascii	"CCMR2\000"
 6659      3200
 6660              	.LASF79:
 6661 010f 43434D52 		.ascii	"CCMR3\000"
 6661      3300
 6662              	.LASF1:
 6663 0115 7369676E 		.ascii	"signed char\000"
 6663      65642063 
 6663      68617200 
 6664              	.LASF135:
 6665 0121 74657374 		.ascii	"test_emit_token\000"
 6665      5F656D69 
 6665      745F746F 
 6665      6B656E00 
 6666              	.LASF134:
 6667 0131 74657374 		.ascii	"test_println\000"
 6667      5F707269 
 6667      6E746C6E 
 6667      00
 6668              	.LASF15:
 6669 013e 7274636E 		.ascii	"rtcnt_t\000"
 6669      745F7400 
 6670              	.LASF107:
 6671 0146 706F7274 		.ascii	"port_unlock\000"
 6671      5F756E6C 
 6671      6F636B00 
 6672              	.LASF35:
 6673 0152 6D736771 		.ascii	"msgqueue\000"
 6673      75657565 
 6673      00
 6674              	.LASF31:
 6675 015b 73746174 		.ascii	"state\000"
 6675      6500
ARM GAS  /tmp/ccPF9ufL.s 			page 183


 6676              	.LASF9:
 6677 0161 6C6F6E67 		.ascii	"long int\000"
 6677      20696E74 
 6677      00
 6678              	.LASF17:
 6679 016a 74737461 		.ascii	"tstate_t\000"
 6679      74655F74 
 6679      00
 6680              	.LASF133:
 6681 0173 5F746573 		.ascii	"_test_assert_time_window\000"
 6681      745F6173 
 6681      73657274 
 6681      5F74696D 
 6681      655F7769 
 6682              	.LASF55:
 6683 018c 66756E63 		.ascii	"func\000"
 6683      00
 6684              	.LASF76:
 6685 0191 43434552 		.ascii	"CCER\000"
 6685      00
 6686              	.LASF12:
 6687 0196 6C6F6E67 		.ascii	"long long int\000"
 6687      206C6F6E 
 6687      6720696E 
 6687      7400
 6688              	.LASF6:
 6689 01a4 75696E74 		.ascii	"uint16_t\000"
 6689      31365F74 
 6689      00
 6690              	.LASF139:
 6691 01ad 7072696E 		.ascii	"print_tokens\000"
 6691      745F746F 
 6691      6B656E73 
 6691      00
 6692              	.LASF68:
 6693 01ba 72656761 		.ascii	"regarm_t\000"
 6693      726D5F74 
 6693      00
 6694              	.LASF118:
 6695 01c3 6F73616C 		.ascii	"osalOsGetSystemTimeX\000"
 6695      4F734765 
 6695      74537973 
 6695      74656D54 
 6695      696D6558 
 6696              	.LASF34:
 6697 01d8 77616974 		.ascii	"waiting\000"
 6697      696E6700 
 6698              	.LASF128:
 6699 01e0 6F73616C 		.ascii	"osalSysLock\000"
 6699      5379734C 
 6699      6F636B00 
 6700              	.LASF96:
 6701 01ec 6D757465 		.ascii	"mutex_t\000"
 6701      785F7400 
 6702              	.LASF114:
 6703 01f4 76616C75 		.ascii	"value\000"
 6703      6500
ARM GAS  /tmp/ccPF9ufL.s 			page 184


 6704              	.LASF101:
 6705 01fa 42617365 		.ascii	"BaseSequentialStream\000"
 6705      53657175 
 6705      656E7469 
 6705      616C5374 
 6705      7265616D 
 6706              	.LASF22:
 6707 020f 636E745F 		.ascii	"cnt_t\000"
 6707      7400
 6708              	.LASF113:
 6709 0215 63685654 		.ascii	"chVTGetSystemTimeX\000"
 6709      47657453 
 6709      79737465 
 6709      6D54696D 
 6709      655800
 6710              	.LASF0:
 6711 0228 756E7369 		.ascii	"unsigned int\000"
 6711      676E6564 
 6711      20696E74 
 6711      00
 6712              	.LASF89:
 6713 0235 77747365 		.ascii	"wtsemp\000"
 6713      6D7000
 6714              	.LASF155:
 6715 023c 7072696E 		.ascii	"print_line\000"
 6715      745F6C69 
 6715      6E6500
 6716              	.LASF87:
 6717 0247 77747472 		.ascii	"wttrp\000"
 6717      7000
 6718              	.LASF131:
 6719 024d 65787065 		.ascii	"expected\000"
 6719      63746564 
 6719      00
 6720              	.LASF29:
 6721 0256 6E616D65 		.ascii	"name\000"
 6721      00
 6722              	.LASF25:
 6723 025b 71756575 		.ascii	"queue\000"
 6723      6500
 6724              	.LASF39:
 6725 0261 6D706F6F 		.ascii	"mpool\000"
 6725      6C00
 6726              	.LASF72:
 6727 0267 534D4352 		.ascii	"SMCR\000"
 6727      00
 6728              	.LASF42:
 6729 026c 63685F74 		.ascii	"ch_thread\000"
 6729      68726561 
 6729      6400
 6730              	.LASF65:
 6731 0276 76746C69 		.ascii	"vtlist\000"
 6731      737400
 6732              	.LASF66:
 6733 027d 6D61696E 		.ascii	"mainthread\000"
 6733      74687265 
 6733      616400
ARM GAS  /tmp/ccPF9ufL.s 			page 185


 6734              	.LASF20:
 6735 0288 6D73675F 		.ascii	"msg_t\000"
 6735      7400
 6736              	.LASF36:
 6737 028e 6570656E 		.ascii	"epending\000"
 6737      64696E67 
 6737      00
 6738              	.LASF62:
 6739 0297 63685F73 		.ascii	"ch_system_t\000"
 6739      79737465 
 6739      6D5F7400 
 6740              	.LASF121:
 6741 02a3 5F746573 		.ascii	"_test_fail\000"
 6741      745F6661 
 6741      696C00
 6742              	.LASF81:
 6743 02ae 73746D33 		.ascii	"stm32_tim_t\000"
 6743      325F7469 
 6743      6D5F7400 
 6744              	.LASF49:
 6745 02ba 63685F72 		.ascii	"ch_ready_list\000"
 6745      65616479 
 6745      5F6C6973 
 6745      7400
 6746              	.LASF21:
 6747 02c8 6576656E 		.ascii	"eventmask_t\000"
 6747      746D6173 
 6747      6B5F7400 
 6748              	.LASF127:
 6749 02d4 6D736770 		.ascii	"msgp\000"
 6749      00
 6750              	.LASF69:
 6751 02d9 73746B61 		.ascii	"stkalign_t\000"
 6751      6C69676E 
 6751      5F7400
 6752              	.LASF105:
 6753 02e4 74657374 		.ascii	"testcase_t\000"
 6753      63617365 
 6753      5F7400
 6754              	.LASF126:
 6755 02ef 74657374 		.ascii	"test_print\000"
 6755      5F707269 
 6755      6E7400
 6756              	.LASF99:
 6757 02fa 77726974 		.ascii	"write\000"
 6757      6500
 6758              	.LASF38:
 6759 0300 7265616C 		.ascii	"realprio\000"
 6759      7072696F 
 6759      00
 6760              	.LASF67:
 6761 0309 73697A65 		.ascii	"sizetype\000"
 6761      74797065 
 6761      00
 6762              	.LASF40:
 6763 0312 74687265 		.ascii	"thread_reference_t\000"
 6763      61645F72 
ARM GAS  /tmp/ccPF9ufL.s 			page 186


 6763      65666572 
 6763      656E6365 
 6763      5F7400
 6764              	.LASF57:
 6765 0325 63685F76 		.ascii	"ch_virtual_timers_list\000"
 6765      69727475 
 6765      616C5F74 
 6765      696D6572 
 6765      735F6C69 
 6766              	.LASF148:
 6767 033c 74657374 		.ascii	"test_step\000"
 6767      5F737465 
 6767      7000
 6768              	.LASF83:
 6769 0346 746D5F63 		.ascii	"tm_calibration_t\000"
 6769      616C6962 
 6769      72617469 
 6769      6F6E5F74 
 6769      00
 6770              	.LASF70:
 6771 0357 706F7274 		.ascii	"port_context\000"
 6771      5F636F6E 
 6771      74657874 
 6771      00
 6772              	.LASF102:
 6773 0364 73657475 		.ascii	"setup\000"
 6773      7000
 6774              	.LASF132:
 6775 036a 5F746573 		.ascii	"_test_assert_sequence\000"
 6775      745F6173 
 6775      73657274 
 6775      5F736571 
 6775      75656E63 
 6776              	.LASF115:
 6777 0380 74696D65 		.ascii	"time\000"
 6777      00
 6778              	.LASF26:
 6779 0385 7072696F 		.ascii	"prio\000"
 6779      00
 6780              	.LASF50:
 6781 038a 63757272 		.ascii	"current\000"
 6781      656E7400 
 6782              	.LASF120:
 6783 0392 6F73616C 		.ascii	"osalOsIsTimeWithinX\000"
 6783      4F734973 
 6783      54696D65 
 6783      57697468 
 6783      696E5800 
 6784              	.LASF154:
 6785 03a6 2F686F6D 		.ascii	"/home/alex/Embebidos Proyecto/ChibiOS_17.6.1/demos/"
 6785      652F616C 
 6785      65782F45 
 6785      6D626562 
 6785      69646F73 
 6786 03d9 53544D33 		.ascii	"STM32/RT-STM32F100-DISCOVERY\000"
 6786      322F5254 
 6786      2D53544D 
ARM GAS  /tmp/ccPF9ufL.s 			page 187


 6786      33324631 
 6786      30302D44 
 6787              	.LASF136:
 6788 03f6 746F6B65 		.ascii	"token\000"
 6788      6E00
 6789              	.LASF18:
 6790 03fc 74726566 		.ascii	"trefs_t\000"
 6790      735F7400 
 6791              	.LASF33:
 6792 0404 72656673 		.ascii	"refs\000"
 6792      00
 6793              	.LASF52:
 6794 0409 76697274 		.ascii	"virtual_timer_t\000"
 6794      75616C5F 
 6794      74696D65 
 6794      725F7400 
 6795              	.LASF19:
 6796 0419 74707269 		.ascii	"tprio_t\000"
 6796      6F5F7400 
 6797              	.LASF60:
 6798 0421 63685F73 		.ascii	"ch_system_debug\000"
 6798      79737465 
 6798      6D5F6465 
 6798      62756700 
 6799              	.LASF97:
 6800 0431 5F426F6F 		.ascii	"_Bool\000"
 6800      6C00
 6801              	.LASF8:
 6802 0437 696E7433 		.ascii	"int32_t\000"
 6802      325F7400 
 6803              	.LASF4:
 6804 043f 756E7369 		.ascii	"unsigned char\000"
 6804      676E6564 
 6804      20636861 
 6804      7200
 6805              	.LASF104:
 6806 044d 65786563 		.ascii	"execute\000"
 6806      75746500 
 6807              	.LASF5:
 6808 0455 73686F72 		.ascii	"short int\000"
 6808      7420696E 
 6808      7400
 6809              	.LASF58:
 6810 045f 6C617374 		.ascii	"lasttime\000"
 6810      74696D65 
 6810      00
 6811              	.LASF91:
 6812 0468 65776D61 		.ascii	"ewmask\000"
 6812      736B00
 6813              	.LASF63:
 6814 046f 63685F73 		.ascii	"ch_system\000"
 6814      79737465 
 6814      6D00
 6815              	.LASF98:
 6816 0479 42617365 		.ascii	"BaseSequentialStreamVMT\000"
 6816      53657175 
 6816      656E7469 
ARM GAS  /tmp/ccPF9ufL.s 			page 188


 6816      616C5374 
 6816      7265616D 
 6817              	.LASF110:
 6818 0491 63685379 		.ascii	"chSysLock\000"
 6818      734C6F63 
 6818      6B00
 6819              	.LASF129:
 6820 049b 6F73616C 		.ascii	"osalSysUnlock\000"
 6820      53797355 
 6820      6E6C6F63 
 6820      6B00
 6821              	.LASF53:
 6822 04a9 63685F76 		.ascii	"ch_virtual_timer\000"
 6822      69727475 
 6822      616C5F74 
 6822      696D6572 
 6822      00
 6823              	.LASF92:
 6824 04ba 63685F73 		.ascii	"ch_semaphore\000"
 6824      656D6170 
 6824      686F7265 
 6824      00
 6825              	.LASF80:
 6826 04c7 43435852 		.ascii	"CCXR\000"
 6826      00
 6827              	.LASF151:
 6828 04cc 63685468 		.ascii	"chThdSleep\000"
 6828      64536C65 
 6828      657000
 6829              	.LASF108:
 6830 04d7 73745F6C 		.ascii	"st_lld_get_counter\000"
 6830      6C645F67 
 6830      65745F63 
 6830      6F756E74 
 6830      657200
 6831              	.LASF10:
 6832 04ea 75696E74 		.ascii	"uint32_t\000"
 6832      33325F74 
 6832      00
 6833              	.LASF90:
 6834 04f3 77746D74 		.ascii	"wtmtxp\000"
 6834      787000
 6835              	.LASF125:
 6836 04fa 74657374 		.ascii	"test_printn\000"
 6836      5F707269 
 6836      6E746E00 
 6837              	.LASF43:
 6838 0506 63685F74 		.ascii	"ch_threads_list\000"
 6838      68726561 
 6838      64735F6C 
 6838      69737400 
 6839              	.LASF94:
 6840 0516 6F776E65 		.ascii	"owner\000"
 6840      7200
 6841              	.LASF11:
 6842 051c 6C6F6E67 		.ascii	"long unsigned int\000"
 6842      20756E73 
ARM GAS  /tmp/ccPF9ufL.s 			page 189


 6842      69676E65 
 6842      6420696E 
 6842      7400
 6843              	.LASF30:
 6844 052e 77616261 		.ascii	"wabase\000"
 6844      736500
 6845              	.LASF100:
 6846 0535 72656164 		.ascii	"read\000"
 6846      00
 6847              	.LASF95:
 6848 053a 63686172 		.ascii	"char\000"
 6848      00
 6849              	.LASF28:
 6850 053f 6F6C6465 		.ascii	"older\000"
 6850      7200
 6851              	.LASF130:
 6852 0545 6F73616C 		.ascii	"osalThreadSleep\000"
 6852      54687265 
 6852      6164536C 
 6852      65657000 
 6853              	.LASF78:
 6854 0555 444D4152 		.ascii	"DMAR\000"
 6854      00
 6855              	.LASF24:
 6856 055a 74687265 		.ascii	"thread_t\000"
 6856      61645F74 
 6856      00
 6857              	.LASF150:
 6858 0563 74657374 		.ascii	"test_suite\000"
 6858      5F737569 
 6858      746500
 6859              	.LASF137:
 6860 056e 74657374 		.ascii	"test_emit_token_i\000"
 6860      5F656D69 
 6860      745F746F 
 6860      6B656E5F 
 6860      6900
 6861              	.LASF23:
 6862 0580 73797374 		.ascii	"systime_t\000"
 6862      696D655F 
 6862      7400
 6863              	.LASF51:
 6864 058a 76746675 		.ascii	"vtfunc_t\000"
 6864      6E635F74 
 6864      00
 6865              	.LASF111:
 6866 0593 5F5F7365 		.ascii	"__set_BASEPRI\000"
 6866      745F4241 
 6866      53455052 
 6866      4900
 6867              	.LASF61:
 6868 05a1 70616E69 		.ascii	"panic_msg\000"
 6868      635F6D73 
 6868      6700
 6869              	.LASF149:
 6870 05ab 74657374 		.ascii	"test_global_fail\000"
 6870      5F676C6F 
ARM GAS  /tmp/ccPF9ufL.s 			page 190


 6870      62616C5F 
 6870      6661696C 
 6870      00
 6871              	.LASF82:
 6872 05bc 6F666673 		.ascii	"offset\000"
 6872      657400
 6873              	.LASF7:
 6874 05c3 73686F72 		.ascii	"short unsigned int\000"
 6874      7420756E 
 6874      7369676E 
 6874      65642069 
 6874      6E7400
 6875              	.LASF109:
 6876 05d6 706F7274 		.ascii	"port_timer_get_time\000"
 6876      5F74696D 
 6876      65725F67 
 6876      65745F74 
 6876      696D6500 
 6877              	.LASF146:
 6878 05ea 74657374 		.ascii	"test_chp\000"
 6878      5F636870 
 6878      00
 6879              	.LASF142:
 6880 05f3 74657374 		.ascii	"test_local_fail\000"
 6880      5F6C6F63 
 6880      616C5F66 
 6880      61696C00 
 6881              	.LASF27:
 6882 0603 6E657765 		.ascii	"newer\000"
 6882      7200
 6883              	.LASF156:
 6884 0609 74657374 		.ascii	"test_print_port_info\000"
 6884      5F707269 
 6884      6E745F70 
 6884      6F72745F 
 6884      696E666F 
 6885              	.LASF152:
 6886 061e 474E5520 		.ascii	"GNU C 4.8.1 -mcpu=cortex-m3 -mno-thumb-interwork -m"
 6886      4320342E 
 6886      382E3120 
 6886      2D6D6370 
 6886      753D636F 
 6887 0651 7468756D 		.ascii	"thumb -ggdb -O2 -fomit-frame-pointer -falign-functi"
 6887      62202D67 
 6887      67646220 
 6887      2D4F3220 
 6887      2D666F6D 
 6888 0684 6F6E733D 		.ascii	"ons=16 -ffunction-sections -fdata-sections -fno-com"
 6888      3136202D 
 6888      6666756E 
 6888      6374696F 
 6888      6E2D7365 
 6889 06b7 6D6F6E20 		.ascii	"mon -flto\000"
 6889      2D666C74 
 6889      6F00
 6890              	.LASF45:
 6891 06c1 74687265 		.ascii	"threads_queue_t\000"
ARM GAS  /tmp/ccPF9ufL.s 			page 191


 6891      6164735F 
 6891      71756575 
 6891      655F7400 
 6892              	.LASF93:
 6893 06d1 63685F6D 		.ascii	"ch_mutex\000"
 6893      75746578 
 6893      00
 6894              	.LASF138:
 6895 06da 65786563 		.ascii	"execute_test\000"
 6895      7574655F 
 6895      74657374 
 6895      00
 6896              	.LASF64:
 6897 06e7 726C6973 		.ascii	"rlist\000"
 6897      7400
 6898              	.LASF3:
 6899 06ed 75696E74 		.ascii	"uint8_t\000"
 6899      385F7400 
 6900              	.LASF143:
 6901 06f5 74657374 		.ascii	"test_failure_message\000"
 6901      5F666169 
 6901      6C757265 
 6901      5F6D6573 
 6901      73616765 
 6902              	.LASF124:
 6903 070a 5F5F6675 		.ascii	"__func__.5200\000"
 6903      6E635F5F 
 6903      2E353230 
 6903      3000
 6904              	.LASF32:
 6905 0718 666C6167 		.ascii	"flags\000"
 6905      7300
 6906              	.LASF153:
 6907 071e 2E2E2F2E 		.ascii	"../../../test/lib/ch_test.c\000"
 6907      2E2F2E2E 
 6907      2F746573 
 6907      742F6C69 
 6907      622F6368 
 6908              	.LASF117:
 6909 073a 636C6561 		.ascii	"clear_tokens\000"
 6909      725F746F 
 6909      6B656E73 
 6909      00
 6910              	.LASF86:
 6911 0747 77746F62 		.ascii	"wtobjp\000"
 6911      6A7000
 6912              	.LASF122:
 6913 074e 5F746573 		.ascii	"_test_assert\000"
 6913      745F6173 
 6913      73657274 
 6913      00
 6914              	.LASF41:
 6915 075b 74687265 		.ascii	"threads_list_t\000"
 6915      6164735F 
 6915      6C697374 
 6915      5F7400
 6916              	.LASF119:
ARM GAS  /tmp/ccPF9ufL.s 			page 192


 6917 076a 63685654 		.ascii	"chVTIsTimeWithinX\000"
 6917      49735469 
 6917      6D655769 
 6917      7468696E 
 6917      5800
 6918              	.LASF16:
 6919 077c 746D6F64 		.ascii	"tmode_t\000"
 6919      655F7400 
 6920              	.LASF112:
 6921 0784 63685379 		.ascii	"chSysUnlock\000"
 6921      73556E6C 
 6921      6F636B00 
 6922              	.LASF116:
 6923 0790 73746172 		.ascii	"start\000"
 6923      7400
 6924              	.LASF37:
 6925 0796 6D74786C 		.ascii	"mtxlist\000"
 6925      69737400 
 6926              		.comm	__gnu_lto_v1,1,1
 6927              		.ident	"GCC: (Sourcery CodeBench Lite 2013.11-24) 4.8.1"
ARM GAS  /tmp/ccPF9ufL.s 			page 193


DEFINED SYMBOLS
                            *ABS*:00000000 ch_test.c
     /tmp/ccPF9ufL.s:1023   .text.print_line:00000000 $t
     /tmp/ccPF9ufL.s:1028   .text.print_line:00000000 print_line
     /tmp/ccPF9ufL.s:2365   .bss.test_chp:00000000 .LANCHOR0
     /tmp/ccPF9ufL.s:2307   .rodata.str1.4:00000000 .LC0
     /tmp/ccPF9ufL.s:1077   .text._test_fail:00000000 $t
     /tmp/ccPF9ufL.s:1083   .text._test_fail:00000000 _test_fail
     /tmp/ccPF9ufL.s:2300   .bss.test_local_fail:00000000 .LANCHOR1
     /tmp/ccPF9ufL.s:2294   .bss.test_failure_message:00000000 .LANCHOR3
     /tmp/ccPF9ufL.s:2392   .bss.test_global_fail:00000000 .LANCHOR2
     /tmp/ccPF9ufL.s:1124   .text._test_assert:00000000 $t
     /tmp/ccPF9ufL.s:1130   .text._test_assert:00000000 _test_assert
     /tmp/ccPF9ufL.s:1183   .text._test_assert_sequence:00000000 $t
     /tmp/ccPF9ufL.s:1189   .text._test_assert_sequence:00000000 _test_assert_sequence
     /tmp/ccPF9ufL.s:2372   .bss.test_tokp:00000000 .LANCHOR5
     /tmp/ccPF9ufL.s:2386   .bss.test_tokens_buffer:00000000 .LANCHOR4
     /tmp/ccPF9ufL.s:1271   .text._test_assert_time_window:00000000 $t
     /tmp/ccPF9ufL.s:1277   .text._test_assert_time_window:00000000 _test_assert_time_window
     /tmp/ccPF9ufL.s:1368   .text.test_printn:00000000 $t
     /tmp/ccPF9ufL.s:1374   .text.test_printn:00000000 test_printn
     /tmp/ccPF9ufL.s:1466   .text.test_print:00000000 $t
     /tmp/ccPF9ufL.s:1472   .text.test_print:00000000 test_print
     /tmp/ccPF9ufL.s:1512   .text.test_println:00000000 $t
     /tmp/ccPF9ufL.s:1518   .text.test_println:00000000 test_println
     /tmp/ccPF9ufL.s:1575   .text.test_emit_token:00000000 $t
     /tmp/ccPF9ufL.s:1581   .text.test_emit_token:00000000 test_emit_token
     /tmp/ccPF9ufL.s:1634   .text.test_emit_token:00000024 $d
     /tmp/ccPF9ufL.s:1645   .text.test_emit_token_i:00000000 $t
     /tmp/ccPF9ufL.s:1651   .text.test_emit_token_i:00000000 test_emit_token_i
     /tmp/ccPF9ufL.s:1674   .text.test_emit_token_i:00000018 $d
     /tmp/ccPF9ufL.s:1679   .text.test_execute:00000000 $t
     /tmp/ccPF9ufL.s:1685   .text.test_execute:00000000 test_execute
     /tmp/ccPF9ufL.s:2310   .rodata.str1.4:00000004 .LC1
     /tmp/ccPF9ufL.s:2313   .rodata.str1.4:00000008 .LC2
     /tmp/ccPF9ufL.s:2316   .rodata.str1.4:00000024 .LC3
     /tmp/ccPF9ufL.s:2318   .rodata.str1.4:00000028 .LC4
     /tmp/ccPF9ufL.s:2344   .rodata.str1.4:000000ac .LC14
     /tmp/ccPF9ufL.s:2347   .rodata.str1.4:000000c4 .LC15
     /tmp/ccPF9ufL.s:2350   .rodata.str1.4:000000d8 .LC16
     /tmp/ccPF9ufL.s:2352   .rodata.str1.4:000000fc .LC17
     /tmp/ccPF9ufL.s:2321   .rodata.str1.4:0000003c .LC5
     /tmp/ccPF9ufL.s:2324   .rodata.str1.4:00000054 .LC6
     /tmp/ccPF9ufL.s:2355   .rodata.str1.4:00000110 .LC18
     /tmp/ccPF9ufL.s:2327   .rodata.str1.4:00000064 .LC7
     /tmp/ccPF9ufL.s:2330   .rodata.str1.4:00000068 .LC8
     /tmp/ccPF9ufL.s:2379   .bss.test_step:00000000 .LANCHOR6
     /tmp/ccPF9ufL.s:2358   .rodata.str1.4:00000114 .LC19
     /tmp/ccPF9ufL.s:2333   .rodata.str1.4:00000080 .LC9
     /tmp/ccPF9ufL.s:2335   .rodata.str1.4:00000084 .LC10
     /tmp/ccPF9ufL.s:2361   .rodata.str1.4:00000118 .LC20
     /tmp/ccPF9ufL.s:2342   .rodata.str1.4:000000a4 .LC13
     /tmp/ccPF9ufL.s:2338   .rodata.str1.4:00000088 .LC11
     /tmp/ccPF9ufL.s:2340   .rodata.str1.4:0000009c .LC12
     /tmp/ccPF9ufL.s:2286   .text.test_execute:000002f8 $d
     /tmp/ccPF9ufL.s:2395   .bss.test_global_fail:00000000 test_global_fail
     /tmp/ccPF9ufL.s:2382   .bss.test_step:00000000 test_step
ARM GAS  /tmp/ccPF9ufL.s 			page 194


     /tmp/ccPF9ufL.s:2293   .bss.test_failure_message:00000000 $d
     /tmp/ccPF9ufL.s:2297   .bss.test_failure_message:00000000 test_failure_message
     /tmp/ccPF9ufL.s:2303   .bss.test_local_fail:00000000 test_local_fail
     /tmp/ccPF9ufL.s:2304   .bss.test_local_fail:00000000 $d
     /tmp/ccPF9ufL.s:2306   .rodata.str1.4:00000000 $d
     /tmp/ccPF9ufL.s:2364   .bss.test_chp:00000000 $d
     /tmp/ccPF9ufL.s:2368   .bss.test_chp:00000000 test_chp
     /tmp/ccPF9ufL.s:2371   .bss.test_tokp:00000000 $d
     /tmp/ccPF9ufL.s:2375   .bss.test_tokp:00000000 test_tokp
     /tmp/ccPF9ufL.s:2378   .bss.test_step:00000000 $d
     /tmp/ccPF9ufL.s:2385   .bss.test_tokens_buffer:00000000 $d
     /tmp/ccPF9ufL.s:2389   .bss.test_tokens_buffer:00000000 test_tokens_buffer
     /tmp/ccPF9ufL.s:2396   .bss.test_global_fail:00000000 $d
                            *COM*:00000001 __gnu_lto_v1
                     .debug_frame:00000010 $d
     /tmp/ccPF9ufL.s:1644   .text.test_emit_token:00000028 $t
     /tmp/ccPF9ufL.s:1678   .text.test_emit_token_i:0000001c $t
     /tmp/ccPF9ufL.s:2292   .text.test_execute:000002fc $t

UNDEFINED SYMBOLS
test_suite
test_print_port_info
chThdSleep
