ARM GAS  /tmp/ccsGLxLb.s 			page 1


   1              		.syntax unified
   2              		.cpu cortex-m3
   3              		.fpu softvfp
   4              		.eabi_attribute 20, 1
   5              		.eabi_attribute 21, 1
   6              		.eabi_attribute 23, 3
   7              		.eabi_attribute 24, 1
   8              		.eabi_attribute 25, 1
   9              		.eabi_attribute 26, 1
  10              		.eabi_attribute 30, 2
  11              		.eabi_attribute 34, 1
  12              		.eabi_attribute 18, 4
  13              		.thumb
  14              		.file	"chdynamic.c"
  15              		.text
  16              	.Ltext0:
  17              		.section	.gnu.lto_.jmpfuncs.d2dfcb0557c62d59,"",%progbits
  18 0000 789C6362 		.ascii	"x\234cb`b\300\006\"\2404\023\203=\023\003#c\007S\004"
  18      6062C006 
  18      22A03413 
  18      833D1303 
  18      23630753 
  19 0015 63262303 		.ascii	"c&#\003#\003\230f\004J\000133\220.cd\000R\214e\014\020"
  19      23039866 
  19      044A0031 
  19      3333902E 
  19      63640052 
  20 002d 29260E20 		.ascii	")&\016 G\036I\013\023\212\026F\250\026\006\000f\372"
  20      471E490B 
  20      138A1646 
  20      A8160600 
  20      66FA
  21 003f 0732     		.ascii	"\0072"
  22              		.text
  23              		.section	.gnu.lto_.inline.d2dfcb0557c62d59,"",%progbits
  24 0000 789C6362 		.ascii	"x\234cb`b\300\006\302\2414\023\203\204\224\021#\003"
  24      6062C006 
  24      C2A13413 
  24      83849411 
  24      2303
  25 0012 93C48A2D 		.ascii	"\223\304\212-\214\014l\013\344\301\252\231y\200\022"
  25      8C0C6C0B 
  25      E4C1AA99 
  25      798012
  26 0021 13FCC034 		.ascii	"\023\374\3004#\003+\037Pd\202\037\220\317\010Q+}\355"
  26      23032B1F 
  26      5064821F 
  26      90CF0851 
  26      2B7DED
  27 0034 142303FB 		.ascii	"\024#\003\373-5,j\301$\220\007\000\372L\012\354"
  27      2D352C6A 
  27      C1249007 
  27      00FA4C0A 
  27      EC
  28              		.text
  29              		.section	.gnu.lto_.pureconst.d2dfcb0557c62d59,"",%progbits
  30 0000 789C6362 		.ascii	"x\234cb`b`e\200\000&\006+F+\000\001\206\000\201"
ARM GAS  /tmp/ccsGLxLb.s 			page 2


  30      60626065 
  30      80002606 
  30      2B462B00 
  30      01860081 
  31              		.text
  32              		.section	.gnu.lto_chThdCreateFromHeap.d2dfcb0557c62d59,"",%progbits
  33 0000 789C8D54 		.ascii	"x\234\215T_H\034G\030\377\276\231]\357\232\323\250m"
  33      5F481C47 
  33      18FFBE99 
  33      5DEF9AD3 
  33      A86D
  34 0012 6CFE10F4 		.ascii	"l\376\020\364\020\204\2246nK\013ym\361I\202/1B\233\027"
  34      10849436 
  34      6E4B0B79 
  34      6DF14982 
  34      2F31429B 
  35 0027 59C74317 		.ascii	"Y\307C\027r\236\334^\022%\204LO+\226\226\"B\310\037"
  35      729EDC5E 
  35      1225844C 
  35      4F2B9696 
  35      2242C81F 
  36 003b 09890413 		.ascii	"\011\211\004\023\222\006,)m\365\241d\363\0071&\032\322"
  36      92062C29 
  36      6DF5A164 
  36      F3073126 
  36      1AD2
  37 004d A7F621F4 		.ascii	"\247\366!\364\300\207\246\025\032\202\205\206$\324~"
  37      C087A615 
  37      1A828586 
  37      24D47E
  38 005c B3B3BB9E 		.ascii	"\263\263\273\236\307Q\273z3;3\277\337|\277\375}\337"
  38      C751BB7A 
  38      333B33BF 
  38      DF7CBFFD 
  38      7DDF
  39 006e 0C0306A5 		.ascii	"\014\003\006\245\317\373\364\0331\001\026\251G\023\220"
  39      CFFBF41B 
  39      310116A9 
  39      471390
  40 007d 8D2D017C 		.ascii	"\215-\001|\032g\314X\340 \267\360\271\005\000Y\311\321"
  40      1A67CC58 
  40      E020B7F0 
  40      B9050059 
  40      C9D1
  41 008f D0F306A2 		.ascii	"\320\363\006\242z\001\204\223\214\033x\362\023T\233"
  41      7A018493 
  41      8C1B78F2 
  41      13549B
  42 009e F0469894 		.ascii	"\360F\230\224r\2740\265\362\004\317Jo\370\242|\265\266"
  42      72BC30B5 
  42      F204CF4A 
  42      6FF8A27C 
  42      B5B6
  43 00b0 86E82005 		.ascii	"\206\350 \005lD\020\010\037\323\000\223~\307\214\215"
  43      6C441008 
  43      1FD30093 
  43      7EC78C8D 
ARM GAS  /tmp/ccsGLxLb.s 			page 3


  44 00c0 0A34D77B 		.ascii	"\0124\327{<\367\345Ny1?&\377!\252\203\234A\323\377a"
  44      3CF7E54E 
  44      79313F26 
  44      FF21AA83 
  44      9C41D3FF 
  45 00d5 7A63DECB 		.ascii	"zc\336\313\271\323X\3044\030\274\265\316\364t\317vl"
  45      B9D358C4 
  45      3418BCB5 
  45      CEF474CF 
  45      766C
  46 00e7 A44E33AF 		.ascii	"\244N3\257\260\266\366\340\273\231\345\025\254\335\215"
  46      B0B6F6E0 
  46      BB99E515 
  46      ACDD8D
  47 00f6 40520D4C 		.ascii	"@R\015L#\230\324`\014l\274\204\215\020\247\001K\320"
  47      2398D460 
  47      0C6CBC84 
  47      8D10A701 
  47      4BD0
  48 0108 9A59456F 		.ascii	"\232YEo\274\232\032\243\226\032\263\216\000\223\004"
  48      BC9A1AA3 
  48      961AB38E 
  48      009304
  49 0117 A0C78461 		.ascii	"\240\307\204a)\307\222z\254i6N\371k\302\367\346 \265"
  49      29C7927A 
  49      AC69364E 
  49      F96BC2F7 
  49      E620B5
  50 012a CAB20E64 		.ascii	"\312\262\016d\252\347\017a\2440\263\2146^!\273{0v\034"
  50      AAE70F61 
  50      A430B38C 
  50      365E21BB 
  50      7B30761C 
  51 013e 5EC85159 		.ascii	"^\310QY\343`\205@\237@\223F\017\232Ju,N\301\343\000"
  51      E3608540 
  51      9F409346 
  51      0F9A4A75 
  51      2C4EC1E3 
  52 0153 F78069BC 		.ascii	"\367\200i\274\016@,\200y\270\373\333\255\325\021\036"
  52      0E402C80 
  52      79B8FBDB 
  52      ADD5111E 
  53 0163 6DA408BC 		.ascii	"m\244\010\274\370\033;hH\351\343\213\220\277?\363\364"
  53      F81B3B68 
  53      48E9E38B 
  53      90BF3FF3 
  53      F4
  54 0174 79B0C5DB 		.ascii	"y\260\305\333pMJ\025\3575\255\263K\007\245\035\342\252"
  54      704D4A15 
  54      EF35ADB3 
  54      4B07A51D 
  54      E2AA
  55 0186 0AF2AD25 		.ascii	"\012\362\255%03\204\205\342b\0126\364\305\320\245\257"
  55      30338485 
  55      E2620A36 
  55      F4C5D0A5 
  55      AF
ARM GAS  /tmp/ccsGLxLb.s 			page 4


  56 0197 CC307682 		.ascii	"\3140v\202fI\262\317\277W&T\264\007\013\366H\370\320"
  56      6649B2CF 
  56      BF572654 
  56      B4070BF6 
  56      48F8D0
  57 01aa FD25B02D 		.ascii	"\375%\260-!\214\007\260\252\262\260D\0103\002XuY\030"
  57      218C07B0 
  57      AAB2B044 
  57      08330258 
  57      755918
  58 01bd 0F616600 		.ascii	"\017af\000\253UF\346\343a\305\025f\257.\336\302\361"
  58      AB5546E6 
  58      E361C515 
  58      66AF2EDE 
  58      C2F1
  59 01cf 21392F87 		.ascii	"!9/\207=\252\234\006\007+\031\034\332\254\350\324\\"
  59      3DAA9C06 
  59      072B191C 
  59      DAACE8D4 
  59      5C
  60 01e0 65925E96 		.ascii	"e\222^\226 \377l~\350\362\256\240\002\302R\360V\177"
  60      20FF6C7E 
  60      E8F2AEA0 
  60      02C252F0 
  60      567F
  61 01f2 9AE07B6C 		.ascii	"\232\340{l\234\366k \230\373\372\324\363\304\356h\364"
  61      9CF66B20 
  61      98FBFAD4 
  61      F3C4EE68 
  61      F4
  62 0203 F99FE4A5 		.ascii	"\371\237\344\245V+\310\022A\337+\364\307 \375\335\240"
  62      562BC812 
  62      41DF2BF4 
  62      C720FDDD 
  62      A0
  63 0214 21F9C4F5 		.ascii	"!\371\304\365a\255\207;x^\236\371\320Qf\024E__\237\013"
  63      61AD873B 
  63      785E9EF9 
  63      D0516614 
  63      455F5F9F 
  64 0229 D6B76A7D 		.ascii	"\326\267j}\017a\270\360\370NT_uQ}U\213\300\0115C\317"
  64      0F61B8F0 
  64      F84E545F 
  64      75517D55 
  64      8BC00935 
  65 023f 09076BB4 		.ascii	"\011\007k\264E\032K\245\246\035\362*\302b\233\364\213"
  65      451A4BA5 
  65      A61DF22A 
  65      C2629BF4 
  65      8B
  66 0250 ADCEB777 		.ascii	"\255\316\267w\346\347\277\237`\261\3052\341\340\353"
  66      E6E7BF9F 
  66      60B1C532 
  66      E1E0EB
  67 025f 13708E14 		.ascii	"\023p\216\024\275A \245L+\350\302\212\310\251m\350K"
  67      BD4120A5 
  67      4C2BE8C2 
ARM GAS  /tmp/ccsGLxLb.s 			page 5


  67      8AC8A96D 
  67      E84B
  68 0271 FAACF0EB 		.ascii	"\372\254\360\353r,\010\003\221\242:\021 \003\372\233"
  68      722C0803 
  68      91A23A11 
  68      2003FA9B 
  69 0281 4AC3F6D2 		.ascii	"J\303\366\322,\375\276T\232%\033\277\361m\3334M\360"
  69      2CFDBE54 
  69      9A251BBF 
  69      F16DDB34 
  69      4DF0
  70 0293 5F69FAE3 		.ascii	"_i\372\343\274J\323\315\215i\272PU\037\235\351\365|"
  70      BC4AD3CD 
  70      8D69BA50 
  70      551F9DE9 
  70      F57C
  71 02a5 FD5594AF 		.ascii	"\375U\224\257\030\370G;^&e6~O/Q\3440E6\316b}\361\261"
  71      18F8473B 
  71      5E266536 
  71      7E4F2F51 
  71      E4304536 
  72 02be 34FC8B60 		.ascii	"4\374\213`\021n\257D\307Z\245\341\003\370V\216\252\013"
  72      116EAF44 
  72      C75AA5E1 
  72      03F8568E 
  72      AA0B
  73 02d0 8C408FE8 		.ascii	"\214@\217\350\256U\276\370\226\376\002\030\270\313\256"
  73      AE55BEF8 
  73      96FE0218 
  73      B8CBAE
  74 02df FFB08DCC 		.ascii	"\377\260\215\314\342\327\177\254T7\013\252\215T\214"
  74      E2D77FAC 
  74      54370BAA 
  74      8D548C
  75 02ee 86E6664B 		.ascii	"\206\346fK\377g\\+\233\263\334\254\260Do\367`\237\235"
  75      FF675C2B 
  75      9BB3DCAC 
  75      B0446FF7 
  75      609F9D
  76 0301 7644B300 		.ascii	"vD\263\000\226\353\347\307\334~\226\353\336[\214\024"
  76      96EBE7C7 
  76      DC7E96EB 
  76      DE5B8C14 
  77 0311 99743AD3 		.ascii	"\231t:\323g\365g\2629\327\372\350@[K\333\000\321D&\233"
  77      67F567B2 
  77      39D7FAE8 
  77      405B4BDB 
  77      00D14426 
  78 0326 EA3CBA2F 		.ascii	"\352<\272/\335\334\013\346Q\373\360\221\324{e8\251\201"
  78      DDDC0BE6 
  78      51FBF091 
  78      D47B6538 
  78      A981
  79 0338 9CD5D2D6 		.ascii	"\234\325\322\326\336\332n9}\342\360\221\356\224%\322"
  79      DEDA6E39 
  79      7DE2F091 
  79      EE9425D2 
ARM GAS  /tmp/ccsGLxLb.s 			page 6


  80 0348 AEE376F6 		.ascii	"\256\343v\366\010A\274R=\021\246\327\035ti\275\246\255"
  80      0841BC52 
  80      3D11A6D7 
  80      1D7469BD 
  80      A6AD
  81 035a FD40B2CB 		.ascii	"\375@\262\313vS\375Y\347\235d\323\273\300\262\020K\247"
  81      7653FD59 
  81      E79D64D3 
  81      BBC0B210 
  81      4BA7
  82 036c D299EC20 		.ascii	"\322\231\354 \374\013\033\373\201\356"
  82      FC0B1BFB 
  82      81EE
  83              		.text
  84              		.section	.gnu.lto_chThdCreateFromMemoryPool.d2dfcb0557c62d59,"",%progbits
  85 0000 789C8D54 		.ascii	"x\234\215T[hTG\030\376\377\231\263\2731\2334\211\032"
  85      5B685447 
  85      18FEFF99 
  85      B3BB319B 
  85      34891A
  86 0013 ABD2C625 		.ascii	"\253\322\306% \324\2529\212\202\257\026\237D\362b\024"
  86      20D4AA39 
  86      8A82AF16 
  86      9F44F262 
  86      14
  87 0024 DABEC8C9 		.ascii	"\332\276\310\311d1\007<\331\260g\275\004\021\307M\004"
  87      6431073C 
  87      D9B067BD 
  87      0411C74D 
  87      04
  88 0035 6F0F4110 		.ascii	"o\017A\020o\210\006Q\321J\245\351CS\332\207\343\225"
  88      6F880651 
  88      D14AA5E9 
  88      4353DA87 
  88      E395
  89 0047 24BA1185 		.ascii	"$\272\021\205\242\021\204}\0115-\024\252>x\303\370\317"
  89      A211847D 
  89      09352D14 
  89      AA3E78C3 
  89      F8CF
  90 0059 9C8B9B75 		.ascii	"\234\213\233uQO\2623gf\276o\376o\276\377?\303\200A\371"
  90      514FB233 
  90      6766BE6F 
  90      FE6FBEFF 
  90      3FC38041 
  91 006e B3827E4F 		.ascii	"\263\202~Oc\000\005\3521\006\310\372\307\000\366T1f"
  91      630005EA 
  91      3106C8FA 
  91      C700F654 
  91      3166
  92 0080 8C7290D5 		.ascii	"\214r\220\325\374\326(\200\254\341h\370\363\006\242"
  92      FCD62880 
  92      ACE168F8 
  92      F306A2
  93 008f 7A0184DD 		.ascii	"z\001\204\335\214\033\270\373\007T\233\360f\030\220"
  93      8C1BB8FB 
  93      07549BF0 
ARM GAS  /tmp/ccsGLxLb.s 			page 7


  93      661890
  94 009e F27071E2 		.ascii	"\362pq\342\322$\036\227^\337\031\371fj\012\321F\012"
  94      D2241E97 
  94      5EDF19F9 
  94      666A0AD1 
  94      460A
  95 00b0 D88C2010 		.ascii	"\330\214 \020\276\247\001\246t\307\214\351\012|\256"
  95      BEA701A6 
  95      74C78CE9 
  95      0A7CAE
  96 00bf 373E7A68 		.ascii	"7>zh\236<\223\357\227o\211j#g\260\360s\230^\277\367"
  96      9E3C93EF 
  96      976F896A 
  96      2367B0F0 
  96      73985EBF 
  97 00d4 7AF42896 		.ascii	"z\364(\2260\015\006\213\3363=\277gs\247S\2570\25785"
  97      300D068B 
  97      DE333DBF 
  97      6773A753 
  97      AF30AF38 
  98 00e9 75F9AF27 		.ascii	"u\371\257'\207\356\340\317\354k\004\322j\240\203\020"
  98      87EEE0CF 
  98      EC6B04D2 
  98      6AA08310 
  99 00f9 070BCF62 		.ascii	"\007\013\317b3$h\200\3254\035KR\023\257\245!\253\243"
  99      33246880 
  99      D5341D4B 
  99      5213AFA5 
  99      21ABA3
 100 010c 86375063 		.ascii	"\2067Pc4\022j\200P\364\304\240O\312\376\224?\366\271"
 100      34126A80 
 100      50F4C4A0 
 100      4FCAFE94 
 100      3FF6B9
 101 011f 0EC62C3C 		.ascii	"\016\306,<\247\227\205\366g\003\265\312\266\215\310"
 101      A79785F6 
 101      6703B5CA 
 101      B68DC8
 102 012e 54CFEF42 		.ascii	"T\317\357B_qh\002-\274@\226o\306\370Nx%\367\311z\033"
 102      5F716802 
 102      2DBC4096 
 102      6FC6F84E 
 102      7825F7C9 
 103 0144 13023581 		.ascii	"\023\0025\201&\015\033\253\000F\200\371(\177g\302\002"
 103      260D1BAB 
 103      004680F9 
 103      287F67C2 
 103      02
 104 0155 0CC38DBF 		.ascii	"\014\303\215\277\257>;\300#\272: /=\335F\032R\342x\001"
 104      AF3E3BC0 
 104      23BA3A20 
 104      2F3DDD46 
 104      1A52E278 
 105 016a F2B787AE 		.ascii	"\362\267\207\256\274\014\266X\014\227\244TQf\370\352"
 105      BC0CB658 
 105      0C97A454 
 105      5166F8EA 
ARM GAS  /tmp/ccsGLxLb.s 			page 8


 106 017a DAFD50B4 		.ascii	"\332\375P\264CB\345?\277\266\014\026\017a\241\244\270"
 106      4342E53F 
 106      BFB60C16 
 106      0F61A1A4 
 106      B8
 107 018b 863D3A36 		.ascii	"\206=:68n\204\261\253\027\303\2676V\237\204\023{\210"
 107      386E84B1 
 107      AB17C3B7 
 107      36569F84 
 107      137B88
 108 019e 749A8424 		.ascii	"t\232\204$I\272\022T\243I\355\030\226\\\001z\017\366"
 108      49BA1254 
 108      A349ED18 
 108      965C017A 
 108      0FF6
 109 01b0 CE097984 		.ascii	"\316\011y\204\212\023[o8RAb\024\233\007\261\223\032"
 109      8A135B6F 
 109      38524162 
 109      149B07B1 
 109      931A
 110 01c2 BAAE0C56 		.ascii	"\272\256\014V\033\302\214\000V[\021\366E\010\213\005"
 110      1BC28C00 
 110      565B11F6 
 110      45088B05 
 111 01d2 B0BA8A30 		.ascii	"\260\272\2120\036\302\342\001\254A% _\025\326h\361\367"
 111      1EC2E201 
 111      AC412520 
 111      5F15D668 
 111      F1F7
 112 01e4 8B85AB78 		.ascii	"\213\205\253x\270W\016\313>\217jm\201\215u\014~\374"
 112      B8570ECB 
 112      3E8F6A6D 
 112      818D750C 
 112      7EFC
 113 01f6 5499AAB9 		.ascii	"T\231\252\271\272\024\275\214A\376\377\341\336\363\363"
 113      BA14BD8C 
 113      41FEFFE1 
 113      DEF3F3
 114 0205 8392096B 		.ascii	"\203\222\011k\307{v\377$\377\306\302_t\305\004s?\035"
 114      C77B76FF 
 114      24FFC6C2 
 114      5F74C504 
 114      733F1D
 115 0218 7991FC2A 		.ascii	"y\221\374*\032\355\377\217l\364\325\012rT\220-\302?"
 115      1AEDFF8F 
 115      6CF4D50A 
 115      7254902D 
 115      C23F
 116 022a 33D2DF20 		.ascii	"3\322\337 \015i\235\373\237w\023\\\307S\362\330j\033"
 116      0D699DFB 
 116      9F77135C 
 116      C753F2D8 
 116      6A1B
 117 023c EBA7457F 		.ascii	"\353\247E\177\277~+Xo\360\365\251j||3\252\306\306\250"
 117      BF7E2B58 
 117      6FF0F5A9 
 117      6A7C7C33 
ARM GAS  /tmp/ccsGLxLb.s 			page 9


 117      AAC6C6A8 
 118 0250 1A678AC0 		.ascii	"\032g\212\30005C\317.\033g\371\026\371X\3720fk\207\274"
 118      303543CF 
 118      2E1B67F9 
 118      16F958FA 
 118      30666B87 
 119 0265 7858A403 		.ascii	"xX\244\003\272H\033\265\275C\017\177\233\304R\213e\322"
 119      BA481BB5 
 119      BD430F7F 
 119      9BC4528B 
 119      65D2
 120 0277 C6462A15 		.ascii	"\306F*\025R4\207@J\031\004U\222\210\234\372\222\351"
 120      52348740 
 120      4A190455 
 120      92889CFA 
 120      92E9
 121 0289 62C9DF7E 		.ascii	"b\311\337~Q\201\315+\263\253\302oF\035fo\361\311D\""
 121      5181CD2B 
 121      B3ABC26F 
 121      461D666F 
 121      F1C94422 
 122 029d 1008D159 		.ascii	"\020\010\321Y\346\212(\253\232:O\251\237_\236\337\311"
 122      E68A28AB 
 122      9A3A4FA9 
 122      9F5F9EDF 
 122      C9
 123 02ae B1F2FC5A 		.ascii	"\261\362\374Z8\250\015\377d\202\341c\011\376\347\224"
 123      38A80DFF 
 123      6482E163 
 123      09FEE794 
 124 02be 4AF0F5E9 		.ascii	"J\360\365\351\011>]\333\024]\037\321\364\310\363\222"
 124      093E5DDB 
 124      145D1FD1 
 124      F4C8F392 
 125 02ce 4C6B5704 		.ascii	"LkW\004\035\357\303d[8D/Q\3440\271\026\376\201M\245"
 125      1DEFC364 
 125      5B38442F 
 125      51E430B9 
 125      16FE814D 
 126 02e3 1781A12F 		.ascii	"\027\201\241/\234\002\\\3737\272HT\002W\302\257r\237"
 126      9C025CFB 
 126      37BA4854 
 126      0257C2AF 
 126      729F
 127 02f5 BA2C0974 		.ascii	"\272,\011t\217\356u\345\213\266s\0340p\226]~0\233\314"
 127      8FEE75E5 
 127      8BB6731C 
 127      3070965D 
 127      7E309BCC 
 128 0309 E27F3EAE 		.ascii	"\342\177>\256Q7\030\252\215T\214\005--\246\377\237q"
 128      513718AA 
 128      8D548C05 
 128      2D2DA6FF 
 128      9F71
 129 031b CD6CCE74 		.ascii	"\315l\316t\263\302\024\235\035=]\226c\213\026\001,\327"
 129      B3C2149D 
 129      1D3D5D96 
ARM GAS  /tmp/ccsGLxLb.s 			page 10


 129      638B1601 
 129      2CD7
 130 032d CDB7BBDD 		.ascii	"\315\267\273\335,\327\261\264\024)2\216\223\3512\273"
 130      2CD7B1B4 
 130      1429328E 
 130      93E932BB 
 131 033d 33D99C6B 		.ascii	"3\331\234k~\267\276uM\353\016\242\211L6\275i\333*\247"
 131      7EB7BE75 
 131      4DEB0EA2 
 131      894C36BD 
 131      69DB2AA7 
 132 0351 A51362DB 		.ascii	"\245\023b\333\254-[\323\313+p\322;r\346\232\326\266"
 132      AC2D5BD3 
 132      CB2B70D2 
 132      3B72E69A 
 132      D6B6
 133 0363 B56DA6DD 		.ascii	"\265m\246\335%\266l\355H\233\302qmw\323f!\210W\256'"
 133      25B66CED 
 133      489BC271 
 133      6D77D366 
 133      218857AE 
 134 0378 C274BA3D 		.ascii	"\302t\272=.\255\327\267\266\255O\265[n\272;k/I-\\\006"
 134      2EADD7B7 
 134      B6AD4FB5 
 134      5B6EBA3B 
 134      6B2F492D 
 135 038e 2C0B0927 		.ascii	",\013\011'\355d\262=\360\016\241+\232_"
 135      ED64B23D 
 135      F00EA12B 
 135      9A5F
 136              		.text
 137              		.section	.gnu.lto_.symbol_nodes.d2dfcb0557c62d59,"",%progbits
 138 0000 789C45CD 		.ascii	"x\234E\315\273\015\2000\014\004\320;;\254\301\252\216"
 138      BB0D8030 
 138      0C04D03B 
 138      3BACC1AA 
 138      8E
 139 0011 940244C5 		.ascii	"\224\002D\305\0044\331\202\237\230\200\031\220\230\003"
 139      0434D982 
 139      9F988019 
 139      909803
 140 0020 44F888B8 		.ascii	"D\370\210\2709\275\273\302\002A\215\357\244\247\001"
 140      39BDBBC2 
 140      02418DEF 
 140      A4A701
 141 002f ED0A9875 		.ascii	"\355\012\230u5e\2401\2233M^zON4\315\032i.k\241\025\277"
 141      3565A031 
 141      93334D5E 
 141      7A4F4E34 
 141      CD1A692E 
 142 0047 140E613B 		.ascii	"\024\016a;S*Bu\224\232^\356w\262x\373\264\304\307\202"
 142      532A4275 
 142      949A5EEE 
 142      77B278FB 
 142      B4C4C782 
 143 005b D81C252E 		.ascii	"\330\034%.\017\226(\261"
 143      0F9628B1 
ARM GAS  /tmp/ccsGLxLb.s 			page 11


 144              		.text
 145              		.section	.gnu.lto_.refs.d2dfcb0557c62d59,"",%progbits
 146 0000 789C6362 		.ascii	"x\234cb`b`d\200\002\000\000F\000\006"
 146      60626064 
 146      80020000 
 146      460006
 147              		.text
 148              		.section	.gnu.lto_.decls.d2dfcb0557c62d59,"",%progbits
 149 0000 789CAD5B 		.ascii	"x\234\255[{p\024\365\035\377\375v\357\222\034\011\210"
 149      7B7014F5 
 149      1DFFFD76 
 149      EF921C09 
 149      88
 150 0011 3A3AC1DA 		.ascii	"::\301\3321\266\332\261L%h}`gZE\332\0023\322q\244\216"
 150      31B6DAB1 
 150      4C25687D 
 150      60675A45 
 150      DA0233D2 
 151 0028 9DE98CE7 		.ascii	"\235\351\214\347zY\222+\367\352\336\206@\377q\011\022"
 151      7A59922B 
 151      F7EADE86 
 151      40FF7109 
 151      12
 152 0039 10B40442 		.ascii	"\020\264\004B4\010h\020T\360\201\362\250@y\035T\302"
 152      34086810 
 152      54F081F2 
 152      A840791D 
 152      54C2
 153 004b 4BE51121 		.ascii	"K\345\021!\244\021\010\002>P\224\210\024Al\372\375}"
 153      A4110802 
 153      3E509488 
 153      14416CFA 
 153      FD7D
 154 005d 77F76EF7 		.ascii	"w\367n\367w\273w{\241;\371\375\366\365\373}\276\357"
 154      77BB777B 
 154      A13BF9FD 
 154      F6F5FB7D 
 154      BEEF
 155 006f EFEFB117 		.ascii	"\357\357\261\027\201\010\244L \244\027\216\251w\021"
 155      8108A44C 
 155      20A4178E 
 155      A97711
 156 007e F26A1121 		.ascii	"\362j\021!\"!\3447D?S(\360\210\370\211~\260\353EP\232"
 156      2221E437 
 156      443F5328 
 156      F088F889 
 156      7EB0EB45 
 157 0094 E1C52A28 		.ascii	"\341\305*(k\241\274\007e?%Y\007kW\016e1\224\001P\312"
 157      6BA1BC07 
 157      653F2559 
 157      076B570E 
 157      65319401 
 158 00aa A0DC0B65 		.ascii	"\240\334\013e\023\264\375\002\316\007\251\216\373>\234"
 158      13B4FD02 
 158      CE07A98E 
 158      FB3E9C
 159 00b9 4FC0792D 		.ascii	"O\300y-\224)p\275\036\316\035p\356\204\322\005\345#"
ARM GAS  /tmp/ccsGLxLb.s 			page 12


 159      942970BD 
 159      1ECE1D70 
 159      EE84D205 
 159      E523
 160 00cb 28EBA05C 		.ascii	"(\353\240\\\202\347K\014\236\016S\235\227\325p.\206"
 160      82E74B0C 
 160      9E0E539D 
 160      97D5702E 
 160      86
 161 00dc F316386F 		.ascii	"\363\0268o\205\362.\2246(\333\241\354\204\362=\274\013"
 161      85F22E94 
 161      3628DBA1 
 161      EC84F23D 
 161      BC0B
 162 00ee 18BC303E 		.ascii	"\030\2740>\217@\371\030\312I\203w&\303WPz\014\274\231"
 162      8F40F918 
 162      CA498377 
 162      26C35750 
 162      7A0CBC99 
 163 0102 707E06CA 		.ascii	"p~\006\312\337\241\314\202\322\010e\016'\033\223\375"
 163      DFA1CC82 
 163      D208650E 
 163      271B93FD 
 164 0112 472E7231 		.ascii	"G.r1y\230l\337\302u\273!\327\237\341<\017J\013\355\273"
 164      79986CDF 
 164      C275BB21 
 164      D79FE13C 
 164      0F4A0BED 
 165 0127 8C018B8C 		.ascii	"\214\001\213\214K\\\344\034c\264k6\354\221O\3267\340"
 165      4B5CE41C 
 165      63B46B36 
 165      EC914FD6 
 165      37E0
 166 0139 BC1CCA5B 		.ascii	"\274\034\312[P\336\206\262\002\3129N\326\033\310\013"
 166      50DE86B2 
 166      02CA394E 
 166      D61BC80B 
 167 0149 5A6B77F7 		.ascii	"Zkw\367\266S\207\350<-\365\244\326\333\373\004\271\226"
 167      B65387E8 
 167      3C2DF5A4 
 167      D6DBFB04 
 167      B996
 168 015b 346B70B4 		.ascii	"4kp\2646h\032UK\311\014M\253g7\243v\014\270\212\314"
 168      36681A55 
 168      4BC90C4D 
 168      AB6737A3 
 168      760CB88A 
 169 0170 666F2A76 		.ascii	"fo*v\200Z\376D%: @Z}xU\026 \277\005\270\233\311\022"
 169      805AFE44 
 169      253A2040 
 169      5A7D7855 
 169      1620BF05 
 170 0188 4D6BEC6E 		.ascii	"Mk\354n\376\241]\324\264\022\211.\241W\201\003\216\244"
 170      FEA15DD4 
 170      B412892E 
 170      A1578103 
 170      8EA4
ARM GAS  /tmp/ccsGLxLb.s 			page 13


 171 019a 64305906 		.ascii	"d0Y\006\035\033\001j\260\203'\221\274\300\002y\204\022"
 171      1D1B016A 
 171      B0832791 
 171      BCC00279 
 171      8412
 172 01ac 892E053C 		.ascii	"\211.\005<\211\276J\007\353\224\264\356\246i\207\353"
 172      89BE4A07 
 172      EB94B4EE 
 172      A66987EB 
 173 01bc E9646054 		.ascii	"\351d`T\177G\214\267\016\307\215\244\025:\244\316\357"
 173      7F478CB7 
 173      0EC78DA4 
 173      153AA4CE 
 173      EF
 174 01cd 5A40B5D6 		.ascii	"Z@\265\326\255\324\201\342}&\301\022\213$\213\236\031"
 174      ADD481E2 
 174      7D26C112 
 174      8B248B9E 
 174      19
 175 01de 8D92BC81 		.ascii	"\215\222\274\201\222\324Sj\243`\240\264\336\347\006"
 175      92D4536A 
 175      A360A0B4 
 175      DEE706
 176 01ed 238077B1 		.ascii	"#\200w\261.oe1\276}\217\311\370[\036\030\257O\355\233"
 176      2E6F6531 
 176      BE7D8FC9 
 176      F85B1E18 
 176      AF4FED9B 
 177 0201 B1701063 		.ascii	"\261p\020c\\\242\213i)\340.N\343\032t+L\272>B\314K\375"
 177      5CA28B69 
 177      29E02E4E 
 177      E31A742B 
 177      4CBA3E42 
 178 0218 301AD8F1 		.ascii	"0\032\330\361\366\357*k\224L\260\245\005\203U8\261\252"
 178      F6EF2A6B 
 178      944CB0A5 
 178      05835538 
 178      B1AA
 179 022a 1F566925 		.ascii	"\037Vi%\272\202\336\014\365Jz#\324\253\241N\037\002"
 179      BA82DE0C 
 179      F54A7A23 
 179      D4ABA14E 
 179      1F02
 180 023c 79939A36 		.ascii	"y\223\2326uR]~\021.\354Z\200*\011\220\351\031\037%\216"
 180      75525D7E 
 180      112EEC5A 
 180      802A0990 
 180      E9191F25 
 181 0251 2218E6EC 		.ascii	"\"\030\346\354\230\371\356>:\005\265\276\026\272\011"
 181      98F9EE3E 
 181      3A05B5BE 
 181      16BA09
 182 0260 E44BCEA0 		.ascii	"\344K\316\240\336\241:g}\330C\353\021j=B\265\013v(\211"
 182      DEA13A67 
 182      7DD843EB 
 182      116A3D42 
 182      B50B7628 
ARM GAS  /tmp/ccsGLxLb.s 			page 14


 183 0275 160788E5 		.ascii	"\026\007\210\345\300{\263\001\303\303\327\306\005\313"
 183      C07BB301 
 183      C3C3D7C6 
 183      05CB
 184 0283 CF579042 		.ascii	"\317W\220B\233\013\344#\201S\241\223\341J\334T\310\334"
 184      9B0BE423 
 184      8153A193 
 184      E14ADC54 
 184      C8DC
 185 0295 F0C81CDA 		.ascii	"\360\310\034\3324E\3331\324t\345\"7\271\005r\014\211"
 185      3445DB31 
 185      D474E522 
 185      37B90572 
 185      0C89
 186 02a7 A57857DE 		.ascii	"\245xW\336\330\361\236\351\312)O\256\374\217]\317\241"
 186      D8F19EE9 
 186      CA294FAE 
 186      FC8F5DCF 
 186      A1
 187 02b8 DDF2E616 		.ascii	"\335\362\346\026\301\244\177\023\322o\021\031\375m<"
 187      C1A47F13 
 187      D26F1119 
 187      FD6D3C
 188 02c7 FD795D1F 		.ascii	"\375y]\037M5\350o\363D\177]\307\334l\372\022\375\315"
 188      4D35E86F 
 188      F3447F5D 
 188      C7DC6CFA 
 188      12FDCD
 189 02da 35B9ECBD 		.ascii	"5\271\354\275\261\343\223\036\203\312N\214\231\375\""
 189      B1E3931E 
 189      83CA4E8C 
 189      99FD22
 190 02e9 6FEF7B4B 		.ascii	"o\357{K\355\006\204{K\003\201t\245\371\357S\310\202"
 190      ED06847B 
 190      4B038174 
 190      A5F9EF53 
 190      C882
 191 02fb A05F35D3 		.ascii	"\240_5\3239\314X&\017G\012F\254\260ibC\007&\001\035"
 191      39CC5826 
 191      0F470A46 
 191      ACB06962 
 191      43072601 
 192 0310 EC981730 		.ascii	"\354\230\0270W_\252Om\262\202\235(\030\314\316\331^"
 192      575FAA4F 
 192      6DB2829D 
 192      2818CCCE 
 192      D95E
 193 0322 2BD8A75E 		.ascii	"+\330\247^\300\006\272s\266\337\012v\252`0;g\037Z\301"
 193      C006BA73 
 193      B6DF0A76 
 193      AA60303B 
 193      671F5AC1 
 194 0336 4E7B012B 		.ascii	"N{\001+w\347\354\240\025\254\247`0;g\207\254`\347\274"
 194      77E7ECA0 
 194      15ACA760 
 194      303B6787 
 194      AC60E7BC 
ARM GAS  /tmp/ccsGLxLb.s 			page 15


 195 034a 80553870 		.ascii	"\200U8p\226>\234\3721\267~\227\246\375\\ \337\211fN"
 195      963E9CFA 
 195      31B77E97 
 195      A6FD5C20 
 195      DF89664E 
 196 035e 28D0A749 		.ascii	"(\320\247I\006\343{\261\320$f\223\033\222\330\321\227"
 196      06E37BB1 
 196      D0246693 
 196      1B92D8D1 
 196      97
 197 036f F424668E 		.ascii	"\364$f\216g\275^\020s8L\343n\313\3408\325W(\230\335"
 197      67BD5E10 
 197      73384CE3 
 197      6ECBE038 
 197      D5572898 
 198 0384 2C2F3030 		.ascii	",/00[\2561F\231\356\227S\345-\231tWbb\261\031\222\236"
 198      5BAE3146 
 198      99EE9753 
 198      E52D9974 
 198      576262B1 
 199 039b DB60C224 		.ascii	"\333`\302$\244\033k\345\345\316m%\372\011\016\262\237"
 199      A41B6BE5 
 199      E5CE6D25 
 199      FA090EB2 
 199      9F
 200 03ac D2409A0B 		.ascii	"\322@\232\013\375\332\274\352\245L\3173}Ns/\004\310"
 200      FDDABCEA 
 200      A54CCF33 
 200      7D4E732F 
 200      04C8
 201 03be DDD5CD13 		.ascii	"\335\325\315\023NX=\241\321\213\232r\204\302^75\245"
 201      4E583DA1 
 201      D18B9A72 
 201      84C25E37 
 201      35A5
 202 03d0 1AB4E974 		.ascii	"\032\264\351t\362\212\353sN\3246v|\265\310\030\216\277"
 202      F28AEB73 
 202      4ED43676 
 202      7CB5C818 
 202      8EBF
 203 03e2 C4E1B8D9 		.ascii	"\304\341\270\331\3478\262{\002\353\234ui\2131M\370\032"
 203      E738B27B 
 203      02EB9C75 
 203      698B314D 
 203      F81A
 204 03f4 C15A7D7C 		.ascii	"\301Z}|\256\017pc{\300>X\007\002\231\213^\363\260k\337"
 204      AE0F7063 
 204      7BC03E58 
 204      0702998B 
 204      5EF3B06B 
 205 0409 731F37ED 		.ascii	"s\0377\355\177a\325\376\262\202\265\317\307\320\177"
 205      7F61D5FE 
 205      B282B5CF 
 205      C7D07F
 206 0418 E6D0B3F5 		.ascii	"\346\320\263\365Z\313P\213\277\345tN\230M\355\336\364"
 206      5ACB508B 
 206      BFE5744E 
ARM GAS  /tmp/ccsGLxLb.s 			page 16


 206      984DEDDE 
 206      F4
 207 0429 6B9C1C7F 		.ascii	"k\234\034\177\213Jz\333Y\343\036\200:g\275Y\211@\347"
 207      8B4A7ADB 
 207      59E31E80 
 207      3A67BD59 
 207      8940E7
 208 043c 11685D96 		.ascii	"\021h]\226\266)\247mj\327\\\332a\015\177-\244\255@\266"
 208      B629A76D 
 208      6AD75CDA 
 208      610D7F2D 
 208      A4AD40B6 
 209 0450 F0AAB3B1 		.ascii	"\360\252\263\261\230#S\246Uw\251p\325\3154Tw\011%\336"
 209      982353A6 
 209      5577A970 
 209      D5CD3454 
 209      770925DE 
 210 0464 9E25F1F9 		.ascii	"\236%\361\371\002E\026\310\236\202\305(\261\2131\255"
 210      024516C8 
 210      9E82C528 
 210      B18B31AD 
 211 0474 B70F626C 		.ascii	"\267\017bl\326\305\230,01\016\374\037\3048\\\260\030"
 211      D6C5982C 
 211      30310EFC 
 211      1FC4385C 
 211      B018
 212 0486 032D62E0 		.ascii	"\003-b\340\302j\256>\030\\M\346\344\236\3212~\032\204"
 212      C26AAE3E 
 212      185C4DE6 
 212      E49ED132 
 212      7E1A84
 213 0499 AB6DB3C9 		.ascii	"\253m\263\311\324\201\017h\205\3768\377b\362\354\007"
 213      D4810F68 
 213      85FE38FF 
 213      62F2EC07 
 214 04a9 960588E6 		.ascii	"\226\005\210\346i\001\262;\275\000y\012U\366\261S\320"
 214      6901B23B 
 214      BD00790A 
 214      55F6B153 
 214      D0
 215 04ba 7882EADC 		.ascii	"x\202\352\334\263g\237\221\361\236F\250\317\262\264"
 215      B3679F91 
 215      F19E46A8 
 215      CFB2B4
 216 04c9 5FC429BF 		.ascii	"_\304)\277\310\256|\270e\264\276\303<\363\204\361\204"
 216      C8AE7CB8 
 216      65B4BEC3 
 216      3CF384F1 
 216      84
 217 04da DD14933E 		.ascii	"\335\024\223>\367\023\310\031d\203)\260/\263\\\266\244"
 217      F713C819 
 217      648329B0 
 217      2FB35CB6 
 217      A4
 218 04eb 3FD1648E 		.ascii	"?\321d\216\346\272\216\316_\026b}\352\305Y\346\322\371"
 218      E6BA8ECE 
 218      5F16627D 
ARM GAS  /tmp/ccsGLxLb.s 			page 17


 218      EAC559E6 
 218      D2F9
 219 04fd 5E369E6B 		.ascii	"^6\236k\376\313\203\333\260\207\037\250\270\205\304"
 219      FECB83DB 
 219      B0871FA8 
 219      B885C4
 220 050c 12972C6C 		.ascii	"\022\227,l\356)\254x\372\027\0304\317\012\214\235i~"
 220      EE29AC78 
 220      FA171834 
 220      CF0A8C9D 
 220      697E
 221 051e DE6C8B29 		.ascii	"\336l\213)\267\220`\017,M\334|\271Y\260\014\010\317"
 221      B790600F 
 221      2C4DDC7C 
 221      B959B00C 
 221      08CF
 222 0530 5F96942C 		.ascii	"_\226\224,\216\316qfh\275L\275]0\314\220o\331\367\230"
 222      8ECE7166 
 222      68BD4CBD 
 222      5D30CC90 
 222      6FD9F798 
 223 0544 89558682 		.ascii	"\211U\206\202,E\262/\010\334\252\257\353\213\356\006"
 223      2C45B22F 
 223      08DCAAAF 
 223      EB8BEE06 
 224 0554 C3FDD9BB 		.ascii	"\303\375\331\273\374\301\332u2\240\315)\323wr$\372\016"
 224      FCC1DA75 
 224      32A0CD29 
 224      D3777224 
 224      FA0E
 225 0566 150C54A7 		.ascii	"\025\014T\247y@^\365\244\216\310;\206\026\022\366mf"
 225      79405EF5 
 225      A48EC83B 
 225      861612F6 
 225      6D66
 226 0578 D82FD633 		.ascii	"\330/\3263e\226\321Y\014\333\214^P\320u\245\225\344"
 226      6596D159 
 226      0CDB8C5E 
 226      50D075A5 
 226      95E4
 227 058a 750ACD1F 		.ascii	"u\012\315\037nN\265\320\352TG/\317\005\300\251\332\226"
 227      6E4EB5D0 
 227      EA54472F 
 227      CF05C0A9 
 227      DA96
 228 059c E84E95CF 		.ascii	"\350N\225\317\0114j\235Y\013\344\023\244\374\032\357"
 228      09346A9D 
 228      590BE413 
 228      A4FC1AEF 
 229 05ac 059BBFDE 		.ascii	"\005\233\277\3361\315X\225\277\346\311\013\3169x\301"
 229      31CD5895 
 229      BFE6C90B 
 229      CE3978C1 
 230 05bc 6B7DF402 		.ascii	"k}\364\002p\351\317wR\204\323W\012\263\212\250\035\256"
 230      70E9CF77 
 230      5284D357 
 230      0AB38AA8 
ARM GAS  /tmp/ccsGLxLb.s 			page 18


 230      1DAE
 231 05ce C015F425 		.ascii	"\300\025\364%\271P\305\350\376\225\352<\311\006\255"
 231      B950C5E8 
 231      FE95EA3C 
 231      C906AD
 232 05dd 9502DBA3 		.ascii	"\225\002\333\243l.\342]K\327\214\305\2652j\004E\010"
 232      6C2EE25D 
 232      4BD78CC5 
 232      B5326A04 
 232      4508
 233 05ef 6CE9F0A6 		.ascii	"l\351\360\246\300\366\347\226c\375\266`\331\245ss\213"
 233      C0F6E796 
 233      63FDB660 
 233      D9A57373 
 233      8B
 234 0600 1519B790 		.ascii	"\025\031\267\220\350*^\215^\027py\311,\263z\337\302"
 234      E82A5E8D 
 234      5E177079 
 234      C92CB37A 
 234      DFC2
 235 0612 A2CBF3BE 		.ascii	"\242\313\363\2769\333?\360\261]n\261\200\015\303\335"
 235      39DB3FF0 
 235      B15D6EB1 
 235      800DC3DD 
 236 0622 DBCCC05D 		.ascii	"\333\314\300]\203\201\273$K\273\353\371)\216\227}\273"
 236      8381BB24 
 236      4BBBEBF9 
 236      298E977D 
 236      BB
 237 0633 B7FB2A4A 		.ascii	"\267\373*J\372\020\310\232\"\017S\376\012\007\255\247"
 237      FA10C89A 
 237      220F53FE 
 237      0A07ADA7 
 238 0643 07DA8373 		.ascii	"\007\332\203s=\356\375\231#\327\311\247G\341\310\265"
 238      3DEEFD99 
 238      23D7C9A7 
 238      47E1C8B5 
 239 0653 113D6D1D 		.ascii	"\021=m\035\247\013\017[\210;\260K\212\017\343\246i\231"
 239      A70B0F5B 
 239      883BB04B 
 239      8A0FE3A6 
 239      6999
 240 0665 2D440F61 		.ascii	"-D\017a\\\237Ze\333\0157=0\225\333\003s\352\323f\302"
 240      5C9F5A65 
 240      DB0D373D 
 240      3095DB03 
 240      73EAD366 
 241 067a 942540B6 		.ascii	"\224%@\266b\200\374\313\032\024\0029\344E\367\267\270"
 241      6280FCCB 
 241      1A140239 
 241      E445F7B7 
 241      B8
 242 068b B922A4A1 		.ascii	"\271\"\244\241\375\372g\010\363\303B7\217\347\224\210"
 242      FDFA6708 
 242      F3C34237 
 242      8FE79488 
 243 069b 6C78565B 		.ascii	"lxV[\326\247\032\333q\303B\367\321\317\27507\324\035"
ARM GAS  /tmp/ccsGLxLb.s 			page 19


 243      D6A71ADB 
 243      71C342F7 
 243      D1CFBD30 
 243      37D41D
 244 06ae ECC52653 		.ascii	"\354\305&S\271\313p\206\362\215\027\274an\302\326\247"
 244      B9CB7086 
 244      F28D17BC 
 244      616EC2D6 
 244      A7
 245 06bf D6B42F30 		.ascii	"\326\264/0\360\364M\367\213\005\343\331\371;\320d\233"
 245      F0F44DF7 
 245      8B05E3D9 
 245      F93BD064 
 245      9B
 246 06d0 CF4D29F6 		.ascii	"\317M)\366\000w\237g\333g\2761AJ\303}\225\327\361\343"
 246      00779F67 
 246      DB67BE31 
 246      414AC37D 
 246      95D7F1E3 
 247 06e4 C51AAC37 		.ascii	"\305\032\2547c}\024\353cX\037\307\372\024\326g\261\376"
 247      637D14EB 
 247      63581FC7 
 247      FA14D667 
 247      B1FE
 248 06f6 1E6B0D93 		.ascii	"\036k\015\223\351T\2547`\275\015\353\355X\357\304z7"
 248      E954AC37 
 248      60BD0DEB 
 248      ED58EFC4 
 248      7A37
 249 0708 D6EF7B49 		.ascii	"\326\357{I\270\036\347\200/\321k\361J\004\305\300\341"
 249      B81EE780 
 249      2FD16BF1 
 249      4A04C5C0 
 249      E1
 250 0719 389A4C3F 		.ascii	"8\232L?\236\331U\320\322{\354L\307F\234\257\272\230"
 250      9ED955D0 
 250      D27BEC4C 
 250      C7469CAF 
 250      BA98
 251 072b 1AB441D3 		.ascii	"\032\264A\323\006Jt\037\006\372\352b\307@\317\001$\220"
 251      064A741F 
 251      06FAEA62 
 251      C740CF01 
 251      2490
 252 073d ADD8E743 		.ascii	"\255\330\347C.\322SM\323\3124\237\376<\177\2247o_\220"
 252      2ED2534D 
 252      D3CA349F 
 252      FE3C7F94 
 252      376F5F90 
 253 0751 3D63B47D 		.ascii	"=c\264}\236D\027p\323E\247`\323\205\367\254\277\361"
 253      9E441770 
 253      D345A760 
 253      D385F7AC 
 253      BFF1
 254 0763 BFDDBF7A 		.ascii	"\277\335\277z\013\345\357\302\200Z_\302'}?\227\363\375"
 254      0BE5EFC2 
 254      805A5FC2 
ARM GAS  /tmp/ccsGLxLb.s 			page 20


 254      277D3F97 
 254      F3FD
 255 0775 F69CEF0F 		.ascii	"\366\234\357\017d.\214\234o0av\225\350\303bN\233\233"
 255      642E8C9C 
 255      6F306176 
 255      95E8C362 
 255      4E9B9B
 256 0788 29F7950B 		.ascii	")\367\225\013\345\313\220\225C\030\213g8V\270\245\007"
 256      E5CB9095 
 256      43188B67 
 256      3856B8A5 
 256      07
 257 0799 13D94D1D 		.ascii	"\023\331M\035\307\204R\027\215g\275\023\310\017%\246"
 257      C7845217 
 257      8D67BD13 
 257      C80F25A6 
 258 07a9 F9FAB67C 		.ascii	"\371\372\266|Xu\261\373\372u\2535m\305c\3062<Ud\365"
 258      5875B1FB 
 258      FA75AB35 
 258      6DC563C6 
 258      323C5564 
 259 07be 165B7A33 		.ascii	"\026[z3&1\353\333~\314\\\343\004\014\212\002i\010"
 259      2631EBDB 
 259      7ECC5CE3 
 259      040C8A02 
 259      6908
 260 07d0 D8E5CC8F 		.ascii	"\330\345\314\217\"\220\271\330\347\323\254\025}\233"
 260      2290B9D8 
 260      E7D3AC15 
 260      7D9B
 261 07de 58A13FCE 		.ascii	"X\241?\316\357q\035\015\263\256\323Z\237.7w\021[\323"
 261      EF711D0D 
 261      B3AED35A 
 261      9F2E3777 
 261      115BD3
 262 07f1 907D5B26 		.ascii	"\220}[&\034m\353\007\363\303\274\237\211\031c\247\371"
 262      1C6DEB07 
 262      F3C3BC9F 
 262      891963A7 
 262      F9
 263 0802 50E96C63 		.ascii	"P\351lc\223\272\323\236\"\245\253\301am\245\353\322"
 263      93BAD39E 
 263      22A5ABC1 
 263      616DA5EB 
 263      D2
 264 0813 CD1DCE64 		.ascii	"\315\035\316d\317\340N\367\321\334\365\251\303mf\212"
 264      CFE04EF7 
 264      D1DCF5A9 
 264      C36D668A 
 265 0823 D723E615 		.ascii	"\327#\346\025\324[!x\025\234`\002y\3432u\177\336\273"
 265      D45B2178 
 265      159C6002 
 265      79E33275 
 265      7FDEBB
 266 0836 EECFF1BA 		.ascii	"\356\317\361\272\357A\335\237\363\244\373\263\015\346"
 266      EF41DD9F 
 266      F3A4FBB3 
ARM GAS  /tmp/ccsGLxLb.s 			page 21


 266      0DE6
 267 0844 70B41743 		.ascii	"p\264\027Ct\005\362}\256\317\272<\307\351\362\235\202"
 267      7405F27D 
 267      AECFBA3C 
 267      C7E9F29D 
 267      82
 268 0855 F1B275B9 		.ascii	"\361\262u\271\276\257\272t:\2541&\321\317q~t\012G\262"
 268      BEAFBA74 
 268      3AAC3126 
 268      D1CF717E 
 268      740A47B2 
 269 0869 2FB1FED6 		.ascii	"/\261\376\326>WJ\005\270T\342D\333\375\033uj\301H6\265"
 269      3E574A05 
 269      B854E244 
 269      DBFD1B75 
 269      6AC14836 
 270 087e D11737DB 		.ascii	"\321\0277\333y,\373r\310r\351M\220\017-\023\275\203"
 270      792CFB72 
 270      C872E94D 
 270      900F2D13 
 270      BD83
 271 0890 2848078A 		.ascii	"(H\007\212p\034\353\037\274\014\314{3q\224\316\361]"
 271      701CEB1F 
 271      BC0CCC7B 
 271      337194CE 
 271      F15D
 272 08a2 FA623E7D 		.ascii	"\372b>}o|(I\337\257\245\326\367\271\2067\227\217\322"
 272      6F7C2849 
 272      DFAFA5D6 
 272      F7B98637 
 272      978FD2
 273 08b5 0CE449F1 		.ascii	"\014\344I\361Z;U\374\336\354mXY\263|K\371R\034V\246"
 273      5A3B55FC 
 273      DEEC6D58 
 273      59B37C4B 
 273      F9521C56 
 274 08ca 88CC67BF 		.ascii	"\210\314g\277\016\344\034V\030)76\246\213\356\303J\366"
 274      0EE41C56 
 274      18293736 
 274      A68BEEC3 
 274      4AF6
 275 08dc 3B2BB384 		.ascii	";+\263\204\033\006\005r\236c\343&\262X\323\346to;u\306"
 275      1B060572 
 275      9E63E326 
 275      B258D3E6 
 275      746F3B75 
 276 08f1 0F0B379F 		.ascii	"\017\0137\237\031a3\373\261f\213\350\015\216L\031&\321"
 276      196133FB 
 276      B1668BE8 
 276      0D8E4C19 
 276      26D1
 277 0903 FB6A17E4 		.ascii	"\373j\027\344Q\272=$zQ\020rvC\253\351\335R\035moB\020"
 277      51BA3D24 
 277      7A511072 
 277      7643ABE9 
 277      DD521D6D 
 278 091a 0ABAE9C0 		.ascii	"\012\272\351\300\311i\356\256h`\203\342YFq-nto\312\323"
ARM GAS  /tmp/ccsGLxLb.s 			page 22


 278      C969EEAE 
 278      686083E2 
 278      5946712D 
 278      6E746FCA 
 279 092f 0DFDC0A0 		.ascii	"\015\375\300\240\330\331\366\252NQ\267\310\354<2\262"
 279      D8D9F6AA 
 279      4E51B7C8 
 279      EC3C32B2 
 280 093f 5626C576 		.ascii	"V&\305vF\021\347\302s\363\364\322\265\3763\3622\316"
 280      4611E7C2 
 280      73F3F4D2 
 280      B5FE33F2 
 280      32CE
 281 0951 A3DB9E19 		.ascii	"\243\333\236\0314\203Q\3247\034\335\373\031\326\234"
 281      348351D4 
 281      371CDDFB 
 281      19D69C
 282 0960 210A56F3 		.ascii	"!\012V\363\352\277\035\303\037\022M\356\356\355\275"
 282      EABF1DC3 
 282      1F124DEE 
 282      EEEDBD
 283 096f 81F35C06 		.ascii	"\201\363\\\006\352\3463\317\212\371g\251n;\202\206\007"
 283      EAE633CF 
 283      8AF967A9 
 283      6E3B8286 
 283      07
 284 0980 F7ACEC29 		.ascii	"\367\254\354)\327\027\346\363D\314\014\375\234\347\250"
 284      D717E6F3 
 284      44CC0CFD 
 284      9CE7A8
 285 098f 6E308C8D 		.ascii	"n0\214\215\005\"\227\366g\267\341\354\224=\317\237\367"
 285      052297F6 
 285      67B7E1EC 
 285      943DCF9F 
 285      F7
 286 09a0 9B9CC65C 		.ascii	"\233\234\306\\\017k\340\003\310i+O\273G\252\320\237"
 286      0F6BE003 
 286      C8692B4F 
 286      BB47AAD0 
 286      9F
 287 09b1 7A1871CC 		.ascii	"z\030q\314m\247\027\305\314\342\227u\355\353\342\327"
 287      6DA717C5 
 287      CCE29775 
 287      EDEBE2D7 
 288 09c1 CD4E0C3F 		.ascii	"\315N\014?m~\235\314\202\302\311\230\263yn\\;\206z("
 288      6D7E9DCC 
 288      82C2C998 
 288      B3796E5C 
 288      3B867A28 
 289 09d5 04AFC286 		.ascii	"\004\257\302\206\327\322\206k\336C8u\375X\360\300\\"
 289      D7D2866B 
 289      DE433875 
 289      FD58F0C0 
 289      5C
 290 09e6 CE0D50CB 		.ascii	"\316\015P\313a\365\014\211.\024\331\270\360\202\310"
 290      61F50C89 
 290      2E14D9B8 
ARM GAS  /tmp/ccsGLxLb.s 			page 23


 290      F082C8
 291 09f5 46842558 		.ascii	"F\204%X\277\"z\030\027Z\304\354q!\3678`\004u\276$y\272"
 291      BF227A18 
 291      175AC4EC 
 291      7121F738 
 291      600475BE 
 292 0a0c 9F63927C 		.ascii	"\237c\222|\371\265cEz\222l\301\0042\255\2245k\026\335"
 292      F9B56345 
 292      7A926CC1 
 292      0432AD94 
 292      356B16DD 
 293 0a20 52418B25 		.ascii	"RA\213%\201\314\003UR{\256s\357h\311u\251\003\273\226"
 293      81CC0355 
 293      527BAE73 
 293      EF68C975 
 293      A903BB96 
 294 0a34 EB49CB9A 		.ascii	"\353I\313\232\357\334\273Z\362\235v\236%\255)\350\300"
 294      EFDCBB5A 
 294      F29D769E 
 294      25AD29E8 
 294      C0
 295 0a45 B3C5DCDD 		.ascii	"\263\305\334\335\254\271n\276\316*\216uMy\372\331\262"
 295      ACB96EBE 
 295      CE2A8E75 
 295      4D79FAD9 
 295      B2
 296 0a56 5DFB2E2E 		.ascii	"]\373..\333\271\3653\354\367zv\266\353nd_\247\246\321"
 296      DBB9F533 
 296      ECF77A76 
 296      B6EB6E64 
 296      5FA7A6D1 
 297 0a6a D9535A77 		.ascii	"\331SZwhg\330\262\316\373h\275\232\037\255\031\033\351"
 297      6867D8B2 
 297      CEFB68BD 
 297      9A1FAD19 
 297      1BE9
 298 0a7c 9BA784EC 		.ascii	"\233\247\204\354U\241@f\224\332-m\262\266\306\221\265"
 298      55A14066 
 298      94DA2D6D 
 298      B2B6C691 
 298      B5
 299 0a8d 35CB2FFC 		.ascii	"5\313/\374z\341J\355\311\247\264\377\366>A\013\310\306"
 299      7AE14AED 
 299      C9A7B4FF 
 299      F63E410B 
 299      C8C6
 300 0a9f EBF26763 		.ascii	"\353\362gc\0108j\311h\251\364\254\213\375\244\300X\277"
 300      08386AC9 
 300      68A9F4AC 
 300      8BFDA4C0 
 300      58BF
 301 0ab1 FD007366 		.ascii	"\375\000sf\207\254ko+\321\215\020Ny\233\261\206\233"
 301      87AC6B6F 
 301      2BD18D10 
 301      4E799BB1 
 301      869B
 302 0ac3 F90C395F 		.ascii	"\371\0149_\317\316\233=\345\310U\015\317\031\331\306"
ARM GAS  /tmp/ccsGLxLb.s 			page 24


 302      CFCE9B3D 
 302      E5C8550D 
 302      CF19D9C6 
 303 0ad3 EAD59BFB 		.ascii	"\352\325\233\373\234\275\376\251g\233/p\243\37794L!"
 303      9CBDFEA9 
 303      679B2F70 
 303      A3FF3934 
 303      4C21
 304 0ae5 601536B0 		.ascii	"`\0256\260\375V\260\205^\300r|5\350j{\326\262\275f\006"
 304      FD56B085 
 304      5EC0727C 
 304      35E86A7B 
 304      D6B2BD66 
 305 0afa 61217876 		.ascii	"a!xv\346\276\321\231\323\247!/ya.\307/\251\276O\233"
 305      E6BED199 
 305      D3A7212F 
 305      79612EC7 
 305      2FA9BE4F 
 306 0b0f C112B185 		.ascii	"\301\022\261\205\300Up\3465\263r\012\263\362\026\314"
 306      C05570E6 
 306      35B3720A 
 306      B3F216CC 
 307 0b1f C75BB17E 		.ascii	"\307[\261~\027\3536\254\267c\275\323\232\247\005\262"
 307      17EB36AC 
 307      B763BDD3 
 307      9AA705B2 
 308 0b2f 940B27D3 		.ascii	"\224\013'\323\225,\330\031\237#\205\241\273\305\326"
 308      952CD819 
 308      9F2385A1 
 308      BBC5D6
 309 0b3e 7AEB086A 		.ascii	"z\353\010j\013\356\015.\301\275\3331\270W]L\3352\317"
 309      0BEE0D2E 
 309      C1BDDB31 
 309      B8575D4C 
 309      DD32CF
 310 0b51 2DB873EC 		.ascii	"-\270s\354\201\275\317\247\03567v]\2478\354M\011d\277"
 310      81BDCFA7 
 310      1D363776 
 310      5DA738EC 
 310      4D0964BF 
 311 0b65 0BA3FB1C 		.ascii	"\013\243\373\034\031=\263\362\330\340y\332V\207\177"
 311      193DB3F2 
 311      D8E079DA 
 311      56877F
 312 0b74 25C8C967 		.ascii	"%\310\311g;\317g\213X\3123r\322\205\221\003vF\270\265"
 312      3BCF678B 
 312      58CA3372 
 312      D2859103 
 312      7646B8B5 
 313 0b88 CBFB39D6 		.ascii	"\313\3739\326.\0073\326\271\2224\352\373\004-\003\364"
 313      2E0733D6 
 313      B99234EA 
 313      FB042D03 
 313      F4
 314 0b99 1FBE197D 		.ascii	"\037\276\031}\006\232}\004\243O\207x%^\331\276\376b"
 314      069A7D04 
 314      A34F8778 
ARM GAS  /tmp/ccsGLxLb.s 			page 25


 314      255ED9BE 
 314      FE62
 315 0bab 0B372A87 		.ascii	"\0137*\207\304\314\217\353\312\002\231\013j']\301Q\036"
 315      C4CC8FEB 
 315      CA02990B 
 315      6A275DC1 
 315      511E
 316 0bbd 66B62B36 		.ascii	"f\266+6p:\013\246\374o\027\312E\316\252Z\227CU]\031"
 316      703A0BA6 
 316      FC6F17CA 
 316      45CEAA5A 
 316      9743555D 
 317 0bd2 5571BD36 		.ascii	"Uq\2756\271D3\353\365\221k\257\3259h\035\316\364b^\225"
 317      B94433EB 
 317      F5916BAF 
 317      D539681D 
 317      CEF4625E 
 318 0be7 3AD3DDBE 		.ascii	":\323\335\276\271\347\3217Vj\032\272\377\344'\371\000"
 318      B9E7D137 
 318      566A1ABA 
 318      FFE427F9 
 318      00
 319 0bf8 C831EE1E 		.ascii	"\3101\356\0365\034+\343K\260\266*\343\035\011\347\010"
 319      351C2BE3 
 319      4BB0B62A 
 319      E31D09E7 
 319      08
 320 0c09 702CD544 		.ascii	"p,\325DDc\355\217\300\374\300\346g\335\331\016\017\254"
 320      4463ED8F 
 320      C0FCC0E6 
 320      67DDD90E 
 320      0FAC
 321 0c1b B5CC3F30 		.ascii	"\265\314?0\310\374\337\231\033uz\002\231\357\211\302"
 321      C8FCDF99 
 321      1B757A02 
 321      99EF89C2 
 322 0c2b C73C85E3 		.ascii	"\307<\205\343\216\024\346\037\357\031u!#\374\215\336"
 322      8E14E61F 
 322      EF197521 
 322      23FC8DDE 
 323 0c3b 85FF848F 		.ascii	"\205\377\204\217\252\3658B\330\242\252\303\306*\266"
 323      AAF53842 
 323      D8A2AAC3 
 323      C62AB6
 324 0c4a 84502B33 		.ascii	"\204P+3\234\323\230u\355\323g]\372\177:\234\305\036"
 324      9CD39875 
 324      EDD3675D 
 324      FA7F3A9C 
 324      C51E
 325 0c5c 275DA75D 		.ascii	"']\247]\306\027QC\342\263\223\037,OK|\222\227\3703G"
 325      C6175143 
 325      E2B3931F 
 325      2C4F4B7C 
 325      9297F833 
 326 0c71 89DB37EF 		.ascii	"\211\3337\357\253\261\232\333T\353\005Oj\375\212'\362"
 326      ABB19ADB 
 326      54EB054F 
ARM GAS  /tmp/ccsGLxLb.s 			page 26


 326      6AFD8A27 
 326      F2
 327 0c82 B58BE14E 		.ascii	"\265\213\341Ng\033nj\177/\024zx\012\337\344LA\3559|"
 327      671B6E6A 
 327      7F2F147A 
 327      780ADFE4 
 327      4C41ED39 
 328 0c97 FDDB8CAF 		.ascii	"\375\333\214\257\377\204,\322\366\356\355\336\366\372"
 328      FF842CD2 
 328      F6EEEDDE 
 328      F6FA
 329 0ca5 3C3ABD5B 		.ascii	"<:\275[k\004\331{\25157\234\314\344\206\275\351\331"
 329      6B04D97B 
 329      A935379C 
 329      CCE486BD 
 329      E9D9
 330 0cb7 D275D8D5 		.ascii	"\322u\330\325%\205\360\315$z\276\340\034\362\235K\016"
 330      2585F0CD 
 330      247ABEE0 
 330      1CF29D4B 
 330      0E
 331 0cc8 19645380 		.ascii	"\031dS\200\331\212EW\177n\341\301s!\220\347\373S\243"
 331      D98A4557 
 331      7F6EE1C1 
 331      732190E7 
 331      FB53A3
 332 0cdb 5F3F7671 		.ascii	"_?vq\303\220!\225\372_<Y\251\250\225I%T\031\252\251"
 332      C3902195 
 332      FA5F3C59 
 332      A9A89549 
 332      255419AA 
 333 0cf0 9A1493A2 		.ascii	"\232\024\223\242\341\320\220\020\271\211{\037\216\205"
 333      E1D09010 
 333      B9897B1F 
 333      8E85
 334 0cfe 22B55532 		.ascii	"\"\265U2\264INJ\252\223\022rrH\015)Qk\024Y\252\012\252"
 334      B4494E4A 
 334      AA931272 
 334      72480D29 
 334      516B1459 
 335 0d15 4523FFF0 		.ascii	"E#\377\360p\305\010\022\010\325\004\365G\025\356\335"
 335      70C50812 
 335      08D504F5 
 335      4715EEDD 
 336 0d25 810A74BD 		.ascii	"\201\012t\275Bo\227\014\376\265V\256\225\203\352\300"
 336      426F970C 
 336      FEB556AE 
 336      9583EAC0 
 337 0d35 7457E391 		.ascii	"tW\343\221/&OT}\011E\236\340\307\373aV\304P<\032\215"
 337      2F264F54 
 337      7D09459E 
 337      E0C7FB61 
 337      56C4503C 
 338 0d4b C72A1371 		.ascii	"\307*\023qEMV\016\177h\314\2101\023\331\263D8\"+\311"
 338      454D560E 
 338      7F68CC88 
 338      3113D9B3 
ARM GAS  /tmp/ccsGLxLb.s 			page 27


 338      4438222B 
 339 0d60 CA912346 		.ascii	"\312\221#F\000!\223\311b5\241\204\343A\365\321\312\232"
 339      002193C9 
 339      6235A184 
 339      E341F5D1 
 339      CA9A
 340 0d72 7854AE94 		.ascii	"xT\256\224\"\362\304\3121rL\215+#\025)Q\023\016%+\307"
 340      22F2C4CA 
 340      31724C8D 
 340      2B231529 
 340      51130E25 
 341 0d88 C66B9590 		.ascii	"\306k\225\220\254L\012\216\210W\311\367\3131\340\345"
 341      AC4C0A8E 
 341      8857C9F7 
 341      CB31E0E5 
 342 0d98 81B02A07 		.ascii	"\201\260*\007\307\305\225 \240\007\1777\374\376\321"
 342      C7C59520 
 342      A0077F37 
 342      FCFED1
 343 0da7 959212BD 		.ascii	"\225\222\022\2755\026\217\311\267\312\322\343\341\264"
 343      35168FC9 
 343      B7CAD2E3 
 343      E1B4
 344 0db5 4049B52A 		.ascii	"@I\265*\034S\231.j\341\374\313\333\203\214\347p\274"
 344      1C53992E 
 344      6AE1FCCB 
 344      DB838CE7 
 344      70BC
 345 0dc7 8CB1160C 		.ascii	"\214\261\026\014\305c*H\361\363\274\254\327\204\342"
 345      C5632A48 
 345      F1F3BCAC 
 345      D784E2
 346 0dd6 8A0C20A5 		.ascii	"\212\014 \245\330\015\200B\352\304[\275\365\012N\270"
 346      D80D8042 
 346      EAC45BBD 
 346      F50A4EB8 
 347 0de6 3BCAC82B 		.ascii	";\312\310+r5p\030T\005\345\016A\271SP\356\022\224\273"
 347      72357018 
 347      5405E50E 
 347      41B95350 
 347      EE1294BB 
 348 0dfa 056598A0 		.ascii	"\005e\230\240\334#*\267\015\205r\233\020Q\204dB\004"
 348      DC232AB7 
 348      0D85729B 
 348      10518464 
 348      4204
 349 0e0c 687F4CAE 		.ascii	"h\177L\256\223\025\177<R%+\276P\215\244\370\300\354"
 349      93157F3C 
 349      52252BBE 
 349      508DA4F8 
 349      C0EC
 350 0e1e 72BFA43A 		.ascii	"r\277\244:^\212\204\253cA\025\205\271\353\0160l\235"
 350      5E8A84AB 
 350      63411585 
 350      B9EB0E30 
 350      6C9D
 351 0e30 F4B89494 		.ascii	"\364\270\224\224K\324\244*\201B\324b\366bXP\365\343"
ARM GAS  /tmp/ccsGLxLb.s 			page 28


 351      4BD4A42A 
 351      8142D462 
 351      F6625850 
 351      F5E3
 352 0e42 7DB11A05 		.ascii	"}\261\032\005\205\301\335\270\210T\235,V\025y\\\022"
 352      85C1DDB8 
 352      88549D2C 
 352      5615795C 
 352      12
 353 0e53 14C04EFE 		.ascii	"\024\300N\376h\262\032\232\033:)R\252&\301\203\022y"
 353      68B21A9A 
 353      1B3A2952 
 353      AA26C183 
 353      1279
 354 0e65 62580D41 		.ascii	"bX\015A\227\242:5\376\370_\022W\031\376\003\035d\005"
 354      97A23A35 
 354      FEF85F12 
 354      5719FE03 
 354      1D6405
 355 0e78 D4CEA0EA 		.ascii	"\324\316\240\352TUI\024'\301@\320\241\014,\221\224\243"
 355      54554914 
 355      27C140D0 
 355      A10C2C91 
 355      94A3
 356 0e8a 60269094 		.ascii	"`&\220\224wY\213O\311L\005\376PL\015\252\"\324\000\017"
 356      77598B4F 
 356      C94C05FE 
 356      504C0DAA 
 356      22D4000F 
 357 0e9e 8F1225D0 		.ascii	"\217\022%\320;Z\013\026p\357\031U'\262\236\361\272\230"
 357      3B5A0B16 
 357      70EF1955 
 357      27B29EF1 
 357      BA98
 358 0eb0 AC14635B 		.ascii	"\254\024c[&\263\012\217\023\245\362\004\306\204\224"
 358      26B30A8F 
 358      13A5F204 
 358      C68494
 359 0ebf 1C0F8FE4 		.ascii	"\034\017\217\344:vAk\007\230>\032\011'\201\330\025\026"
 359      3A76416B 
 359      07983E1A 
 359      092781D8 
 359      1516
 360 0ed1 AF654F8A 		.ascii	"\257eO\212\353\244\260\032\216U\227\000\357\350\265"
 360      EBA4B01A 
 360      8E559700 
 360      EFE8B5
 361 0ee0 2572428E 		.ascii	"%rB\216\201\207T\027\003$k\001v\222\"\314C\374\321D"
 361      81875417 
 361      03246B01 
 361      769222CC 
 361      43FCD144 
 362 0ef4 3C1E19EC 		.ascii	"<\036\031\354`\344x2\022~\334\302c\215,%\200\311\376"
 362      60E47832 
 362      127EDCC2 
 362      638D2C25 
 362      80C9FE
ARM GAS  /tmp/ccsGLxLb.s 			page 29


 363 0f07 51391A07 		.ascii	"Q9\032\007\037e\267A\265\324r\027\271L\317f\344\252"
 363      1F65B741 
 363      B5D47217 
 363      B94CCF66 
 363      E4AA
 364 0f19 4321CEC3 		.ascii	"C!\316\303\357\0302l\310mV?\257\222\307\001\033E\311"
 364      EF18326C 
 364      C86D563F 
 364      AF92C701 
 364      1B45C9
 365 0f2c F0DFC04E 		.ascii	"\360\337\300NN\336\3113\016,\032~]\006\227\325\262:"
 365      4EDEC933 
 365      0E2C1A7E 
 365      5D0697D5 
 365      B23A
 366 0f3e AE361602 		.ascii	"\2566\026\002\347J(\361\011ap\275\376(\012Tp\015\022"
 366      E74A28F1 
 366      096170BD 
 366      FE280A54 
 366      700D12
 367 0f51 59EEFCE8 		.ascii	"Y\356\374\350\207\376\204T-'}\343\024Y\366\261\227>"
 367      87FE8454 
 367      2D277DE3 
 367      1459F6B1 
 367      973E
 368 0f63 46DA579B 		.ascii	"F\332W\233\224\253\212\364f\"(\365\247\256\2665\014"
 368      94AB8AF4 
 368      662228F5 
 368      A7AEB635 
 368      0C
 369 0f74 832940A7 		.ascii	"\203)@\247|u\250\346\2175U#\340\261*\377^\211GG\001"
 369      7C75A8E6 
 369      8F355523 
 369      E0B12AFF 
 369      5E894747 
 370 0f89 A89F2127 		.ascii	"\250\237!'\204\3048QR\252\207x\223\212Y.i1\011\273\007"
 370      84C43851 
 370      52AA8778 
 370      938A592E 
 370      693109BB 
 371 0f9e 01F0     		.ascii	"\001\360"
 372 0fa0 A473560A 		.ascii	"\244sV\012\356-\207\324 \343x\020Gu\014vz\020\032\013"
 372      EE2D87D4 
 372      20E37810 
 372      47750C76 
 372      7A101A0B 
 373 0fb4 D10478F8 		.ascii	"\321\004x\370\330P\315#\322x\27161\326_\307\202\315"
 373      D850CD23 
 373      D278B936 
 373      31D65FC7 
 373      82CD
 374 0fc6 57072EE3 		.ascii	"W\007.\343g\034'\2566\002\244JN\206\224p\002,\033T\257"
 374      671C27AE 
 374      3602A44A 
 374      4E869470 
 374      022C1B54 
 375 0fdb B1C08DAD 		.ascii	"\261\300\215\255M2\377\222\253F_\025\252a\322\014\217"
ARM GAS  /tmp/ccsGLxLb.s 			page 30


 375      4D32FF92 
 375      AB465F15 
 375      AA61D20C 
 375      8F
 376 0fec 44E2A1E1 		.ascii	"D\342\241\341LyrUi\250\206\021\301G9bg\022\223\004"
 376      4C797255 
 376      69A88611 
 376      C1473962 
 376      67129304 
 377 1000 32F7D849 		.ascii	"2\367\330I\311\007\342\241\361\001LA\320e\374m\016\312"
 377      C907E2A1 
 377      F1014C41 
 377      D065FC6D 
 377      0ECA
 378 1012 806C5639 		.ascii	"\200lV9b\314\330\321c3\010\321d8\031\004\367a\372\010"
 378      62CCD8D1 
 378      633308D1 
 378      64381904 
 378      F761FA08 
 379 1026 42B4AAC1 		.ascii	"B\264\252\301\373\207\217\375\335\203\017\215\356/E"
 379      FB878FFD 
 379      DD830F8D 
 379      EE2F45
 380 1035 EAA44949 		.ascii	"\352\244IIHg\221pL\366O\220\"\265r)\322y8\306\360\365"
 380      48679170 
 380      4CF64F90 
 380      22B57229 
 380      D27938C6 
 381 104b 64578BD7 		.ascii	"dW\213\327%\301 \232(\330\337\274\030r\347=\267\337"
 381      25C1209A 
 381      28D8DFBC 
 381      1872E73D 
 381      B7DF
 382 105d F93F51F5 		.ascii	"\371?Q\365o%"
 382      6F25
 383              		.text
 384              		.section	.gnu.lto_.symtab.d2dfcb0557c62d59,"",%progbits
 385 0000 63685468 		.ascii	"chThdCreateFromHeap\000\000\000\000\000\000\000\000"
 385      64437265 
 385      61746546 
 385      726F6D48 
 385      65617000 
 386 001b 00000000 		.ascii	"\000\000\000\000\241\000\000\000chThdCreateFromMemo"
 386      A1000000 
 386      63685468 
 386      64437265 
 386      61746546 
 387 0036 7279506F 		.ascii	"ryPool\000\000\000\000\000\000\000\000\000\000\000\000"
 387      6F6C0000 
 387      00000000 
 387      00000000 
 387      0000
 388 0048 95010000 		.ascii	"\225\001\000\000chSchWakeupS\000\000\002\000\000\000"
 388      63685363 
 388      6857616B 
 388      65757053 
 388      00000200 
ARM GAS  /tmp/ccsGLxLb.s 			page 31


 389 005e 00000000 		.ascii	"\000\000\000\000\000\000\263\001\000\000chThdCreate"
 389      0000B301 
 389      00006368 
 389      54686443 
 389      72656174 
 390 0073 53757370 		.ascii	"SuspendedI\000\000\002\000\000\000\000\000\000\000\000"
 390      656E6465 
 390      64490000 
 390      02000000 
 390      00000000 
 391 0088 00B80100 		.ascii	"\000\270\001\000\000chHeapAllocAligned\000\000\002\000"
 391      00636848 
 391      65617041 
 391      6C6C6F63 
 391      416C6967 
 392 00a3 00000000 		.ascii	"\000\000\000\000\000\000\000\000\314\001\000\000chP"
 392      00000000 
 392      CC010000 
 392      636850
 393 00b2 6F6F6C41 		.ascii	"oolAlloc\000\000\002\000\000\000\000\000\000\000\000"
 393      6C6C6F63 
 393      00000200 
 393      00000000 
 393      000000
 394 00c5 00D20100 		.ascii	"\000\322\001\000\000"
 394      00
 395              		.text
 396              		.section	.gnu.lto_.opts,"",%progbits
 397 0000 272D6D63 		.ascii	"'-mcpu=cortex-m3' '-mno-thumb-interwork' '-mthumb' "
 397      70753D63 
 397      6F727465 
 397      782D6D33 
 397      2720272D 
 398 0033 272D6767 		.ascii	"'-ggdb' '-O2' '-fomit-frame-pointer' '-falign-funct"
 398      64622720 
 398      272D4F32 
 398      2720272D 
 398      666F6D69 
 399 0066 696F6E73 		.ascii	"ions=16' '-ffunction-sections' '-fdata-sections' '-"
 399      3D313627 
 399      20272D66 
 399      66756E63 
 399      74696F6E 
 400 0099 666E6F2D 		.ascii	"fno-common' '-flto'\000"
 400      636F6D6D 
 400      6F6E2720 
 400      272D666C 
 400      746F2700 
 401              		.text
 402              		.cfi_sections	.debug_frame
 403              		.section	.text.chThdCreateFromHeap,"ax",%progbits
 404              		.align	2
 405              		.p2align 4,,15
 406              		.global	chThdCreateFromHeap
 407              		.thumb
 408              		.thumb_func
 409              		.type	chThdCreateFromHeap, %function
ARM GAS  /tmp/ccsGLxLb.s 			page 32


 410              	chThdCreateFromHeap:
 411              	.LFB186:
 412              		.file 1 "../../../os/rt/src/chdynamic.c"
 413              		.loc 1 84 0
 414              		.cfi_startproc
 415              		@ args = 8, pretend = 0, frame = 24
 416              		@ frame_needed = 0, uses_anonymous_args = 0
 417              	.LVL0:
 418 0000 70B5     		push	{r4, r5, r6, lr}
 419              		.cfi_def_cfa_offset 16
 420              		.cfi_offset 4, -16
 421              		.cfi_offset 5, -12
 422              		.cfi_offset 6, -8
 423              		.cfi_offset 14, -4
 424 0002 1446     		mov	r4, r2
 425 0004 86B0     		sub	sp, sp, #24
 426              		.cfi_def_cfa_offset 40
 427              		.loc 1 88 0
 428 0006 0822     		movs	r2, #8
 429              	.LVL1:
 430              		.loc 1 84 0
 431 0008 1E46     		mov	r6, r3
 432 000a 0D46     		mov	r5, r1
 433              		.loc 1 88 0
 434 000c FFF7FEFF 		bl	chHeapAllocAligned
 435              	.LVL2:
 436              		.loc 1 89 0
 437 0010 C8B1     		cbz	r0, .L2
 438              		.loc 1 93 0
 439 0012 0A9B     		ldr	r3, [sp, #40]
 440              		.loc 1 96 0
 441 0014 0544     		add	r5, r5, r0
 442              	.LVL3:
 443              		.loc 1 93 0
 444 0016 0493     		str	r3, [sp, #16]
 445 0018 0B9B     		ldr	r3, [sp, #44]
 446 001a 0295     		str	r5, [sp, #8]
 447 001c 0593     		str	r3, [sp, #20]
 448              	.LVL4:
 449 001e 0094     		str	r4, [sp]
 450 0020 0190     		str	r0, [sp, #4]
 451 0022 0396     		str	r6, [sp, #12]
 452              	.LBB34:
 453              	.LBB35:
 454              	.LBB36:
 455              	.LBB37:
 456              		.file 2 "../../../os/common/ext/CMSIS/include/cmsis_gcc.h"
 457              		.loc 2 264 0
 458 0024 2023     		movs	r3, #32
 459              	@ 264 "../../../os/common/ext/CMSIS/include/cmsis_gcc.h" 1
 460 0026 83F31188 		MSR basepri, r3
 461              	@ 0 "" 2
 462              		.thumb
 463              	.LBE37:
 464              	.LBE36:
 465              	.LBE35:
 466              	.LBE34:
ARM GAS  /tmp/ccsGLxLb.s 			page 33


 467              		.loc 1 109 0
 468 002a 6846     		mov	r0, sp
 469              	.LVL5:
 470 002c FFF7FEFF 		bl	chThdCreateSuspendedI
 471              	.LVL6:
 472              		.loc 1 110 0
 473 0030 0123     		movs	r3, #1
 474 0032 80F82130 		strb	r3, [r0, #33]
 475              		.loc 1 111 0
 476 0036 0021     		movs	r1, #0
 477              		.loc 1 109 0
 478 0038 0446     		mov	r4, r0
 479              	.LVL7:
 480              		.loc 1 111 0
 481 003a FFF7FEFF 		bl	chSchWakeupS
 482              	.LVL8:
 483              	.LBB38:
 484              	.LBB39:
 485              	.LBB40:
 486              	.LBB41:
 487              	.LBB42:
 488              		.loc 2 264 0
 489 003e 0023     		movs	r3, #0
 490              	@ 264 "../../../os/common/ext/CMSIS/include/cmsis_gcc.h" 1
 491 0040 83F31188 		MSR basepri, r3
 492              	@ 0 "" 2
 493              		.thumb
 494              	.LBE42:
 495              	.LBE41:
 496              	.LBE40:
 497              	.LBE39:
 498              	.LBE38:
 499              		.loc 1 114 0
 500 0044 2046     		mov	r0, r4
 501              	.LVL9:
 502              	.L2:
 503              		.loc 1 115 0
 504 0046 06B0     		add	sp, sp, #24
 505              		@ sp needed
 506 0048 70BD     		pop	{r4, r5, r6, pc}
 507              		.cfi_endproc
 508              	.LFE186:
 509              		.size	chThdCreateFromHeap, .-chThdCreateFromHeap
 510 004a 00BFAFF3 		.section	.text.chThdCreateFromMemoryPool,"ax",%progbits
 510      0080
 511              		.align	2
 512              		.p2align 4,,15
 513              		.global	chThdCreateFromMemoryPool
 514              		.thumb
 515              		.thumb_func
 516              		.type	chThdCreateFromMemoryPool, %function
 517              	chThdCreateFromMemoryPool:
 518              	.LFB187:
 519              		.loc 1 146 0
 520              		.cfi_startproc
 521              		@ args = 4, pretend = 0, frame = 24
 522              		@ frame_needed = 0, uses_anonymous_args = 0
ARM GAS  /tmp/ccsGLxLb.s 			page 34


 523              	.LVL10:
 524 0000 F0B5     		push	{r4, r5, r6, r7, lr}
 525              		.cfi_def_cfa_offset 20
 526              		.cfi_offset 4, -20
 527              		.cfi_offset 5, -16
 528              		.cfi_offset 6, -12
 529              		.cfi_offset 7, -8
 530              		.cfi_offset 14, -4
 531 0002 87B0     		sub	sp, sp, #28
 532              		.cfi_def_cfa_offset 48
 533              		.loc 1 146 0
 534 0004 0F46     		mov	r7, r1
 535 0006 1646     		mov	r6, r2
 536 0008 1C46     		mov	r4, r3
 537 000a 0546     		mov	r5, r0
 538              		.loc 1 152 0
 539 000c FFF7FEFF 		bl	chPoolAlloc
 540              	.LVL11:
 541              		.loc 1 153 0
 542 0010 D0B1     		cbz	r0, .L6
 543              		.loc 1 160 0
 544 0012 6B68     		ldr	r3, [r5, #4]
 545              		.loc 1 157 0
 546 0014 0C9A     		ldr	r2, [sp, #48]
 547              		.loc 1 160 0
 548 0016 0344     		add	r3, r3, r0
 549              		.loc 1 157 0
 550 0018 0293     		str	r3, [sp, #8]
 551 001a 0097     		str	r7, [sp]
 552 001c 0190     		str	r0, [sp, #4]
 553 001e 0396     		str	r6, [sp, #12]
 554 0020 0494     		str	r4, [sp, #16]
 555 0022 0592     		str	r2, [sp, #20]
 556              	.LVL12:
 557              	.LBB43:
 558              	.LBB44:
 559              	.LBB45:
 560              	.LBB46:
 561              		.loc 2 264 0
 562 0024 2023     		movs	r3, #32
 563              	@ 264 "../../../os/common/ext/CMSIS/include/cmsis_gcc.h" 1
 564 0026 83F31188 		MSR basepri, r3
 565              	@ 0 "" 2
 566              		.thumb
 567              	.LBE46:
 568              	.LBE45:
 569              	.LBE44:
 570              	.LBE43:
 571              		.loc 1 173 0
 572 002a 6846     		mov	r0, sp
 573              	.LVL13:
 574 002c FFF7FEFF 		bl	chThdCreateSuspendedI
 575              	.LVL14:
 576              		.loc 1 174 0
 577 0030 0223     		movs	r3, #2
 578 0032 80F82130 		strb	r3, [r0, #33]
 579              		.loc 1 175 0
ARM GAS  /tmp/ccsGLxLb.s 			page 35


 580 0036 0564     		str	r5, [r0, #64]
 581              		.loc 1 176 0
 582 0038 0021     		movs	r1, #0
 583              		.loc 1 173 0
 584 003a 0446     		mov	r4, r0
 585              	.LVL15:
 586              		.loc 1 176 0
 587 003c FFF7FEFF 		bl	chSchWakeupS
 588              	.LVL16:
 589              	.LBB47:
 590              	.LBB48:
 591              	.LBB49:
 592              	.LBB50:
 593              	.LBB51:
 594              		.loc 2 264 0
 595 0040 0023     		movs	r3, #0
 596              	@ 264 "../../../os/common/ext/CMSIS/include/cmsis_gcc.h" 1
 597 0042 83F31188 		MSR basepri, r3
 598              	@ 0 "" 2
 599              		.thumb
 600              	.LBE51:
 601              	.LBE50:
 602              	.LBE49:
 603              	.LBE48:
 604              	.LBE47:
 605              		.loc 1 179 0
 606 0046 2046     		mov	r0, r4
 607              	.LVL17:
 608              	.L6:
 609              		.loc 1 180 0
 610 0048 07B0     		add	sp, sp, #28
 611              		@ sp needed
 612 004a F0BD     		pop	{r4, r5, r6, r7, pc}
 613              		.cfi_endproc
 614              	.LFE187:
 615              		.size	chThdCreateFromMemoryPool, .-chThdCreateFromMemoryPool
 616 004c AFF30080 		.text
 617              	.Letext0:
 618              		.file 3 "/home/alex/MentorGraphics/Sourcery_CodeBench_Lite_for_ARM_EABI/lib/gcc/arm-none-eabi/4.8.
 619              		.file 4 "/home/alex/MentorGraphics/Sourcery_CodeBench_Lite_for_ARM_EABI/arm-none-eabi/include/stdi
 620              		.file 5 "../../../os/common/ports/ARMCMx/compilers/GCC/chtypes.h"
 621              		.file 6 "../../../os/rt/include/chsystypes.h"
 622              		.file 7 "../../../os/rt/include/chschd.h"
 623              		.file 8 "../../../os/common/ports/ARMCMx/chcore.h"
 624              		.file 9 "../../../os/common/ports/ARMCMx/chcore_v7m.h"
 625              		.file 10 "../../../os/rt/include/chtm.h"
 626              		.file 11 "../../../os/rt/include/chsem.h"
 627              		.file 12 "../../../os/rt/include/chmtx.h"
 628              		.file 13 "../../../os/rt/include/chthreads.h"
 629              		.file 14 "../../../os/common/oslib/include/chmemcore.h"
 630              		.file 15 "../../../os/common/oslib/include/chheap.h"
 631              		.file 16 "../../../os/common/oslib/include/chmempools.h"
 632              		.file 17 "../../../os/rt/include/chsys.h"
 633              		.file 18 "../../../os/common/ext/CMSIS/include/core_cm3.h"
 634              		.section	.debug_info,"",%progbits
 635              	.Ldebug_info0:
 636 0000 5C0B0000 		.4byte	0xb5c
ARM GAS  /tmp/ccsGLxLb.s 			page 36


 637 0004 0400     		.2byte	0x4
 638 0006 00000000 		.4byte	.Ldebug_abbrev0
 639 000a 04       		.byte	0x4
 640 000b 01       		.uleb128 0x1
 641 000c 2E020000 		.4byte	.LASF121
 642 0010 01       		.byte	0x1
 643 0011 43030000 		.4byte	.LASF122
 644 0015 BA050000 		.4byte	.LASF123
 645 0019 00000000 		.4byte	.Ldebug_ranges0+0
 646 001d 00000000 		.4byte	0
 647 0021 00000000 		.4byte	.Ldebug_line0
 648 0025 02       		.uleb128 0x2
 649 0026 04       		.byte	0x4
 650 0027 05       		.byte	0x5
 651 0028 696E7400 		.ascii	"int\000"
 652 002c 03       		.uleb128 0x3
 653 002d F9010000 		.4byte	.LASF2
 654 0031 03       		.byte	0x3
 655 0032 D4       		.byte	0xd4
 656 0033 37000000 		.4byte	0x37
 657 0037 04       		.uleb128 0x4
 658 0038 04       		.byte	0x4
 659 0039 07       		.byte	0x7
 660 003a 67000000 		.4byte	.LASF0
 661 003e 04       		.uleb128 0x4
 662 003f 01       		.byte	0x1
 663 0040 06       		.byte	0x6
 664 0041 70050000 		.4byte	.LASF1
 665 0045 03       		.uleb128 0x3
 666 0046 22030000 		.4byte	.LASF3
 667 004a 04       		.byte	0x4
 668 004b 2A       		.byte	0x2a
 669 004c 50000000 		.4byte	0x50
 670 0050 04       		.uleb128 0x4
 671 0051 01       		.byte	0x1
 672 0052 08       		.byte	0x8
 673 0053 01050000 		.4byte	.LASF4
 674 0057 04       		.uleb128 0x4
 675 0058 02       		.byte	0x2
 676 0059 05       		.byte	0x5
 677 005a 0B040000 		.4byte	.LASF5
 678 005e 03       		.uleb128 0x3
 679 005f E7030000 		.4byte	.LASF6
 680 0063 04       		.byte	0x4
 681 0064 36       		.byte	0x36
 682 0065 69000000 		.4byte	0x69
 683 0069 04       		.uleb128 0x4
 684 006a 02       		.byte	0x2
 685 006b 07       		.byte	0x7
 686 006c 82050000 		.4byte	.LASF7
 687 0070 03       		.uleb128 0x3
 688 0071 D0040000 		.4byte	.LASF8
 689 0075 04       		.byte	0x4
 690 0076 4F       		.byte	0x4f
 691 0077 7B000000 		.4byte	0x7b
 692 007b 04       		.uleb128 0x4
 693 007c 04       		.byte	0x4
ARM GAS  /tmp/ccsGLxLb.s 			page 37


 694 007d 05       		.byte	0x5
 695 007e 21040000 		.4byte	.LASF9
 696 0082 03       		.uleb128 0x3
 697 0083 00010000 		.4byte	.LASF10
 698 0087 04       		.byte	0x4
 699 0088 50       		.byte	0x50
 700 0089 8D000000 		.4byte	0x8d
 701 008d 04       		.uleb128 0x4
 702 008e 04       		.byte	0x4
 703 008f 07       		.byte	0x7
 704 0090 AB040000 		.4byte	.LASF11
 705 0094 04       		.uleb128 0x4
 706 0095 08       		.byte	0x8
 707 0096 05       		.byte	0x5
 708 0097 76030000 		.4byte	.LASF12
 709 009b 03       		.uleb128 0x3
 710 009c 6D040000 		.4byte	.LASF13
 711 00a0 04       		.byte	0x4
 712 00a1 78       		.byte	0x78
 713 00a2 A6000000 		.4byte	0xa6
 714 00a6 04       		.uleb128 0x4
 715 00a7 08       		.byte	0x8
 716 00a8 07       		.byte	0x7
 717 00a9 5F010000 		.4byte	.LASF14
 718 00ad 03       		.uleb128 0x3
 719 00ae F0030000 		.4byte	.LASF15
 720 00b2 05       		.byte	0x5
 721 00b3 39       		.byte	0x39
 722 00b4 82000000 		.4byte	0x82
 723 00b8 03       		.uleb128 0x3
 724 00b9 D4030000 		.4byte	.LASF16
 725 00bd 05       		.byte	0x5
 726 00be 3C       		.byte	0x3c
 727 00bf 45000000 		.4byte	0x45
 728 00c3 03       		.uleb128 0x3
 729 00c4 19030000 		.4byte	.LASF17
 730 00c8 05       		.byte	0x5
 731 00c9 3D       		.byte	0x3d
 732 00ca 45000000 		.4byte	0x45
 733 00ce 03       		.uleb128 0x3
 734 00cf A3040000 		.4byte	.LASF18
 735 00d3 05       		.byte	0x5
 736 00d4 3E       		.byte	0x3e
 737 00d5 45000000 		.4byte	0x45
 738 00d9 03       		.uleb128 0x3
 739 00da 3E010000 		.4byte	.LASF19
 740 00de 05       		.byte	0x5
 741 00df 40       		.byte	0x40
 742 00e0 82000000 		.4byte	0x82
 743 00e4 03       		.uleb128 0x3
 744 00e5 84030000 		.4byte	.LASF20
 745 00e9 05       		.byte	0x5
 746 00ea 41       		.byte	0x41
 747 00eb 70000000 		.4byte	0x70
 748 00ef 03       		.uleb128 0x3
 749 00f0 11010000 		.4byte	.LASF21
 750 00f4 05       		.byte	0x5
ARM GAS  /tmp/ccsGLxLb.s 			page 38


 751 00f5 43       		.byte	0x43
 752 00f6 82000000 		.4byte	0x82
 753 00fa 03       		.uleb128 0x3
 754 00fb 76010000 		.4byte	.LASF22
 755 00ff 05       		.byte	0x5
 756 0100 45       		.byte	0x45
 757 0101 70000000 		.4byte	0x70
 758 0105 03       		.uleb128 0x3
 759 0106 4B000000 		.4byte	.LASF23
 760 010a 06       		.byte	0x6
 761 010b 35       		.byte	0x35
 762 010c 5E000000 		.4byte	0x5e
 763 0110 03       		.uleb128 0x3
 764 0111 E4010000 		.4byte	.LASF24
 765 0115 06       		.byte	0x6
 766 0116 3F       		.byte	0x3f
 767 0117 1B010000 		.4byte	0x11b
 768 011b 05       		.uleb128 0x5
 769 011c 33030000 		.4byte	.LASF42
 770 0120 44       		.byte	0x44
 771 0121 07       		.byte	0x7
 772 0122 9A       		.byte	0x9a
 773 0123 F9010000 		.4byte	0x1f9
 774 0127 06       		.uleb128 0x6
 775 0128 CA040000 		.4byte	.LASF25
 776 012c 07       		.byte	0x7
 777 012d 9B       		.byte	0x9b
 778 012e 2E020000 		.4byte	0x22e
 779 0132 00       		.byte	0
 780 0133 06       		.uleb128 0x6
 781 0134 DB020000 		.4byte	.LASF26
 782 0138 07       		.byte	0x7
 783 0139 9C       		.byte	0x9c
 784 013a D9000000 		.4byte	0xd9
 785 013e 08       		.byte	0x8
 786 013f 07       		.uleb128 0x7
 787 0140 63747800 		.ascii	"ctx\000"
 788 0144 07       		.byte	0x7
 789 0145 9D       		.byte	0x9d
 790 0146 26040000 		.4byte	0x426
 791 014a 0C       		.byte	0xc
 792 014b 06       		.uleb128 0x6
 793 014c FB040000 		.4byte	.LASF27
 794 0150 07       		.byte	0x7
 795 0151 9F       		.byte	0x9f
 796 0152 04020000 		.4byte	0x204
 797 0156 10       		.byte	0x10
 798 0157 06       		.uleb128 0x6
 799 0158 33050000 		.4byte	.LASF28
 800 015c 07       		.byte	0x7
 801 015d A0       		.byte	0xa0
 802 015e 04020000 		.4byte	0x204
 803 0162 14       		.byte	0x14
 804 0163 06       		.uleb128 0x6
 805 0164 95040000 		.4byte	.LASF29
 806 0168 07       		.byte	0x7
 807 0169 A7       		.byte	0xa7
ARM GAS  /tmp/ccsGLxLb.s 			page 39


 808 016a AB050000 		.4byte	0x5ab
 809 016e 18       		.byte	0x18
 810 016f 06       		.uleb128 0x6
 811 0170 F8020000 		.4byte	.LASF30
 812 0174 07       		.byte	0x7
 813 0175 B0       		.byte	0xb0
 814 0176 BD050000 		.4byte	0x5bd
 815 017a 1C       		.byte	0x1c
 816 017b 06       		.uleb128 0x6
 817 017c 46050000 		.4byte	.LASF31
 818 0180 07       		.byte	0x7
 819 0181 B5       		.byte	0xb5
 820 0182 C3000000 		.4byte	0xc3
 821 0186 20       		.byte	0x20
 822 0187 06       		.uleb128 0x6
 823 0188 45000000 		.4byte	.LASF32
 824 018c 07       		.byte	0x7
 825 018d B9       		.byte	0xb9
 826 018e B8000000 		.4byte	0xb8
 827 0192 21       		.byte	0x21
 828 0193 06       		.uleb128 0x6
 829 0194 88000000 		.4byte	.LASF33
 830 0198 07       		.byte	0x7
 831 0199 BE       		.byte	0xbe
 832 019a CE000000 		.4byte	0xce
 833 019e 22       		.byte	0x22
 834 019f 08       		.uleb128 0x8
 835 01a0 7500     		.ascii	"u\000"
 836 01a2 07       		.byte	0x7
 837 01a3 0F01     		.2byte	0x10f
 838 01a5 E0040000 		.4byte	0x4e0
 839 01a9 24       		.byte	0x24
 840 01aa 09       		.uleb128 0x9
 841 01ab 0F050000 		.4byte	.LASF34
 842 01af 07       		.byte	0x7
 843 01b0 1401     		.2byte	0x114
 844 01b2 0A020000 		.4byte	0x20a
 845 01b6 28       		.byte	0x28
 846 01b7 09       		.uleb128 0x9
 847 01b8 2A030000 		.4byte	.LASF35
 848 01bc 07       		.byte	0x7
 849 01bd 1A01     		.2byte	0x11a
 850 01bf 2E020000 		.4byte	0x22e
 851 01c3 2C       		.byte	0x2c
 852 01c4 09       		.uleb128 0x9
 853 01c5 5E000000 		.4byte	.LASF36
 854 01c9 07       		.byte	0x7
 855 01ca 2001     		.2byte	0x120
 856 01cc EF000000 		.4byte	0xef
 857 01d0 34       		.byte	0x34
 858 01d1 09       		.uleb128 0x9
 859 01d2 B2010000 		.4byte	.LASF37
 860 01d6 07       		.byte	0x7
 861 01d7 2701     		.2byte	0x127
 862 01d9 A5050000 		.4byte	0x5a5
 863 01dd 38       		.byte	0x38
 864 01de 09       		.uleb128 0x9
ARM GAS  /tmp/ccsGLxLb.s 			page 40


 865 01df 55000000 		.4byte	.LASF38
 866 01e3 07       		.byte	0x7
 867 01e4 2B01     		.2byte	0x12b
 868 01e6 D9000000 		.4byte	0xd9
 869 01ea 3C       		.byte	0x3c
 870 01eb 09       		.uleb128 0x9
 871 01ec 21060000 		.4byte	.LASF39
 872 01f0 07       		.byte	0x7
 873 01f1 3201     		.2byte	0x132
 874 01f3 E1020000 		.4byte	0x2e1
 875 01f7 40       		.byte	0x40
 876 01f8 00       		.byte	0
 877 01f9 03       		.uleb128 0x3
 878 01fa E5020000 		.4byte	.LASF40
 879 01fe 06       		.byte	0x6
 880 01ff 44       		.byte	0x44
 881 0200 04020000 		.4byte	0x204
 882 0204 0A       		.uleb128 0xa
 883 0205 04       		.byte	0x4
 884 0206 10010000 		.4byte	0x110
 885 020a 03       		.uleb128 0x3
 886 020b 79000000 		.4byte	.LASF41
 887 020f 06       		.byte	0x6
 888 0210 49       		.byte	0x49
 889 0211 15020000 		.4byte	0x215
 890 0215 05       		.uleb128 0x5
 891 0216 00000000 		.4byte	.LASF43
 892 021a 04       		.byte	0x4
 893 021b 07       		.byte	0x7
 894 021c 88       		.byte	0x88
 895 021d 2E020000 		.4byte	0x22e
 896 0221 06       		.uleb128 0x6
 897 0222 74000000 		.4byte	.LASF44
 898 0226 07       		.byte	0x7
 899 0227 89       		.byte	0x89
 900 0228 04020000 		.4byte	0x204
 901 022c 00       		.byte	0
 902 022d 00       		.byte	0
 903 022e 03       		.uleb128 0x3
 904 022f 9C010000 		.4byte	.LASF45
 905 0233 06       		.byte	0x6
 906 0234 50       		.byte	0x50
 907 0235 39020000 		.4byte	0x239
 908 0239 05       		.uleb128 0x5
 909 023a D6000000 		.4byte	.LASF46
 910 023e 08       		.byte	0x8
 911 023f 07       		.byte	0x7
 912 0240 8F       		.byte	0x8f
 913 0241 5E020000 		.4byte	0x25e
 914 0245 06       		.uleb128 0x6
 915 0246 74000000 		.4byte	.LASF44
 916 024a 07       		.byte	0x7
 917 024b 90       		.byte	0x90
 918 024c 04020000 		.4byte	0x204
 919 0250 00       		.byte	0
 920 0251 06       		.uleb128 0x6
 921 0252 D1000000 		.4byte	.LASF47
ARM GAS  /tmp/ccsGLxLb.s 			page 41


 922 0256 07       		.byte	0x7
 923 0257 91       		.byte	0x91
 924 0258 04020000 		.4byte	0x204
 925 025c 04       		.byte	0x4
 926 025d 00       		.byte	0
 927 025e 03       		.uleb128 0x3
 928 025f BD040000 		.4byte	.LASF48
 929 0263 06       		.byte	0x6
 930 0264 57       		.byte	0x57
 931 0265 69020000 		.4byte	0x269
 932 0269 0B       		.uleb128 0xb
 933 026a B7000000 		.4byte	.LASF49
 934 026e 1C       		.byte	0x1c
 935 026f 07       		.byte	0x7
 936 0270 6A01     		.2byte	0x16a
 937 0272 C5020000 		.4byte	0x2c5
 938 0276 09       		.uleb128 0x9
 939 0277 CA040000 		.4byte	.LASF25
 940 027b 07       		.byte	0x7
 941 027c 6B01     		.2byte	0x16b
 942 027e 2E020000 		.4byte	0x22e
 943 0282 00       		.byte	0
 944 0283 09       		.uleb128 0x9
 945 0284 DB020000 		.4byte	.LASF26
 946 0288 07       		.byte	0x7
 947 0289 6C01     		.2byte	0x16c
 948 028b D9000000 		.4byte	0xd9
 949 028f 08       		.byte	0x8
 950 0290 08       		.uleb128 0x8
 951 0291 63747800 		.ascii	"ctx\000"
 952 0295 07       		.byte	0x7
 953 0296 6E01     		.2byte	0x16e
 954 0298 26040000 		.4byte	0x426
 955 029c 0C       		.byte	0xc
 956 029d 09       		.uleb128 0x9
 957 029e FB040000 		.4byte	.LASF27
 958 02a2 07       		.byte	0x7
 959 02a3 7101     		.2byte	0x171
 960 02a5 04020000 		.4byte	0x204
 961 02a9 10       		.byte	0x10
 962 02aa 09       		.uleb128 0x9
 963 02ab 33050000 		.4byte	.LASF28
 964 02af 07       		.byte	0x7
 965 02b0 7201     		.2byte	0x172
 966 02b2 04020000 		.4byte	0x204
 967 02b6 14       		.byte	0x14
 968 02b7 09       		.uleb128 0x9
 969 02b8 A0050000 		.4byte	.LASF50
 970 02bc 07       		.byte	0x7
 971 02bd 7501     		.2byte	0x175
 972 02bf 04020000 		.4byte	0x204
 973 02c3 18       		.byte	0x18
 974 02c4 00       		.byte	0
 975 02c5 03       		.uleb128 0x3
 976 02c6 E7000000 		.4byte	.LASF51
 977 02ca 06       		.byte	0x6
 978 02cb 5C       		.byte	0x5c
ARM GAS  /tmp/ccsGLxLb.s 			page 42


 979 02cc D0020000 		.4byte	0x2d0
 980 02d0 0A       		.uleb128 0xa
 981 02d1 04       		.byte	0x4
 982 02d2 D6020000 		.4byte	0x2d6
 983 02d6 0C       		.uleb128 0xc
 984 02d7 E1020000 		.4byte	0x2e1
 985 02db 0D       		.uleb128 0xd
 986 02dc E1020000 		.4byte	0x2e1
 987 02e0 00       		.byte	0
 988 02e1 0E       		.uleb128 0xe
 989 02e2 04       		.byte	0x4
 990 02e3 03       		.uleb128 0x3
 991 02e4 8A030000 		.4byte	.LASF52
 992 02e8 06       		.byte	0x6
 993 02e9 61       		.byte	0x61
 994 02ea EE020000 		.4byte	0x2ee
 995 02ee 0B       		.uleb128 0xb
 996 02ef 46010000 		.4byte	.LASF53
 997 02f3 14       		.byte	0x14
 998 02f4 07       		.byte	0x7
 999 02f5 4501     		.2byte	0x145
 1000 02f7 3D030000 		.4byte	0x33d
 1001 02fb 09       		.uleb128 0x9
 1002 02fc 74000000 		.4byte	.LASF44
 1003 0300 07       		.byte	0x7
 1004 0301 4601     		.2byte	0x146
 1005 0303 C3050000 		.4byte	0x5c3
 1006 0307 00       		.byte	0
 1007 0308 09       		.uleb128 0x9
 1008 0309 D1000000 		.4byte	.LASF47
 1009 030d 07       		.byte	0x7
 1010 030e 4701     		.2byte	0x147
 1011 0310 C3050000 		.4byte	0x5c3
 1012 0314 04       		.byte	0x4
 1013 0315 09       		.uleb128 0x9
 1014 0316 7C050000 		.4byte	.LASF54
 1015 031a 07       		.byte	0x7
 1016 031b 4801     		.2byte	0x148
 1017 031d 05010000 		.4byte	0x105
 1018 0321 08       		.byte	0x8
 1019 0322 09       		.uleb128 0x9
 1020 0323 C5000000 		.4byte	.LASF55
 1021 0327 07       		.byte	0x7
 1022 0328 4901     		.2byte	0x149
 1023 032a C5020000 		.4byte	0x2c5
 1024 032e 0C       		.byte	0xc
 1025 032f 08       		.uleb128 0x8
 1026 0330 70617200 		.ascii	"par\000"
 1027 0334 07       		.byte	0x7
 1028 0335 4B01     		.2byte	0x14b
 1029 0337 E1020000 		.4byte	0x2e1
 1030 033b 10       		.byte	0x10
 1031 033c 00       		.byte	0
 1032 033d 03       		.uleb128 0x3
 1033 033e 1D050000 		.4byte	.LASF56
 1034 0342 06       		.byte	0x6
 1035 0343 66       		.byte	0x66
ARM GAS  /tmp/ccsGLxLb.s 			page 43


 1036 0344 48030000 		.4byte	0x348
 1037 0348 0B       		.uleb128 0xb
 1038 0349 BA010000 		.4byte	.LASF57
 1039 034d 0C       		.byte	0xc
 1040 034e 07       		.byte	0x7
 1041 034f 5501     		.2byte	0x155
 1042 0351 8A030000 		.4byte	0x38a
 1043 0355 09       		.uleb128 0x9
 1044 0356 74000000 		.4byte	.LASF44
 1045 035a 07       		.byte	0x7
 1046 035b 5601     		.2byte	0x156
 1047 035d C3050000 		.4byte	0x5c3
 1048 0361 00       		.byte	0
 1049 0362 09       		.uleb128 0x9
 1050 0363 D1000000 		.4byte	.LASF47
 1051 0367 07       		.byte	0x7
 1052 0368 5801     		.2byte	0x158
 1053 036a C3050000 		.4byte	0x5c3
 1054 036e 04       		.byte	0x4
 1055 036f 09       		.uleb128 0x9
 1056 0370 7C050000 		.4byte	.LASF54
 1057 0374 07       		.byte	0x7
 1058 0375 5A01     		.2byte	0x15a
 1059 0377 05010000 		.4byte	0x105
 1060 037b 08       		.byte	0x8
 1061 037c 09       		.uleb128 0x9
 1062 037d 64040000 		.4byte	.LASF58
 1063 0381 07       		.byte	0x7
 1064 0382 6201     		.2byte	0x162
 1065 0384 05010000 		.4byte	0x105
 1066 0388 0A       		.byte	0xa
 1067 0389 00       		.byte	0
 1068 038a 03       		.uleb128 0x3
 1069 038b 62030000 		.4byte	.LASF59
 1070 038f 06       		.byte	0x6
 1071 0390 6B       		.byte	0x6b
 1072 0391 95030000 		.4byte	0x395
 1073 0395 0B       		.uleb128 0xb
 1074 0396 F0000000 		.4byte	.LASF60
 1075 039a 04       		.byte	0x4
 1076 039b 07       		.byte	0x7
 1077 039c 7C01     		.2byte	0x17c
 1078 039e B0030000 		.4byte	0x3b0
 1079 03a2 09       		.uleb128 0x9
 1080 03a3 CA030000 		.4byte	.LASF61
 1081 03a7 07       		.byte	0x7
 1082 03a8 8401     		.2byte	0x184
 1083 03aa C9050000 		.4byte	0x5c9
 1084 03ae 00       		.byte	0
 1085 03af 00       		.byte	0
 1086 03b0 03       		.uleb128 0x3
 1087 03b1 58050000 		.4byte	.LASF62
 1088 03b5 06       		.byte	0x6
 1089 03b6 70       		.byte	0x70
 1090 03b7 BB030000 		.4byte	0x3bb
 1091 03bb 0B       		.uleb128 0xb
 1092 03bc 43040000 		.4byte	.LASF63
ARM GAS  /tmp/ccsGLxLb.s 			page 44


 1093 03c0 74       		.byte	0x74
 1094 03c1 07       		.byte	0x7
 1095 03c2 9C01     		.2byte	0x19c
 1096 03c4 09040000 		.4byte	0x409
 1097 03c8 09       		.uleb128 0x9
 1098 03c9 76040000 		.4byte	.LASF64
 1099 03cd 07       		.byte	0x7
 1100 03ce A001     		.2byte	0x1a0
 1101 03d0 5E020000 		.4byte	0x25e
 1102 03d4 00       		.byte	0
 1103 03d5 09       		.uleb128 0x9
 1104 03d6 A3000000 		.4byte	.LASF65
 1105 03da 07       		.byte	0x7
 1106 03db A401     		.2byte	0x1a4
 1107 03dd 3D030000 		.4byte	0x33d
 1108 03e1 1C       		.byte	0x1c
 1109 03e2 08       		.uleb128 0x8
 1110 03e3 64626700 		.ascii	"dbg\000"
 1111 03e7 07       		.byte	0x7
 1112 03e8 A801     		.2byte	0x1a8
 1113 03ea 8A030000 		.4byte	0x38a
 1114 03ee 28       		.byte	0x28
 1115 03ef 09       		.uleb128 0x9
 1116 03f0 DC030000 		.4byte	.LASF66
 1117 03f4 07       		.byte	0x7
 1118 03f5 AC01     		.2byte	0x1ac
 1119 03f7 10010000 		.4byte	0x110
 1120 03fb 2C       		.byte	0x2c
 1121 03fc 08       		.uleb128 0x8
 1122 03fd 746D00   		.ascii	"tm\000"
 1123 0400 07       		.byte	0x7
 1124 0401 B101     		.2byte	0x1b1
 1125 0403 D5040000 		.4byte	0x4d5
 1126 0407 70       		.byte	0x70
 1127 0408 00       		.byte	0
 1128 0409 04       		.uleb128 0x4
 1129 040a 04       		.byte	0x4
 1130 040b 07       		.byte	0x7
 1131 040c 9A040000 		.4byte	.LASF67
 1132 0410 03       		.uleb128 0x3
 1133 0411 3C000000 		.4byte	.LASF68
 1134 0415 08       		.byte	0x8
 1135 0416 65       		.byte	0x65
 1136 0417 E1020000 		.4byte	0x2e1
 1137 041b 03       		.uleb128 0x3
 1138 041c 95050000 		.4byte	.LASF69
 1139 0420 08       		.byte	0x8
 1140 0421 6D       		.byte	0x6d
 1141 0422 9B000000 		.4byte	0x9b
 1142 0426 05       		.uleb128 0x5
 1143 0427 AA000000 		.4byte	.LASF70
 1144 042b 04       		.byte	0x4
 1145 042c 08       		.byte	0x8
 1146 042d 89       		.byte	0x89
 1147 042e 3E040000 		.4byte	0x43e
 1148 0432 07       		.uleb128 0x7
 1149 0433 737000   		.ascii	"sp\000"
ARM GAS  /tmp/ccsGLxLb.s 			page 45


 1150 0436 08       		.byte	0x8
 1151 0437 8A       		.byte	0x8a
 1152 0438 BA040000 		.4byte	0x4ba
 1153 043c 00       		.byte	0
 1154 043d 00       		.byte	0
 1155 043e 0B       		.uleb128 0xb
 1156 043f 2A040000 		.4byte	.LASF71
 1157 0443 24       		.byte	0x24
 1158 0444 09       		.byte	0x9
 1159 0445 5901     		.2byte	0x159
 1160 0447 BA040000 		.4byte	0x4ba
 1161 044b 08       		.uleb128 0x8
 1162 044c 723400   		.ascii	"r4\000"
 1163 044f 09       		.byte	0x9
 1164 0450 6C01     		.2byte	0x16c
 1165 0452 10040000 		.4byte	0x410
 1166 0456 00       		.byte	0
 1167 0457 08       		.uleb128 0x8
 1168 0458 723500   		.ascii	"r5\000"
 1169 045b 09       		.byte	0x9
 1170 045c 6D01     		.2byte	0x16d
 1171 045e 10040000 		.4byte	0x410
 1172 0462 04       		.byte	0x4
 1173 0463 08       		.uleb128 0x8
 1174 0464 723600   		.ascii	"r6\000"
 1175 0467 09       		.byte	0x9
 1176 0468 6E01     		.2byte	0x16e
 1177 046a 10040000 		.4byte	0x410
 1178 046e 08       		.byte	0x8
 1179 046f 08       		.uleb128 0x8
 1180 0470 723700   		.ascii	"r7\000"
 1181 0473 09       		.byte	0x9
 1182 0474 6F01     		.2byte	0x16f
 1183 0476 10040000 		.4byte	0x410
 1184 047a 0C       		.byte	0xc
 1185 047b 08       		.uleb128 0x8
 1186 047c 723800   		.ascii	"r8\000"
 1187 047f 09       		.byte	0x9
 1188 0480 7001     		.2byte	0x170
 1189 0482 10040000 		.4byte	0x410
 1190 0486 10       		.byte	0x10
 1191 0487 08       		.uleb128 0x8
 1192 0488 723900   		.ascii	"r9\000"
 1193 048b 09       		.byte	0x9
 1194 048c 7101     		.2byte	0x171
 1195 048e 10040000 		.4byte	0x410
 1196 0492 14       		.byte	0x14
 1197 0493 08       		.uleb128 0x8
 1198 0494 72313000 		.ascii	"r10\000"
 1199 0498 09       		.byte	0x9
 1200 0499 7201     		.2byte	0x172
 1201 049b 10040000 		.4byte	0x410
 1202 049f 18       		.byte	0x18
 1203 04a0 08       		.uleb128 0x8
 1204 04a1 72313100 		.ascii	"r11\000"
 1205 04a5 09       		.byte	0x9
 1206 04a6 7301     		.2byte	0x173
ARM GAS  /tmp/ccsGLxLb.s 			page 46


 1207 04a8 10040000 		.4byte	0x410
 1208 04ac 1C       		.byte	0x1c
 1209 04ad 08       		.uleb128 0x8
 1210 04ae 6C7200   		.ascii	"lr\000"
 1211 04b1 09       		.byte	0x9
 1212 04b2 7401     		.2byte	0x174
 1213 04b4 10040000 		.4byte	0x410
 1214 04b8 20       		.byte	0x20
 1215 04b9 00       		.byte	0
 1216 04ba 0A       		.uleb128 0xa
 1217 04bb 04       		.byte	0x4
 1218 04bc 3E040000 		.4byte	0x43e
 1219 04c0 0F       		.uleb128 0xf
 1220 04c1 04       		.byte	0x4
 1221 04c2 0A       		.byte	0xa
 1222 04c3 38       		.byte	0x38
 1223 04c4 D5040000 		.4byte	0x4d5
 1224 04c8 06       		.uleb128 0x6
 1225 04c9 13020000 		.4byte	.LASF72
 1226 04cd 0A       		.byte	0xa
 1227 04ce 3C       		.byte	0x3c
 1228 04cf AD000000 		.4byte	0xad
 1229 04d3 00       		.byte	0
 1230 04d4 00       		.byte	0
 1231 04d5 03       		.uleb128 0x3
 1232 04d6 25000000 		.4byte	.LASF73
 1233 04da 0A       		.byte	0xa
 1234 04db 3D       		.byte	0x3d
 1235 04dc C0040000 		.4byte	0x4c0
 1236 04e0 10       		.uleb128 0x10
 1237 04e1 04       		.byte	0x4
 1238 04e2 07       		.byte	0x7
 1239 04e3 D2       		.byte	0xd2
 1240 04e4 43050000 		.4byte	0x543
 1241 04e8 11       		.uleb128 0x11
 1242 04e9 00020000 		.4byte	.LASF74
 1243 04ed 07       		.byte	0x7
 1244 04ee D9       		.byte	0xd9
 1245 04ef E4000000 		.4byte	0xe4
 1246 04f3 11       		.uleb128 0x11
 1247 04f4 0A060000 		.4byte	.LASF75
 1248 04f8 07       		.byte	0x7
 1249 04f9 E0       		.byte	0xe0
 1250 04fa E4000000 		.4byte	0xe4
 1251 04fe 11       		.uleb128 0x11
 1252 04ff 92000000 		.4byte	.LASF76
 1253 0503 07       		.byte	0x7
 1254 0504 E7       		.byte	0xe7
 1255 0505 E1020000 		.4byte	0x2e1
 1256 0509 11       		.uleb128 0x11
 1257 050a 64050000 		.4byte	.LASF77
 1258 050e 07       		.byte	0x7
 1259 050f EE       		.byte	0xee
 1260 0510 43050000 		.4byte	0x543
 1261 0514 11       		.uleb128 0x11
 1262 0515 09010000 		.4byte	.LASF78
 1263 0519 07       		.byte	0x7
ARM GAS  /tmp/ccsGLxLb.s 			page 47


 1264 051a F3       		.byte	0xf3
 1265 051b E4000000 		.4byte	0xe4
 1266 051f 11       		.uleb128 0x11
 1267 0520 D8040000 		.4byte	.LASF79
 1268 0524 07       		.byte	0x7
 1269 0525 FC       		.byte	0xfc
 1270 0526 6E050000 		.4byte	0x56e
 1271 052a 12       		.uleb128 0x12
 1272 052b 10000000 		.4byte	.LASF80
 1273 052f 07       		.byte	0x7
 1274 0530 0501     		.2byte	0x105
 1275 0532 A5050000 		.4byte	0x5a5
 1276 0536 12       		.uleb128 0x12
 1277 0537 CA000000 		.4byte	.LASF81
 1278 053b 07       		.byte	0x7
 1279 053c 0D01     		.2byte	0x10d
 1280 053e EF000000 		.4byte	0xef
 1281 0542 00       		.byte	0
 1282 0543 0A       		.uleb128 0xa
 1283 0544 04       		.byte	0x4
 1284 0545 F9010000 		.4byte	0x1f9
 1285 0549 05       		.uleb128 0x5
 1286 054a 31010000 		.4byte	.LASF82
 1287 054e 0C       		.byte	0xc
 1288 054f 0B       		.byte	0xb
 1289 0550 34       		.byte	0x34
 1290 0551 6E050000 		.4byte	0x56e
 1291 0555 06       		.uleb128 0x6
 1292 0556 CA040000 		.4byte	.LASF25
 1293 055a 0B       		.byte	0xb
 1294 055b 35       		.byte	0x35
 1295 055c 2E020000 		.4byte	0x22e
 1296 0560 00       		.byte	0
 1297 0561 07       		.uleb128 0x7
 1298 0562 636E7400 		.ascii	"cnt\000"
 1299 0566 0B       		.byte	0xb
 1300 0567 37       		.byte	0x37
 1301 0568 FA000000 		.4byte	0xfa
 1302 056c 08       		.byte	0x8
 1303 056d 00       		.byte	0
 1304 056e 0A       		.uleb128 0xa
 1305 056f 04       		.byte	0x4
 1306 0570 49050000 		.4byte	0x549
 1307 0574 05       		.uleb128 0x5
 1308 0575 20020000 		.4byte	.LASF83
 1309 0579 10       		.byte	0x10
 1310 057a 0C       		.byte	0xc
 1311 057b 39       		.byte	0x39
 1312 057c A5050000 		.4byte	0x5a5
 1313 0580 06       		.uleb128 0x6
 1314 0581 CA040000 		.4byte	.LASF25
 1315 0585 0C       		.byte	0xc
 1316 0586 3A       		.byte	0x3a
 1317 0587 2E020000 		.4byte	0x22e
 1318 058b 00       		.byte	0
 1319 058c 06       		.uleb128 0x6
 1320 058d 96010000 		.4byte	.LASF84
ARM GAS  /tmp/ccsGLxLb.s 			page 48


 1321 0591 0C       		.byte	0xc
 1322 0592 3C       		.byte	0x3c
 1323 0593 04020000 		.4byte	0x204
 1324 0597 08       		.byte	0x8
 1325 0598 06       		.uleb128 0x6
 1326 0599 74000000 		.4byte	.LASF44
 1327 059d 0C       		.byte	0xc
 1328 059e 3E       		.byte	0x3e
 1329 059f 40060000 		.4byte	0x640
 1330 05a3 0C       		.byte	0xc
 1331 05a4 00       		.byte	0
 1332 05a5 0A       		.uleb128 0xa
 1333 05a6 04       		.byte	0x4
 1334 05a7 74050000 		.4byte	0x574
 1335 05ab 0A       		.uleb128 0xa
 1336 05ac 04       		.byte	0x4
 1337 05ad B1050000 		.4byte	0x5b1
 1338 05b1 13       		.uleb128 0x13
 1339 05b2 B6050000 		.4byte	0x5b6
 1340 05b6 04       		.uleb128 0x4
 1341 05b7 01       		.byte	0x1
 1342 05b8 08       		.byte	0x8
 1343 05b9 E0020000 		.4byte	.LASF85
 1344 05bd 0A       		.uleb128 0xa
 1345 05be 04       		.byte	0x4
 1346 05bf 1B040000 		.4byte	0x41b
 1347 05c3 0A       		.uleb128 0xa
 1348 05c4 04       		.byte	0x4
 1349 05c5 E3020000 		.4byte	0x2e3
 1350 05c9 14       		.uleb128 0x14
 1351 05ca AB050000 		.4byte	0x5ab
 1352 05ce 03       		.uleb128 0x3
 1353 05cf 57010000 		.4byte	.LASF86
 1354 05d3 0D       		.byte	0xd
 1355 05d4 40       		.byte	0x40
 1356 05d5 D0020000 		.4byte	0x2d0
 1357 05d9 0F       		.uleb128 0xf
 1358 05da 18       		.byte	0x18
 1359 05db 0D       		.byte	0xd
 1360 05dc 45       		.byte	0x45
 1361 05dd 2A060000 		.4byte	0x62a
 1362 05e1 06       		.uleb128 0x6
 1363 05e2 95040000 		.4byte	.LASF29
 1364 05e6 0D       		.byte	0xd
 1365 05e7 49       		.byte	0x49
 1366 05e8 AB050000 		.4byte	0x5ab
 1367 05ec 00       		.byte	0
 1368 05ed 06       		.uleb128 0x6
 1369 05ee 36000000 		.4byte	.LASF87
 1370 05f2 0D       		.byte	0xd
 1371 05f3 4D       		.byte	0x4d
 1372 05f4 BD050000 		.4byte	0x5bd
 1373 05f8 04       		.byte	0x4
 1374 05f9 06       		.uleb128 0x6
 1375 05fa 71030000 		.4byte	.LASF88
 1376 05fe 0D       		.byte	0xd
 1377 05ff 51       		.byte	0x51
ARM GAS  /tmp/ccsGLxLb.s 			page 49


 1378 0600 BD050000 		.4byte	0x5bd
 1379 0604 08       		.byte	0x8
 1380 0605 06       		.uleb128 0x6
 1381 0606 DB020000 		.4byte	.LASF26
 1382 060a 0D       		.byte	0xd
 1383 060b 55       		.byte	0x55
 1384 060c D9000000 		.4byte	0xd9
 1385 0610 0C       		.byte	0xc
 1386 0611 06       		.uleb128 0x6
 1387 0612 17050000 		.4byte	.LASF89
 1388 0616 0D       		.byte	0xd
 1389 0617 59       		.byte	0x59
 1390 0618 CE050000 		.4byte	0x5ce
 1391 061c 10       		.byte	0x10
 1392 061d 07       		.uleb128 0x7
 1393 061e 61726700 		.ascii	"arg\000"
 1394 0622 0D       		.byte	0xd
 1395 0623 5D       		.byte	0x5d
 1396 0624 E1020000 		.4byte	0x2e1
 1397 0628 14       		.byte	0x14
 1398 0629 00       		.byte	0
 1399 062a 03       		.uleb128 0x3
 1400 062b 1D010000 		.4byte	.LASF90
 1401 062f 0D       		.byte	0xd
 1402 0630 5E       		.byte	0x5e
 1403 0631 D9050000 		.4byte	0x5d9
 1404 0635 03       		.uleb128 0x3
 1405 0636 F3040000 		.4byte	.LASF91
 1406 063a 0C       		.byte	0xc
 1407 063b 34       		.byte	0x34
 1408 063c 74050000 		.4byte	0x574
 1409 0640 0A       		.uleb128 0xa
 1410 0641 04       		.byte	0x4
 1411 0642 35060000 		.4byte	0x635
 1412 0646 04       		.uleb128 0x4
 1413 0647 01       		.byte	0x1
 1414 0648 02       		.byte	0x2
 1415 0649 1A020000 		.4byte	.LASF92
 1416 064d 03       		.uleb128 0x3
 1417 064e 88040000 		.4byte	.LASF93
 1418 0652 0E       		.byte	0xe
 1419 0653 47       		.byte	0x47
 1420 0654 58060000 		.4byte	0x658
 1421 0658 0A       		.uleb128 0xa
 1422 0659 04       		.byte	0x4
 1423 065a 5E060000 		.4byte	0x65e
 1424 065e 15       		.uleb128 0x15
 1425 065f E1020000 		.4byte	0x2e1
 1426 0663 72060000 		.4byte	0x672
 1427 0667 0D       		.uleb128 0xd
 1428 0668 2C000000 		.4byte	0x2c
 1429 066c 0D       		.uleb128 0xd
 1430 066d 37000000 		.4byte	0x37
 1431 0671 00       		.byte	0
 1432 0672 03       		.uleb128 0x3
 1433 0673 A6030000 		.4byte	.LASF94
 1434 0677 0F       		.byte	0xf
ARM GAS  /tmp/ccsGLxLb.s 			page 50


 1435 0678 48       		.byte	0x48
 1436 0679 7D060000 		.4byte	0x67d
 1437 067d 05       		.uleb128 0x5
 1438 067e 15040000 		.4byte	.LASF95
 1439 0682 20       		.byte	0x20
 1440 0683 0F       		.byte	0xf
 1441 0684 61       		.byte	0x61
 1442 0685 AE060000 		.4byte	0x6ae
 1443 0689 06       		.uleb128 0x6
 1444 068a 5B040000 		.4byte	.LASF96
 1445 068e 0F       		.byte	0xf
 1446 068f 62       		.byte	0x62
 1447 0690 4D060000 		.4byte	0x64d
 1448 0694 00       		.byte	0
 1449 0695 06       		.uleb128 0x6
 1450 0696 9F030000 		.4byte	.LASF97
 1451 069a 0F       		.byte	0xf
 1452 069b 64       		.byte	0x64
 1453 069c AE060000 		.4byte	0x6ae
 1454 06a0 08       		.byte	0x8
 1455 06a1 07       		.uleb128 0x7
 1456 06a2 6D747800 		.ascii	"mtx\000"
 1457 06a6 0F       		.byte	0xf
 1458 06a7 66       		.byte	0x66
 1459 06a8 35060000 		.4byte	0x635
 1460 06ac 10       		.byte	0x10
 1461 06ad 00       		.byte	0
 1462 06ae 03       		.uleb128 0x3
 1463 06af 13060000 		.4byte	.LASF98
 1464 06b3 0F       		.byte	0xf
 1465 06b4 4D       		.byte	0x4d
 1466 06b5 B9060000 		.4byte	0x6b9
 1467 06b9 16       		.uleb128 0x16
 1468 06ba ED010000 		.4byte	.LASF124
 1469 06be 08       		.byte	0x8
 1470 06bf 0F       		.byte	0xf
 1471 06c0 52       		.byte	0x52
 1472 06c1 E7060000 		.4byte	0x6e7
 1473 06c5 11       		.uleb128 0x11
 1474 06c6 B4050000 		.4byte	.LASF99
 1475 06ca 0F       		.byte	0xf
 1476 06cb 53       		.byte	0x53
 1477 06cc 1B040000 		.4byte	0x41b
 1478 06d0 11       		.uleb128 0x11
 1479 06d1 29020000 		.4byte	.LASF100
 1480 06d5 0F       		.byte	0xf
 1481 06d6 57       		.byte	0x57
 1482 06d7 E7060000 		.4byte	0x6e7
 1483 06db 11       		.uleb128 0x11
 1484 06dc D1010000 		.4byte	.LASF101
 1485 06e0 0F       		.byte	0xf
 1486 06e1 5B       		.byte	0x5b
 1487 06e2 0E070000 		.4byte	0x70e
 1488 06e6 00       		.byte	0
 1489 06e7 0F       		.uleb128 0xf
 1490 06e8 08       		.byte	0x8
 1491 06e9 0F       		.byte	0xf
ARM GAS  /tmp/ccsGLxLb.s 			page 51


 1492 06ea 54       		.byte	0x54
 1493 06eb 08070000 		.4byte	0x708
 1494 06ef 06       		.uleb128 0x6
 1495 06f0 74000000 		.4byte	.LASF44
 1496 06f4 0F       		.byte	0xf
 1497 06f5 55       		.byte	0x55
 1498 06f6 08070000 		.4byte	0x708
 1499 06fa 00       		.byte	0
 1500 06fb 06       		.uleb128 0x6
 1501 06fc 3D030000 		.4byte	.LASF102
 1502 0700 0F       		.byte	0xf
 1503 0701 56       		.byte	0x56
 1504 0702 2C000000 		.4byte	0x2c
 1505 0706 04       		.byte	0x4
 1506 0707 00       		.byte	0
 1507 0708 0A       		.uleb128 0xa
 1508 0709 04       		.byte	0x4
 1509 070a AE060000 		.4byte	0x6ae
 1510 070e 0F       		.uleb128 0xf
 1511 070f 08       		.byte	0x8
 1512 0710 0F       		.byte	0xf
 1513 0711 58       		.byte	0x58
 1514 0712 2F070000 		.4byte	0x72f
 1515 0716 06       		.uleb128 0x6
 1516 0717 8D000000 		.4byte	.LASF103
 1517 071b 0F       		.byte	0xf
 1518 071c 59       		.byte	0x59
 1519 071d 2F070000 		.4byte	0x72f
 1520 0721 00       		.byte	0
 1521 0722 06       		.uleb128 0x6
 1522 0723 9A030000 		.4byte	.LASF104
 1523 0727 0F       		.byte	0xf
 1524 0728 5A       		.byte	0x5a
 1525 0729 2C000000 		.4byte	0x2c
 1526 072d 04       		.byte	0x4
 1527 072e 00       		.byte	0
 1528 072f 0A       		.uleb128 0xa
 1529 0730 04       		.byte	0x4
 1530 0731 72060000 		.4byte	0x672
 1531 0735 05       		.uleb128 0x5
 1532 0736 4C050000 		.4byte	.LASF105
 1533 073a 04       		.byte	0x4
 1534 073b 10       		.byte	0x10
 1535 073c 38       		.byte	0x38
 1536 073d 4E070000 		.4byte	0x74e
 1537 0741 06       		.uleb128 0x6
 1538 0742 74000000 		.4byte	.LASF44
 1539 0746 10       		.byte	0x10
 1540 0747 39       		.byte	0x39
 1541 0748 4E070000 		.4byte	0x74e
 1542 074c 00       		.byte	0
 1543 074d 00       		.byte	0
 1544 074e 0A       		.uleb128 0xa
 1545 074f 04       		.byte	0x4
 1546 0750 35070000 		.4byte	0x735
 1547 0754 0F       		.uleb128 0xf
 1548 0755 0C       		.byte	0xc
ARM GAS  /tmp/ccsGLxLb.s 			page 52


 1549 0756 10       		.byte	0x10
 1550 0757 40       		.byte	0x40
 1551 0758 81070000 		.4byte	0x781
 1552 075c 06       		.uleb128 0x6
 1553 075d 74000000 		.4byte	.LASF44
 1554 0761 10       		.byte	0x10
 1555 0762 41       		.byte	0x41
 1556 0763 4E070000 		.4byte	0x74e
 1557 0767 00       		.byte	0
 1558 0768 06       		.uleb128 0x6
 1559 0769 07020000 		.4byte	.LASF106
 1560 076d 10       		.byte	0x10
 1561 076e 42       		.byte	0x42
 1562 076f 2C000000 		.4byte	0x2c
 1563 0773 04       		.byte	0x4
 1564 0774 06       		.uleb128 0x6
 1565 0775 5B040000 		.4byte	.LASF96
 1566 0779 10       		.byte	0x10
 1567 077a 44       		.byte	0x44
 1568 077b 4D060000 		.4byte	0x64d
 1569 077f 08       		.byte	0x8
 1570 0780 00       		.byte	0
 1571 0781 03       		.uleb128 0x3
 1572 0782 17000000 		.4byte	.LASF107
 1573 0786 10       		.byte	0x10
 1574 0787 46       		.byte	0x46
 1575 0788 54070000 		.4byte	0x754
 1576 078c 17       		.uleb128 0x17
 1577 078d 4D040000 		.4byte	.LASF111
 1578 0791 02       		.byte	0x2
 1579 0792 0601     		.2byte	0x106
 1580 0794 03       		.byte	0x3
 1581 0795 A6070000 		.4byte	0x7a6
 1582 0799 18       		.uleb128 0x18
 1583 079a AC010000 		.4byte	.LASF125
 1584 079e 02       		.byte	0x2
 1585 079f 0601     		.2byte	0x106
 1586 07a1 82000000 		.4byte	0x82
 1587 07a5 00       		.byte	0
 1588 07a6 19       		.uleb128 0x19
 1589 07a7 99000000 		.4byte	.LASF108
 1590 07ab 09       		.byte	0x9
 1591 07ac 5202     		.2byte	0x252
 1592 07ae 03       		.byte	0x3
 1593 07af 19       		.uleb128 0x19
 1594 07b0 A8050000 		.4byte	.LASF109
 1595 07b4 09       		.byte	0x9
 1596 07b5 6A02     		.2byte	0x26a
 1597 07b7 03       		.byte	0x3
 1598 07b8 19       		.uleb128 0x19
 1599 07b9 D1020000 		.4byte	.LASF110
 1600 07bd 11       		.byte	0x11
 1601 07be 7601     		.2byte	0x176
 1602 07c0 03       		.byte	0x3
 1603 07c1 17       		.uleb128 0x17
 1604 07c2 8A010000 		.4byte	.LASF112
 1605 07c6 11       		.byte	0x11
ARM GAS  /tmp/ccsGLxLb.s 			page 53


 1606 07c7 8201     		.2byte	0x182
 1607 07c9 03       		.byte	0x3
 1608 07ca DC070000 		.4byte	0x7dc
 1609 07ce 1A       		.uleb128 0x1a
 1610 07cf D6010000 		.4byte	.LASF126
 1611 07d3 EC070000 		.4byte	0x7ec
 1612 07d7 8A010000 		.4byte	.LASF112
 1613 07db 00       		.byte	0
 1614 07dc 1B       		.uleb128 0x1b
 1615 07dd B6050000 		.4byte	0x5b6
 1616 07e1 EC070000 		.4byte	0x7ec
 1617 07e5 1C       		.uleb128 0x1c
 1618 07e6 09040000 		.4byte	0x409
 1619 07ea 0B       		.byte	0xb
 1620 07eb 00       		.byte	0
 1621 07ec 13       		.uleb128 0x13
 1622 07ed DC070000 		.4byte	0x7dc
 1623 07f1 1D       		.uleb128 0x1d
 1624 07f2 DF040000 		.4byte	.LASF114
 1625 07f6 01       		.byte	0x1
 1626 07f7 52       		.byte	0x52
 1627 07f8 04020000 		.4byte	0x204
 1628 07fc 00000000 		.4byte	.LFB186
 1629 0800 4A000000 		.4byte	.LFE186-.LFB186
 1630 0804 01       		.uleb128 0x1
 1631 0805 9C       		.byte	0x9c
 1632 0806 62090000 		.4byte	0x962
 1633 080a 1E       		.uleb128 0x1e
 1634 080b 6A050000 		.4byte	.LASF113
 1635 080f 01       		.byte	0x1
 1636 0810 52       		.byte	0x52
 1637 0811 2F070000 		.4byte	0x72f
 1638 0815 00000000 		.4byte	.LLST0
 1639 0819 1E       		.uleb128 0x1e
 1640 081a 9A030000 		.4byte	.LASF104
 1641 081e 01       		.byte	0x1
 1642 081f 52       		.byte	0x52
 1643 0820 2C000000 		.4byte	0x2c
 1644 0824 21000000 		.4byte	.LLST1
 1645 0828 1E       		.uleb128 0x1e
 1646 0829 95040000 		.4byte	.LASF29
 1647 082d 01       		.byte	0x1
 1648 082e 53       		.byte	0x53
 1649 082f AB050000 		.4byte	0x5ab
 1650 0833 4D000000 		.4byte	.LLST2
 1651 0837 1E       		.uleb128 0x1e
 1652 0838 DB020000 		.4byte	.LASF26
 1653 083c 01       		.byte	0x1
 1654 083d 53       		.byte	0x53
 1655 083e D9000000 		.4byte	0xd9
 1656 0842 79000000 		.4byte	.LLST3
 1657 0846 1F       		.uleb128 0x1f
 1658 0847 706600   		.ascii	"pf\000"
 1659 084a 01       		.byte	0x1
 1660 084b 54       		.byte	0x54
 1661 084c CE050000 		.4byte	0x5ce
 1662 0850 02       		.uleb128 0x2
ARM GAS  /tmp/ccsGLxLb.s 			page 54


 1663 0851 91       		.byte	0x91
 1664 0852 00       		.sleb128 0
 1665 0853 1F       		.uleb128 0x1f
 1666 0854 61726700 		.ascii	"arg\000"
 1667 0858 01       		.byte	0x1
 1668 0859 54       		.byte	0x54
 1669 085a E1020000 		.4byte	0x2e1
 1670 085e 02       		.uleb128 0x2
 1671 085f 91       		.byte	0x91
 1672 0860 04       		.sleb128 4
 1673 0861 20       		.uleb128 0x20
 1674 0862 747000   		.ascii	"tp\000"
 1675 0865 01       		.byte	0x1
 1676 0866 55       		.byte	0x55
 1677 0867 04020000 		.4byte	0x204
 1678 086b 97000000 		.4byte	.LLST4
 1679 086f 20       		.uleb128 0x20
 1680 0870 77737000 		.ascii	"wsp\000"
 1681 0874 01       		.byte	0x1
 1682 0875 56       		.byte	0x56
 1683 0876 E1020000 		.4byte	0x2e1
 1684 087a B5000000 		.4byte	.LLST5
 1685 087e 21       		.uleb128 0x21
 1686 087f 746400   		.ascii	"td\000"
 1687 0882 01       		.byte	0x1
 1688 0883 5D       		.byte	0x5d
 1689 0884 2A060000 		.4byte	0x62a
 1690 0888 02       		.uleb128 0x2
 1691 0889 91       		.byte	0x91
 1692 088a 58       		.sleb128 -40
 1693 088b 22       		.uleb128 0x22
 1694 088c B8070000 		.4byte	0x7b8
 1695 0890 24000000 		.4byte	.LBB34
 1696 0894 06000000 		.4byte	.LBE34-.LBB34
 1697 0898 01       		.byte	0x1
 1698 0899 6C       		.byte	0x6c
 1699 089a CA080000 		.4byte	0x8ca
 1700 089e 23       		.uleb128 0x23
 1701 089f A6070000 		.4byte	0x7a6
 1702 08a3 24000000 		.4byte	.LBB35
 1703 08a7 06000000 		.4byte	.LBE35-.LBB35
 1704 08ab 11       		.byte	0x11
 1705 08ac 7801     		.2byte	0x178
 1706 08ae 23       		.uleb128 0x23
 1707 08af 8C070000 		.4byte	0x78c
 1708 08b3 24000000 		.4byte	.LBB36
 1709 08b7 06000000 		.4byte	.LBE36-.LBB36
 1710 08bb 09       		.byte	0x9
 1711 08bc 5A02     		.2byte	0x25a
 1712 08be 24       		.uleb128 0x24
 1713 08bf 99070000 		.4byte	0x799
 1714 08c3 D4000000 		.4byte	.LLST6
 1715 08c7 00       		.byte	0
 1716 08c8 00       		.byte	0
 1717 08c9 00       		.byte	0
 1718 08ca 22       		.uleb128 0x22
 1719 08cb C1070000 		.4byte	0x7c1
ARM GAS  /tmp/ccsGLxLb.s 			page 55


 1720 08cf 3E000000 		.4byte	.LBB38
 1721 08d3 06000000 		.4byte	.LBE38-.LBB38
 1722 08d7 01       		.byte	0x1
 1723 08d8 70       		.byte	0x70
 1724 08d9 18090000 		.4byte	0x918
 1725 08dd 25       		.uleb128 0x25
 1726 08de 3E000000 		.4byte	.LBB39
 1727 08e2 06000000 		.4byte	.LBE39-.LBB39
 1728 08e6 26       		.uleb128 0x26
 1729 08e7 CE070000 		.4byte	0x7ce
 1730 08eb 23       		.uleb128 0x23
 1731 08ec AF070000 		.4byte	0x7af
 1732 08f0 3E000000 		.4byte	.LBB40
 1733 08f4 06000000 		.4byte	.LBE40-.LBB40
 1734 08f8 11       		.byte	0x11
 1735 08f9 8F01     		.2byte	0x18f
 1736 08fb 23       		.uleb128 0x23
 1737 08fc 8C070000 		.4byte	0x78c
 1738 0900 3E000000 		.4byte	.LBB41
 1739 0904 06000000 		.4byte	.LBE41-.LBB41
 1740 0908 09       		.byte	0x9
 1741 0909 6D02     		.2byte	0x26d
 1742 090b 24       		.uleb128 0x24
 1743 090c 99070000 		.4byte	0x799
 1744 0910 E9000000 		.4byte	.LLST7
 1745 0914 00       		.byte	0
 1746 0915 00       		.byte	0
 1747 0916 00       		.byte	0
 1748 0917 00       		.byte	0
 1749 0918 27       		.uleb128 0x27
 1750 0919 10000000 		.4byte	.LVL2
 1751 091d F80A0000 		.4byte	0xaf8
 1752 0921 38090000 		.4byte	0x938
 1753 0925 28       		.uleb128 0x28
 1754 0926 01       		.uleb128 0x1
 1755 0927 52       		.byte	0x52
 1756 0928 01       		.uleb128 0x1
 1757 0929 38       		.byte	0x38
 1758 092a 28       		.uleb128 0x28
 1759 092b 01       		.uleb128 0x1
 1760 092c 51       		.byte	0x51
 1761 092d 02       		.uleb128 0x2
 1762 092e 75       		.byte	0x75
 1763 092f 00       		.sleb128 0
 1764 0930 28       		.uleb128 0x28
 1765 0931 01       		.uleb128 0x1
 1766 0932 50       		.byte	0x50
 1767 0933 03       		.uleb128 0x3
 1768 0934 F3       		.byte	0xf3
 1769 0935 01       		.uleb128 0x1
 1770 0936 50       		.byte	0x50
 1771 0937 00       		.byte	0
 1772 0938 27       		.uleb128 0x27
 1773 0939 30000000 		.4byte	.LVL6
 1774 093d 170B0000 		.4byte	0xb17
 1775 0941 4C090000 		.4byte	0x94c
 1776 0945 28       		.uleb128 0x28
ARM GAS  /tmp/ccsGLxLb.s 			page 56


 1777 0946 01       		.uleb128 0x1
 1778 0947 50       		.byte	0x50
 1779 0948 02       		.uleb128 0x2
 1780 0949 7D       		.byte	0x7d
 1781 094a 00       		.sleb128 0
 1782 094b 00       		.byte	0
 1783 094c 29       		.uleb128 0x29
 1784 094d 3E000000 		.4byte	.LVL8
 1785 0951 370B0000 		.4byte	0xb37
 1786 0955 28       		.uleb128 0x28
 1787 0956 01       		.uleb128 0x1
 1788 0957 51       		.byte	0x51
 1789 0958 01       		.uleb128 0x1
 1790 0959 30       		.byte	0x30
 1791 095a 28       		.uleb128 0x28
 1792 095b 01       		.uleb128 0x1
 1793 095c 50       		.byte	0x50
 1794 095d 02       		.uleb128 0x2
 1795 095e 74       		.byte	0x74
 1796 095f 00       		.sleb128 0
 1797 0960 00       		.byte	0
 1798 0961 00       		.byte	0
 1799 0962 1D       		.uleb128 0x1d
 1800 0963 FF020000 		.4byte	.LASF115
 1801 0967 01       		.byte	0x1
 1802 0968 91       		.byte	0x91
 1803 0969 04020000 		.4byte	0x204
 1804 096d 00000000 		.4byte	.LFB187
 1805 0971 4C000000 		.4byte	.LFE187-.LFB187
 1806 0975 01       		.uleb128 0x1
 1807 0976 9C       		.byte	0x9c
 1808 0977 C10A0000 		.4byte	0xac1
 1809 097b 2A       		.uleb128 0x2a
 1810 097c 6D7000   		.ascii	"mp\000"
 1811 097f 01       		.byte	0x1
 1812 0980 91       		.byte	0x91
 1813 0981 C10A0000 		.4byte	0xac1
 1814 0985 FD000000 		.4byte	.LLST8
 1815 0989 1E       		.uleb128 0x1e
 1816 098a 95040000 		.4byte	.LASF29
 1817 098e 01       		.byte	0x1
 1818 098f 91       		.byte	0x91
 1819 0990 AB050000 		.4byte	0x5ab
 1820 0994 1B010000 		.4byte	.LLST9
 1821 0998 1E       		.uleb128 0x1e
 1822 0999 DB020000 		.4byte	.LASF26
 1823 099d 01       		.byte	0x1
 1824 099e 92       		.byte	0x92
 1825 099f D9000000 		.4byte	0xd9
 1826 09a3 39010000 		.4byte	.LLST10
 1827 09a7 2A       		.uleb128 0x2a
 1828 09a8 706600   		.ascii	"pf\000"
 1829 09ab 01       		.byte	0x1
 1830 09ac 92       		.byte	0x92
 1831 09ad CE050000 		.4byte	0x5ce
 1832 09b1 57010000 		.4byte	.LLST11
 1833 09b5 1F       		.uleb128 0x1f
ARM GAS  /tmp/ccsGLxLb.s 			page 57


 1834 09b6 61726700 		.ascii	"arg\000"
 1835 09ba 01       		.byte	0x1
 1836 09bb 92       		.byte	0x92
 1837 09bc E1020000 		.4byte	0x2e1
 1838 09c0 02       		.uleb128 0x2
 1839 09c1 91       		.byte	0x91
 1840 09c2 00       		.sleb128 0
 1841 09c3 20       		.uleb128 0x20
 1842 09c4 747000   		.ascii	"tp\000"
 1843 09c7 01       		.byte	0x1
 1844 09c8 93       		.byte	0x93
 1845 09c9 04020000 		.4byte	0x204
 1846 09cd 83010000 		.4byte	.LLST12
 1847 09d1 20       		.uleb128 0x20
 1848 09d2 77737000 		.ascii	"wsp\000"
 1849 09d6 01       		.byte	0x1
 1850 09d7 94       		.byte	0x94
 1851 09d8 E1020000 		.4byte	0x2e1
 1852 09dc A1010000 		.4byte	.LLST13
 1853 09e0 2B       		.uleb128 0x2b
 1854 09e1 7C010000 		.4byte	.LASF127
 1855 09e5 D70A0000 		.4byte	0xad7
 1856 09e9 21       		.uleb128 0x21
 1857 09ea 746400   		.ascii	"td\000"
 1858 09ed 01       		.byte	0x1
 1859 09ee 9D       		.byte	0x9d
 1860 09ef 2A060000 		.4byte	0x62a
 1861 09f3 02       		.uleb128 0x2
 1862 09f4 91       		.byte	0x91
 1863 09f5 50       		.sleb128 -48
 1864 09f6 22       		.uleb128 0x22
 1865 09f7 B8070000 		.4byte	0x7b8
 1866 09fb 24000000 		.4byte	.LBB43
 1867 09ff 06000000 		.4byte	.LBE43-.LBB43
 1868 0a03 01       		.byte	0x1
 1869 0a04 AC       		.byte	0xac
 1870 0a05 350A0000 		.4byte	0xa35
 1871 0a09 23       		.uleb128 0x23
 1872 0a0a A6070000 		.4byte	0x7a6
 1873 0a0e 24000000 		.4byte	.LBB44
 1874 0a12 06000000 		.4byte	.LBE44-.LBB44
 1875 0a16 11       		.byte	0x11
 1876 0a17 7801     		.2byte	0x178
 1877 0a19 23       		.uleb128 0x23
 1878 0a1a 8C070000 		.4byte	0x78c
 1879 0a1e 24000000 		.4byte	.LBB45
 1880 0a22 06000000 		.4byte	.LBE45-.LBB45
 1881 0a26 09       		.byte	0x9
 1882 0a27 5A02     		.2byte	0x25a
 1883 0a29 24       		.uleb128 0x24
 1884 0a2a 99070000 		.4byte	0x799
 1885 0a2e C0010000 		.4byte	.LLST14
 1886 0a32 00       		.byte	0
 1887 0a33 00       		.byte	0
 1888 0a34 00       		.byte	0
 1889 0a35 22       		.uleb128 0x22
 1890 0a36 C1070000 		.4byte	0x7c1
ARM GAS  /tmp/ccsGLxLb.s 			page 58


 1891 0a3a 40000000 		.4byte	.LBB47
 1892 0a3e 06000000 		.4byte	.LBE47-.LBB47
 1893 0a42 01       		.byte	0x1
 1894 0a43 B1       		.byte	0xb1
 1895 0a44 830A0000 		.4byte	0xa83
 1896 0a48 25       		.uleb128 0x25
 1897 0a49 40000000 		.4byte	.LBB48
 1898 0a4d 06000000 		.4byte	.LBE48-.LBB48
 1899 0a51 26       		.uleb128 0x26
 1900 0a52 CE070000 		.4byte	0x7ce
 1901 0a56 23       		.uleb128 0x23
 1902 0a57 AF070000 		.4byte	0x7af
 1903 0a5b 40000000 		.4byte	.LBB49
 1904 0a5f 06000000 		.4byte	.LBE49-.LBB49
 1905 0a63 11       		.byte	0x11
 1906 0a64 8F01     		.2byte	0x18f
 1907 0a66 23       		.uleb128 0x23
 1908 0a67 8C070000 		.4byte	0x78c
 1909 0a6b 40000000 		.4byte	.LBB50
 1910 0a6f 06000000 		.4byte	.LBE50-.LBB50
 1911 0a73 09       		.byte	0x9
 1912 0a74 6D02     		.2byte	0x26d
 1913 0a76 24       		.uleb128 0x24
 1914 0a77 99070000 		.4byte	0x799
 1915 0a7b D5010000 		.4byte	.LLST15
 1916 0a7f 00       		.byte	0
 1917 0a80 00       		.byte	0
 1918 0a81 00       		.byte	0
 1919 0a82 00       		.byte	0
 1920 0a83 27       		.uleb128 0x27
 1921 0a84 10000000 		.4byte	.LVL11
 1922 0a88 4E0B0000 		.4byte	0xb4e
 1923 0a8c 970A0000 		.4byte	0xa97
 1924 0a90 28       		.uleb128 0x28
 1925 0a91 01       		.uleb128 0x1
 1926 0a92 50       		.byte	0x50
 1927 0a93 02       		.uleb128 0x2
 1928 0a94 75       		.byte	0x75
 1929 0a95 00       		.sleb128 0
 1930 0a96 00       		.byte	0
 1931 0a97 27       		.uleb128 0x27
 1932 0a98 30000000 		.4byte	.LVL14
 1933 0a9c 170B0000 		.4byte	0xb17
 1934 0aa0 AB0A0000 		.4byte	0xaab
 1935 0aa4 28       		.uleb128 0x28
 1936 0aa5 01       		.uleb128 0x1
 1937 0aa6 50       		.byte	0x50
 1938 0aa7 02       		.uleb128 0x2
 1939 0aa8 7D       		.byte	0x7d
 1940 0aa9 00       		.sleb128 0
 1941 0aaa 00       		.byte	0
 1942 0aab 29       		.uleb128 0x29
 1943 0aac 40000000 		.4byte	.LVL16
 1944 0ab0 370B0000 		.4byte	0xb37
 1945 0ab4 28       		.uleb128 0x28
 1946 0ab5 01       		.uleb128 0x1
 1947 0ab6 51       		.byte	0x51
ARM GAS  /tmp/ccsGLxLb.s 			page 59


 1948 0ab7 01       		.uleb128 0x1
 1949 0ab8 30       		.byte	0x30
 1950 0ab9 28       		.uleb128 0x28
 1951 0aba 01       		.uleb128 0x1
 1952 0abb 50       		.byte	0x50
 1953 0abc 02       		.uleb128 0x2
 1954 0abd 74       		.byte	0x74
 1955 0abe 00       		.sleb128 0
 1956 0abf 00       		.byte	0
 1957 0ac0 00       		.byte	0
 1958 0ac1 0A       		.uleb128 0xa
 1959 0ac2 04       		.byte	0x4
 1960 0ac3 81070000 		.4byte	0x781
 1961 0ac7 1B       		.uleb128 0x1b
 1962 0ac8 B6050000 		.4byte	0x5b6
 1963 0acc D70A0000 		.4byte	0xad7
 1964 0ad0 1C       		.uleb128 0x1c
 1965 0ad1 09040000 		.4byte	0x409
 1966 0ad5 19       		.byte	0x19
 1967 0ad6 00       		.byte	0
 1968 0ad7 13       		.uleb128 0x13
 1969 0ad8 C70A0000 		.4byte	0xac7
 1970 0adc 2C       		.uleb128 0x2c
 1971 0add 36040000 		.4byte	.LASF116
 1972 0ae1 12       		.byte	0x12
 1973 0ae2 9606     		.2byte	0x696
 1974 0ae4 E80A0000 		.4byte	0xae8
 1975 0ae8 14       		.uleb128 0x14
 1976 0ae9 70000000 		.4byte	0x70
 1977 0aed 2D       		.uleb128 0x2d
 1978 0aee 636800   		.ascii	"ch\000"
 1979 0af1 07       		.byte	0x7
 1980 0af2 D201     		.2byte	0x1d2
 1981 0af4 B0030000 		.4byte	0x3b0
 1982 0af8 2E       		.uleb128 0x2e
 1983 0af9 F8030000 		.4byte	.LASF117
 1984 0afd 0F       		.byte	0xf
 1985 0afe 80       		.byte	0x80
 1986 0aff E1020000 		.4byte	0x2e1
 1987 0b03 170B0000 		.4byte	0xb17
 1988 0b07 0D       		.uleb128 0xd
 1989 0b08 2F070000 		.4byte	0x72f
 1990 0b0c 0D       		.uleb128 0xd
 1991 0b0d 2C000000 		.4byte	0x2c
 1992 0b11 0D       		.uleb128 0xd
 1993 0b12 37000000 		.4byte	0x37
 1994 0b16 00       		.byte	0
 1995 0b17 2E       		.uleb128 0x2e
 1996 0b18 B4030000 		.4byte	.LASF118
 1997 0b1c 0D       		.byte	0xd
 1998 0b1d EF       		.byte	0xef
 1999 0b1e 04020000 		.4byte	0x204
 2000 0b22 2C0B0000 		.4byte	0xb2c
 2001 0b26 0D       		.uleb128 0xd
 2002 0b27 2C0B0000 		.4byte	0xb2c
 2003 0b2b 00       		.byte	0
 2004 0b2c 0A       		.uleb128 0xa
ARM GAS  /tmp/ccsGLxLb.s 			page 60


 2005 0b2d 04       		.byte	0x4
 2006 0b2e 320B0000 		.4byte	0xb32
 2007 0b32 13       		.uleb128 0x13
 2008 0b33 2A060000 		.4byte	0x62a
 2009 0b37 2F       		.uleb128 0x2f
 2010 0b38 39050000 		.4byte	.LASF119
 2011 0b3c 07       		.byte	0x7
 2012 0b3d E001     		.2byte	0x1e0
 2013 0b3f 4E0B0000 		.4byte	0xb4e
 2014 0b43 0D       		.uleb128 0xd
 2015 0b44 04020000 		.4byte	0x204
 2016 0b48 0D       		.uleb128 0xd
 2017 0b49 E4000000 		.4byte	0xe4
 2018 0b4d 00       		.byte	0
 2019 0b4e 30       		.uleb128 0x30
 2020 0b4f 7C040000 		.4byte	.LASF120
 2021 0b53 10       		.byte	0x10
 2022 0b54 94       		.byte	0x94
 2023 0b55 E1020000 		.4byte	0x2e1
 2024 0b59 0D       		.uleb128 0xd
 2025 0b5a C10A0000 		.4byte	0xac1
 2026 0b5e 00       		.byte	0
 2027 0b5f 00       		.byte	0
 2028              		.section	.debug_abbrev,"",%progbits
 2029              	.Ldebug_abbrev0:
 2030 0000 01       		.uleb128 0x1
 2031 0001 11       		.uleb128 0x11
 2032 0002 01       		.byte	0x1
 2033 0003 25       		.uleb128 0x25
 2034 0004 0E       		.uleb128 0xe
 2035 0005 13       		.uleb128 0x13
 2036 0006 0B       		.uleb128 0xb
 2037 0007 03       		.uleb128 0x3
 2038 0008 0E       		.uleb128 0xe
 2039 0009 1B       		.uleb128 0x1b
 2040 000a 0E       		.uleb128 0xe
 2041 000b 55       		.uleb128 0x55
 2042 000c 17       		.uleb128 0x17
 2043 000d 11       		.uleb128 0x11
 2044 000e 01       		.uleb128 0x1
 2045 000f 10       		.uleb128 0x10
 2046 0010 17       		.uleb128 0x17
 2047 0011 00       		.byte	0
 2048 0012 00       		.byte	0
 2049 0013 02       		.uleb128 0x2
 2050 0014 24       		.uleb128 0x24
 2051 0015 00       		.byte	0
 2052 0016 0B       		.uleb128 0xb
 2053 0017 0B       		.uleb128 0xb
 2054 0018 3E       		.uleb128 0x3e
 2055 0019 0B       		.uleb128 0xb
 2056 001a 03       		.uleb128 0x3
 2057 001b 08       		.uleb128 0x8
 2058 001c 00       		.byte	0
 2059 001d 00       		.byte	0
 2060 001e 03       		.uleb128 0x3
 2061 001f 16       		.uleb128 0x16
ARM GAS  /tmp/ccsGLxLb.s 			page 61


 2062 0020 00       		.byte	0
 2063 0021 03       		.uleb128 0x3
 2064 0022 0E       		.uleb128 0xe
 2065 0023 3A       		.uleb128 0x3a
 2066 0024 0B       		.uleb128 0xb
 2067 0025 3B       		.uleb128 0x3b
 2068 0026 0B       		.uleb128 0xb
 2069 0027 49       		.uleb128 0x49
 2070 0028 13       		.uleb128 0x13
 2071 0029 00       		.byte	0
 2072 002a 00       		.byte	0
 2073 002b 04       		.uleb128 0x4
 2074 002c 24       		.uleb128 0x24
 2075 002d 00       		.byte	0
 2076 002e 0B       		.uleb128 0xb
 2077 002f 0B       		.uleb128 0xb
 2078 0030 3E       		.uleb128 0x3e
 2079 0031 0B       		.uleb128 0xb
 2080 0032 03       		.uleb128 0x3
 2081 0033 0E       		.uleb128 0xe
 2082 0034 00       		.byte	0
 2083 0035 00       		.byte	0
 2084 0036 05       		.uleb128 0x5
 2085 0037 13       		.uleb128 0x13
 2086 0038 01       		.byte	0x1
 2087 0039 03       		.uleb128 0x3
 2088 003a 0E       		.uleb128 0xe
 2089 003b 0B       		.uleb128 0xb
 2090 003c 0B       		.uleb128 0xb
 2091 003d 3A       		.uleb128 0x3a
 2092 003e 0B       		.uleb128 0xb
 2093 003f 3B       		.uleb128 0x3b
 2094 0040 0B       		.uleb128 0xb
 2095 0041 01       		.uleb128 0x1
 2096 0042 13       		.uleb128 0x13
 2097 0043 00       		.byte	0
 2098 0044 00       		.byte	0
 2099 0045 06       		.uleb128 0x6
 2100 0046 0D       		.uleb128 0xd
 2101 0047 00       		.byte	0
 2102 0048 03       		.uleb128 0x3
 2103 0049 0E       		.uleb128 0xe
 2104 004a 3A       		.uleb128 0x3a
 2105 004b 0B       		.uleb128 0xb
 2106 004c 3B       		.uleb128 0x3b
 2107 004d 0B       		.uleb128 0xb
 2108 004e 49       		.uleb128 0x49
 2109 004f 13       		.uleb128 0x13
 2110 0050 38       		.uleb128 0x38
 2111 0051 0B       		.uleb128 0xb
 2112 0052 00       		.byte	0
 2113 0053 00       		.byte	0
 2114 0054 07       		.uleb128 0x7
 2115 0055 0D       		.uleb128 0xd
 2116 0056 00       		.byte	0
 2117 0057 03       		.uleb128 0x3
 2118 0058 08       		.uleb128 0x8
ARM GAS  /tmp/ccsGLxLb.s 			page 62


 2119 0059 3A       		.uleb128 0x3a
 2120 005a 0B       		.uleb128 0xb
 2121 005b 3B       		.uleb128 0x3b
 2122 005c 0B       		.uleb128 0xb
 2123 005d 49       		.uleb128 0x49
 2124 005e 13       		.uleb128 0x13
 2125 005f 38       		.uleb128 0x38
 2126 0060 0B       		.uleb128 0xb
 2127 0061 00       		.byte	0
 2128 0062 00       		.byte	0
 2129 0063 08       		.uleb128 0x8
 2130 0064 0D       		.uleb128 0xd
 2131 0065 00       		.byte	0
 2132 0066 03       		.uleb128 0x3
 2133 0067 08       		.uleb128 0x8
 2134 0068 3A       		.uleb128 0x3a
 2135 0069 0B       		.uleb128 0xb
 2136 006a 3B       		.uleb128 0x3b
 2137 006b 05       		.uleb128 0x5
 2138 006c 49       		.uleb128 0x49
 2139 006d 13       		.uleb128 0x13
 2140 006e 38       		.uleb128 0x38
 2141 006f 0B       		.uleb128 0xb
 2142 0070 00       		.byte	0
 2143 0071 00       		.byte	0
 2144 0072 09       		.uleb128 0x9
 2145 0073 0D       		.uleb128 0xd
 2146 0074 00       		.byte	0
 2147 0075 03       		.uleb128 0x3
 2148 0076 0E       		.uleb128 0xe
 2149 0077 3A       		.uleb128 0x3a
 2150 0078 0B       		.uleb128 0xb
 2151 0079 3B       		.uleb128 0x3b
 2152 007a 05       		.uleb128 0x5
 2153 007b 49       		.uleb128 0x49
 2154 007c 13       		.uleb128 0x13
 2155 007d 38       		.uleb128 0x38
 2156 007e 0B       		.uleb128 0xb
 2157 007f 00       		.byte	0
 2158 0080 00       		.byte	0
 2159 0081 0A       		.uleb128 0xa
 2160 0082 0F       		.uleb128 0xf
 2161 0083 00       		.byte	0
 2162 0084 0B       		.uleb128 0xb
 2163 0085 0B       		.uleb128 0xb
 2164 0086 49       		.uleb128 0x49
 2165 0087 13       		.uleb128 0x13
 2166 0088 00       		.byte	0
 2167 0089 00       		.byte	0
 2168 008a 0B       		.uleb128 0xb
 2169 008b 13       		.uleb128 0x13
 2170 008c 01       		.byte	0x1
 2171 008d 03       		.uleb128 0x3
 2172 008e 0E       		.uleb128 0xe
 2173 008f 0B       		.uleb128 0xb
 2174 0090 0B       		.uleb128 0xb
 2175 0091 3A       		.uleb128 0x3a
ARM GAS  /tmp/ccsGLxLb.s 			page 63


 2176 0092 0B       		.uleb128 0xb
 2177 0093 3B       		.uleb128 0x3b
 2178 0094 05       		.uleb128 0x5
 2179 0095 01       		.uleb128 0x1
 2180 0096 13       		.uleb128 0x13
 2181 0097 00       		.byte	0
 2182 0098 00       		.byte	0
 2183 0099 0C       		.uleb128 0xc
 2184 009a 15       		.uleb128 0x15
 2185 009b 01       		.byte	0x1
 2186 009c 27       		.uleb128 0x27
 2187 009d 19       		.uleb128 0x19
 2188 009e 01       		.uleb128 0x1
 2189 009f 13       		.uleb128 0x13
 2190 00a0 00       		.byte	0
 2191 00a1 00       		.byte	0
 2192 00a2 0D       		.uleb128 0xd
 2193 00a3 05       		.uleb128 0x5
 2194 00a4 00       		.byte	0
 2195 00a5 49       		.uleb128 0x49
 2196 00a6 13       		.uleb128 0x13
 2197 00a7 00       		.byte	0
 2198 00a8 00       		.byte	0
 2199 00a9 0E       		.uleb128 0xe
 2200 00aa 0F       		.uleb128 0xf
 2201 00ab 00       		.byte	0
 2202 00ac 0B       		.uleb128 0xb
 2203 00ad 0B       		.uleb128 0xb
 2204 00ae 00       		.byte	0
 2205 00af 00       		.byte	0
 2206 00b0 0F       		.uleb128 0xf
 2207 00b1 13       		.uleb128 0x13
 2208 00b2 01       		.byte	0x1
 2209 00b3 0B       		.uleb128 0xb
 2210 00b4 0B       		.uleb128 0xb
 2211 00b5 3A       		.uleb128 0x3a
 2212 00b6 0B       		.uleb128 0xb
 2213 00b7 3B       		.uleb128 0x3b
 2214 00b8 0B       		.uleb128 0xb
 2215 00b9 01       		.uleb128 0x1
 2216 00ba 13       		.uleb128 0x13
 2217 00bb 00       		.byte	0
 2218 00bc 00       		.byte	0
 2219 00bd 10       		.uleb128 0x10
 2220 00be 17       		.uleb128 0x17
 2221 00bf 01       		.byte	0x1
 2222 00c0 0B       		.uleb128 0xb
 2223 00c1 0B       		.uleb128 0xb
 2224 00c2 3A       		.uleb128 0x3a
 2225 00c3 0B       		.uleb128 0xb
 2226 00c4 3B       		.uleb128 0x3b
 2227 00c5 0B       		.uleb128 0xb
 2228 00c6 01       		.uleb128 0x1
 2229 00c7 13       		.uleb128 0x13
 2230 00c8 00       		.byte	0
 2231 00c9 00       		.byte	0
 2232 00ca 11       		.uleb128 0x11
ARM GAS  /tmp/ccsGLxLb.s 			page 64


 2233 00cb 0D       		.uleb128 0xd
 2234 00cc 00       		.byte	0
 2235 00cd 03       		.uleb128 0x3
 2236 00ce 0E       		.uleb128 0xe
 2237 00cf 3A       		.uleb128 0x3a
 2238 00d0 0B       		.uleb128 0xb
 2239 00d1 3B       		.uleb128 0x3b
 2240 00d2 0B       		.uleb128 0xb
 2241 00d3 49       		.uleb128 0x49
 2242 00d4 13       		.uleb128 0x13
 2243 00d5 00       		.byte	0
 2244 00d6 00       		.byte	0
 2245 00d7 12       		.uleb128 0x12
 2246 00d8 0D       		.uleb128 0xd
 2247 00d9 00       		.byte	0
 2248 00da 03       		.uleb128 0x3
 2249 00db 0E       		.uleb128 0xe
 2250 00dc 3A       		.uleb128 0x3a
 2251 00dd 0B       		.uleb128 0xb
 2252 00de 3B       		.uleb128 0x3b
 2253 00df 05       		.uleb128 0x5
 2254 00e0 49       		.uleb128 0x49
 2255 00e1 13       		.uleb128 0x13
 2256 00e2 00       		.byte	0
 2257 00e3 00       		.byte	0
 2258 00e4 13       		.uleb128 0x13
 2259 00e5 26       		.uleb128 0x26
 2260 00e6 00       		.byte	0
 2261 00e7 49       		.uleb128 0x49
 2262 00e8 13       		.uleb128 0x13
 2263 00e9 00       		.byte	0
 2264 00ea 00       		.byte	0
 2265 00eb 14       		.uleb128 0x14
 2266 00ec 35       		.uleb128 0x35
 2267 00ed 00       		.byte	0
 2268 00ee 49       		.uleb128 0x49
 2269 00ef 13       		.uleb128 0x13
 2270 00f0 00       		.byte	0
 2271 00f1 00       		.byte	0
 2272 00f2 15       		.uleb128 0x15
 2273 00f3 15       		.uleb128 0x15
 2274 00f4 01       		.byte	0x1
 2275 00f5 27       		.uleb128 0x27
 2276 00f6 19       		.uleb128 0x19
 2277 00f7 49       		.uleb128 0x49
 2278 00f8 13       		.uleb128 0x13
 2279 00f9 01       		.uleb128 0x1
 2280 00fa 13       		.uleb128 0x13
 2281 00fb 00       		.byte	0
 2282 00fc 00       		.byte	0
 2283 00fd 16       		.uleb128 0x16
 2284 00fe 17       		.uleb128 0x17
 2285 00ff 01       		.byte	0x1
 2286 0100 03       		.uleb128 0x3
 2287 0101 0E       		.uleb128 0xe
 2288 0102 0B       		.uleb128 0xb
 2289 0103 0B       		.uleb128 0xb
ARM GAS  /tmp/ccsGLxLb.s 			page 65


 2290 0104 3A       		.uleb128 0x3a
 2291 0105 0B       		.uleb128 0xb
 2292 0106 3B       		.uleb128 0x3b
 2293 0107 0B       		.uleb128 0xb
 2294 0108 01       		.uleb128 0x1
 2295 0109 13       		.uleb128 0x13
 2296 010a 00       		.byte	0
 2297 010b 00       		.byte	0
 2298 010c 17       		.uleb128 0x17
 2299 010d 2E       		.uleb128 0x2e
 2300 010e 01       		.byte	0x1
 2301 010f 03       		.uleb128 0x3
 2302 0110 0E       		.uleb128 0xe
 2303 0111 3A       		.uleb128 0x3a
 2304 0112 0B       		.uleb128 0xb
 2305 0113 3B       		.uleb128 0x3b
 2306 0114 05       		.uleb128 0x5
 2307 0115 27       		.uleb128 0x27
 2308 0116 19       		.uleb128 0x19
 2309 0117 20       		.uleb128 0x20
 2310 0118 0B       		.uleb128 0xb
 2311 0119 01       		.uleb128 0x1
 2312 011a 13       		.uleb128 0x13
 2313 011b 00       		.byte	0
 2314 011c 00       		.byte	0
 2315 011d 18       		.uleb128 0x18
 2316 011e 05       		.uleb128 0x5
 2317 011f 00       		.byte	0
 2318 0120 03       		.uleb128 0x3
 2319 0121 0E       		.uleb128 0xe
 2320 0122 3A       		.uleb128 0x3a
 2321 0123 0B       		.uleb128 0xb
 2322 0124 3B       		.uleb128 0x3b
 2323 0125 05       		.uleb128 0x5
 2324 0126 49       		.uleb128 0x49
 2325 0127 13       		.uleb128 0x13
 2326 0128 00       		.byte	0
 2327 0129 00       		.byte	0
 2328 012a 19       		.uleb128 0x19
 2329 012b 2E       		.uleb128 0x2e
 2330 012c 00       		.byte	0
 2331 012d 03       		.uleb128 0x3
 2332 012e 0E       		.uleb128 0xe
 2333 012f 3A       		.uleb128 0x3a
 2334 0130 0B       		.uleb128 0xb
 2335 0131 3B       		.uleb128 0x3b
 2336 0132 05       		.uleb128 0x5
 2337 0133 27       		.uleb128 0x27
 2338 0134 19       		.uleb128 0x19
 2339 0135 20       		.uleb128 0x20
 2340 0136 0B       		.uleb128 0xb
 2341 0137 00       		.byte	0
 2342 0138 00       		.byte	0
 2343 0139 1A       		.uleb128 0x1a
 2344 013a 34       		.uleb128 0x34
 2345 013b 00       		.byte	0
 2346 013c 03       		.uleb128 0x3
ARM GAS  /tmp/ccsGLxLb.s 			page 66


 2347 013d 0E       		.uleb128 0xe
 2348 013e 49       		.uleb128 0x49
 2349 013f 13       		.uleb128 0x13
 2350 0140 34       		.uleb128 0x34
 2351 0141 19       		.uleb128 0x19
 2352 0142 1C       		.uleb128 0x1c
 2353 0143 0E       		.uleb128 0xe
 2354 0144 00       		.byte	0
 2355 0145 00       		.byte	0
 2356 0146 1B       		.uleb128 0x1b
 2357 0147 01       		.uleb128 0x1
 2358 0148 01       		.byte	0x1
 2359 0149 49       		.uleb128 0x49
 2360 014a 13       		.uleb128 0x13
 2361 014b 01       		.uleb128 0x1
 2362 014c 13       		.uleb128 0x13
 2363 014d 00       		.byte	0
 2364 014e 00       		.byte	0
 2365 014f 1C       		.uleb128 0x1c
 2366 0150 21       		.uleb128 0x21
 2367 0151 00       		.byte	0
 2368 0152 49       		.uleb128 0x49
 2369 0153 13       		.uleb128 0x13
 2370 0154 2F       		.uleb128 0x2f
 2371 0155 0B       		.uleb128 0xb
 2372 0156 00       		.byte	0
 2373 0157 00       		.byte	0
 2374 0158 1D       		.uleb128 0x1d
 2375 0159 2E       		.uleb128 0x2e
 2376 015a 01       		.byte	0x1
 2377 015b 3F       		.uleb128 0x3f
 2378 015c 19       		.uleb128 0x19
 2379 015d 03       		.uleb128 0x3
 2380 015e 0E       		.uleb128 0xe
 2381 015f 3A       		.uleb128 0x3a
 2382 0160 0B       		.uleb128 0xb
 2383 0161 3B       		.uleb128 0x3b
 2384 0162 0B       		.uleb128 0xb
 2385 0163 27       		.uleb128 0x27
 2386 0164 19       		.uleb128 0x19
 2387 0165 49       		.uleb128 0x49
 2388 0166 13       		.uleb128 0x13
 2389 0167 11       		.uleb128 0x11
 2390 0168 01       		.uleb128 0x1
 2391 0169 12       		.uleb128 0x12
 2392 016a 06       		.uleb128 0x6
 2393 016b 40       		.uleb128 0x40
 2394 016c 18       		.uleb128 0x18
 2395 016d 9742     		.uleb128 0x2117
 2396 016f 19       		.uleb128 0x19
 2397 0170 01       		.uleb128 0x1
 2398 0171 13       		.uleb128 0x13
 2399 0172 00       		.byte	0
 2400 0173 00       		.byte	0
 2401 0174 1E       		.uleb128 0x1e
 2402 0175 05       		.uleb128 0x5
 2403 0176 00       		.byte	0
ARM GAS  /tmp/ccsGLxLb.s 			page 67


 2404 0177 03       		.uleb128 0x3
 2405 0178 0E       		.uleb128 0xe
 2406 0179 3A       		.uleb128 0x3a
 2407 017a 0B       		.uleb128 0xb
 2408 017b 3B       		.uleb128 0x3b
 2409 017c 0B       		.uleb128 0xb
 2410 017d 49       		.uleb128 0x49
 2411 017e 13       		.uleb128 0x13
 2412 017f 02       		.uleb128 0x2
 2413 0180 17       		.uleb128 0x17
 2414 0181 00       		.byte	0
 2415 0182 00       		.byte	0
 2416 0183 1F       		.uleb128 0x1f
 2417 0184 05       		.uleb128 0x5
 2418 0185 00       		.byte	0
 2419 0186 03       		.uleb128 0x3
 2420 0187 08       		.uleb128 0x8
 2421 0188 3A       		.uleb128 0x3a
 2422 0189 0B       		.uleb128 0xb
 2423 018a 3B       		.uleb128 0x3b
 2424 018b 0B       		.uleb128 0xb
 2425 018c 49       		.uleb128 0x49
 2426 018d 13       		.uleb128 0x13
 2427 018e 02       		.uleb128 0x2
 2428 018f 18       		.uleb128 0x18
 2429 0190 00       		.byte	0
 2430 0191 00       		.byte	0
 2431 0192 20       		.uleb128 0x20
 2432 0193 34       		.uleb128 0x34
 2433 0194 00       		.byte	0
 2434 0195 03       		.uleb128 0x3
 2435 0196 08       		.uleb128 0x8
 2436 0197 3A       		.uleb128 0x3a
 2437 0198 0B       		.uleb128 0xb
 2438 0199 3B       		.uleb128 0x3b
 2439 019a 0B       		.uleb128 0xb
 2440 019b 49       		.uleb128 0x49
 2441 019c 13       		.uleb128 0x13
 2442 019d 02       		.uleb128 0x2
 2443 019e 17       		.uleb128 0x17
 2444 019f 00       		.byte	0
 2445 01a0 00       		.byte	0
 2446 01a1 21       		.uleb128 0x21
 2447 01a2 34       		.uleb128 0x34
 2448 01a3 00       		.byte	0
 2449 01a4 03       		.uleb128 0x3
 2450 01a5 08       		.uleb128 0x8
 2451 01a6 3A       		.uleb128 0x3a
 2452 01a7 0B       		.uleb128 0xb
 2453 01a8 3B       		.uleb128 0x3b
 2454 01a9 0B       		.uleb128 0xb
 2455 01aa 49       		.uleb128 0x49
 2456 01ab 13       		.uleb128 0x13
 2457 01ac 02       		.uleb128 0x2
 2458 01ad 18       		.uleb128 0x18
 2459 01ae 00       		.byte	0
 2460 01af 00       		.byte	0
ARM GAS  /tmp/ccsGLxLb.s 			page 68


 2461 01b0 22       		.uleb128 0x22
 2462 01b1 1D       		.uleb128 0x1d
 2463 01b2 01       		.byte	0x1
 2464 01b3 31       		.uleb128 0x31
 2465 01b4 13       		.uleb128 0x13
 2466 01b5 11       		.uleb128 0x11
 2467 01b6 01       		.uleb128 0x1
 2468 01b7 12       		.uleb128 0x12
 2469 01b8 06       		.uleb128 0x6
 2470 01b9 58       		.uleb128 0x58
 2471 01ba 0B       		.uleb128 0xb
 2472 01bb 59       		.uleb128 0x59
 2473 01bc 0B       		.uleb128 0xb
 2474 01bd 01       		.uleb128 0x1
 2475 01be 13       		.uleb128 0x13
 2476 01bf 00       		.byte	0
 2477 01c0 00       		.byte	0
 2478 01c1 23       		.uleb128 0x23
 2479 01c2 1D       		.uleb128 0x1d
 2480 01c3 01       		.byte	0x1
 2481 01c4 31       		.uleb128 0x31
 2482 01c5 13       		.uleb128 0x13
 2483 01c6 11       		.uleb128 0x11
 2484 01c7 01       		.uleb128 0x1
 2485 01c8 12       		.uleb128 0x12
 2486 01c9 06       		.uleb128 0x6
 2487 01ca 58       		.uleb128 0x58
 2488 01cb 0B       		.uleb128 0xb
 2489 01cc 59       		.uleb128 0x59
 2490 01cd 05       		.uleb128 0x5
 2491 01ce 00       		.byte	0
 2492 01cf 00       		.byte	0
 2493 01d0 24       		.uleb128 0x24
 2494 01d1 05       		.uleb128 0x5
 2495 01d2 00       		.byte	0
 2496 01d3 31       		.uleb128 0x31
 2497 01d4 13       		.uleb128 0x13
 2498 01d5 02       		.uleb128 0x2
 2499 01d6 17       		.uleb128 0x17
 2500 01d7 00       		.byte	0
 2501 01d8 00       		.byte	0
 2502 01d9 25       		.uleb128 0x25
 2503 01da 0B       		.uleb128 0xb
 2504 01db 01       		.byte	0x1
 2505 01dc 11       		.uleb128 0x11
 2506 01dd 01       		.uleb128 0x1
 2507 01de 12       		.uleb128 0x12
 2508 01df 06       		.uleb128 0x6
 2509 01e0 00       		.byte	0
 2510 01e1 00       		.byte	0
 2511 01e2 26       		.uleb128 0x26
 2512 01e3 34       		.uleb128 0x34
 2513 01e4 00       		.byte	0
 2514 01e5 31       		.uleb128 0x31
 2515 01e6 13       		.uleb128 0x13
 2516 01e7 00       		.byte	0
 2517 01e8 00       		.byte	0
ARM GAS  /tmp/ccsGLxLb.s 			page 69


 2518 01e9 27       		.uleb128 0x27
 2519 01ea 898201   		.uleb128 0x4109
 2520 01ed 01       		.byte	0x1
 2521 01ee 11       		.uleb128 0x11
 2522 01ef 01       		.uleb128 0x1
 2523 01f0 31       		.uleb128 0x31
 2524 01f1 13       		.uleb128 0x13
 2525 01f2 01       		.uleb128 0x1
 2526 01f3 13       		.uleb128 0x13
 2527 01f4 00       		.byte	0
 2528 01f5 00       		.byte	0
 2529 01f6 28       		.uleb128 0x28
 2530 01f7 8A8201   		.uleb128 0x410a
 2531 01fa 00       		.byte	0
 2532 01fb 02       		.uleb128 0x2
 2533 01fc 18       		.uleb128 0x18
 2534 01fd 9142     		.uleb128 0x2111
 2535 01ff 18       		.uleb128 0x18
 2536 0200 00       		.byte	0
 2537 0201 00       		.byte	0
 2538 0202 29       		.uleb128 0x29
 2539 0203 898201   		.uleb128 0x4109
 2540 0206 01       		.byte	0x1
 2541 0207 11       		.uleb128 0x11
 2542 0208 01       		.uleb128 0x1
 2543 0209 31       		.uleb128 0x31
 2544 020a 13       		.uleb128 0x13
 2545 020b 00       		.byte	0
 2546 020c 00       		.byte	0
 2547 020d 2A       		.uleb128 0x2a
 2548 020e 05       		.uleb128 0x5
 2549 020f 00       		.byte	0
 2550 0210 03       		.uleb128 0x3
 2551 0211 08       		.uleb128 0x8
 2552 0212 3A       		.uleb128 0x3a
 2553 0213 0B       		.uleb128 0xb
 2554 0214 3B       		.uleb128 0x3b
 2555 0215 0B       		.uleb128 0xb
 2556 0216 49       		.uleb128 0x49
 2557 0217 13       		.uleb128 0x13
 2558 0218 02       		.uleb128 0x2
 2559 0219 17       		.uleb128 0x17
 2560 021a 00       		.byte	0
 2561 021b 00       		.byte	0
 2562 021c 2B       		.uleb128 0x2b
 2563 021d 34       		.uleb128 0x34
 2564 021e 00       		.byte	0
 2565 021f 03       		.uleb128 0x3
 2566 0220 0E       		.uleb128 0xe
 2567 0221 49       		.uleb128 0x49
 2568 0222 13       		.uleb128 0x13
 2569 0223 34       		.uleb128 0x34
 2570 0224 19       		.uleb128 0x19
 2571 0225 00       		.byte	0
 2572 0226 00       		.byte	0
 2573 0227 2C       		.uleb128 0x2c
 2574 0228 34       		.uleb128 0x34
ARM GAS  /tmp/ccsGLxLb.s 			page 70


 2575 0229 00       		.byte	0
 2576 022a 03       		.uleb128 0x3
 2577 022b 0E       		.uleb128 0xe
 2578 022c 3A       		.uleb128 0x3a
 2579 022d 0B       		.uleb128 0xb
 2580 022e 3B       		.uleb128 0x3b
 2581 022f 05       		.uleb128 0x5
 2582 0230 49       		.uleb128 0x49
 2583 0231 13       		.uleb128 0x13
 2584 0232 3F       		.uleb128 0x3f
 2585 0233 19       		.uleb128 0x19
 2586 0234 3C       		.uleb128 0x3c
 2587 0235 19       		.uleb128 0x19
 2588 0236 00       		.byte	0
 2589 0237 00       		.byte	0
 2590 0238 2D       		.uleb128 0x2d
 2591 0239 34       		.uleb128 0x34
 2592 023a 00       		.byte	0
 2593 023b 03       		.uleb128 0x3
 2594 023c 08       		.uleb128 0x8
 2595 023d 3A       		.uleb128 0x3a
 2596 023e 0B       		.uleb128 0xb
 2597 023f 3B       		.uleb128 0x3b
 2598 0240 05       		.uleb128 0x5
 2599 0241 49       		.uleb128 0x49
 2600 0242 13       		.uleb128 0x13
 2601 0243 3F       		.uleb128 0x3f
 2602 0244 19       		.uleb128 0x19
 2603 0245 3C       		.uleb128 0x3c
 2604 0246 19       		.uleb128 0x19
 2605 0247 00       		.byte	0
 2606 0248 00       		.byte	0
 2607 0249 2E       		.uleb128 0x2e
 2608 024a 2E       		.uleb128 0x2e
 2609 024b 01       		.byte	0x1
 2610 024c 3F       		.uleb128 0x3f
 2611 024d 19       		.uleb128 0x19
 2612 024e 03       		.uleb128 0x3
 2613 024f 0E       		.uleb128 0xe
 2614 0250 3A       		.uleb128 0x3a
 2615 0251 0B       		.uleb128 0xb
 2616 0252 3B       		.uleb128 0x3b
 2617 0253 0B       		.uleb128 0xb
 2618 0254 27       		.uleb128 0x27
 2619 0255 19       		.uleb128 0x19
 2620 0256 49       		.uleb128 0x49
 2621 0257 13       		.uleb128 0x13
 2622 0258 3C       		.uleb128 0x3c
 2623 0259 19       		.uleb128 0x19
 2624 025a 01       		.uleb128 0x1
 2625 025b 13       		.uleb128 0x13
 2626 025c 00       		.byte	0
 2627 025d 00       		.byte	0
 2628 025e 2F       		.uleb128 0x2f
 2629 025f 2E       		.uleb128 0x2e
 2630 0260 01       		.byte	0x1
 2631 0261 3F       		.uleb128 0x3f
ARM GAS  /tmp/ccsGLxLb.s 			page 71


 2632 0262 19       		.uleb128 0x19
 2633 0263 03       		.uleb128 0x3
 2634 0264 0E       		.uleb128 0xe
 2635 0265 3A       		.uleb128 0x3a
 2636 0266 0B       		.uleb128 0xb
 2637 0267 3B       		.uleb128 0x3b
 2638 0268 05       		.uleb128 0x5
 2639 0269 27       		.uleb128 0x27
 2640 026a 19       		.uleb128 0x19
 2641 026b 3C       		.uleb128 0x3c
 2642 026c 19       		.uleb128 0x19
 2643 026d 01       		.uleb128 0x1
 2644 026e 13       		.uleb128 0x13
 2645 026f 00       		.byte	0
 2646 0270 00       		.byte	0
 2647 0271 30       		.uleb128 0x30
 2648 0272 2E       		.uleb128 0x2e
 2649 0273 01       		.byte	0x1
 2650 0274 3F       		.uleb128 0x3f
 2651 0275 19       		.uleb128 0x19
 2652 0276 03       		.uleb128 0x3
 2653 0277 0E       		.uleb128 0xe
 2654 0278 3A       		.uleb128 0x3a
 2655 0279 0B       		.uleb128 0xb
 2656 027a 3B       		.uleb128 0x3b
 2657 027b 0B       		.uleb128 0xb
 2658 027c 27       		.uleb128 0x27
 2659 027d 19       		.uleb128 0x19
 2660 027e 49       		.uleb128 0x49
 2661 027f 13       		.uleb128 0x13
 2662 0280 3C       		.uleb128 0x3c
 2663 0281 19       		.uleb128 0x19
 2664 0282 00       		.byte	0
 2665 0283 00       		.byte	0
 2666 0284 00       		.byte	0
 2667              		.section	.debug_loc,"",%progbits
 2668              	.Ldebug_loc0:
 2669              	.LLST0:
 2670 0000 00000000 		.4byte	.LVL0
 2671 0004 0F000000 		.4byte	.LVL2-1
 2672 0008 0100     		.2byte	0x1
 2673 000a 50       		.byte	0x50
 2674 000b 0F000000 		.4byte	.LVL2-1
 2675 000f 4A000000 		.4byte	.LFE186
 2676 0013 0400     		.2byte	0x4
 2677 0015 F3       		.byte	0xf3
 2678 0016 01       		.uleb128 0x1
 2679 0017 50       		.byte	0x50
 2680 0018 9F       		.byte	0x9f
 2681 0019 00000000 		.4byte	0
 2682 001d 00000000 		.4byte	0
 2683              	.LLST1:
 2684 0021 00000000 		.4byte	.LVL0
 2685 0025 0F000000 		.4byte	.LVL2-1
 2686 0029 0100     		.2byte	0x1
 2687 002b 51       		.byte	0x51
 2688 002c 0F000000 		.4byte	.LVL2-1
ARM GAS  /tmp/ccsGLxLb.s 			page 72


 2689 0030 16000000 		.4byte	.LVL3
 2690 0034 0100     		.2byte	0x1
 2691 0036 55       		.byte	0x55
 2692 0037 16000000 		.4byte	.LVL3
 2693 003b 4A000000 		.4byte	.LFE186
 2694 003f 0400     		.2byte	0x4
 2695 0041 F3       		.byte	0xf3
 2696 0042 01       		.uleb128 0x1
 2697 0043 51       		.byte	0x51
 2698 0044 9F       		.byte	0x9f
 2699 0045 00000000 		.4byte	0
 2700 0049 00000000 		.4byte	0
 2701              	.LLST2:
 2702 004d 00000000 		.4byte	.LVL0
 2703 0051 08000000 		.4byte	.LVL1
 2704 0055 0100     		.2byte	0x1
 2705 0057 52       		.byte	0x52
 2706 0058 08000000 		.4byte	.LVL1
 2707 005c 3A000000 		.4byte	.LVL7
 2708 0060 0100     		.2byte	0x1
 2709 0062 54       		.byte	0x54
 2710 0063 3A000000 		.4byte	.LVL7
 2711 0067 4A000000 		.4byte	.LFE186
 2712 006b 0400     		.2byte	0x4
 2713 006d F3       		.byte	0xf3
 2714 006e 01       		.uleb128 0x1
 2715 006f 52       		.byte	0x52
 2716 0070 9F       		.byte	0x9f
 2717 0071 00000000 		.4byte	0
 2718 0075 00000000 		.4byte	0
 2719              	.LLST3:
 2720 0079 00000000 		.4byte	.LVL0
 2721 007d 0F000000 		.4byte	.LVL2-1
 2722 0081 0100     		.2byte	0x1
 2723 0083 53       		.byte	0x53
 2724 0084 0F000000 		.4byte	.LVL2-1
 2725 0088 4A000000 		.4byte	.LFE186
 2726 008c 0100     		.2byte	0x1
 2727 008e 56       		.byte	0x56
 2728 008f 00000000 		.4byte	0
 2729 0093 00000000 		.4byte	0
 2730              	.LLST4:
 2731 0097 3A000000 		.4byte	.LVL7
 2732 009b 3D000000 		.4byte	.LVL8-1
 2733 009f 0100     		.2byte	0x1
 2734 00a1 50       		.byte	0x50
 2735 00a2 3D000000 		.4byte	.LVL8-1
 2736 00a6 46000000 		.4byte	.LVL9
 2737 00aa 0100     		.2byte	0x1
 2738 00ac 54       		.byte	0x54
 2739 00ad 00000000 		.4byte	0
 2740 00b1 00000000 		.4byte	0
 2741              	.LLST5:
 2742 00b5 10000000 		.4byte	.LVL2
 2743 00b9 2C000000 		.4byte	.LVL5
 2744 00bd 0100     		.2byte	0x1
 2745 00bf 50       		.byte	0x50
ARM GAS  /tmp/ccsGLxLb.s 			page 73


 2746 00c0 2C000000 		.4byte	.LVL5
 2747 00c4 2F000000 		.4byte	.LVL6-1
 2748 00c8 0200     		.2byte	0x2
 2749 00ca 91       		.byte	0x91
 2750 00cb 5C       		.sleb128 -36
 2751 00cc 00000000 		.4byte	0
 2752 00d0 00000000 		.4byte	0
 2753              	.LLST6:
 2754 00d4 1E000000 		.4byte	.LVL4
 2755 00d8 46000000 		.4byte	.LVL9
 2756 00dc 0300     		.2byte	0x3
 2757 00de 08       		.byte	0x8
 2758 00df 20       		.byte	0x20
 2759 00e0 9F       		.byte	0x9f
 2760 00e1 00000000 		.4byte	0
 2761 00e5 00000000 		.4byte	0
 2762              	.LLST7:
 2763 00e9 3E000000 		.4byte	.LVL8
 2764 00ed 46000000 		.4byte	.LVL9
 2765 00f1 0200     		.2byte	0x2
 2766 00f3 30       		.byte	0x30
 2767 00f4 9F       		.byte	0x9f
 2768 00f5 00000000 		.4byte	0
 2769 00f9 00000000 		.4byte	0
 2770              	.LLST8:
 2771 00fd 00000000 		.4byte	.LVL10
 2772 0101 0F000000 		.4byte	.LVL11-1
 2773 0105 0100     		.2byte	0x1
 2774 0107 50       		.byte	0x50
 2775 0108 0F000000 		.4byte	.LVL11-1
 2776 010c 4C000000 		.4byte	.LFE187
 2777 0110 0100     		.2byte	0x1
 2778 0112 55       		.byte	0x55
 2779 0113 00000000 		.4byte	0
 2780 0117 00000000 		.4byte	0
 2781              	.LLST9:
 2782 011b 00000000 		.4byte	.LVL10
 2783 011f 0F000000 		.4byte	.LVL11-1
 2784 0123 0100     		.2byte	0x1
 2785 0125 51       		.byte	0x51
 2786 0126 0F000000 		.4byte	.LVL11-1
 2787 012a 4C000000 		.4byte	.LFE187
 2788 012e 0100     		.2byte	0x1
 2789 0130 57       		.byte	0x57
 2790 0131 00000000 		.4byte	0
 2791 0135 00000000 		.4byte	0
 2792              	.LLST10:
 2793 0139 00000000 		.4byte	.LVL10
 2794 013d 0F000000 		.4byte	.LVL11-1
 2795 0141 0100     		.2byte	0x1
 2796 0143 52       		.byte	0x52
 2797 0144 0F000000 		.4byte	.LVL11-1
 2798 0148 4C000000 		.4byte	.LFE187
 2799 014c 0100     		.2byte	0x1
 2800 014e 56       		.byte	0x56
 2801 014f 00000000 		.4byte	0
 2802 0153 00000000 		.4byte	0
ARM GAS  /tmp/ccsGLxLb.s 			page 74


 2803              	.LLST11:
 2804 0157 00000000 		.4byte	.LVL10
 2805 015b 0F000000 		.4byte	.LVL11-1
 2806 015f 0100     		.2byte	0x1
 2807 0161 53       		.byte	0x53
 2808 0162 0F000000 		.4byte	.LVL11-1
 2809 0166 3C000000 		.4byte	.LVL15
 2810 016a 0100     		.2byte	0x1
 2811 016c 54       		.byte	0x54
 2812 016d 3C000000 		.4byte	.LVL15
 2813 0171 4C000000 		.4byte	.LFE187
 2814 0175 0400     		.2byte	0x4
 2815 0177 F3       		.byte	0xf3
 2816 0178 01       		.uleb128 0x1
 2817 0179 53       		.byte	0x53
 2818 017a 9F       		.byte	0x9f
 2819 017b 00000000 		.4byte	0
 2820 017f 00000000 		.4byte	0
 2821              	.LLST12:
 2822 0183 3C000000 		.4byte	.LVL15
 2823 0187 3F000000 		.4byte	.LVL16-1
 2824 018b 0100     		.2byte	0x1
 2825 018d 50       		.byte	0x50
 2826 018e 3F000000 		.4byte	.LVL16-1
 2827 0192 48000000 		.4byte	.LVL17
 2828 0196 0100     		.2byte	0x1
 2829 0198 54       		.byte	0x54
 2830 0199 00000000 		.4byte	0
 2831 019d 00000000 		.4byte	0
 2832              	.LLST13:
 2833 01a1 10000000 		.4byte	.LVL11
 2834 01a5 2C000000 		.4byte	.LVL13
 2835 01a9 0100     		.2byte	0x1
 2836 01ab 50       		.byte	0x50
 2837 01ac 2C000000 		.4byte	.LVL13
 2838 01b0 2F000000 		.4byte	.LVL14-1
 2839 01b4 0200     		.2byte	0x2
 2840 01b6 91       		.byte	0x91
 2841 01b7 54       		.sleb128 -44
 2842 01b8 00000000 		.4byte	0
 2843 01bc 00000000 		.4byte	0
 2844              	.LLST14:
 2845 01c0 24000000 		.4byte	.LVL12
 2846 01c4 48000000 		.4byte	.LVL17
 2847 01c8 0300     		.2byte	0x3
 2848 01ca 08       		.byte	0x8
 2849 01cb 20       		.byte	0x20
 2850 01cc 9F       		.byte	0x9f
 2851 01cd 00000000 		.4byte	0
 2852 01d1 00000000 		.4byte	0
 2853              	.LLST15:
 2854 01d5 40000000 		.4byte	.LVL16
 2855 01d9 48000000 		.4byte	.LVL17
 2856 01dd 0200     		.2byte	0x2
 2857 01df 30       		.byte	0x30
 2858 01e0 9F       		.byte	0x9f
 2859 01e1 00000000 		.4byte	0
ARM GAS  /tmp/ccsGLxLb.s 			page 75


 2860 01e5 00000000 		.4byte	0
 2861              		.section	.debug_aranges,"",%progbits
 2862 0000 24000000 		.4byte	0x24
 2863 0004 0200     		.2byte	0x2
 2864 0006 00000000 		.4byte	.Ldebug_info0
 2865 000a 04       		.byte	0x4
 2866 000b 00       		.byte	0
 2867 000c 0000     		.2byte	0
 2868 000e 0000     		.2byte	0
 2869 0010 00000000 		.4byte	.LFB186
 2870 0014 4A000000 		.4byte	.LFE186-.LFB186
 2871 0018 00000000 		.4byte	.LFB187
 2872 001c 4C000000 		.4byte	.LFE187-.LFB187
 2873 0020 00000000 		.4byte	0
 2874 0024 00000000 		.4byte	0
 2875              		.section	.debug_ranges,"",%progbits
 2876              	.Ldebug_ranges0:
 2877 0000 00000000 		.4byte	.LFB186
 2878 0004 4A000000 		.4byte	.LFE186
 2879 0008 00000000 		.4byte	.LFB187
 2880 000c 4C000000 		.4byte	.LFE187
 2881 0010 00000000 		.4byte	0
 2882 0014 00000000 		.4byte	0
 2883              		.section	.debug_line,"",%progbits
 2884              	.Ldebug_line0:
 2885 0000 E6020000 		.section	.debug_str,"MS",%progbits,1
 2885      02007702 
 2885      00000201 
 2885      FB0E0D00 
 2885      01010101 
 2886              	.LASF43:
 2887 0000 63685F74 		.ascii	"ch_threads_list\000"
 2887      68726561 
 2887      64735F6C 
 2887      69737400 
 2888              	.LASF80:
 2889 0010 77746D74 		.ascii	"wtmtxp\000"
 2889      787000
 2890              	.LASF107:
 2891 0017 6D656D6F 		.ascii	"memory_pool_t\000"
 2891      72795F70 
 2891      6F6F6C5F 
 2891      7400
 2892              	.LASF73:
 2893 0025 746D5F63 		.ascii	"tm_calibration_t\000"
 2893      616C6962 
 2893      72617469 
 2893      6F6E5F74 
 2893      00
 2894              	.LASF87:
 2895 0036 77626173 		.ascii	"wbase\000"
 2895      6500
 2896              	.LASF68:
 2897 003c 72656761 		.ascii	"regarm_t\000"
 2897      726D5F74 
 2897      00
 2898              	.LASF32:
ARM GAS  /tmp/ccsGLxLb.s 			page 76


 2899 0045 666C6167 		.ascii	"flags\000"
 2899      7300
 2900              	.LASF23:
 2901 004b 73797374 		.ascii	"systime_t\000"
 2901      696D655F 
 2901      7400
 2902              	.LASF38:
 2903 0055 7265616C 		.ascii	"realprio\000"
 2903      7072696F 
 2903      00
 2904              	.LASF36:
 2905 005e 6570656E 		.ascii	"epending\000"
 2905      64696E67 
 2905      00
 2906              	.LASF0:
 2907 0067 756E7369 		.ascii	"unsigned int\000"
 2907      676E6564 
 2907      20696E74 
 2907      00
 2908              	.LASF44:
 2909 0074 6E657874 		.ascii	"next\000"
 2909      00
 2910              	.LASF41:
 2911 0079 74687265 		.ascii	"threads_list_t\000"
 2911      6164735F 
 2911      6C697374 
 2911      5F7400
 2912              	.LASF33:
 2913 0088 72656673 		.ascii	"refs\000"
 2913      00
 2914              	.LASF103:
 2915 008d 68656170 		.ascii	"heap\000"
 2915      00
 2916              	.LASF76:
 2917 0092 77746F62 		.ascii	"wtobjp\000"
 2917      6A7000
 2918              	.LASF108:
 2919 0099 706F7274 		.ascii	"port_lock\000"
 2919      5F6C6F63 
 2919      6B00
 2920              	.LASF65:
 2921 00a3 76746C69 		.ascii	"vtlist\000"
 2921      737400
 2922              	.LASF70:
 2923 00aa 706F7274 		.ascii	"port_context\000"
 2923      5F636F6E 
 2923      74657874 
 2923      00
 2924              	.LASF49:
 2925 00b7 63685F72 		.ascii	"ch_ready_list\000"
 2925      65616479 
 2925      5F6C6973 
 2925      7400
 2926              	.LASF55:
 2927 00c5 66756E63 		.ascii	"func\000"
 2927      00
 2928              	.LASF81:
ARM GAS  /tmp/ccsGLxLb.s 			page 77


 2929 00ca 65776D61 		.ascii	"ewmask\000"
 2929      736B00
 2930              	.LASF47:
 2931 00d1 70726576 		.ascii	"prev\000"
 2931      00
 2932              	.LASF46:
 2933 00d6 63685F74 		.ascii	"ch_threads_queue\000"
 2933      68726561 
 2933      64735F71 
 2933      75657565 
 2933      00
 2934              	.LASF51:
 2935 00e7 76746675 		.ascii	"vtfunc_t\000"
 2935      6E635F74 
 2935      00
 2936              	.LASF60:
 2937 00f0 63685F73 		.ascii	"ch_system_debug\000"
 2937      79737465 
 2937      6D5F6465 
 2937      62756700 
 2938              	.LASF10:
 2939 0100 75696E74 		.ascii	"uint32_t\000"
 2939      33325F74 
 2939      00
 2940              	.LASF78:
 2941 0109 73656E74 		.ascii	"sentmsg\000"
 2941      6D736700 
 2942              	.LASF21:
 2943 0111 6576656E 		.ascii	"eventmask_t\000"
 2943      746D6173 
 2943      6B5F7400 
 2944              	.LASF90:
 2945 011d 74687265 		.ascii	"thread_descriptor_t\000"
 2945      61645F64 
 2945      65736372 
 2945      6970746F 
 2945      725F7400 
 2946              	.LASF82:
 2947 0131 63685F73 		.ascii	"ch_semaphore\000"
 2947      656D6170 
 2947      686F7265 
 2947      00
 2948              	.LASF19:
 2949 013e 74707269 		.ascii	"tprio_t\000"
 2949      6F5F7400 
 2950              	.LASF53:
 2951 0146 63685F76 		.ascii	"ch_virtual_timer\000"
 2951      69727475 
 2951      616C5F74 
 2951      696D6572 
 2951      00
 2952              	.LASF86:
 2953 0157 7466756E 		.ascii	"tfunc_t\000"
 2953      635F7400 
 2954              	.LASF14:
 2955 015f 6C6F6E67 		.ascii	"long long unsigned int\000"
 2955      206C6F6E 
ARM GAS  /tmp/ccsGLxLb.s 			page 78


 2955      6720756E 
 2955      7369676E 
 2955      65642069 
 2956              	.LASF22:
 2957 0176 636E745F 		.ascii	"cnt_t\000"
 2957      7400
 2958              	.LASF127:
 2959 017c 5F5F6675 		.ascii	"__func__.5925\000"
 2959      6E635F5F 
 2959      2E353932 
 2959      3500
 2960              	.LASF112:
 2961 018a 63685379 		.ascii	"chSysUnlock\000"
 2961      73556E6C 
 2961      6F636B00 
 2962              	.LASF84:
 2963 0196 6F776E65 		.ascii	"owner\000"
 2963      7200
 2964              	.LASF45:
 2965 019c 74687265 		.ascii	"threads_queue_t\000"
 2965      6164735F 
 2965      71756575 
 2965      655F7400 
 2966              	.LASF125:
 2967 01ac 76616C75 		.ascii	"value\000"
 2967      6500
 2968              	.LASF37:
 2969 01b2 6D74786C 		.ascii	"mtxlist\000"
 2969      69737400 
 2970              	.LASF57:
 2971 01ba 63685F76 		.ascii	"ch_virtual_timers_list\000"
 2971      69727475 
 2971      616C5F74 
 2971      696D6572 
 2971      735F6C69 
 2972              	.LASF101:
 2973 01d1 75736564 		.ascii	"used\000"
 2973      00
 2974              	.LASF126:
 2975 01d6 5F5F6675 		.ascii	"__func__.5200\000"
 2975      6E635F5F 
 2975      2E353230 
 2975      3000
 2976              	.LASF24:
 2977 01e4 74687265 		.ascii	"thread_t\000"
 2977      61645F74 
 2977      00
 2978              	.LASF124:
 2979 01ed 68656170 		.ascii	"heap_header\000"
 2979      5F686561 
 2979      64657200 
 2980              	.LASF2:
 2981 01f9 73697A65 		.ascii	"size_t\000"
 2981      5F7400
 2982              	.LASF74:
 2983 0200 7264796D 		.ascii	"rdymsg\000"
 2983      736700
ARM GAS  /tmp/ccsGLxLb.s 			page 79


 2984              	.LASF106:
 2985 0207 6F626A65 		.ascii	"object_size\000"
 2985      63745F73 
 2985      697A6500 
 2986              	.LASF72:
 2987 0213 6F666673 		.ascii	"offset\000"
 2987      657400
 2988              	.LASF92:
 2989 021a 5F426F6F 		.ascii	"_Bool\000"
 2989      6C00
 2990              	.LASF83:
 2991 0220 63685F6D 		.ascii	"ch_mutex\000"
 2991      75746578 
 2991      00
 2992              	.LASF100:
 2993 0229 66726565 		.ascii	"free\000"
 2993      00
 2994              	.LASF121:
 2995 022e 474E5520 		.ascii	"GNU C 4.8.1 -mcpu=cortex-m3 -mno-thumb-interwork -m"
 2995      4320342E 
 2995      382E3120 
 2995      2D6D6370 
 2995      753D636F 
 2996 0261 7468756D 		.ascii	"thumb -ggdb -O2 -fomit-frame-pointer -falign-functi"
 2996      62202D67 
 2996      67646220 
 2996      2D4F3220 
 2996      2D666F6D 
 2997 0294 6F6E733D 		.ascii	"ons=16 -ffunction-sections -fdata-sections -fno-com"
 2997      3136202D 
 2997      6666756E 
 2997      6374696F 
 2997      6E2D7365 
 2998 02c7 6D6F6E20 		.ascii	"mon -flto\000"
 2998      2D666C74 
 2998      6F00
 2999              	.LASF110:
 3000 02d1 63685379 		.ascii	"chSysLock\000"
 3000      734C6F63 
 3000      6B00
 3001              	.LASF26:
 3002 02db 7072696F 		.ascii	"prio\000"
 3002      00
 3003              	.LASF85:
 3004 02e0 63686172 		.ascii	"char\000"
 3004      00
 3005              	.LASF40:
 3006 02e5 74687265 		.ascii	"thread_reference_t\000"
 3006      61645F72 
 3006      65666572 
 3006      656E6365 
 3006      5F7400
 3007              	.LASF30:
 3008 02f8 77616261 		.ascii	"wabase\000"
 3008      736500
 3009              	.LASF115:
 3010 02ff 63685468 		.ascii	"chThdCreateFromMemoryPool\000"
ARM GAS  /tmp/ccsGLxLb.s 			page 80


 3010      64437265 
 3010      61746546 
 3010      726F6D4D 
 3010      656D6F72 
 3011              	.LASF17:
 3012 0319 74737461 		.ascii	"tstate_t\000"
 3012      74655F74 
 3012      00
 3013              	.LASF3:
 3014 0322 75696E74 		.ascii	"uint8_t\000"
 3014      385F7400 
 3015              	.LASF35:
 3016 032a 6D736771 		.ascii	"msgqueue\000"
 3016      75657565 
 3016      00
 3017              	.LASF42:
 3018 0333 63685F74 		.ascii	"ch_thread\000"
 3018      68726561 
 3018      6400
 3019              	.LASF102:
 3020 033d 70616765 		.ascii	"pages\000"
 3020      7300
 3021              	.LASF122:
 3022 0343 2E2E2F2E 		.ascii	"../../../os/rt/src/chdynamic.c\000"
 3022      2E2F2E2E 
 3022      2F6F732F 
 3022      72742F73 
 3022      72632F63 
 3023              	.LASF59:
 3024 0362 73797374 		.ascii	"system_debug_t\000"
 3024      656D5F64 
 3024      65627567 
 3024      5F7400
 3025              	.LASF88:
 3026 0371 77656E64 		.ascii	"wend\000"
 3026      00
 3027              	.LASF12:
 3028 0376 6C6F6E67 		.ascii	"long long int\000"
 3028      206C6F6E 
 3028      6720696E 
 3028      7400
 3029              	.LASF20:
 3030 0384 6D73675F 		.ascii	"msg_t\000"
 3030      7400
 3031              	.LASF52:
 3032 038a 76697274 		.ascii	"virtual_timer_t\000"
 3032      75616C5F 
 3032      74696D65 
 3032      725F7400 
 3033              	.LASF104:
 3034 039a 73697A65 		.ascii	"size\000"
 3034      00
 3035              	.LASF97:
 3036 039f 68656164 		.ascii	"header\000"
 3036      657200
 3037              	.LASF94:
 3038 03a6 6D656D6F 		.ascii	"memory_heap_t\000"
ARM GAS  /tmp/ccsGLxLb.s 			page 81


 3038      72795F68 
 3038      6561705F 
 3038      7400
 3039              	.LASF118:
 3040 03b4 63685468 		.ascii	"chThdCreateSuspendedI\000"
 3040      64437265 
 3040      61746553 
 3040      75737065 
 3040      6E646564 
 3041              	.LASF61:
 3042 03ca 70616E69 		.ascii	"panic_msg\000"
 3042      635F6D73 
 3042      6700
 3043              	.LASF16:
 3044 03d4 746D6F64 		.ascii	"tmode_t\000"
 3044      655F7400 
 3045              	.LASF66:
 3046 03dc 6D61696E 		.ascii	"mainthread\000"
 3046      74687265 
 3046      616400
 3047              	.LASF6:
 3048 03e7 75696E74 		.ascii	"uint16_t\000"
 3048      31365F74 
 3048      00
 3049              	.LASF15:
 3050 03f0 7274636E 		.ascii	"rtcnt_t\000"
 3050      745F7400 
 3051              	.LASF117:
 3052 03f8 63684865 		.ascii	"chHeapAllocAligned\000"
 3052      6170416C 
 3052      6C6F6341 
 3052      6C69676E 
 3052      656400
 3053              	.LASF5:
 3054 040b 73686F72 		.ascii	"short int\000"
 3054      7420696E 
 3054      7400
 3055              	.LASF95:
 3056 0415 6D656D6F 		.ascii	"memory_heap\000"
 3056      72795F68 
 3056      65617000 
 3057              	.LASF9:
 3058 0421 6C6F6E67 		.ascii	"long int\000"
 3058      20696E74 
 3058      00
 3059              	.LASF71:
 3060 042a 706F7274 		.ascii	"port_intctx\000"
 3060      5F696E74 
 3060      63747800 
 3061              	.LASF116:
 3062 0436 49544D5F 		.ascii	"ITM_RxBuffer\000"
 3062      52784275 
 3062      66666572 
 3062      00
 3063              	.LASF63:
 3064 0443 63685F73 		.ascii	"ch_system\000"
 3064      79737465 
ARM GAS  /tmp/ccsGLxLb.s 			page 82


 3064      6D00
 3065              	.LASF111:
 3066 044d 5F5F7365 		.ascii	"__set_BASEPRI\000"
 3066      745F4241 
 3066      53455052 
 3066      4900
 3067              	.LASF96:
 3068 045b 70726F76 		.ascii	"provider\000"
 3068      69646572 
 3068      00
 3069              	.LASF58:
 3070 0464 6C617374 		.ascii	"lasttime\000"
 3070      74696D65 
 3070      00
 3071              	.LASF13:
 3072 046d 75696E74 		.ascii	"uint64_t\000"
 3072      36345F74 
 3072      00
 3073              	.LASF64:
 3074 0476 726C6973 		.ascii	"rlist\000"
 3074      7400
 3075              	.LASF120:
 3076 047c 6368506F 		.ascii	"chPoolAlloc\000"
 3076      6F6C416C 
 3076      6C6F6300 
 3077              	.LASF93:
 3078 0488 6D656D67 		.ascii	"memgetfunc_t\000"
 3078      65746675 
 3078      6E635F74 
 3078      00
 3079              	.LASF29:
 3080 0495 6E616D65 		.ascii	"name\000"
 3080      00
 3081              	.LASF67:
 3082 049a 73697A65 		.ascii	"sizetype\000"
 3082      74797065 
 3082      00
 3083              	.LASF18:
 3084 04a3 74726566 		.ascii	"trefs_t\000"
 3084      735F7400 
 3085              	.LASF11:
 3086 04ab 6C6F6E67 		.ascii	"long unsigned int\000"
 3086      20756E73 
 3086      69676E65 
 3086      6420696E 
 3086      7400
 3087              	.LASF48:
 3088 04bd 72656164 		.ascii	"ready_list_t\000"
 3088      795F6C69 
 3088      73745F74 
 3088      00
 3089              	.LASF25:
 3090 04ca 71756575 		.ascii	"queue\000"
 3090      6500
 3091              	.LASF8:
 3092 04d0 696E7433 		.ascii	"int32_t\000"
 3092      325F7400 
ARM GAS  /tmp/ccsGLxLb.s 			page 83


 3093              	.LASF79:
 3094 04d8 77747365 		.ascii	"wtsemp\000"
 3094      6D7000
 3095              	.LASF114:
 3096 04df 63685468 		.ascii	"chThdCreateFromHeap\000"
 3096      64437265 
 3096      61746546 
 3096      726F6D48 
 3096      65617000 
 3097              	.LASF91:
 3098 04f3 6D757465 		.ascii	"mutex_t\000"
 3098      785F7400 
 3099              	.LASF27:
 3100 04fb 6E657765 		.ascii	"newer\000"
 3100      7200
 3101              	.LASF4:
 3102 0501 756E7369 		.ascii	"unsigned char\000"
 3102      676E6564 
 3102      20636861 
 3102      7200
 3103              	.LASF34:
 3104 050f 77616974 		.ascii	"waiting\000"
 3104      696E6700 
 3105              	.LASF89:
 3106 0517 66756E63 		.ascii	"funcp\000"
 3106      7000
 3107              	.LASF56:
 3108 051d 76697274 		.ascii	"virtual_timers_list_t\000"
 3108      75616C5F 
 3108      74696D65 
 3108      72735F6C 
 3108      6973745F 
 3109              	.LASF28:
 3110 0533 6F6C6465 		.ascii	"older\000"
 3110      7200
 3111              	.LASF119:
 3112 0539 63685363 		.ascii	"chSchWakeupS\000"
 3112      6857616B 
 3112      65757053 
 3112      00
 3113              	.LASF31:
 3114 0546 73746174 		.ascii	"state\000"
 3114      6500
 3115              	.LASF105:
 3116 054c 706F6F6C 		.ascii	"pool_header\000"
 3116      5F686561 
 3116      64657200 
 3117              	.LASF62:
 3118 0558 63685F73 		.ascii	"ch_system_t\000"
 3118      79737465 
 3118      6D5F7400 
 3119              	.LASF77:
 3120 0564 77747472 		.ascii	"wttrp\000"
 3120      7000
 3121              	.LASF113:
 3122 056a 68656170 		.ascii	"heapp\000"
 3122      7000
ARM GAS  /tmp/ccsGLxLb.s 			page 84


 3123              	.LASF1:
 3124 0570 7369676E 		.ascii	"signed char\000"
 3124      65642063 
 3124      68617200 
 3125              	.LASF54:
 3126 057c 64656C74 		.ascii	"delta\000"
 3126      6100
 3127              	.LASF7:
 3128 0582 73686F72 		.ascii	"short unsigned int\000"
 3128      7420756E 
 3128      7369676E 
 3128      65642069 
 3128      6E7400
 3129              	.LASF69:
 3130 0595 73746B61 		.ascii	"stkalign_t\000"
 3130      6C69676E 
 3130      5F7400
 3131              	.LASF50:
 3132 05a0 63757272 		.ascii	"current\000"
 3132      656E7400 
 3133              	.LASF109:
 3134 05a8 706F7274 		.ascii	"port_unlock\000"
 3134      5F756E6C 
 3134      6F636B00 
 3135              	.LASF99:
 3136 05b4 616C6967 		.ascii	"align\000"
 3136      6E00
 3137              	.LASF123:
 3138 05ba 2F686F6D 		.ascii	"/home/alex/Embebidos Proyecto/ChibiOS_17.6.1/demos/"
 3138      652F616C 
 3138      65782F45 
 3138      6D626562 
 3138      69646F73 
 3139 05ed 53544D33 		.ascii	"STM32/RT-STM32F100-DISCOVERY\000"
 3139      322F5254 
 3139      2D53544D 
 3139      33324631 
 3139      30302D44 
 3140              	.LASF75:
 3141 060a 65786974 		.ascii	"exitcode\000"
 3141      636F6465 
 3141      00
 3142              	.LASF98:
 3143 0613 68656170 		.ascii	"heap_header_t\000"
 3143      5F686561 
 3143      6465725F 
 3143      7400
 3144              	.LASF39:
 3145 0621 6D706F6F 		.ascii	"mpool\000"
 3145      6C00
 3146              		.comm	__gnu_lto_v1,1,1
 3147              		.ident	"GCC: (Sourcery CodeBench Lite 2013.11-24) 4.8.1"
ARM GAS  /tmp/ccsGLxLb.s 			page 85


DEFINED SYMBOLS
                            *ABS*:00000000 chdynamic.c
     /tmp/ccsGLxLb.s:404    .text.chThdCreateFromHeap:00000000 $t
     /tmp/ccsGLxLb.s:410    .text.chThdCreateFromHeap:00000000 chThdCreateFromHeap
     /tmp/ccsGLxLb.s:511    .text.chThdCreateFromMemoryPool:00000000 $t
     /tmp/ccsGLxLb.s:517    .text.chThdCreateFromMemoryPool:00000000 chThdCreateFromMemoryPool
                            *COM*:00000001 __gnu_lto_v1
                     .debug_frame:00000010 $d

UNDEFINED SYMBOLS
chHeapAllocAligned
chThdCreateSuspendedI
chSchWakeupS
chPoolAlloc
