ARM GAS  /tmp/cc1eExWI.s 			page 1


   1              		.syntax unified
   2              		.cpu cortex-m3
   3              		.fpu softvfp
   4              		.eabi_attribute 20, 1
   5              		.eabi_attribute 21, 1
   6              		.eabi_attribute 23, 3
   7              		.eabi_attribute 24, 1
   8              		.eabi_attribute 25, 1
   9              		.eabi_attribute 26, 1
  10              		.eabi_attribute 30, 2
  11              		.eabi_attribute 34, 1
  12              		.eabi_attribute 18, 4
  13              		.thumb
  14              		.file	"chheap.c"
  15              		.text
  16              	.Ltext0:
  17              		.section	.gnu.lto_.jmpfuncs.d3942921a8de1caf,"",%progbits
  18 0000 789C6362 		.ascii	"x\234cb`b\300\006\262\2404+\003\003#S5\303\257\206\216"
  18      6062C006 
  18      B2A0342B 
  18      03032353 
  18      35C3AF86 
  19 0015 06814C46 		.ascii	"\006\201LF\006m\206U\015\015 \026c.#C\022#\\9#\343\203"
  19      066D8655 
  19      0D0D2016 
  19      632E2343 
  19      12235C39 
  20 002c FF50C018 		.ascii	"\377P\300\030\301\230\311\0104\224\231\235\221\245\001"
  20      C198C908 
  20      3494999D 
  20      91A501
  21 003b C8042962 		.ascii	"\310\004)ba\007\222\020\004\266\256\036h0#\204\317\006"
  21      61079210 
  21      04B6AE1E 
  21      68302384 
  21      CF06
  22 004d 95620000 		.ascii	"\225b\000\000:\344\022\320"
  22      3AE412D0 
  23              		.text
  24              		.section	.gnu.lto_.inline.d3942921a8de1caf,"",%progbits
  25 0000 789C6362 		.ascii	"x\234cb`b\300\006\232\031!4+\003\003\207\000#\003\023"
  25      6062C006 
  25      9A192134 
  25      2B030387 
  25      00230313 
  26 0014 DB073D06 		.ascii	"\333\007=\006\266\005\362`\305L\334\014\014\214\014"
  26      B605F260 
  26      C54CDC0C 
  26      0C8C0C
  27 0023 CC0C3C22 		.ascii	"\314\014<\"\214LL`u \202\231\265C\235\201{\205\033\023"
  27      8C4C4C60 
  27      75208299 
  27      B5439D81 
  27      7B851B13 
  28 0037 03CB0279 		.ascii	"\003\313\002y\026\270\272\011~,\014\327\030v11\2623"
  28      16B8BA09 
  28      7E2C0CD7 
ARM GAS  /tmp/cc1eExWI.s 			page 2


  28      18763131 
  28      B233
  29 0049 A4473066 		.ascii	"\244G0f22\203d2`,\246\024\020\213\205\035\310J\205\261"
  29      32328364 
  29      32602CA6 
  29      14108B85 
  29      1DC84A85 
  30 005e C0A681CD 		.ascii	"\300\246\201\315e\004\021\254%\033~+@\354\006\032\354"
  30      650411AC 
  30      251B7E2B 
  30      40EC061A 
  30      EC
  31 006f 00221A18 		.ascii	"\000\"\032\030\031\204\246x60!Y\202J\261\011\001%&\370"
  31      1984A678 
  31      36302159 
  31      824AB109 
  31      012526F8 
  32 0083 4DF06365 		.ascii	"M\360ce0>\314\0104\006\354@\237\256-\"\014\002/\202"
  32      303ECC08 
  32      3406EC40 
  32      9FAE2D22 
  32      0C022F82 
  33 0097 9818982E 		.ascii	"\230\030\230.\360\263`jfc\220\374\312\300\310\211\315"
  33      F0B3606A 
  33      666390FC 
  33      CAC0C889 
  33      CD
  34 00a8 9D8C6016 		.ascii	"\235\214`\026+\210\225\016c1\301\305\230\340b\014pg"
  34      2B88950E 
  34      6331C1C5 
  34      98E0620C 
  34      7067
  35 00ba 833DC029 		.ascii	"\203=\300)\360`\036\027\334\355\015\020\222\205\201"
  35      F0601E17 
  35      DCED0D10 
  35      928581
  36 00c9 F99BB000 		.ascii	"\371\233\260\000\003\343%6\001\210\000\007\003s\233"
  36      03E32536 
  36      01880007 
  36      03739B
  37 00d8 A8030363 		.ascii	"\250\003\003c\023\273\003\026/1\000\000\222\2012\252"
  37      13BB0316 
  37      2F310000 
  37      928132AA 
  38              		.text
  39              		.section	.gnu.lto_.pureconst.d3942921a8de1caf,"",%progbits
  40 0000 789C6362 		.ascii	"x\234cb`b\340f\200\000V\006\011f)\026)V)6)\000\004?"
  40      6062E066 
  40      80005606 
  40      09662916 
  40      29562936 
  41 0018 00A7     		.ascii	"\000\247"
  42              		.text
  43              		.section	.gnu.lto__heap_init.d3942921a8de1caf,"",%progbits
  44 0000 789C6362 		.ascii	"x\234cb`b@\007\222@|\216\221\201A\003H32302M8\307\300"
  44      60624007 
  44      92407C8E 
ARM GAS  /tmp/cc1eExWI.s 			page 3


  44      91814103 
  44      48333233 
  45 001a D0C8C1C4 		.ascii	"\320\310\301\304\310\010b002\32431\326G2\202\325\256"
  45      C8086230 
  45      3032D433 
  45      31D64732 
  45      82D5AE
  46 002d 673AF0E0 		.ascii	"g:\360\340\377\377u\333\216O\277\3038\217\211\015(\302"
  46      FFFF75DB 
  46      8E4FBFC3 
  46      388F890D 
  46      28C2
  47 003f CAD0D2D0 		.ascii	"\312\320\322\3200A\201\201!\031\254\"\004H\202\264\205"
  47      30418181 
  47      2119AC22 
  47      044882B4 
  47      85
  48 0050 32328168 		.ascii	"22\201h\346\263\014M\277\232\277\367Y&2.dde\320fX\325"
  48      E6B30C4D 
  48      BF9ABFF7 
  48      5926322E 
  48      646465D0 
  49 0067 0004F699 		.ascii	"\000\004\366\231\214\014\263\031f564\010d22V3\374j\350"
  49      8C0CB319 
  49      66353634 
  49      08643232 
  49      5633FC6A 
  50 007c 00B19872 		.ascii	"\000\261\230r\301FD0\002\231`\333\222 \2262@T4\224g"
  50      C1464430 
  50      029960DB 
  50      92209632 
  50      40543494 
  51 0091 32322733 		.ascii	"22'3B\304\200\346\356\270\361\375\000\013\212\271\354"
  51      42C480E6 
  51      EEB8F1FD 
  51      000B8AB9 
  51      EC
  52 00a2 998C2CDA 		.ascii	"\231\214,\332\014Z\231\214\254`\222\2158;\030\2414\214"
  52      0C5A998C 
  52      AC60928D 
  52      383B18A1 
  52      348C
  53 00b4 CFCC0053 		.ascii	"\317\314\000S\301\002\263\351\307\367\023\0306\261S"
  53      C102B3E9 
  53      C7F71318 
  53      36B153
  54 00c3 6E130BDC 		.ascii	"n\023\013\334&v\020\343<C\313\203\227\207\271 \026\301"
  54      267610E3 
  54      3C43CB83 
  54      9787B920 
  54      16C1
  55 00d5 7C0D3489 		.ascii	"|\0154\211#\031\252\003$\302\221\311\310\011u\304D\240"
  55      2319AA03 
  55      24C291C9 
  55      C80975C4 
  55      44A0
  56 00e7 462EA02D 		.ascii	"F.\240-I`\345\014\014P\215\231\214\334\014\014\027\031"
ARM GAS  /tmp/cc1eExWI.s 			page 4


  56      4960E50C 
  56      0C508D99 
  56      8CDC0C0C 
  56      1719
  57 00f9 1A1FBC55 		.ascii	"\032\037\274U\206\031\005\001!@\007\000\343\004d\226"
  57      86190501 
  57      21400700 
  57      E3046496 
  58 0109 9A9E9E3E 		.ascii	"\232\236\236>\004\345\027\353'\347\347\346\346\347\001"
  58      04E517EB 
  58      27E7E7E6 
  58      E6E701
  59 0118 59399949 		.ascii	"Y9\231I\372\305E\311\372\311\031\031\251\211\005z\311"
  59      FAC545C9 
  59      FAC91919 
  59      A989057A 
  59      C9
  60 0129 0C00FF43 		.ascii	"\014\000\377Cv\366"
  60      76F6
  61              		.text
  62              		.section	.gnu.lto_chHeapObjectInit.d3942921a8de1caf,"",%progbits
  63 0000 789C9552 		.ascii	"x\234\225R\277K\303P\020\276{Il\032\353\217\325M\004"
  63      BF4BC350 
  63      10BE7B49 
  63      6C1AEB8F 
  63      D54D04
  64 0013 052D34F8 		.ascii	"\005-4\370\277(\350X\203\264\001c\213\335\354\340\263"
  64      BF28E858 
  64      83B40163 
  64      8BDDECE0 
  64      B3
  65 0024 E95004A1 		.ascii	"\351P\004\241HE\321\305:DP\320\265c]\004\005\0257\335"
  65      4845D1C5 
  65      3A4450D0 
  65      B5635D04 
  65      051537DD 
  66 0038 FC031C74 		.ascii	"\374\003\034t\262t0\336{y\255T\253\340\221\334\275\344"
  66      B27430DE 
  66      7B79AD54 
  66      ABE091DC 
  66      BDE4
  67 004a BEFBEE7B 		.ascii	"\276\373\356{\3071`\360\335\306\350}\241\337I\212\250"
  67      C73160F0 
  67      DDC6E87D 
  67      A1DF498A 
  67      A8
  68 005b 01B2EA1D 		.ascii	"\001\262\352\035\300\246\311\020\305\001\0206\030n,"
  68      C0A6C910 
  68      C5011036 
  68      186E2C
  69 006a A2C45EB0 		.ascii	"\242\304^\260\346s\030\236\327n\256.\361lr\030\321C"
  69      E673189E 
  69      D76EAE2E 
  69      F16C7218 
  69      D143
  70 007c D0C8A149 		.ascii	"\320\310\241I\216\305\301E\260\204K\220\023\025\006"
  70      8EC5C145 
ARM GAS  /tmp/cc1eExWI.s 			page 5


  70      B0844B90 
  70      131506
  71 008b 9439AF8E 		.ascii	"\2249\257\216O@\235\363\235\346\336\326\356\030?*U\371"
  71      4F409DF3 
  71      9DE6DED6 
  71      EE183F2A 
  71      55F9
  72 009d 4718A28B 		.ascii	"G\030\242\213\214\3014\202\203\260@\037\332\270\014"
  72      8CC13482 
  72      83B0401F 
  72      DAB80C
  73 00ac BADE2BCE 		.ascii	"\272\336+\316#E\002B6G^(\232G&\242v\015,\215u4 \215"
  73      23450242 
  73      36475E28 
  73      9A4726A2 
  73      760D2C8D 
  74 00c4 C7380119 		.ascii	"\3078\001\031\321\360\026J\215F\360\244\022I8\345d\263"
  74      D1F0164A 
  74      8D46F0A4 
  74      124938E5 
  74      64B3
  75 00d6 2E1A8770 		.ascii	".\032\207p@\354\003\031\324D\227\230\344^\212\356$\373"
  75      40EC0319 
  75      D4449798 
  75      E45E8AEE 
  75      24FB
  76 00e8 1AE240D5 		.ascii	"\032\342@\325\327\217\301\203\326S\035#\241I\230q\321"
  76      D78FC183 
  76      D6531D23 
  76      A1499871 
  76      D1
  77 00f9 943EDE9F 		.ascii	"\224>\336\237\011Ud*j2v5\265\202\247\037\254\326\377"
  77      0955642A 
  77      6A327635 
  77      B582A71F 
  77      ACD6FF
  78 010c 59F5AE5E 		.ascii	"Y\365\256^K\351m\354\237\274\341/z#\3168\211\020\025"
  78      4BE96DEC 
  78      9FBCE12F 
  78      7A23CE38 
  78      891015
  79 011f ACAFC26E 		.ascii	"\254\257\302n\346\026\374\212\377^\263#\256\214(3e\243"
  79      E616FC8A 
  79      FF5EB323 
  79      AE8C2833 
  79      65A3
  80 0131 56188623 		.ascii	"V\030\206#\021`\333\017\264N\336\"\210\314\233jp\257"
  80      1160DB0F 
  80      B44EDE22 
  80      88CC9B6A 
  80      70AF
  81 0143 B15F2EF8 		.ascii	"\261_.\370\267\014]\015\312\222,m?\254\315tZ$\212\260"
  81      B70C5D0D 
  81      CA922C6D 
  81      3FACCD74 
  81      5A248AB0 
  82 0157 4E6BA408 		.ascii	"Nk\244\010\013.\016\366\237\222\361\265.\367Pn\252z"
ARM GAS  /tmp/cc1eExWI.s 			page 6


  82      0B2E0EF6 
  82      9F92F1B5 
  82      2EF7506E 
  82      AA7A
  83 0169 8022B479 		.ascii	"\200\"\264y\205\217\272\230p\324$\211\323\305!\200\007"
  83      858FBA98 
  83      70D42489 
  83      D3C52180 
  83      07
  84 017a D87C3E9B 		.ascii	"\330|>\233\354\340\"\233#\014\255\225\3205\225J\331"
  84      ECE0229B 
  84      230CAD95 
  84      D035954A 
  84      D9
  85 018b D1932BD8 		.ascii	"\321\223+\330N\316\363r\253tZq\227\354\302\232c;\331"
  85      4ECEF372 
  85      AB745A71 
  85      97ECC29A 
  85      633BD9
  86 019e EC723A9F 		.ascii	"\354r:\237r\200e\363\237U\026\2476"
  86      728065F3 
  86      9F5516A7 
  86      36
  87              		.text
  88              		.section	.gnu.lto_chHeapAllocAligned.d3942921a8de1caf,"",%progbits
  89 0000 789C9D57 		.ascii	"x\234\235WklTE\024\236\231{\357\276\037\355\366E\265"
  89      6B6C5445 
  89      149E997B 
  89      EFBE1FED 
  89      F645B5
  90 0013 BC2A6FB4 		.ascii	"\274*o\264\245T\024\241My\304\037\004\224\004%\321\177"
  90      A55414A1 
  90      4D79C41F 
  90      04940425 
  90      D17F
  91 0025 962A6513 		.ascii	"\226*e\023+U\376\311\217n\2735 UBT^\312\243\006\025"
  91      2B55FEC9 
  91      8F6EBB35 
  91      20554254 
  91      5ECAA306 
  92 003a 5109424C 		.ascii	"Q\011BL4\266\350n%\246<\004\2521\362R\211\210DJP\242"
  92      34B6E86E 
  92      25A63C04 
  92      AA31F252 
  92      8988444A 
  93 0050 49118DEB 		.ascii	"I\021\215\3539gfno\267\353v\265i\316\275s\276\363\232"
  93      3967666E 
  93      6FB7EB76 
  93      B569CEBD 
  93      73BEF39A 
  94 0064 33DFCC9D 		.ascii	"3\337\314\235\025L\260\364\277\022\316\330\375\021\306"
  94      154CB0F4 
  94      BF12CED8 
  94      FD11C6
  95 0073 1E81775E 		.ascii	"\036\201w^\302\270\330t\222\261V\217\020\306\005?\213"
  95      C2B8D874 
  95      92B1568F 
ARM GAS  /tmp/cc1eExWI.s 			page 7


  95      10C6053F 
  95      8B
  96 0084 F9CC0F7A 		.ascii	"\371\314\017z\030\213\005\014nJ\275)\254\365\223A\357"
  96      188B050C 
  96      6E4ABD29 
  96      ACF59341 
  96      EF
  97 0095 4219B0B8 		.ascii	"B\031\260\270K\252]\274X\276\270\205\207\360|\302=\302"
  97      4BAA5DBC 
  97      58BEB885 
  97      87F07CC2 
  97      3DC2
  98 00a7 DB63E0E8 		.ascii	"\333c\340\350\3441\214\342\025>\002\203\004\372\204"
  98      E4318CE2 
  98      153E0283 
  98      04FA84
  99 00b6 9F46011A 		.ascii	"\237F\001\032\371y@F\010\360<\371\022\024\241_\213\000"
  99      F9794046 
  99      08F03CF9 
  99      1214A15F 
  99      8B00
 100 00c8 0F77CE06 		.ascii	"\017w\316\006<\244\325a\375\222\307\213\344K\276L>\277"
 100      3CA4D561 
 100      FD92C78B 
 100      E44BBE4C 
 100      3EBF
 101 00da 58B8298F 		.ascii	"X\270)\217/\202I\003\021Q\3609\015\213\216\341\260@"
 101      2F824903 
 101      1151F039 
 101      0D8B8EE1 
 101      B040
 102 00ec 149E3E41 		.ascii	"\024\236>A\303\004\207a\241\366.\342\034_\030g-\302"
 102      C3048761 
 102      A1F62EE2 
 102      1C5F1867 
 102      2DC2
 103 00fe 302D97DB 		.ascii	"0-\227\333\343\365\371\003\301P8/\2778RPX\304[\036\345"
 103      E3F5F903 
 103      C150382F 
 103      BF385250 
 103      58C45B1E 
 104 0113 D8286F39 		.ascii	"\330(o9{=\026\333t\361\362\245>k\373+\211\366\316\330"
 104      7B3D16DB 
 104      74F1F2A5 
 104      3E6BFB2B 
 104      89F6CED8 
 105 0127 5FA914E7 		.ascii	"_\251\024\347Q\016M\235\312Y\003g\217\300\200\217\243"
 105      510E4D9D 
 105      CA590367 
 105      8FC0808F 
 105      A3
 106 0138 87308776 		.ascii	"\2070\207vY\372\306\016\275\035\363\222\237An\025\271"
 106      59FAC60E 
 106      BD1DF392 
 106      9F416E15 
 106      B9
 107 0149 B925FA4E 		.ascii	"\271%\372Nn-\335\320\331\266)\3667d$\317\273s\364\354"
ARM GAS  /tmp/cc1eExWI.s 			page 8


 107      6E2DDDD0 
 107      D9B629F6 
 107      376424CF 
 107      BB73F4EC 
 108 015d 3AB523CD 		.ascii	":\265#\315sNN\236/%vwl.\215\015z\032\202\325\345\346"
 108      734E4E9E 
 108      2F257677 
 108      6C2E8D0D 
 108      7A1A82D5 
 109 0173 19FBFEF1 		.ascii	"\031\373\376\361\336X{\"\225\252#\257\0059\346;\330"
 109      DE587B22 
 109      95AA23AF 
 109      0539E63B 
 109      D8
 110 0184 F1A2339F 		.ascii	"\361\2423\237)\330\3759z~\263qgZ\245\213s\364<t*\260"
 110      29D8FD39 
 110      7A7EB371 
 110      675AA58B 
 110      73F43C74 
 111 019a A9757D2C 		.ascii	"\251u},\225j\001\267z\376>\027#\370\035\020\211\213"
 111      956A01B7 
 111      7AFE3E17 
 111      23F81D10 
 111      898B
 112 01ac A9D4B5B3 		.ascii	"\251\324\265\263\277\277p\202\037\023\017q\326\204-"
 112      BFBF7082 
 112      1F130F71 
 112      D6842D
 113 01bb 6DE2DC60 		.ascii	"m\342\334`\365|\037/g\246zZ,\312-/\007\330\007\202\373"
 113      F57C1F2F 
 113      67A67A5A 
 113      2CCA2D2F 
 113      07D80782 
 114 01d0 418800E8 		.ascii	"A\210\000\350\\A\024!\260\332\017Va\030\270#\312\245"
 114      5C411421 
 114      B0DA0F56 
 114      6118B823 
 114      CAA5
 115 01e2 000646A1 		.ascii	"\000\006F\241\032\024\341\240\030mKP\214BQ\212\3426"
 115      1A14E1A0 
 115      186D4B50 
 115      8C42518A 
 115      E236
 116 01f4 14B78310 		.ascii	"\024\267\203\020e\312t4j\306\240f,\212q\3509\036\260"
 116      65CA7434 
 116      6AC6A066 
 116      2C8A71E8 
 116      391EB0
 117 0207 D7012B87 		.ascii	"\327\001+\207\347\036x\336\001J6\001\305D\024\223PL"
 117      E71E78DE 
 117      014A3601 
 117      C5441493 
 117      504C
 118 0219 4631059D 		.ascii	"F1\005\235\247\202\325\233`5\0155\323Q\334\211\342."
 118      A782D59B 
 118      60350D35 
 118      D351DC89 
ARM GAS  /tmp/cc1eExWI.s 			page 9


 118      E22E
 119 022b C42A31E6 		.ascii	"\304*1\346\014\024U`u\000\254f\242\272\032\305,L5\033"
 119      0C145560 
 119      7500AC66 
 119      A2BA1AC5 
 119      2C4C351B 
 120 023f C51C3498 		.ascii	"\305\0344\230\213\242\006\254\016\202U-\252\353`\260"
 120      8BA206AC 
 120      0E82552D 
 120      AAEB60B0 
 121 024f 1706F330 		.ascii	"\027\006\3630\334|\024\013P,D\347E\330\241\305 <Kp\370"
 121      DC7C140B 
 121      502C44E7 
 121      45D8A1C5 
 121      203C4B70 
 122 0264 008AA560 		.ascii	"\000\212\245`\377.\330/C\014\332m\261v \36189O\011\311"
 122      FF2ED82F 
 122      430CDA6D 
 122      B17620F1 
 122      38394F09 
 123 0279 C63541C3 		.ascii	"\3065A\303q\251\340\357a\220\333-\266\034\326n\273e"
 123      71A9E0EF 
 123      6190DB2D 
 123      B61CD66E 
 123      BB65
 124 028b F4B22357 		.ascii	"\364\262#W\222]\035\260\230\207 B#\367\342*z\235K\270"
 124      925D1DB0 
 124      98872042 
 124      23F7E22A 
 124      7A9D4BB8 
 125 029f 1C5C7F64 		.ascii	"\034\\\177d\306Q\326v\361\273\313.i\007\313\264\226"
 125      C651D676 
 125      F1BBCB2E 
 125      6907CBB4 
 125      96
 126 02b0 DD8AAD8F 		.ascii	"\335\212\255\217\305\346\202u\0237\035\326&\206\005"
 126      C5E68275 
 126      13371DD6 
 126      268605
 127 02bf 6B0F43B3 		.ascii	"k\017C\263F\016\351zY\373O\311\257\007\223\3700\211"
 127      460EE97A 
 127      59FB4FC9 
 127      AF0793F8 
 127      3089
 128 02d1 CB6D3B9D 		.ascii	"\313m;\235e\0342\013.c&\016\037\017\331Q\215\217\014"
 128      651C320B 
 128      2E63260E 
 128      1F0FD951 
 128      8D8F0C
 129 02e4 0C6AB113 		.ascii	"\014j\261\023\002\203v\366[\272\002NA<v^\2273/\304\203"
 129      028376F6 
 129      5BBA024E 
 129      413C765E 
 129      97332FC4 
 130 02f9 93FB0B16 		.ascii	"\223\373\013\026_\037?\\\242\323\006\032\271\037\235"
 130      5F1F3F5C 
 130      A2D3061A 
ARM GAS  /tmp/cc1eExWI.s 			page 10


 130      B91F9D
 131 0308 4CCC0C58 		.ascii	"L\314\014X\227]P\020@Bn\246R\251\260D_\214\257\324p"
 131      975D5010 
 131      40426EA6 
 131      52A9B044 
 131      5F8CAFD4 
 132 031d 082C08C6 		.ascii	"\010,\010\306lG\231\220z\331Y@\321\274\355V\274\177"
 132      6C479990 
 132      7AD95940 
 132      D1BCED56 
 132      BC7F
 133 032f AB1D2FBC 		.ascii	"\253\035/\274\226=\013L\235\316\246E\271\3575\366*\370"
 133      963D0B4C 
 133      9DCEA645 
 133      B9EF35F6 
 133      2AF8
 134 0341 FA1B65C5 		.ascii	"\372\033e\305\262\267+\270\243\303\247\230)\035\231"
 134      B2B72BB8 
 134      A3C3A798 
 134      291D99
 135 0350 EA6A5E94 		.ascii	"\352j^\224\007\032\2704\201`Q\036T)\006\266\272t\212"
 135      071AB834 
 135      8160511E 
 135      542906B6 
 135      BA748A
 136 0363 089AC25F 		.ascii	"\010\232\302_\025\320f:{\007_k\243<\2249\231#\033t("
 136      15D0663A 
 136      7B075F6B 
 136      A33C9439 
 136      99231B74 
 137 0378 E1D213D8 		.ascii	"\341\322\023\330G\023\210\3105\020\2600\246\356\252"
 137      471388C8 
 137      3510B030 
 137      A6EEAA
 138 0387 D5FDED93 		.ascii	"\325\375\355\223\330U7\203/\004-\376\206u.E/u\030\244"
 138      D8553783 
 138      2F042DFE 
 138      86752E45 
 138      2F7518A4 
 139 039b 3AB6A41D 		.ascii	":\266\244\035#\017\216t\2140\246'\252\330\331\310\013"
 139      230F8E74 
 139      8C30A627 
 139      AAD8D9C8 
 139      0B
 140 03ac A8D91DF1 		.ascii	"\250\331\035\361\017w\324\324\363n\232Z\021h\311\333"
 140      0F77D4D4 
 140      F36E9A5A 
 140      1168C9DB 
 141 03bc 432BD176 		.ascii	"C+\321v\335\320H1\200rYmU\011iE\232v\024\0004\223\224"
 141      DDD04831 
 141      8072596D 
 141      55096945 
 141      9A761400 
 142 03d3 BDA06DFB 		.ascii	"\275\240m\373l\264T;t\331\252\333\310\247Tq\346o[\177"
 142      6CB4543B 
 142      74D9AADB 
 142      C8A75471 
ARM GAS  /tmp/cc1eExWI.s 			page 11


 142      E66F5B7F 
 143 03e7 3B4054CB 		.ascii	";@T\313 3\332\256#3$\\\006\026\212\022\335\324\321\303"
 143      2033DAAE 
 143      2333245C 
 143      06168A12 
 143      DDD4D1C3 
 144 03fb 34A932B2 		.ascii	"4\2512\262;w\363RRh\313\321D\006\223dX\256RH\315\323"
 144      3B77F352 
 144      5268CBD1 
 144      44069364 
 144      58AE5248 
 145 0411 50AB24D4 		.ascii	"P\253$\324\323P\275\0322\2431\020\202\012\341\022\331"
 145      D350BD1A 
 145      32A33110 
 145      820AE112 
 145      D9
 146 0422 60236301 		.ascii	"`#c\001t\264+\336a#\343 \001\340\270\001\217\374\324"
 146      74B42BDE 
 146      6123E320 
 146      01E0B801 
 146      8FFCD4
 147 0435 5AE55097 		.ascii	"Z\345P\2279\367\267\207\355\235h\320\274\256\332\345"
 147      39F7B787 
 147      ED9D68D0 
 147      BCAEDAE5 
 148 0445 8E572BE3 		.ascii	"\216W+\343h~9\315\025\022<o\253\356 \303\3624\303\011"
 148      687E39CD 
 148      15123C6F 
 148      ABEE20C3 
 148      F234C309 
 149 0459 947348F5 		.ascii	"\224sH\365\023A\21352l#\375\361\2264\223I\024n\"iw\331"
 149      13418B35 
 149      326C23FD 
 149      F1963493 
 149      49146E22 
 150 0470 DAC90090 		.ascii	"\332\311\000\220\3430.L\001\220\216\226+\255k\035\272"
 150      E3302E4C 
 150      01908E96 
 150      2BAD6B1D 
 150      BA
 151 0481 9073665E 		.ascii	"\220sf^\366\015\307#\356r\362\303\215AmT\2206}\037\353"
 151      F60DC723 
 151      EE72F2C3 
 151      8D416D54 
 151      90367D1F 
 152 0496 970CDFBD 		.ascii	"\227\014\337\275\3167\224\341\037\237\034\374\334\301"
 152      CE3794E1 
 152      1F9F1CFC 
 152      DCC1
 153 04a4 F775592E 		.ascii	"\367uY.\364\356\326\364\376\214\2300\205\252\356\217"
 153      F4EED6F4 
 153      FE8C9830 
 153      85AAEE8F 
 154 04b4 EFD95959 		.ascii	"\357\331YY\317{(\377T\325\307\266~C\253\246i^?o\253"
 154      CF7B28FF 
 154      54D5C7B6 
 154      7E43ABA6 
ARM GAS  /tmp/cc1eExWI.s 			page 12


 154      695E3F6F 
 155 04c9 A693E134 		.ascii	"\246\223\3414\273\035R{'\000\351\355\220\310]\000\222"
 155      BB1D527B 
 155      2700E9ED 
 155      90C85D00 
 155      92
 156 04da EAE8FB7E 		.ascii	"\352\350\373~\251S\247B\365\177b\035\004\"\272\\N~\265"
 156      A953A742 
 156      F57F621D 
 156      0422BA5C 
 156      4E7EB5
 157 04ed 31A46387 		.ascii	"1\244c\207h\036\203\035\363\263{\014\332'];k\355O\016"
 157      681E831D 
 157      F3B37B0C 
 157      DA275D3B 
 157      6BED4F0E 
 158 0501 7EEA70DE 		.ascii	"~\352p\336=\262\001\215\274\022\034\323\031\333K\361"
 158      3DB2018D 
 158      BC121CD3 
 158      19DB4BF1 
 159 0511 66003884 		.ascii	"f\0008\204\261\361g5TE{j\206\332S\275\264\247\016P'"
 159      B1F16735 
 159      54457B6A 
 159      86DA53BD 
 159      B4A70E50 
 160 0526 AB6483E2 		.ascii	"\253d\203\342\237\356\\\244\215g\352\025\247b\256\012"
 160      9FEE5CA4 
 160      8D67EA15 
 160      A762AE0A 
 161 0536 ADAF0688 		.ascii	"\255\257\006\210\316k\307\356?\372\253_\302\252-\367"
 161      CE6BC7EE 
 161      3FFAAB5F 
 161      C2AA2DF7 
 162 0546 0E6F4B55 		.ascii	"\016oKU\266\266T\313-}\346z\322\236\306,\3627ri\256"
 162      B6B654CB 
 162      2D7DE67A 
 162      D29EC62C 
 162      F2377269 
 163 055b 260A1672 		.ascii	"&\012\026rzX!\351!2\026b\252Bf\311(7\257\337\020#\305"
 163      7A5821E9 
 163      21321662 
 163      AA4266C9 
 163      2837AFDF 
 164 0572 C9520AF5 		.ascii	"\311R\012\365S\256f@\363\377\223un\271|\372l.\323&A"
 164      53AE6640 
 164      F3FF9375 
 164      6EB97CFA 
 164      6C2ED326 
 165 0587 34A1ABC2 		.ascii	"4\241\253\302\226\260\336F\020\177\264\223\024!6\006"
 165      96B0DE46 
 165      107FB493 
 165      14213606 
 166 0597 0F91731F 		.ascii	"\017\221s\037\375\226\264\367\350\354\377\337\241\356"
 166      FD96B4F7 
 166      E8ECFFDF 
 166      A1EE
 167 05a5 AC3333B2 		.ascii	"\25433\262\315l\266.)\014\321$Q\177\331Uc\023\365\240"
ARM GAS  /tmp/cc1eExWI.s 			page 13


 167      CD6CB62E 
 167      290CD124 
 167      517FD955 
 167      6313F5A0 
 168 05b9 226AB726 		.ascii	"\"j\267&\352\234\014D=O\365\317\005p\030Q%TC\007\311"
 168      EA9C0C44 
 168      3D4FF5CF 
 168      05701851 
 168      25544307 
 169 05ce 5C45D4F3 		.ascii	"\\E\324\363\324\265\203\324\265\032\311\224m\003I;N"
 169      D4B583D4 
 169      B51AC994 
 169      6D03493B 
 169      4E
 170 05df EDFFEFC3 		.ascii	"\355\377\357\303\371\254}\250\311\326\207Z\365\265\032"
 170      F9AC7DA8 
 170      C9D6875A 
 170      F5B51A
 171 05ee D8759F2E 		.ascii	"\330u\237.\244N\225G\007\215T\315\2433\274\316>\215"
 171      A44E9547 
 171      078D54CD 
 171      A333BCCE 
 171      3E8D
 172 0600 A5763E9D 		.ascii	"\245v>\235\331\363\354\343Gj\027\000\220~\374Hd!\200"
 172      D9F3ECE3 
 172      476A1700 
 172      907EFC48 
 172      642180
 173 0613 83FBEC7C 		.ascii	"\203\373\354|\326}\226\261h\275\317\026\312(g\006n\210"
 173      D67D96B1 
 173      68BDCF16 
 173      CA286706 
 173      6E88
 174 0625 91269F95 		.ascii	"\221&\237\225\0045\232\004y\370\015\220\367B\315k\223"
 174      04359A04 
 174      79F80D90 
 174      F742CD6B 
 174      93
 175 0636 721CBF79 		.ascii	"r\034\277y\253O\014!ZX\327\232g\3470\2359,\365t\251"
 175      AB4F0C21 
 175      5A58D79A 
 175      67E7309D 
 175      392CF574 
 176 064b 1C7E1967 		.ascii	"\034~\031g\333\237\303\343xs\211\343Vq8\336\001\333"
 176      DB9FC3E3 
 176      787389E3 
 176      567138DE 
 176      01DB
 177 065d 3B7F716B 		.ascii	";\177qkR:\257\201B\031\351k \220\360\347\261z\203-R"
 177      523AAF81 
 177      4219E96B 
 177      2090F0E7 
 177      B17A832D 
 178 0672 9185BC07 		.ascii	"\221\205\274\007\237e&\354\332\300\265\201f`W\350\275"
 178      9F6526EC 
 178      DAC0B581 
 178      666057E8 
ARM GAS  /tmp/cc1eExWI.s 			page 14


 178      BD
 179 0683 1B8FC123 		.ascii	"\033\217\301#L]\310g\003\275\314@\213B\320\271\177o"
 179      4C5DC867 
 179      03BDCC40 
 179      8B42D0B9 
 179      7F6F
 180 0695 01E921A4 		.ascii	"\001\351!\244\230\301\257y\256\033$o\204\206:\354>\355"
 180      98C1AF79 
 180      AE1B246F 
 180      84863AEC 
 180      3EED
 181 06a7 E3FABE59 		.ascii	"\343\372\276Y\220\221\302Y\226\200\276\315\327Z\253"
 181      9091C259 
 181      9680BECD 
 181      D75AAB
 182 06b6 ED0083A6 		.ascii	"\355\000\203\246\252V\243\221\027\346\303M=\342\272"
 182      AA56A391 
 182      17E6C34D 
 182      3DE2BA
 183 06c5 F0FD282C 		.ascii	"\360\375(,%\302z\014\003:q\261#\232\351B\234\336\011"
 183      25C27A0C 
 183      033A71B1 
 183      239AE942 
 183      9CDE09
 184 06d8 B860EDF9 		.ascii	"\270`\355\371\301.p1\225\226\237\371\002\354q\226\024"
 184      C12E7031 
 184      95969FF9 
 184      02EC7196 
 184      14
 185 06e9 B45DD024 		.ascii	"\264]\320$\2379\376\226\303\255g\277!\317\214Ko\334"
 185      9F39FE96 
 185      C3AD67BF 
 185      21CF8C4B 
 185      6FDC
 186 06fb A70D97A8 		.ascii	"\247\015\227\250\023\302t\234\020\022y\000@\373\247"
 186      13C2749C 
 186      10127900 
 186      40FBA7
 187 070a C129F65C 		.ascii	"\301)\366\\b\224F\226B|&-D\024\357\330\216\037\016\222"
 187      62944696 
 187      427C262D 
 187      4414EFD8 
 187      8E1F0E92 
 188 071e 864B653D 		.ascii	"\206Ke=\311C\021\333'\255GXP!{\023\013j;~\346\255/U"
 188      C94311DB 
 188      27AD4758 
 188      50217B13 
 188      0B6A3B7E 
 189 0736 807FA7D9 		.ascii	"\200\177\247\331\322\021hF\264\317\020'\235\366\031"
 189      D2116846 
 189      B4CF1027 
 189      9DF619
 190 0745 E30CA13D 		.ascii	"\343\014\241=\320\360\217\011\272\356e\312C\014\376"
 190      D0F08F09 
 190      BAEE65CA 
 190      430CFE
 191 0754 1C2BC29F 		.ascii	"\034+\302\237c}\254\325\203\036\226\\p\013\010\233\367"
ARM GAS  /tmp/cc1eExWI.s 			page 15


 191      637DACD5 
 191      831E965C 
 191      700B089B 
 191      F7
 192 0765 06506F59 		.ascii	"\006PoY\341\217/\323\372\000P\320\2759\250^\361\207"
 192      E18F2FD3 
 192      FA0050D0 
 192      BD39A85E 
 192      F187
 193 0777 C8C350E6 		.ascii	"\310\303P\346v\013\227zREE\245\374_\275\246\262auS\323"
 193      760B977A 
 193      524545A5 
 193      FC5FBDA6 
 193      B2617553 
 194 078c EAA7E0ED 		.ascii	"\352\247\340\355\311\350\212\3125\3174T6\254Z\365D}"
 194      C9E88ACA 
 194      35CF3454 
 194      36AC5AF5 
 194      447D
 195 079e 73450333 		.ascii	"sE\0033W5WTY\365 g\222\2546W6W\334-\236n\026\253\232"
 195      57355754 
 195      59F52067 
 195      92AC3657 
 195      3657DC2D 
 196 07b7 ADE6FAC6 		.ascii	"\255\346\372\306'\326\210\225\315\006 \256\0254\372"
 196      27D68895 
 196      CD0620AE 
 196      1534FA
 197 07c6 07C21218 		.ascii	"\007\302\022\030N"
 197      4E
 198              		.text
 199              		.section	.gnu.lto_chHeapFree.d3942921a8de1caf,"",%progbits
 200 0000 789C9D55 		.ascii	"x\234\235U]h\034U\024>\347\316\314\316\354\314\230."
 200      5D681C55 
 200      143EE7CE 
 200      CCCEECCC 
 200      982E
 201 0012 B469B221 		.ascii	"\264i\262!4\2334\254lZ\262\210\026\237\304g\337\033"
 201      349B34AC 
 201      6C5AB288 
 201      169FC467 
 201      DF1B
 202 0024 D0C76495 		.ascii	"\320\307d\225d\2511\261}k\036:\331\315C\260\010\241"
 202      64A931B1 
 202      7D6B1E3A 
 202      D9CD43B0 
 202      08A1
 203 0036 A226D687 		.ascii	"\242&\326\207\004i\005_\212TB!\320l\202B\023l\253\215"
 203      0469055F 
 203      8A544221 
 203      D06C8242 
 203      136CAB8D 
 204 004a D034148C 		.ascii	"\3204\024\214\021[\372$X\220\270\024\307s\177fvv\235"
 204      115BFA24 
 204      5890B814 
 204      C7737F66 
 204      76769D
ARM GAS  /tmp/cc1eExWI.s 			page 16


 205 005d A69B0CBB 		.ascii	"\246\233\014\273\347\376\234{\277s\356w\277{/\003\006"
 205      E7FE9C7B 
 205      BF73EE77 
 205      BF7B2F03 
 205      06
 206 006e 8DDF3CFD 		.ascii	"\215\337<\375'l\200\327\250\304\227\000\331\314\035"
 206      276C80D7 
 206      A8C49700 
 206      D9CC1D
 207 007d 80498BA1 		.ascii	"\200I\213\241&+\0323\036:\340\331\372w\253\000\236\253"
 207      262B1A33 
 207      1E3AE0D9 
 207      FA77AB00 
 207      9EAB
 208 008f 3363FA65 		.ascii	"3c\372ej:\334\272\0063W5j%\356\254sgB5\035\3314\231"
 208      6A3ADCBA 
 208      06335735 
 208      6A25EEAC 
 208      73674235 
 209 00a7 25A626E5 		.ascii	"%\246&\345T\013\223\0222\311l\321\357\312~\033]\331"
 209      540B9312 
 209      32C96CD1 
 209      EFCA7E1B 
 209      5DD9
 210 00b9 EFC8982B 		.ascii	"\357\310\230+\226\213\310+\200p\201i\272\2210\255\244"
 210      968BC82B 
 210      80708169 
 210      BA9130AD 
 210      A4
 211 00ca EDB878E1 		.ascii	"\355\270x\341\035\344\031k=\260\340y\227\266\177\270"
 211      1DE4196B 
 211      3DB0E079 
 211      97B67FB8 
 212 00da 768FCD79 		.ascii	"v\217\315y\225\251y\357\231\357#\026\221V\227C( \274"
 212      95A979EF 
 212      99EF2316 
 212      91569743 
 212      2820BC
 213 00ed 4D0DCC88 		.ascii	"M\015\314\210\202\351\365\313\225s\275_\337\275\345"
 213      82E9F5CB 
 213      9573BD5F 
 213      DFBDE5
 214 00fc 4D557CFF 		.ascii	"MU|\377M1\353ds\263*\376\245O\323\336|i\306\373\227"
 214      4D31EB64 
 214      73B32AFE 
 214      A54FD3DE 
 214      7C69C6FB 
 215 0111 02165163 		.ascii	"\002\026Qc\220\177\321\314k\254\262\355\373\017?\177"
 215      907FD1CC 
 215      6BACB2ED 
 215      FB0F3F7F 
 216 0121 F2DB97D8 		.ascii	"\362\333\227\330\332\2070\210\013\330\003:\216\"\030"
 216      DA873088 
 216      0BD8033A 
 216      8E2218
 217 0130 D4F88A1A 		.ascii	"\324\370\212\032&\225W\250\264\2243\011E\324mn\034n"
 217      269557A8 
ARM GAS  /tmp/cc1eExWI.s 			page 17


 217      B4943309 
 217      45D46D6E 
 217      1C6E
 218 0142 5C6E5AC8 		.ascii	"\\nZ\310\030)2p\2307\217\220a\255\334\034\345}m\334"
 218      18293270 
 218      98378F90 
 218      61ADDC1C 
 218      E57D6DDC 
 219 0156 B473479A 		.ascii	"\264sG\232\233\016n:y\3371^\353\342\3432\334t\363\276"
 219      9B0E6E3A 
 219      79DF315E 
 219      EBE2E332 
 219      DC74F3BE 
 220 016a 1EDE779C 		.ascii	"\036\336w\234\233^n\262\274/\247B\323g\300\224\347\315"
 220      9B5E6EB2 
 220      BC2FA742 
 220      D367C094 
 220      E7CD
 221 017c 64645B26 		.ascii	"dd[&(\323\033Eb\277 v\3404\331\252\006\003\310\250\320"
 221      28D31B45 
 221      62BF2076 
 221      E034D9AA 
 221      0603C8A8 
 222 0191 6E43F962 		.ascii	"nC\371b\371\372\325\304 ~\215\006\014\2431\214\272\240"
 222      F9FAD5C4 
 222      207E8D06 
 222      0CA3318C 
 222      BAA0
 223 01a3 62D7F7FD 		.ascii	"b\327\367\375C4|\015\230\364I8\032\001p\033J[\233\327"
 223      43347C0D 
 223      98F44938 
 223      1A01701B 
 223      4A5B9BD7 
 224 01b7 D7319864 		.ascii	"\3271\230d\236\200o<\372^'ZO@_\021\023\227\341\013\002"
 224      9E806F3C 
 224      FA5E275A 
 224      4F405F11 
 224      1397E10B 
 225 01cc 31151804 		.ascii	"1\025\030\004`0\204\222\331!T\025\302/U\322A\204+\""
 225      60308492 
 225      D9215415 
 225      C22F55D2 
 225      41842B22 
 226 01e0 82292254 		.ascii	"\202)\"T\313\313\265\264\254\011\250\362\010\257\020"
 226      CBCBB5B4 
 226      AC09A8F2 
 226      08AF10
 227 01ef 980AF606 		.ascii	"\230\012\366\006\341\3130\026M\341a4\005\0359'\034="
 227      E1CB3016 
 227      4DE16134 
 227      051D3927 
 227      1C3D
 228 0201 11A02F08 		.ascii	"\021\240/\010tK\345\277\270\316\002\364\244H:\331l\352"
 228      744BE5BF 
 228      B8CE02F4 
 228      A4483AD9 
 228      6CEA
ARM GAS  /tmp/cc1eExWI.s 			page 18


 229 0213 9A0227EE 		.ascii	"\232\002'\356\246\265\000\303&\030>!iJ\317R\350q\310"
 229      A6B500C3 
 229      26183E21 
 229      694ACF52 
 229      E871C8
 230 0226 293C0114 		.ascii	")<\001\024y?.\377y\365L0\300\2451b\200%\234\245\265"
 230      793F2EFF 
 230      79F54C30 
 230      C0A53162 
 230      80259CA5 
 231 023b CDC5AAE2 		.ascii	"\315\305\252\342V\255\325\014\262\263\237\237\235\256"
 231      56ADD50C 
 231      B2B39F9F 
 231      9DAE
 232 0249 B2334449 		.ascii	"\2623DI\250\212\305\177\262A\234\226\0118OJ\024@N<u"
 232      A88AC57F 
 232      B2419C96 
 232      09384F4A 
 232      14404E3C 
 233 025e 891A7577 		.ascii	"\211\032uwA\227\023\351\212!\362\247\275T\021\335\202"
 233      419713E9 
 233      8A21F2A7 
 233      BD5411DD 
 233      82
 234 026f DA37022B 		.ascii	"\3327\002+\322\205#\276\001\232M'^#\256i\001\001\315"
 234      D28523BE 
 234      019A4D27 
 234      5E23AE69 
 234      0101CD
 235 0282 34EE167C 		.ascii	"4\356\026|\377x\345\376'n\020\037\005\371\362{\000\324"
 235      FF78E5FE 
 235      276E101F 
 235      05F9F27B 
 235      00D4
 236 0294 CA39BF7C 		.ascii	"\3129\277|\313;\331\263\2714\307\321\201.\025\215\246"
 236      CB3BD9B3 
 236      B934C7D1 
 236      812E158D 
 236      A6
 237 02a5 3D5AB9BF 		.ascii	"=Z\271\277\321\033\221$\326\322\032\240\276\277Oj|\013"
 237      D11B9124 
 237      D6D21AA0 
 237      BEBF4F6A 
 237      7C0B
 238 02b7 6797B642 		.ascii	"g\227\266B\011\246\304\252\240\201$\024$A=A\246B\222"
 238      09A6C4AA 
 238      A0812414 
 238      24413D41 
 238      A64292
 239 02ca E96DE443 		.ascii	"\351m\344C\210\332\3400V\002\236\366\361\204\376Xy\260"
 239      88DAE030 
 239      56029EF6 
 239      F184FE58 
 239      79B0
 240 02dc D1154928 		.ascii	"\321\025I(\025\035d\312\203D\373\266t\217\325\355\333"
 240      151D64CA 
 240      8344FBB6 
ARM GAS  /tmp/cc1eExWI.s 			page 19


 240      748FD5ED 
 240      DB
 241 02ed A1FFA7F4 		.ascii	"\241\377\247\364\334}3\025\261)\251\201\335&\260\366"
 241      DC7D3315 
 241      B129A981 
 241      DD26B0F6 
 242 02fd 585E784E 		.ascii	"X^xNo\334\254\221t8\242\363\246\225\324\240\363#\004"
 242      6FDCAC91 
 242      7438A2F3 
 242      A695D4A0 
 242      F32304
 243 0310 232E0894 		.ascii	"#.\010\224\236\217BO+9\205G\312\270|1\364\034\025\234"
 243      9E8F424F 
 243      2B398547 
 243      CAB87C31 
 243      F41C159C 
 244 0324 B5CA847E 		.ascii	"\265\312\204~j\011\272\333b\367\354\005\004\311}\233"
 244      6A09BADB 
 244      62F7EC05 
 244      04C97D9B 
 245 0334 3C15C16E 		.ascii	"<\025\301n\213n\206\005?\202P\307\356\315\3250\201\366"
 245      8B6E8605 
 245      3F8250C7 
 245      EECDD530 
 245      81F6
 246 0346 D885B7C5 		.ascii	"\330\205\267\305\321\027]ty1\244.M\313&\234\0062:\310"
 246      D1175D74 
 246      7931A42E 
 246      4DCB269C 
 246      06323AC8 
 247 035a 214EAE24 		.ascii	"!N\256$\243\364Vt\307R\"\242\252\355\343\340vH\236f"
 247      A3F45674 
 247      C75222A2 
 247      AAEDE3E0 
 247      76489E66 
 248 036e 97FF0A2F 		.ascii	"\227\377\012/\250\316X\246b\3637\303\374Kk3N\235\202"
 248      A8CE58A6 
 248      62F337C3 
 248      FC4B6B33 
 248      4E9D82
 249 0381 5E3D801A 		.ascii	"^=\200\032;\003^\223J\344[\233\313;!+\307by\215\225"
 249      3B035E93 
 249      4AE45B9B 
 249      CB3B212B 
 249      C762798D 
 250 0396 65AC98BA 		.ascii	"e\254\230\272\010\"^L\031r\306\213\251[\\$\231F\035"
 250      08225E4C 
 250      1972C68B 
 250      A95B5C24 
 250      99461D
 251 03a9 740F8721 		.ascii	"t\017\207!D\276v\240\203\331\235\232\016z\016~\000\""
 251      44BE76A0 
 251      83D99D9A 
 251      0E7A0E7E 
 251      0022
 252 03bb 5A384E59 		.ascii	"Z8NY\017\363\007\267n-\275\344\330\257\026\366`\212"
 252      0FF307B7 
ARM GAS  /tmp/cc1eExWI.s 			page 20


 252      6E2DBDE4 
 252      D8AF16F6 
 252      608A
 253 03cd 00D501DE 		.ascii	"\000\325\001\336\251\351 {\260\023\323\234\026\366\274"
 253      A9E9207B 
 253      B013D39C 
 253      16F6BC
 254 03dc 4DB201AF 		.ascii	"M\262\001\257\016|\266.\211\275\361\373jHIN\301\236"
 254      0E7CB62E 
 254      89BDF1FB 
 254      6A48494E 
 254      C19E
 255 03ee DAE71DCC 		.ascii	"\332\347\035\314\337\347\366\372\3679\027Dr\271\342"
 255      DFE7F6FA 
 255      F7391744 
 255      72B9E2
 256 03fd EEC2D4F6 		.ascii	"\356\302\324\366\334\231\270\207\210\251\314\344C\364"
 256      DC99B887 
 256      88A9CCE4 
 256      43F4
 257 040b 334CCE5F 		.ascii	"3L\316_v\202q\362;M\357FU\343\343\262\375\375y\371\033"
 257      768271F2 
 257      3B4DEF46 
 257      55E3E3B2 
 257      FDFD79F9 
 258 0420 3B972F8C 		.ascii	";\227/\214\215\216\216}@\265\367\213C\371sg\013\371"
 258      8D8E8E7D 
 258      40B5F78B 
 258      43F97367 
 258      0BF9
 259 0432 C2C8C87B 		.ascii	"\302\310\310{\203\343\375\005`\037\216\263\221q\203"
 259      83E3FD05 
 259      601F8EB3 
 259      917183
 260 0441 B7C6FF03 		.ascii	"\267\306\377\003\245\317PP"
 260      A5CF5050 
 261              		.text
 262              		.section	.gnu.lto_chHeapStatus.d3942921a8de1caf,"",%progbits
 263 0000 789C8D54 		.ascii	"x\234\215T\335kTG\024?g\346~\355\375\330M\224\004\002"
 263      DD6B5447 
 263      143F67E6 
 263      7EEDFDD8 
 263      4D940402 
 264 0014 3E8842A5 		.ascii	">\210B\245U6\224R(h)\375\037\014\324\307u+\353\005\327"
 264      55369452 
 264      286829FD 
 264      1F0CD4C7 
 264      752BEB05 
 265 0029 C4A62FD5 		.ascii	"\304\246/\325\007'\331\005\203M!(\255\324\372\020I%"
 265      0727D905 
 265      834D2128 
 265      ADD4FA10 
 265      4925
 266 003b D84252AA 		.ascii	"\330BR\252`\313*l\304j\374\250A_j\254\017\213\017\246"
 266      60CB2A6C 
 266      C46AFCA8 
 266      415F6AAC 
ARM GAS  /tmp/cc1eExWI.s 			page 21


 266      0F8B0FA6 
 267 004f A50B6D1F 		.ascii	"\245\013m\037\032\304\244\335\236\231\271\263\037aA"
 267      1AC4A4DD 
 267      9E99B9B3 
 267      1F6141
 268 005e 97E49EB9 		.ascii	"\227\344\236\271\347\374~\347\373\016\003\006\033\177"
 268      E7FC7EE7 
 268      FB0E0306 
 268      1B7F
 269 006c 5FD3BFED 		.ascii	"_\323\277\355\002\274O\022\323\200l\352>\300\230\307"
 269      02BC4F12 
 269      D3806CEA 
 269      3EC098C7 
 270 007c 187F1280 		.ascii	"\030\177\022\200\360\255\313\327\001D\310\321\322z\013"
 270      F0ADCBD7 
 270      0144C8D1 
 270      D27A0B
 271 008b 3D7DB099 		.ascii	"=}\260\2313\261\203\000\256|\206\016\272Z\355j\373\202"
 271      33B18300 
 271      AE7C860E 
 271      BA5AED6A 
 271      FB82
 272 009d E7317BF2 		.ascii	"\3471{\362\026Q\375T\331%@\212\371\312\223\037H\267"
 272      1651FD54 
 272      D925408A 
 272      F9CA931F 
 272      48B7
 273 00af A18F81C6 		.ascii	"\241\217\201\306\007,<{S\352\243U\011\0131\322\372\010"
 273      072C3C7B 
 273      53EAA355 
 273      090B31D2 
 273      FA08
 274 00c1 511E00E1 		.ascii	"Q\036\000\3418\343\226\355\270^\312\017\302\010\217"
 274      38E396ED 
 274      B85ECA0F 
 274      C2088F
 275 00d0 EF4399B5 		.ascii	"\357C\231\265\265\015\316\013q\252\366\323\237\017\331"
 275      B50DCE0B 
 275      71AAF6D3 
 275      9F0FD9
 276 00df 97A25A9E 		.ascii	"\227\242Z\236\026\353\215\006b\214T\341\353\010y\204"
 276      16EB8D06 
 276      628C54E1 
 276      EB087984 
 277 00ef 0FE805B7 		.ascii	"\017\350\005\267*\301\254\316\2225\267\332\370\342\263"
 277      2AC1ACCE 
 277      9235B7DA 
 277      F8E2B3
 278 00fe 01313D3E 		.ascii	"\0011=>%\376#j\214\234\301\256Wc\212\312\207\213\242"
 278      25FE236A 
 278      8C9CC1AE 
 278      57638ACA 
 278      878BA2
 279 0111 5C6D34DE 		.ascii	"\\m4\336S\254\354+\262~\355`\275\3752\326<\253\326\032"
 279      53ACEC2B 
 279      B27EED60 
 279      BDFD32D6 
ARM GAS  /tmp/cc1eExWI.s 			page 22


 279      3CABD61A 
 280 0125 8D2757FE 		.ascii	"\215'W\376\231\274\212\277\261\001\204\242,.\207\347"
 280      99BC8ABF 
 280      B10184A2 
 280      2C2E87E7 
 281 0135 711B7092 		.ascii	"q\033p\2223$-\222\027H\332$gI:\211L!\201}\210\321\212"
 281      33242D92 
 281      1748DA24 
 281      67493A89 
 281      4C21817D 
 282 014c 12469A5E 		.ascii	"\022F\232^ \223\230{\022zoB\337Dp\334L\010\273\217N"
 282      2093987B 
 282      127A6F42 
 282      DF4470DC 
 282      4C08BB8F 
 283 0161 AC5F9EE4 		.ascii	"\254_\236\344Z@Y\210\251\255\332\201fh\274\366\002\262"
 283      5A405988 
 283      A9ADDA81 
 283      6668BCF6 
 283      02B2
 284 0173 00FAEDA5 		.ascii	"\000\372\355\245'\315x\010\031\011\276\0107V\026N\237"
 284      27CD7808 
 284      1909BE08 
 284      3756164E 
 284      9F
 285 0184 E139BC48 		.ascii	"\3419\274HN\012\230\222\2659\355\205\015!\207\023\310"
 285      4E0A9892 
 285      B539ED85 
 285      0D218713 
 285      C8
 286 0195 6FC378ED 		.ascii	"o\303x\355\316\037\216\306Q\272\307\340\205\230\020"
 286      CE1F8EC6 
 286      51BAC7E0 
 286      859810
 287 01a4 6237A18B 		.ascii	"b7\241\213\204h\241-\351\226\320\036HX\001)\334\317"
 287      8468A12D 
 287      E996D01E 
 287      48580129 
 287      DCCF
 288 01b6 30FEA274 		.ascii	"0\376\242te\256\031\304?\006G\251\330\235\360F\214\356"
 288      65AE19C4 
 288      3F0647A9 
 288      D89DF046 
 288      8CEE
 289 01c8 57709642 		.ascii	"Wp\226Bz\004l\205\336\217m\011,\201\245\211\220\004"
 289      7A046C85 
 289      DE8F6D09 
 289      2C81A589 
 289      9004
 290 01da ED893195 		.ascii	"\355\2111\225G\015!g1\372\0002\275\373w\223\364t\331"
 290      470D2167 
 290      31FA0032 
 290      BDFB7793 
 290      F474D9
 291 01ed D29D2449 		.ascii	"\322\235$I\333\364R`L\263\033L\265G\337\242\261\315"
 291      DBF45260 
 291      4CB31B4C 
ARM GAS  /tmp/cc1eExWI.s 			page 23


 291      B547DFA2 
 291      B1CD
 292 01ff B4DB54D6 		.ascii	"\264\333T\326+s\216\311:\222\321\351\367&\215f'|#\217"
 292      2B738EC9 
 292      3A92D1E9 
 292      F7268D66 
 292      277C238F 
 293 0213 EFC61874 		.ascii	"\357\306\030t\317\277\255\000\212Qm&&gC\256\244~\031"
 293      CFBFAD00 
 293      8A516D26 
 293      266743AE 
 293      A47E19
 294 0226 90FACD50 		.ascii	"\220\372\315P\027U\375\374\227t\263\227\374\007.[i\003"
 294      1755FDFC 
 294      9774B397 
 294      FC072E5B 
 294      6903
 295 0238 7D939CF2 		.ascii	"}\223\234\362x\374|\365)&\363M\326\363{!R\3523\342j"
 295      78FC7CF5 
 295      2926F34D 
 295      D6F37B21 
 295      52EA33E2 
 296 024d 3FF7BC6C 		.ascii	"?\367\274l?\001L\023)~&\311\177\037q\325\024B]EP\300"
 296      3F014C13 
 296      297E26C9 
 296      7F1F71D5 
 296      14425D45 
 297 0263 B4244352 		.ascii	"\264$CR\005K$o+eK\016/\251R.\253R2\262Q\245\211\322"
 297      054B246F 
 297      2B654B0E 
 297      2FA9522E 
 297      AB5232B2 
 298 027b 9A6CD425 		.ascii	"\232l\324%\325\250\236\002r\351\205\243\2420C\230Q\204"
 298      D5A89E02 
 298      72E985A3 
 298      A2304398 
 298      5184
 299 028d 9E84D098 		.ascii	"\236\204\320\230\333b\010\275\005\264\224\2476\360\005"
 299      DB6208BD 
 299      05B494A7 
 299      36F005
 300 029c 05EE05A0 		.ascii	"\005\356\005\240\015}\266\360\340Lh\300\231B\373~\016"
 300      0D7DB6F0 
 300      E04C68C0 
 300      9942FB7E 
 300      0E
 301 02ad D1CBCDED 		.ascii	"\321\313\315\355j;\177\277\353\032\362\254IMC\\\325"
 301      6A3B7FBF 
 301      EB1AF2AC 
 301      494D435C 
 301      D5
 302 02be 47BD93C6 		.ascii	"G\275\223\306h\353\341\327?u\014I\217&\255GcS\024\233"
 302      68EBE1D7 
 302      3F750C49 
 302      8F26AD47 
 302      6353149B 
 303 02d2 E69371CE 		.ascii	"\346\223q\316]\373D\372\360\200.\270\015>\034\345C)"
ARM GAS  /tmp/cc1eExWI.s 			page 24


 303      5DFB44FA 
 303      F0802EB8 
 303      0D3E1CE5 
 303      4329
 304 02e4 74BA564B 		.ascii	"t\272VK\241\213\345-\205v\317\324^=~\264\372\020\315"
 304      A18BE52D 
 304      8576CFD4 
 304      5E3D7EB4 
 304      FA10CD
 305 02f7 5EA5D504 		.ascii	"^\245\325\004`\303\034X\2679\230\231.B\271>\366V\323"
 305      60C31C58 
 305      B7399899 
 305      2E42B93E 
 305      F656D3
 306 030a 410B0A3A 		.ascii	"A\013\012:{F+f\235\253\014\220\315\275w-\267\014<\331"
 306      7B462B66 
 306      9DAB0C90 
 306      CDBD772D 
 306      B70C3CD9 
 307 031e 6A6BB2D2 		.ascii	"jk\262\322G#p\353\225\201e\260\214\262\376cL\255v\327"
 307      472370EB 
 307      958165B0 
 307      8CB2FE63 
 307      4CAD76D7 
 308 0332 2B4796C1 		.ascii	"+G\226\3011\312u\251\264]\224\305\247\364UQ\256/\374"
 308      31CA75A9 
 308      B45D94C5 
 308      A7F45551 
 308      AE2FFC
 309 0345 DDBA2A36 		.ascii	"\335\272*6Id\324yU\370\360\257M\013[:YZ\231\317\032"
 309      4964D479 
 309      55F8F0AF 
 309      4D0B5B3A 
 309      595A99CF 
 310 035a E0666A8C 		.ascii	"\340fj\214\332\007O\177U\267\277s\265\211\212\035\243"
 310      DA074F7F 
 310      55B7BF73 
 310      B5898A1D 
 310      A3
 311 036b 2D0CC8D4 		.ascii	"-\014\310\324\341\216(\306a\320\214\274\326\212\334"
 311      E18E28C6 
 311      61D08CBC 
 311      D68ADC
 312 037a D7257208 		.ascii	"\327%r\010\027\035\035ym\376\035\003\354\247\031uD\376"
 312      171D1D79 
 312      6DFE1D03 
 312      ECA71975 
 312      44FE
 313 038c AB5BE4BE 		.ascii	"\253[\344\276\366\310\375\306a$#/A\2716Q\354v\375\260"
 313      F6C8FDC6 
 313      6124232F 
 313      41B93651 
 313      EC76FDB0 
 314 03a0 8EEBE701 		.ascii	"\216\353\347\001\214M\237\214L\330\344s\331K\267@\331"
 314      8C4D9F8C 
 314      4CD8E473 
 314      D94BB740 
ARM GAS  /tmp/cc1eExWI.s 			page 25


 314      D9
 315 03b1 95C0D7B2 		.ascii	"\225\300\327\262\331A\3757<:\230\037.\026\207\017\323"
 315      D941FD37 
 315      3C3A981F 
 315      2E16870F 
 315      D3
 316 03c2 E950BC7F 		.ascii	"\351P\274\177p\364\243\374`\376\340\301\003\271\221"
 316      70F4A3FC 
 316      60FEE0C1 
 316      03B991
 317 03d1 6C1ED891 		.ascii	"l\036\330\221\021<\354|<\222+\034\030u\016)a\253\347"
 317      113CEC7C 
 317      3C922B1C 
 317      18750E29 
 317      61ABE7
 318 03e4 FF413CAC 		.ascii	"\377A<\254^"
 318      5E
 319              		.text
 320              		.section	.gnu.lto_.symbol_nodes.d3942921a8de1caf,"",%progbits
 321 0000 789C4D8C 		.ascii	"x\234M\214;\016\302@\020C\355\235\335|N\221kq\233\001"
 321      3B0EC240 
 321      1043ED9D 
 321      DD7C4E91 
 321      6B719B01 
 322 0014 45024A44 		.ascii	"E\002JDCG\223\206\202\023\360G\241\246\246A\012J\001"
 322      43479386 
 322      8213F047 
 322      A1A6A641 
 322      0A4A01
 323 0027 8274F488 		.ascii	"\202t\364\210\005\"\222i\236\236\307\262\201\301\031"
 323      05229269 
 323      9E9EC7B2 
 323      81C119
 324 0036 F5992515 		.ascii	"\365\231%\025\030\035\001\325\351\220nAX\025\356\250"
 324      181D01D5 
 324      E9906E41 
 324      5815EEA8 
 325 0046 FCA5DD1E 		.ascii	"\374\245\335\036\315\212j\232\216YS\245\245\033\252"
 325      CD8A6A9A 
 325      8E5953A5 
 325      A51BAA
 326 0055 6DE996EA 		.ascii	"m\351\226\352\032\345\236\032\324K]\362@\015\033\313"
 326      1AE59E1A 
 326      D44B5DF2 
 326      400D1BCB 
 327 0065 A9D1DF04 		.ascii	"\251\321\337\004!\312\342E\221\020Y\277J\304\306(\277"
 327      21CAE245 
 327      911059BF 
 327      4AC4C628 
 327      BF
 328 0076 8C905D4F 		.ascii	"\214\220]O\235\017\363{1\027k\361|\334f\".F:\360\005"
 328      9D0FF37B 
 328      31176BF1 
 328      7CDC6622 
 328      2E463AF0 
 329 008b E71F13CF 		.ascii	"\347\037\023\317\300\373\305\017\004\021\322q\225\340"
 329      C0FBC50F 
ARM GAS  /tmp/cc1eExWI.s 			page 26


 329      0411D271 
 329      95E0
 330 0099 0D9B0144 		.ascii	"\015\233\001D\372"
 330      FA
 331              		.text
 332              		.section	.gnu.lto_.refs.d3942921a8de1caf,"",%progbits
 333 0000 789C6362 		.ascii	"x\234cb`b\020e\200\000V\006FF&&F \000\022,@\314\306"
 333      60621065 
 333      80005606 
 333      46462626 
 333      46200012 
 334 0018 C4C80000 		.ascii	"\304\310\000\000\004\212\000>"
 334      048A003E 
 335              		.text
 336              		.section	.gnu.lto_.decls.d3942921a8de1caf,"",%progbits
 337 0000 789CAD5A 		.ascii	"x\234\255Z}p\024E\026\357\236\375\310n\022\021\241\316"
 337      7D701445 
 337      16EF9EFD 
 337      C86E1211 
 337      A1CE
 338 0012 424F8B68 		.ascii	"BO\213h\251\345YB@Q\361\252N\344\270;\260J\356\364,"
 338      A9E55942 
 338      4051F1AA 
 338      4EE4B83B 
 338      B04AEEF4 
 339 0027 EBBC7F5C 		.ascii	"\353\274\177\\\207\315\220,\356\227\263\023\276\312"
 339      87CD902C 
 339      EE97B313 
 339      BECA
 340 0035 2B870562 		.ascii	"+\207\005b\300x\011\341\373\004LT@\224\034\337\002\302"
 340      C07809E1 
 340      FB044C54 
 340      40941CDF 
 340      02C2
 341 0047 E11E6248 		.ascii	"\341\036bH\201'\001\221\300\241\020\025\025\261D\001"
 341      81270191 
 341      C0A11015 
 341      15B14401 
 342 0057 312A91BD 		.ascii	"1*\221\275\327==\2733\2753\233\331\344\246\322=\037"
 342      D73D3DBB 
 342      33BD339B 
 342      D9E4A6D2 
 342      3D1F
 343 0069 DBEFD7EF 		.ascii	"\333\357\327\357\375\336\353~\3353\021\220\200nw!\224"
 343      FDDEEB7E 
 343      DD331190 
 343      806E7721 
 343      94
 344 007a 8663E710 		.ascii	"\206c\347\020\204Z<\010y\021B\367!\355\334\014\345%"
 344      845A3C08 
 344      791142F7 
 344      21EDDC0C 
 344      E525
 345 008c 28E33142 		.ascii	"(\3431B\017A\201\237\321\323p\206?4\035*?\234\377\006"
 345      0F41819F 
 345      D1D37086 
 345      3F341D2A 
ARM GAS  /tmp/cc1eExWI.s 			page 27


 345      3F9CFF06 
 346 00a0 E7195066 		.ascii	"\347\031PfB\251\207\262\024J\023\224\265P\326C\331\310"
 346      42A987B2 
 346      144A1394 
 346      B550D643 
 346      D9C8
 347 00b2 DA6F2695 		.ascii	"\332o&\225\341 r\245p~\014\316\0173\374\307\241D\240"
 347      E12072A5 
 347      707E0CCE 
 347      0F33FCC7 
 347      A144A0
 348 00c5 4C822262 		.ascii	"L\202\"b\255\3377pV\217\026\254\351\365\0278?\001%\004"
 348      ADDF3770 
 348      568F16AC 
 348      E9F51738 
 348      3F012504 
 349 00d9 250C258A 		.ascii	"%\014%\2125}\\\006}\326\332\364K\364\354\2074[\010n"
 349      357D5C06 
 349      7DD6DAF4 
 349      4BF4EC87 
 349      345B086E 
 350 00ed 84DDF3BA 		.ascii	"\204\335\363\272\030u }\023=z\352_`\370\244o7\\?\007"
 350      1875207D 
 350      133D7AEA 
 350      5F60F8A4 
 350      6F375C3F 
 351 0102 E739509E 		.ascii	"\3479P\236\207\262\225\323\203p5\020i\355\364\376#\254"
 351      87B295D3 
 351      83703510 
 351      69EDF4FE 
 351      23AC
 352 0114 BF5106FD 		.ascii	"\277Q\006\375\036g\372\020\035\036\306Y=D\246\243\214"
 352      1E67FA10 
 352      1D1EC659 
 352      3D44A6A3 
 352      8C
 353 0125 35BDFFCA 		.ascii	"5\275\377\312\3741\335\240[\224\351\367\024\224\311"
 353      FC31DDA0 
 353      5B94E9F7 
 353      1494C9
 354 0134 5014ACE9 		.ascii	"P\024\254\351\356b\375od>\"}-\204\363b(\213\240\374"
 354      EE62FD6F 
 354      643E227D 
 354      2D84F362 
 354      288BA0FC 
 355 0148 0BE7F2B6 		.ascii	"\013\347\362\266\224\361d\344K\217\011\242\247\314t"
 355      94F164E4 
 355      4B8F09A2 
 355      A7CC74
 356 0157 7A98D930 		.ascii	"z\230\3310\211\343\315\2074=\024\246\337d\203\216\323"
 356      89E3CD87 
 356      343D14A6 
 356      DF64838E 
 356      D3
 357 0168 999E2ED6 		.ascii	"\231\236.\326\217\256\027\341s9\234ws\2724Y\3502\236"
 357      8FAE17E1 
 357      73399C77 
ARM GAS  /tmp/cc1eExWI.s 			page 28


 357      73BA3459 
 357      E8329E
 358 017b C58907E5 		.ascii	"\305\211\007\345\347\353i\246\263\025O.\206\255\367"
 358      E7EB69A6 
 358      B3154F2E 
 358      86ADF7
 359 018a 4F7CB30A 		.ascii	"O|\263\012\316\253\241\254\261\340\244\004\315U\325"
 359      CEABA1AC 
 359      B1E0A404 
 359      CD55D5
 360 0199 A4DA54A3 		.ascii	"\244\332T\243\216k\3537\000\315S\341(k\353G\034\"\342"
 360      8E6BEB37 
 360      00CD53E1 
 360      286BEB47 
 360      1C22E2
 361 01ac 7E7EA462 		.ascii	"~~\244bzU\352G\375\241\365\315\350\025Um\350\234}\374"
 361      7A55EA47 
 361      FDA1F5CD 
 361      E815556D 
 361      E89C7DFC 
 362 01c0 3AD52DE2 		.ascii	":\325-\342\227\360\000\260\357F\214nCk@\254AUw_\215"
 362      97F000B0 
 362      EF468C6E 
 362      436B40AC 
 362      4155775F 
 363 01d5 728F1E51 		.ascii	"r\217\036Q\0054\034\203q\253\000N\304+\361mZ7j\352\202"
 363      05341C83 
 363      71AB004E 
 363      C42BF16D 
 363      5A376AEA 
 364 01ea 58A63D45 		.ascii	"X\246=E\354\271\305q\003j\"M/~\346W\033K-z\272_\357"
 364      ECB9C571 
 364      036A224D 
 364      2F7EE657 
 364      1B4B2D7A 
 365 0201 C89755FF 		.ascii	"\310\227U\377b\363\363\017\250\252O\304\257Q\003\002"
 365      62F3F30F 
 365      A8AA4FC4 
 365      AF510302 
 366 0211 D804CF40 		.ascii	"\330\004\317@\232\356\267C\021P\214H\264p\352v\316\333"
 366      9AEEB743 
 366      11508C48 
 366      B470EA76 
 366      CEDB
 367 0223 77208967 		.ascii	"w \211g\250*\326~\353I\351d\352\340\334\345\327\250"
 367      A82AD67E 
 367      EB49E964 
 367      EAE0DCE5 
 367      D7A8
 368 0235 4DBB714F 		.ascii	"M\273qO>hr\353\335\377.k\304w?\273\200\235\215\324\202"
 368      3E6872EB 
 368      DDFF2E6B 
 368      C4773FBB 
 368      809D8DD4 
 369 024a 666C6982 		.ascii	"fli\202=\206\200^\243\"[rl\230\373\221n\303\026G\304"
 369      3D86805E 
 369      A3225B72 
ARM GAS  /tmp/cc1eExWI.s 			page 29


 369      6C98FB91 
 369      6EC31647 
 370 025f 77ED5B86 		.ascii	"w\355[\206\211\015:\231\2333\270V\324\261K\355`\015"
 370      890D3A99 
 370      9B33B856 
 370      D4B14BED 
 370      600D
 371 0271 CC9CFCB0 		.ascii	"\314\234\374\260\257\264A\364\243\332,!\231\206e\272"
 371      AFB441F4 
 371      A3DA2C21 
 371      998665BA 
 372 0281 B8DBE0CA 		.ascii	"\270\333\340\312\347\366\034\3043\251\276;\260\037\372"
 372      E7F61CC4 
 372      33A9BE3B 
 372      B01FFA
 373 0290 BFC051E1 		.ascii	"\277\300Q\341\034\252\253\376\3609\234\244P\273(\324"
 373      1CAAABFE 
 373      F0399CA4 
 373      50BB28D4 
 374 02a0 7F053394 		.ascii	"\177\0053\224\210\213\374\310p\320{\275\001\301\243"
 374      888BFCC8 
 374      70D07BBD 
 374      01C1A3
 375 02af 3FB30B92 		.ascii	"?\263\013\222\217\256D\2056\027\320\247\002\307\237"
 375      8FAE4485 
 375      3617D0A7 
 375      02C79F
 376 02be 49550395 		.ascii	"IU\003\225\226\374\221 <\321\210\347\317T\333\206\351"
 376      96FC9120 
 376      3CD188E7 
 376      CF54DB86 
 376      E9
 377 02cf 71ECB5B3 		.ascii	"q\354\265\263[@\247igo\363Ap\274\343]=\010\336v\024"
 377      5B40A769 
 377      676FF341 
 377      70BCE35D 
 377      3D08DE76 
 378 02e4 C85BF62D 		.ascii	"\310[\366-v\026\310\202\336\377M\264\377\027]\244\377"
 378      7616C882 
 378      DEFF4DB4 
 378      FF175DA4 
 378      FF
 379 02f5 36BEFFAD 		.ascii	"6\276\377\255\307?\234\315\372os\324\377\366\216\005"
 379      C73F9CCD 
 379      FA6F73D4 
 379      FFF68E05 
 380 0305 B9FD8BF8 		.ascii	"\271\375\213\370\276_\344\363\367\361\216\317\317\261"
 380      BE5FE4F3 
 380      F7F18ECF 
 380      CFB1
 381 0313 5EDE0549 		.ascii	"^\336\005I\001\035s\361\376\036Ubv \334\033\032\010"
 381      011D73F1 
 381      FE1E5562 
 381      7620DC1B 
 381      1A08
 382 0325 E8938CFE 		.ascii	"\350\223\214\376y\234e\037\354`\350\331\205\270\221"
 382      799C651F 
ARM GAS  /tmp/cc1eExWI.s 			page 30


 382      EC60E8D9 
 382      85B891
 383 0334 384BD7E1 		.ascii	"8K\327\341\263\202\021\313LL\354\354\200\341\243\203"
 383      B38211CB 
 383      4C4CECEC 
 383      80E1A383 
 384 0344 9D760266 		.ascii	"\235v\002f\033K\311\324.#\330W\005\203\2315k7\202\235"
 384      1B4BC9D4 
 384      2E23D857 
 384      05839935 
 384      6B37829D 
 385 0358 7502D6DF 		.ascii	"u\002\326\337^\263CF\260s\005\203\2315;l\004\373\316"
 385      5EB34346 
 385      B0730583 
 385      99353B6C 
 385      04FBCE
 386 036b 09D8207B 		.ascii	"\011\330 {\315\216\030\301~(\030\314\254\331Q#X\267"
 386      CD8E18C1 
 386      7E2818CC 
 386      ACD95123 
 386      58B7
 387 037d 13B0320B 		.ascii	"\023\2602\013\3152\207\225\034\011\353\2758\023\347"
 387      CD328795 
 387      1C09EBBD 
 387      3813E7
 388 038c 024ABBF4 		.ascii	"\002J\273\3649\241\300\230FY\214\244\273\320I\314d7"
 388      39A1C098 
 388      46598CA4 
 388      BBD049CC 
 388      6437
 389 039e 4C62275F 		.ascii	"Lb'_\322&1\021o\240\306\3278A\314\0230\015\373)\223"
 389      D2263111 
 389      6FA0C6D7 
 389      3841CC13 
 389      300DFB29 
 390 03b3 1A585DC1 		.ascii	"\032X]\301`f\267\254 `\246\271\206e\231\316\225\251"
 390      6066B7AC 
 390      2060A6B9 
 390      866599CE 
 390      95A9
 391 03c5 414BB2D3 		.ascii	"AK\262\323\235O\307\"k.mn\2035\222\220i\254\016\032"
 391      9D4FC722 
 391      6B2E6D6E 
 391      83359290 
 391      69AC0E1A 
 392 03d9 64DD56C4 		.ascii	"d\335V\304_\342\233\241>\203\375\031-\264k\375*M\227"
 392      5FE29BA1 
 392      3E83FD19 
 392      2DB46BFD 
 392      2A4D97
 393 03ec 968D6E6E 		.ascii	"\226\215nn5\247\037=\211\332E\302\027\306HX\354\204"
 393      35A71F3D 
 393      89DA45C2 
 393      17C64858 
 393      EC84
 394 03fe A63C43A1 		.ascii	"\246<C\241\335\216\246T\215Z\213gl\270.\357\"\355x\307"
 394      DD8EA654 
ARM GAS  /tmp/cc1eExWI.s 			page 31


 394      8D5A8B67 
 394      6CB82EEF 
 394      22ED78C7 
 395 0412 D966968E 		.ascii	"\331f\226\216\277\241\351x\231\3332\263;\002\353\252"
 395      BFA1E978 
 395      99DB32B3 
 395      3B02EBAA 
 396 0422 EFFE375B 		.ascii	"\357\3767[&\234\247`\253\335\374\\\357\347r\273\337"
 396      269CA760 
 396      ABDDFC5C 
 396      EFE772BB 
 396      DF
 397 0433 9CACFDFE 		.ascii	"\234\254\375\376\354EZ?\314\354;\226\261c\377\254\221"
 397      EC455A3F 
 397      CCEC3B96 
 397      B163FFAC 
 397      91
 398 0444 FDF505B3 		.ascii	"\375\365\005\263\317\217\241\357\033\361\205\244\272"
 398      CF8FA1EF 
 398      1BF185A4 
 398      BA
 399 0451 649821DE 		.ascii	"d\230!\336\362\006'\254\246\366\357\372\015]\030wQ\222"
 399      F20627AC 
 399      A6F6EFFA 
 399      0D5D1877 
 399      5192
 400 0463 B65A33EE 		.ascii	"\266Z3\356\000\250\253\276\245\234\002\375D\201R9lc"
 400      00A8ABBE 
 400      A59C02FD 
 400      44815239 
 400      6C63
 401 0475 8E6D6C66 		.ascii	"\216mlf.\023\260,^\013i+\2406\236:\223\212yf\312\014"
 401      2E13B02C 
 401      5E0B692B 
 401      A0369E3A 
 401      938A7966 
 402 048b 75DD8553 		.ascii	"u\335\205S\367\034\243.M-~/\307\342\237\0124Y@G\012"
 402      F71CA32E 
 402      4D2D7E2F 
 402      C7E29F0A 
 402      34594047 
 403 04a0 36C36736 		.ascii	"6\303g6cn\272\027f\274\245\2311K f|\370\1770\343T\301"
 403      636EBA17 
 403      66BCA599 
 403      314B2066 
 403      7CF87F30 
 404 04b7 66F43798 		.ascii	"f\3647\230A\267U\013\264d0\0205\346_\321\022}\346\010"
 404      41B7550B 
 404      B4643010 
 404      35E65FD1 
 404      127DE608 
 405 04cb 03CDBBC8 		.ascii	"\003\315\273\310\017\336\303e\332\343\236w3\027\336"
 405      0FDEC365 
 405      DAE39E77 
 405      3317DE
 406 04da 5B461792 		.ascii	"[F\027\222\2240\325\321\006d\177f\003RG)\373\322j\320"
 406      9430D5D1 
ARM GAS  /tmp/cc1eExWI.s 			page 32


 406      06647F66 
 406      03524729 
 406      FBD26AD0 
 407 04ee 3882EA3A 		.ascii	"8\202\352:p\340 \233\361\352)\32479\354{9\362\275f\362"
 407      70E0209B 
 407      F1EA29D4 
 407      3739EC7B 
 407      39F2BD66 
 408 0503 E196F4F5 		.ascii	"\341\226\364\365\003\235g\236aO\310M\021\352\265\234"
 408      039D679E 
 408      614FC84D 
 408      11EAB59C 
 409 0513 80BAA81A 		.ascii	"\200\272\250\032\204\300\336\254r\311\236\362\324|="
 409      84C0DEAC 
 409      72C99EF2 
 409      D47C3D
 410 0522 9B6B1C5D 		.ascii	"\233k\034]\356\023b2\365b\275\266q\246+r\001=\353\351"
 410      EE136232 
 410      F562BDB6 
 410      71A62B72 
 410      013DEBE9 
 411 0536 1BDCCE03 		.ascii	"\033\334\316\003|\242\3426\022\033mfa=\0066\324\335"
 411      7CA2E236 
 411      121B6D66 
 411      613D0636 
 411      D4DD
 412 0548 4E07CD52 		.ascii	"N\007\315R\201\250\363w\017\357\266\015\230\333H\220"
 412      81A8F377 
 412      0FEFB60D 
 412      98DB4890 
 413 0558 07862676 		.ascii	"\007\206&v\261\274D0$\204\346>YI\306\321E\316\015\253"
 413      B1BC4430 
 413      2484E63E 
 413      5949C6D1 
 413      45CE0DAB 
 414 056c FBC8DB8F 		.ascii	"\373\310\333\217\365\316\336_<\241c\225RC\326\321n\233"
 414      F5CEDE5F 
 414      3CA16395 
 414      5243D6D1 
 414      6E9B
 415 057e 056ED7F7 		.ascii	"\005n\327\367\343W\2355,\374\311o=\017\326\343\364\235"
 415      E3579D35 
 415      2CFCC96F 
 415      3D0FD6E3 
 415      F49D
 416 0590 8FF6E241 		.ascii	"\217\366\342A\304\333\261\300P\255\326\001=\322\223"
 416      C4DBB1C0 
 416      50ADD601 
 416      3DD293
 417 059f 3A21B50D 		.ascii	":!\265\015+d\330\267\352\303~\2256S\3468\235\214a\223"
 417      2B64D8B7 
 417      EAC37E95 
 417      3653E638 
 417      9D8C6193 
 418 05b3 D30B1A74 		.ascii	"\323\013\032t\237dHr\272\204\346\017\273\240j2\006\325"
 418      9F644872 
 418      BA84E60F 
ARM GAS  /tmp/cc1eExWI.s 			page 33


 418      BBA06A32 
 418      06D5
 419 05c5 E77D0B01 		.ascii	"\347}\013\001\010\252\326W\264\240\342\206\314*\233"
 419      08AAD657 
 419      B4A0E286 
 419      CC2A9B
 420 05d4 21433458 		.ascii	"!C4Xk\324\340\353>\006\341\216C\206)\333\331;\243\375"
 420      6BD4E0EB 
 420      3E06E18E 
 420      438629DB 
 420      D93BA3FD 
 421 05e8 EFE8BE5B 		.ascii	"\357\350\276[G}\367]\216\357v\361Y\316\311\253\033\325"
 421      477DF75D 
 421      8EEF76F1 
 421      59CEC9AB 
 421      1BD5
 422 05fa DB4B4B32 		.ascii	"\333KK2\007Le^\007\253\2762\263\177\015Q\014s\355\221"
 422      074C655E 
 422      07ABBE32 
 422      B37F0D51 
 422      0C73ED91 
 423 060e 050E5FFF 		.ascii	"\005\016_\377\350l|V7\216N^[\004\362\376n\216\327\372"
 423      E86C7C56 
 423      378E4E5E 
 423      5B04F2FE 
 423      6E8ED7FA 
 424 0622 6D689EB7 		.ascii	"mh\236\267HK\250\3106~<\317\233\233y\213\264\315\301"
 424      484BA8C8 
 424      367E3CCF 
 424      9B9B798B 
 424      B4CDC1
 425 0635 784EA636 		.ascii	"xN\2466\315\325gum\233\366j\006\267\267|\232\\\230U"
 425      CDD56775 
 425      6D9BF66A 
 425      06B7B77C 
 425      9A5C9855 
 426 0649 50C46F0A 		.ascii	"P\304o\012d{\265C\270\301\310}\213\023\356o\265\213"
 426      647BB543 
 426      B8C1C87D 
 426      8B13EE6F 
 426      B58B
 427 065b 443575F1 		.ascii	"D5u\361\220\371U\350\026\036\317jF2\341\031}\011{\326"
 427      90F955E8 
 427      161ECF6A 
 427      4632E119 
 427      7D097BD6 
 428 066f F7E99E55 		.ascii	"\367\351\236U\213\321]N\224\033f\017\366\342|\235\334"
 428      8BD15D4E 
 428      941B660F 
 428      F6E27C9D 
 428      DC
 429 0680 B53449ED 		.ascii	"\2654I\355u\2027\322\316\330dj\353\373\313\030\236\366"
 429      758237D2 
 429      CED8646A 
 429      EBFBCB18 
 429      9EF6
 430 0692 DEF540C1 		.ascii	"\336\365@\301xf\375>\230oJ\351G\235\300\335\357\330"
ARM GAS  /tmp/cc1eExWI.s 			page 34


 430      7866FD3E 
 430      986F4AE9 
 430      479DC0DD 
 430      EFD8
 431 06a4 F7D9F7DC 		.ascii	"\367\331\367\334\"\336J\267\326\333\360\015$\016h\275"
 431      22DE4AB7 
 431      D6DBF00D 
 431      240E68BD 
 432 06b4 9BD69FD0 		.ascii	"\233\326\237\320\372\024\255?\247\365\327\264\376\236"
 432      FA14AD3F 
 432      A7F5D7B4 
 432      FE9E
 433 06c2 D697693D 		.ascii	"\326\227i=S u-\2557\323z\027\255S\264\336M\353=\264"
 433      5320752D 
 433      AD37D37A 
 433      17AD53B4 
 433      DE4DEB3D 
 434 06d7 6E35C696 		.ascii	"n5\306\226\335D\310-\003D\274S I\254\245\267/\024S\207"
 434      DD44C82D 
 434      0344BC53 
 434      2049ACA5 
 434      B72F1453 
 435 06ec F6195E73 		.ascii	"\366\031^s\234\360\342\002\301\312\362q\330b\340p\035"
 435      9CF0E202 
 435      C1CAF271 
 435      D862E070 
 435      1D
 436 06fd E5703DE5 		.ascii	"\345p=\345\244\315h\251\236\207W\345\217z{\023:g\235"
 436      A4CD68A9 
 436      9E8757E5 
 436      8F7A7B13 
 436      3A679D
 437 0710 3498F0A9 		.ascii	"4\230\360\251\027#\373\\\222'\0132>\272%\262\332i\246"
 437      1723FB5C 
 437      92270B32 
 437      3EBA25B2 
 437      DA69A6
 438 0723 346BDC16 		.ascii	"4k\334\026\202\225\227\216U\006:^\245t\254\241t\354"
 438      8295978E 
 438      55063A5E 
 438      A574ACA1 
 438      74EC
 439 0735 A3EE7FD7 		.ascii	"\243\356\177\327\211\373\233\263\313B\347\331kSW\347"
 439      89FB9BB3 
 439      CB42E7D9 
 439      6B5357E7 
 440 0745 AFD7A96A 		.ascii	"\257\327\251j\177\021\377\207N\014G\212\370\344\345"
 440      7F11FF87 
 440      4E0C478A 
 440      F8E4E5
 441 0754 E17297C7 		.ascii	"\341r\227\307\234\273<\376\354\005\313]\226\013\270"
 441      9CBB3CFE 
 441      EC05CB5D 
 441      960BB8
 442 0763 DA4FB3AF 		.ascii	"\332O\263\257*\324\314\213\373\262\254&\227.\247\256"
 442      2AD4CC8B 
 442      FBB2AC26 
ARM GAS  /tmp/cc1eExWI.s 			page 35


 442      972EA7AE 
 443 0773 D9493539 		.ascii	"\331I59HSG\255\317\372+\224=\220\200\026Q\231\303\\"
 443      485347AD 
 443      CFFA2B94 
 443      3D908016 
 443      5199C35C 
 444 0787 EE48CD7F 		.ascii	"\356H\315\177\266\224|`<\354(o,\334\273,w\031z5Z\310"
 444      B6947C60 
 444      3CEC286F 
 444      2CDCBB2C 
 444      77197A35 
 445 079d 96722A56 		.ascii	"\226r*V\350\244b\347\205c\202\366\321\322E\277\325\""
 445      E8A462E7 
 445      856382F6 
 445      D1D245BF 
 445      D522
 446 07af 8DD7CC8D 		.ascii	"\215\327\314\215F\246\210\037u\345u'\243d\341\313?\016"
 446      46A6881F 
 446      75E57527 
 446      A364E1CB 
 446      3F0E
 447 07c1 5A432939 		.ascii	"ZC)9Jg\331v\216\022n\221D\272\266"
 447      4A67D976 
 447      8E126E91 
 447      44BAB6
 448 07d0 53EB8450 		.ascii	"S\353\204Pbcy\316o\002\372(Cc\357\366\006\227.w^\267"
 448      626379CE 
 448      6F02FA28 
 448      4363EFF6 
 448      06972E77 
 449 07e6 7DB3AA6E 		.ascii	"}\263\252nx\202\355\261S^\243\327LCX35\265\243\365z"
 449      7882EDB1 
 449      535EA3D7 
 449      4C435833 
 449      35B5A3F5 
 450 07fb E2A28F61 		.ascii	"\342\242\217a\271\003\313H\316\316\236Q`\325EeN\345"
 450      B903CB48 
 450      CECE9E51 
 450      60D54565 
 450      4EE5
 451 080d 6CD75BC9 		.ascii	"l\327[\311w\315S\016\266\353\311TGM\375\265jS\335 \375"
 451      77CD530E 
 451      B6EBC954 
 451      474DFDB5 
 451      6A53DD20 
 452 0822 15A1EAD7 		.ascii	"\025\241\352\327!{\267\0078\331Z\234\375\212l\377\001"
 452      217BB707 
 452      38D95A9C 
 452      FD8A6CFF 
 452      01
 453 0833 98BE5FE5 		.ascii	"\230\276_\345C\366X+y\315p\306Q\304\036\257\261\330"
 453      43F6582B 
 453      79CD70C6 
 453      51C41EAF 
 453      B1D8
 454 0845 38695CDA 		.ascii	"8i\\\332\205\303\327\3315\263>\225\235\351\245\273\223"
 454      85C3D7D9 
ARM GAS  /tmp/cc1eExWI.s 			page 36


 454      35B33E95 
 454      9DE9A5BB 
 454      93
 455 0856 A98F5AF5 		.ascii	"\251\217Z\365\344\255\315!5\224\267B\360\3128\303\004"
 455      E4ADCD21 
 455      3594B742 
 455      F0CA38C3 
 455      04
 456 0867 54D747EE 		.ascii	"T\327G\356\273\234s\177\236\347\376\034\345\376\274"
 456      BB9C737F 
 456      9EE7FE1C 
 456      E5FEBC
 457 0876 23EE2FD4 		.ascii	"#\356/\324\350\013\215v:D\347Q\275\317\367\232\313\213"
 457      E80B8D76 
 457      3A44E751 
 457      BDCFF79A 
 457      CB8B
 458 0888 1C978B0A 		.ascii	"\034\227\213\012\306\313\345\362\205\336riu\030\307"
 458      C6CBE5F2 
 458      85DE7269 
 458      7518C7
 459 0897 18AC6CE8 		.ascii	"\030\254l\350\312\367\013\232\244\276\244\3659\363*"
 459      CAF70B9A 
 459      A4BEA4F5 
 459      39F32A
 460 08a6 B8C9CF4D 		.ascii	"\270\311\317M%V}\333\177\200N-\033K\322\267\366\257"
 460      25567DDB 
 460      7F804E2D 
 460      1B4BD2B7 
 460      F6AF
 461 08b8 21AB792C 		.ascii	"!\253y,\363\377}\030.\235\031r\330\260\204?B\015\351"
 461      F3FF7D18 
 461      2E9D1972 
 461      D8B0843F 
 461      420DE9
 462 08cb A02674D2 		.ascii	"\240&t\322\372''9\267=;\216\270\321G\334g'\325\235\225"
 462      FA272739 
 462      B73D3B8E 
 462      B8D147DC 
 462      6727D59D 
 463 08e0 1A8C56A8 		.ascii	"\032\214V\250M\235\235[_?v\375\"\330g\251\337\222\014"
 463      4D9D9D5B 
 463      5F3F76FD 
 463      22D867A9 
 463      DF920C
 464 08f3 CA651B9B 		.ascii	"\312e\033\233\017\317\004\3512\3136\331\214\"\240C~"
 464      0FCF04E9 
 464      32CB36D9 
 464      8C22A043 
 464      7E
 465 0904 CC85ED2D 		.ascii	"\314\205\355-h%\301S_U]\024\215\264\377Y\030lf#-\010"
 465      6825C153 
 465      5F555D14 
 465      8DB4FF59 
 465      186C6623 
 466 091a C60744B1 		.ascii	"\306\007D\261N\222\202\316]\273t\243:k\216z9\375\014"
 466      4E9282CE 
ARM GAS  /tmp/cc1eExWI.s 			page 37


 466      5DBB74A3 
 466      3A6B8E7A 
 466      39FD0C
 467 092d D6720C24 		.ascii	"\326r\014$\210\234.4\214\244+\007\203\032w\360\326\336"
 467      889C2E34 
 467      8CA42B07 
 467      831A77F0 
 467      D6DE
 468 093f 1837CBC5 		.ascii	"\0307\313\305\245R\302v\346F\373\232nJ\263\210K\255"
 468      A552C276 
 468      E646FB9A 
 468      6E4AB388 
 468      4BAD
 469 0951 02FA9653 		.ascii	"\002\372\226S\364&\364\262\2526\252\313\245q\372\200"
 469      F426F4B2 
 469      AA36AACB 
 469      A571FA80 
 470 0961 9D514C5A 		.ascii	"\235QLZ\314t\015\266T\203y\230\211u\0201\355\035a\017"
 470      CC740DB6 
 470      54837998 
 470      89751031 
 470      ED1D610F 
 471 0975 52A3B242 		.ascii	"R\243\262Bi\"D\264\023q\027\235h\355\245\230\015\314"
 471      692244B4 
 471      1371179D 
 471      68EDA598 
 471      0DCC
 472 0987 5DCFABB3 		.ascii	"]\317\253\263\373\343\214\277\210\224\211\353\332\\"
 472      FBE38CBF 
 472      889489EB 
 472      DA5C
 473 0995 AE3BBF4D 		.ascii	"\256;\277M-\337\277\037C\247\335\351\264\213g:\317\242"
 473      2DDFBF1F 
 473      43A7DDE9 
 473      B48B673A 
 473      CFA2
 474 09a7 A5212FD3 		.ascii	"\245!/\323L\255|\213\030\001=Wl\311\364&\235i\021\317"
 474      4CAD7C8B 
 474      18013D57 
 474      6CC9F426 
 474      9D6911CF 
 475 09bb 7511EBEB 		.ascii	"u\021\353\353\0351}\222'\315^\214j\247\373\265\265\264"
 475      1D317D92 
 475      27CD5E8C 
 475      6AA7FBB5 
 475      B5B4
 476 09cd 01B325EA 		.ascii	"\001\263%\352\351\036\344<Y\256\223\352\272\232\331"
 476      E91EE43C 
 476      59AE93EA 
 476      BA9AD9
 477 09dc FDDD2CA6 		.ascii	"\375\335,\246\354\205\030[\013\254\242<u\251\321\226"
 477      EC85185B 
 477      0BACA23C 
 477      75A9D196 
 478 09ec F93C31FE 		.ascii	"\371<1\376\017\236y\372O!&fWX3{\262B\017\3065\264\301"
 478      0F9E79FA 
 478      4F212666 
ARM GAS  /tmp/cc1eExWI.s 			page 38


 478      5758337B 
 478      B2420FC6 
 479 0a03 D2BCC168 		.ascii	"\322\274\301h\023UK\371\250Zfm\333\242:\310J\311T:="
 479      13554BF9 
 479      A85A666D 
 479      DBA23AC8 
 479      4AC9543A 
 480 0a18 8AB72DDF 		.ascii	"\212\267-\337<\327\2347\254\330,\310\337s\326\277nm"
 480      3CD79C37 
 480      ACD82CC8 
 480      DF73D6BF 
 480      6E6D
 481 0a2a FD523EAE 		.ascii	"\375R>\256\232\234\217\340n:\360\267Q`{\261n\203\330"
 481      9A9C8FE0 
 481      6E3AF0B7 
 481      51607BB1 
 481      6E83D8
 482 0a3d 622DAE34 		.ascii	"b-\2564\301\267\234\010f\"k\303\251\207\306\351C\310"
 482      C1B79C08 
 482      66226BC3 
 482      A987C6E9 
 482      43C8
 483 0a4f 5E8A11B6 		.ascii	"^\212\021\266\322bL7t\356\271\320\206k\013\216\254\026"
 483      D2624C37 
 483      74EEB9D0 
 483      866B0B8E 
 483      AC16
 484 0a61 9E7C6DDF 		.ascii	"\236|m\337j\"\267\255\330z\036_g\245G\352\215\275u*"
 484      6A22B7AD 
 484      D87A1E5F 
 484      67A547EA 
 484      8DBD752A 
 485 0a75 6E98D199 		.ascii	"n\230\321\231N\017\326\340\005t\324\006`\203%\300\212"
 485      4E0FD6E0 
 485      0574D406 
 485      608325C0 
 485      8A
 486 0a86 5C805336 		.ascii	"\\\200S6\000\233\314\0007\242f5\325\016\231\344\343"
 486      009BCC00 
 486      37A26635 
 486      D50E99E4 
 486      E3
 487 0a97 5FFE3309 		.ascii	"_\3763\011\033\013\240 \215\323\243\364\275\342\331"
 487      1B0BA020 
 487      8DD3A3F4 
 487      BDE2D9
 488 0aa6 0C8AE5C6 		.ascii	"\014\212\345\306\220\276\263\311\002r\231\232(bG\342"
 488      90BEB3C9 
 488      0272999A 
 488      286247E2 
 489 0ab6 1BAE12A3 		.ascii	"\033\256\022\243\012\355\355\251\027\366\315Q\261Z\243"
 489      0AEDEDA9 
 489      17F6CD51 
 489      B15AA3
 490 0ac5 CE20C9EC 		.ascii	"\316 \311\354*\324@\367\244K\000\3464\316\014\204\332"
 490      2AD440F7 
 490      A44B00E6 
ARM GAS  /tmp/cc1eExWI.s 			page 39


 490      34CE0C84 
 490      DA
 491 0ad6 CCBAE42A 		.ascii	"\314\272\344**jlv\306\276\231\210\267\273\264+\323\227"
 491      2A6A6C76 
 491      C6BE9988 
 491      B7BBB42B 
 491      D397
 492 0ae8 03DAC24E 		.ascii	"\003\332\302N\3017]\331\177\314(\365#n\025\204\270V"
 492      C1375DD9 
 492      7FCC28F5 
 492      236E1584 
 492      B856
 493 0afa 40D5253E 		.ascii	"@\325%>s\361Z\010hV\011fr\320V\267{\363~\325\267^\255"
 493      73F15A08 
 493      68560966 
 493      72D056B7 
 493      7BF37ED5 
 494 0b11 55D3E967 		.ascii	"U\323\351gl\254^\222\001\032\230\317j\276\231\210\337"
 494      6CAC5E92 
 494      011A98CF 
 494      6ABE9988 
 494      DF
 495 0b22 2AD8EA94 		.ascii	"*\330\352\224\215\325\003LV\353\255\340r\007\237{x-"
 495      8DD5034C 
 495      56EBADE0 
 495      72079F7B 
 495      782D
 496 0b34 04D46865 		.ascii	"\004\324heu\343\373=Y\375\230\216S\222\317h\256\225"
 496      75E3FB3D 
 496      59FD988E 
 496      5392CF68 
 496      AE95
 497 0b46 88F7146C 		.ascii	"\210\367\024l\363;66\027\233l~\207\267\331\220\0268"
 497      F33B3636 
 497      179B6C7E 
 497      87B7D990 
 497      1638
 498 0b58 2560716E 		.ascii	"%`qn2\031\015\036:\264\\\373\213%\312e\245<\024\015"
 498      32190D1E 
 498      3AB45CFB 
 498      8B25CA65 
 498      A53C140D 
 499 0b6c 86AB2BA4 		.ascii	"\206\253+\244\362`UD\231:\264\012\025E\252\025ij@\361"
 499      F2605544 
 499      993AB40A 
 499      1545AA15 
 499      696A40F1 
 500 0b80 8EFDE3A3 		.ascii	"\216\375\343\243ec\220/X\025\240On\262\225KLK(\323\342"
 500      6563902F 
 500      5815A04F 
 500      6EB2954B 
 500      4C4B28D3 
 501 0b95 520284AF 		.ascii	"R\002\204\257T\252dI\254H\004\236\252\226\252\245\200"
 501      54AA6449 
 501      AC48049E 
 501      AA96AAA5 
 501      80
ARM GAS  /tmp/cc1eExWI.s 			page 40


 502 0ba6 D21FA44D 		.ascii	"\322\037\244M\217\312\354Q\202U\025\200\340\323\232"
 502      8FCAEC51 
 502      82551580 
 502      E0D39A
 503 0bb5 07147F46 		.ascii	"\007\024\177F\324C%G\032%\203\261H$\026-\217\307d%Q"
 503      D4432547 
 503      1A2583B1 
 503      4824162D 
 503      8FC76425 
 504 0bca 3EFACFE3 		.ascii	">\372\317\343\307\214\237J\236\305CaIN\224\217\0353"
 504      C78C9F4A 
 504      9EC54361 
 504      494E948F 
 504      1D33
 505 0bdc 0600759D 		.ascii	"\006\000u\235\212\224\270\034\212\005\224\307\313\253"
 505      8A94B81C 
 505      8A0594C7 
 505      CBAB
 506 0bea 6211A95C 		.ascii	"b\021\251\\\014KS\313\307KQ%&\217\225\305xU(\230(\177"
 506      0C4B53CB 
 506      C74B5125 
 506      268F95C5 
 506      78552898 
 507 0c00 24562D07 		.ascii	"$V-\007%yZ`L\254B\372\255\024\205\256\037\014)R`bL\016"
 507      25795A60 
 507      4CAC42FA 
 507      AD1485AE 
 507      1F0C2952 
 508 0c18 007AE0F7 		.ascii	"\000z\340\367\243\177\373@\271(G\206DcQi\210$N\010e"
 508      A37FFB40 
 508      B9284786 
 508      44635169 
 508      88244E08 
 509 0c2d 144F2815 		.ascii	"\024O(\025\241\250B\024\257\206\363\235w\004\0247\351"
 509      A1A84214 
 509      AF86F39D 
 509      77041437 
 509      E9
 510 0c3e AE94A816 		.ascii	"\256\224\250\026\010\306\242\300\234\362\253\036U\257"
 510      08C6A2C0 
 510      9CF2AB1E 
 510      55AF
 511 0c4c 0AC66409 		.ascii	"\012\306d\011@J\250\030\000\005\225\251C\234I\005&\337"
 511      404AA818 
 511      000595A9 
 511      439C4905 
 511      26DF
 512 0c5e 1321DDCB 		.ascii	"\023!\335\313R%h\030P\004y\204 \337%\310w\013\362=\202"
 512      52256818 
 512      50047984 
 512      20DF25C8 
 512      770BF23D 
 513 0c73 3C5290EF 		.ascii	"<R\220\357u\311\303\207A\031.\204e!\021w\001\264'*M"
 513      75C9C387 
 513      41192E84 
 513      65211177 
 513      01B4272A 
ARM GAS  /tmp/cc1eExWI.s 			page 41


 514 0c88 91644F2C 		.ascii	"\221dO,\\!\311\356`\225(\273\243bD*N(O\212\341Pe4\240"
 514      5C21C9EE 
 514      609528BB 
 514      A362442A 
 514      4E284F8A 
 515 0ca1 5063EE1E 		.ascii	"Pc\356\036\001Q0E\234 &$\237\222PD D)\"?\214\014(\036"
 515      01513045 
 515      9C202624 
 515      9F925044 
 515      20442922 
 516 0cba 7A5FA444 		.ascii	"z_\244D\2000\270\233\030\026+\023E\212,ML\000\001\344"
 516      8030B89B 
 516      18162B13 
 516      458A2C4D 
 516      4C0001E4 
 517 0cce E489242A 		.ascii	"\344\211$*\2419\343\304+WL\203\007>ijH\011\202\210w"
 517      A139E3C4 
 517      2B574C83 
 517      073E696A 
 517      48098288 
 518 0ce3 8A129B30 		.ascii	"\212\022\2330)>\2009\033\004$\031h'PS\024E\216\027%"
 518      293E8039 
 518      1B042419 
 518      68275053 
 518      14458E17 
 519 0cf8 C0412050 		.ascii	"\300A P\012\236HH\021p\023Xj\037\271\320\004(\360\004"
 519      0A9E4848 
 519      11701358 
 519      6A1FB9D0 
 519      0428F004 
 520 0d0c A34A4071 		.ascii	"\243J@qA\015\360\360(\016'\210\351x\2114\231\240\211"
 520      410DF0F0 
 520      280E2788 
 520      E9788934 
 520      99A089
 521 0d1f 89274111 		.ascii	"\211'A\021i\012\271\300\325\375\364\260\014\207\022"
 521      690AB9C0 
 521      D5FDF4B0 
 521      0C8712
 522 0d2e 2075A521 		.ascii	" u\245!P\311\023w\024\374V4E\014)\241h\245\0174\241"
 522      50C91377 
 522      14FC5634 
 522      450C29A1 
 522      68A50F34 
 523 0d43 31E893E2 		.ascii	"1\350\223\342R\024\374]Y\004\270\244\031\260.\206\211"
 523      5214FC5D 
 523      5904B8A4 
 523      19B02E86 
 523      89
 524 0d54 BF3D9178 		.ascii	"\277=\221x,\026\006\327K\223=\261)QI\016\3671\332\302"
 524      2C1606D7 
 524      4B933DB1 
 524      2951490E 
 524      F731DAC2 
 525 0d68 A109E595 		.ascii	"\241\011\345\225\301 \027u#\206\216\034:\334\030{\025"
 525      C1201775 
 525      23868E1C 
ARM GAS  /tmp/cc1eExWI.s 			page 42


 525      3ADC187B 
 525      15
 526 0d79 D244B0DC 		.ascii	"\322D\260\334\233\010M\007\356n\263\210\230X\202 e\251"
 526      9B084D07 
 526      EE6EB388 
 526      98588220 
 526      65A9
 527 0d8b AA92C438 		.ascii	"\252\222\3048H\\\021\221\"1P\201\334\006\224\022\303"
 527      485C1191 
 527      22315081 
 527      DC069412 
 527      C3
 528 0d9c 9D55D8F1 		.ascii	"\235U\330\361 \320\234\005l)\\VJ\312\304\352h\020\242"
 528      20D09C05 
 528      6C295C56 
 528      4ACAC4EA 
 528      6810A2
 529 0daf 262EC726 		.ascii	"&.\307&\207 \246\256\240\260P\3015\240\033\356<4\300"
 529      8720A6AE 
 529      A0B050C1 
 529      35A01BEE 
 529      3C34C0
 530 0dc2 3C71B152 		.ascii	"<q\261RJ\270'\312\222\344&?\272\211\376\356\352\204"
 530      4AB827CA 
 530      92E4263F 
 530      BA89FEEE 
 530      EA84
 531 0dd4 54E1D59A 		.ascii	"T\341\325\232\271\200\337[l\025I\310A\335\222 *\326"
 531      B980DF5B 
 531      6C1549C8 
 531      41DD9220 
 531      2AD6
 532 0de6 6C084543 		.ascii	"l\010EC\312\200`\325\030Pkt8\034\013\216&\375H\0250"
 532      CA8060D5 
 532      18506B74 
 532      381C0B8E 
 532      26FD4815 
 533 0dfb 018D839F 		.ascii	"\001\215\203\237\3774a\222\024T\036\2006\036\322:\356"
 533      FF346192 
 533      14541E80 
 533      361ED23A 
 533      EE
 534 0e0c 9A503D71 		.ascii	"\232P=q\200\366\223\261u\261\366\350\017\240\027\216"
 534      80F693B1 
 534      75B1F6E8 
 534      0FA0178E 
 535 0e1c 976A378F 		.ascii	"\227j7\217@\240W'\274JL\001O\373\302\242\014\232+q\210"
 535      40A05727 
 535      BC4A4C01 
 535      4FFBC2A2 
 535      0C9A2B71 
 536 0e31 97F1CAD4 		.ascii	"\227\361\312\324,l\011\275\1774\012XO\372\351\365\203"
 536      2C6C09BD 
 536      7F340A58 
 536      4FFAE9F5 
 536      83
 537 0e42 70550AEE 		.ascii	"pU\012\356\021\253\303\012U\321\027\010P\232\002W\350"
ARM GAS  /tmp/cc1eExWI.s 			page 43


 537      11ABC30A 
 537      55D11708 
 537      509A0257 
 537      E8
 538 0e53 1743EFBA 		.ascii	"\027C\357\272w\370]\306\273;F\030\357\356\034\371?\345"
 538      77F85DC6 
 538      BB3B4618 
 538      EFEE1CF9 
 538      3FE5
 539 0e65 B18E4C   		.ascii	"\261\216L"
 540              		.text
 541              		.section	.gnu.lto_.symtab.d3942921a8de1caf,"",%progbits
 542 0000 5F686561 		.ascii	"_heap_init\000\000\000\000\000\000\000\000\000\000\000"
 542      705F696E 
 542      69740000 
 542      00000000 
 542      00000000 
 543 0015 007D0100 		.ascii	"\000}\001\000\000chHeapObjectInit\000\000\000\000\000"
 543      00636848 
 543      6561704F 
 543      626A6563 
 543      74496E69 
 544 002f 00000000 		.ascii	"\000\000\000\000\000\000\000\203\001\000\000chHeapA"
 544      00000083 
 544      01000063 
 544      68486561 
 544      7041
 545 0041 6C6C6F63 		.ascii	"llocAligned\000\000\000\000\000\000\000\000\000\000"
 545      416C6967 
 545      6E656400 
 545      00000000 
 545      00000000 
 546 0056 00008F01 		.ascii	"\000\000\217\001\000\000chHeapFree\000\000\000\000\000"
 546      00006368 
 546      48656170 
 546      46726565 
 546      00000000 
 547 006b 00000000 		.ascii	"\000\000\000\000\000\000\000\231\001\000\000chHeapS"
 547      00000099 
 547      01000063 
 547      68486561 
 547      7053
 548 007d 74617475 		.ascii	"tatus\000\000\000\000\000\000\000\000\000\000\000\000"
 548      73000000 
 548      00000000 
 548      00000000 
 548      00
 549 008e A0010000 		.ascii	"\240\001\000\000chCoreAllocAligned\000\000\002\000\000"
 549      6368436F 
 549      7265416C 
 549      6C6F6341 
 549      6C69676E 
 550 00a9 00000000 		.ascii	"\000\000\000\000\000\000\000\201\001\000\000chMtxOb"
 550      00000081 
 550      01000063 
 550      684D7478 
 550      4F62
ARM GAS  /tmp/cc1eExWI.s 			page 44


 551 00bb 6A656374 		.ascii	"jectInit\000\000\002\000\000\000\000\000\000\000\000"
 551      496E6974 
 551      00000200 
 551      00000000 
 551      000000
 552 00ce 00AC0100 		.ascii	"\000\254\001\000\000chMtxUnlock\000\000\002\000\000"
 552      0063684D 
 552      7478556E 
 552      6C6F636B 
 552      00000200 
 553 00e3 00000000 		.ascii	"\000\000\000\000\000\000\000\260\001\000\000chMtxLo"
 553      000000B0 
 553      01000063 
 553      684D7478 
 553      4C6F
 554 00f5 636B0000 		.ascii	"ck\000\000\002\000\000\000\000\000\000\000\000\000\262"
 554      02000000 
 554      00000000 
 554      0000B2
 555 0104 010000   		.ascii	"\001\000\000"
 556              		.text
 557              		.section	.gnu.lto_.opts,"",%progbits
 558 0000 272D6D63 		.ascii	"'-mcpu=cortex-m3' '-mno-thumb-interwork' '-mthumb' "
 558      70753D63 
 558      6F727465 
 558      782D6D33 
 558      2720272D 
 559 0033 272D6767 		.ascii	"'-ggdb' '-O2' '-fomit-frame-pointer' '-falign-funct"
 559      64622720 
 559      272D4F32 
 559      2720272D 
 559      666F6D69 
 560 0066 696F6E73 		.ascii	"ions=16' '-ffunction-sections' '-fdata-sections' '-"
 560      3D313627 
 560      20272D66 
 560      66756E63 
 560      74696F6E 
 561 0099 666E6F2D 		.ascii	"fno-common' '-flto'\000"
 561      636F6D6D 
 561      6F6E2720 
 561      272D666C 
 561      746F2700 
 562              		.text
 563              		.cfi_sections	.debug_frame
 564              		.section	.text._heap_init,"ax",%progbits
 565              		.align	2
 566              		.p2align 4,,15
 567              		.global	_heap_init
 568              		.thumb
 569              		.thumb_func
 570              		.type	_heap_init, %function
 571              	_heap_init:
 572              	.LFB186:
 573              		.file 1 "../../../os/common/oslib/src/chheap.c"
 574              		.loc 1 107 0
 575              		.cfi_startproc
 576              		@ args = 0, pretend = 0, frame = 0
ARM GAS  /tmp/cc1eExWI.s 			page 45


 577              		@ frame_needed = 0, uses_anonymous_args = 0
 578              		@ link register save eliminated.
 579              		.loc 1 109 0
 580 0000 40F20003 		movw	r3, #:lower16:.LANCHOR0
 581 0004 C0F20003 		movt	r3, #:upper16:.LANCHOR0
 582 0008 40F20002 		movw	r2, #:lower16:chCoreAllocAligned
 583              		.loc 1 110 0
 584 000c 0021     		movs	r1, #0
 585              		.loc 1 109 0
 586 000e C0F20002 		movt	r2, #:upper16:chCoreAllocAligned
 587              		.loc 1 113 0
 588 0012 03F11000 		add	r0, r3, #16
 589              		.loc 1 109 0
 590 0016 1A60     		str	r2, [r3]
 591              		.loc 1 110 0
 592 0018 9960     		str	r1, [r3, #8]
 593              		.loc 1 111 0
 594 001a D960     		str	r1, [r3, #12]
 595              		.loc 1 113 0
 596 001c FFF7FEBF 		b	chMtxObjectInit
 597              	.LVL0:
 598              		.cfi_endproc
 599              	.LFE186:
 600              		.size	_heap_init, .-_heap_init
 601              		.section	.text.chHeapObjectInit,"ax",%progbits
 602              		.align	2
 603              		.p2align 4,,15
 604              		.global	chHeapObjectInit
 605              		.thumb
 606              		.thumb_func
 607              		.type	chHeapObjectInit, %function
 608              	chHeapObjectInit:
 609              	.LFB187:
 610              		.loc 1 130 0
 611              		.cfi_startproc
 612              		@ args = 0, pretend = 0, frame = 0
 613              		@ frame_needed = 0, uses_anonymous_args = 0
 614              		@ link register save eliminated.
 615              	.LVL1:
 616              		.loc 1 141 0
 617 0000 083A     		subs	r2, r2, #8
 618              	.LVL2:
 619              		.loc 1 137 0
 620 0002 0023     		movs	r3, #0
 621              		.loc 1 141 0
 622 0004 D208     		lsrs	r2, r2, #3
 623              	.LVL3:
 624              		.loc 1 138 0
 625 0006 8160     		str	r1, [r0, #8]
 626              		.loc 1 137 0
 627 0008 0360     		str	r3, [r0]
 628              		.loc 1 139 0
 629 000a C360     		str	r3, [r0, #12]
 630              		.loc 1 143 0
 631 000c 1030     		adds	r0, r0, #16
 632              	.LVL4:
 633              		.loc 1 141 0
ARM GAS  /tmp/cc1eExWI.s 			page 46


 634 000e 4A60     		str	r2, [r1, #4]
 635              		.loc 1 140 0
 636 0010 0B60     		str	r3, [r1]
 637              		.loc 1 143 0
 638 0012 FFF7FEBF 		b	chMtxObjectInit
 639              	.LVL5:
 640              		.cfi_endproc
 641              	.LFE187:
 642              		.size	chHeapObjectInit, .-chHeapObjectInit
 643 0016 00BFAFF3 		.section	.text.chHeapAllocAligned,"ax",%progbits
 643      0080AFF3 
 643      0080
 644              		.align	2
 645              		.p2align 4,,15
 646              		.global	chHeapAllocAligned
 647              		.thumb
 648              		.thumb_func
 649              		.type	chHeapAllocAligned, %function
 650              	chHeapAllocAligned:
 651              	.LFB188:
 652              		.loc 1 166 0
 653              		.cfi_startproc
 654              		@ args = 0, pretend = 0, frame = 8
 655              		@ frame_needed = 0, uses_anonymous_args = 0
 656              	.LVL6:
 657 0000 2DE9F04F 		push	{r4, r5, r6, r7, r8, r9, r10, fp, lr}
 658              		.cfi_def_cfa_offset 36
 659              		.cfi_offset 4, -36
 660              		.cfi_offset 5, -32
 661              		.cfi_offset 6, -28
 662              		.cfi_offset 7, -24
 663              		.cfi_offset 8, -20
 664              		.cfi_offset 9, -16
 665              		.cfi_offset 10, -12
 666              		.cfi_offset 11, -8
 667              		.cfi_offset 14, -4
 668              		.loc 1 174 0
 669 0004 40F20009 		movw	r9, #:lower16:.LANCHOR0
 670 0008 C0F20009 		movt	r9, #:upper16:.LANCHOR0
 671 000c 0028     		cmp	r0, #0
 672 000e 18BF     		it	ne
 673 0010 8146     		movne	r9, r0
 674              	.LVL7:
 675              		.loc 1 166 0
 676 0012 83B0     		sub	sp, sp, #12
 677              		.cfi_def_cfa_offset 48
 678              		.loc 1 186 0
 679 0014 09F11003 		add	r3, r9, #16
 680              		.loc 1 166 0
 681 0018 0191     		str	r1, [sp, #4]
 682              		.loc 1 179 0
 683 001a 072A     		cmp	r2, #7
 684 001c 8CBF     		ite	hi
 685 001e 9046     		movhi	r8, r2
 686 0020 4FF00808 		movls	r8, #8
 687              	.LVL8:
 688              		.loc 1 183 0
ARM GAS  /tmp/cc1eExWI.s 			page 47


 689 0024 0731     		adds	r1, r1, #7
 690              	.LVL9:
 691              		.loc 1 186 0
 692 0026 1846     		mov	r0, r3
 693 0028 0093     		str	r3, [sp]
 694              		.loc 1 183 0
 695 002a 4FEAD10B 		lsr	fp, r1, #3
 696              	.LVL10:
 697              		.loc 1 189 0
 698 002e 09F10807 		add	r7, r9, #8
 699              		.loc 1 186 0
 700 0032 FFF7FEFF 		bl	chMtxLock
 701              	.LVL11:
 702              	.LBB2:
 703              		.loc 1 197 0
 704 0036 C8F1000C 		rsb	ip, r8, #0
 705              	.LBE2:
 706              		.loc 1 190 0
 707 003a 0DE0     		b	.L6
 708              	.LVL12:
 709              	.L13:
 710              	.LBB7:
 711              		.loc 1 199 0
 712 003c 5A68     		ldr	r2, [r3, #4]
 713 003e 511C     		adds	r1, r2, #1
 714 0040 C900     		lsls	r1, r1, #3
 715 0042 A1F10800 		sub	r0, r1, #8
 716 0046 1944     		add	r1, r1, r3
 717 0048 0544     		add	r5, r5, r0
 718 004a 8C42     		cmp	r4, r1
 719 004c 4FEAE505 		asr	r5, r5, #3
 720 0050 01D2     		bcs	.L7
 721              		.loc 1 199 0 is_stmt 0 discriminator 1
 722 0052 AB45     		cmp	fp, r5
 723 0054 22D9     		bls	.L22
 724              	.L7:
 725 0056 1F46     		mov	r7, r3
 726              	.LVL13:
 727              	.L6:
 728              	.LBE7:
 729              		.loc 1 190 0 is_stmt 1 discriminator 1
 730 0058 3B68     		ldr	r3, [r7]
 731              	.LVL14:
 732              	.LBB8:
 733              		.loc 1 197 0 discriminator 1
 734 005a DE1D     		adds	r6, r3, #7
 735 005c 4644     		add	r6, r6, r8
 736 005e 0CEA0606 		and	r6, ip, r6
 737 0062 A6F10804 		sub	r4, r6, #8
 738              	.LVL15:
 739              		.loc 1 199 0 discriminator 1
 740 0066 1D1B     		subs	r5, r3, r4
 741              		.loc 1 197 0 discriminator 1
 742 0068 03F1080A 		add	r10, r3, #8
 743              	.LBE8:
 744              		.loc 1 190 0 discriminator 1
 745 006c 002B     		cmp	r3, #0
ARM GAS  /tmp/cc1eExWI.s 			page 48


 746 006e E5D1     		bne	.L13
 747              		.loc 1 259 0
 748 0070 0098     		ldr	r0, [sp]
 749 0072 FFF7FEFF 		bl	chMtxUnlock
 750              	.LVL16:
 751              		.loc 1 263 0
 752 0076 D9F80030 		ldr	r3, [r9]
 753 007a 002B     		cmp	r3, #0
 754 007c 47D0     		beq	.L15
 755              		.loc 1 264 0
 756 007e 0BF10100 		add	r0, fp, #1
 757 0082 C000     		lsls	r0, r0, #3
 758 0084 4146     		mov	r1, r8
 759 0086 9847     		blx	r3
 760              	.LVL17:
 761              		.loc 1 265 0
 762 0088 0028     		cmp	r0, #0
 763 008a 40D0     		beq	.L15
 764              		.loc 1 267 0
 765 008c 019B     		ldr	r3, [sp, #4]
 766              		.loc 1 266 0
 767 008e C0F80090 		str	r9, [r0]
 768              		.loc 1 267 0
 769 0092 4360     		str	r3, [r0, #4]
 770              		.loc 1 270 0
 771 0094 0830     		adds	r0, r0, #8
 772              	.LVL18:
 773              	.L12:
 774              		.loc 1 276 0
 775 0096 03B0     		add	sp, sp, #12
 776              		@ sp needed
 777 0098 BDE8F08F 		pop	{r4, r5, r6, r7, r8, r9, r10, fp, pc}
 778              	.LVL19:
 779              	.L22:
 780              	.LBB9:
 781              		.loc 1 203 0
 782 009c 9C42     		cmp	r4, r3
 783 009e AE46     		mov	lr, r5
 784 00a0 19D8     		bhi	.L23
 785              		.loc 1 227 0
 786 00a2 9345     		cmp	fp, r2
 787 00a4 2FD0     		beq	.L24
 788              	.LBB3:
 789              		.loc 1 235 0
 790 00a6 0BF10101 		add	r1, fp, #1
 791              	.LVL20:
 792              		.loc 1 236 0
 793 00aa 1A68     		ldr	r2, [r3]
 794              		.loc 1 237 0
 795 00ac A0EBC100 		sub	r0, r0, r1, lsl #3
 796 00b0 C510     		asrs	r5, r0, #3
 797 00b2 03EBC100 		add	r0, r3, r1, lsl #3
 798              	.LVL21:
 799              		.loc 1 236 0
 800 00b6 43F83120 		str	r2, [r3, r1, lsl #3]
 801              		.loc 1 238 0
 802 00ba 1C46     		mov	r4, r3
ARM GAS  /tmp/cc1eExWI.s 			page 49


 803              	.LVL22:
 804              		.loc 1 237 0
 805 00bc 4560     		str	r5, [r0, #4]
 806              		.loc 1 238 0
 807 00be 3860     		str	r0, [r7]
 808              	.LVL23:
 809              	.L10:
 810              	.LBE3:
 811              		.loc 1 243 0
 812 00c0 019B     		ldr	r3, [sp, #4]
 813              		.loc 1 247 0
 814 00c2 0098     		ldr	r0, [sp]
 815              		.loc 1 243 0
 816 00c4 6360     		str	r3, [r4, #4]
 817              		.loc 1 244 0
 818 00c6 C4F80090 		str	r9, [r4]
 819              		.loc 1 247 0
 820 00ca FFF7FEFF 		bl	chMtxUnlock
 821              	.LVL24:
 822              		.loc 1 250 0
 823 00ce 5046     		mov	r0, r10
 824              	.LBE9:
 825              		.loc 1 276 0
 826 00d0 03B0     		add	sp, sp, #12
 827              		@ sp needed
 828 00d2 BDE8F08F 		pop	{r4, r5, r6, r7, r8, r9, r10, fp, pc}
 829              	.LVL25:
 830              	.L23:
 831              	.LBB10:
 832              	.LBB4:
 833              		.loc 1 209 0
 834 00d6 AB45     		cmp	fp, r5
 835              		.loc 1 208 0
 836 00d8 CAEB0402 		rsb	r2, r10, r4
 837 00dc 4FEAE202 		asr	r2, r2, #3
 838              	.LBB5:
 839              		.loc 1 218 0
 840 00e0 3EBF     		ittt	cc
 841 00e2 1D68     		ldrcc	r5, [r3]
 842              	.LVL26:
 843              		.loc 1 214 0
 844 00e4 0BF10100 		addcc	r0, fp, #1
 845              		.loc 1 215 0
 846 00e8 6FEA0B01 		mvncc	r1, fp
 847              	.LBE5:
 848              		.loc 1 208 0
 849 00ec 5A60     		str	r2, [r3, #4]
 850              	.LBB6:
 851              		.loc 1 215 0
 852 00ee 3DBF     		ittte	cc
 853 00f0 7144     		addcc	r1, r1, lr
 854              		.loc 1 214 0
 855 00f2 04EBC002 		addcc	r2, r4, r0, lsl #3
 856              	.LVL27:
 857              		.loc 1 215 0
 858 00f6 5160     		strcc	r1, [r2, #4]
 859 00f8 B246     		movcs	r10, r6
ARM GAS  /tmp/cc1eExWI.s 			page 50


 860              		.loc 1 218 0
 861 00fa 3EBF     		ittt	cc
 862 00fc 44F83050 		strcc	r5, [r4, r0, lsl #3]
 863 0100 B246     		movcc	r10, r6
 864              		.loc 1 219 0
 865 0102 1A60     		strcc	r2, [r3]
 866 0104 DCE7     		b	.L10
 867              	.LVL28:
 868              	.L24:
 869              	.LBE6:
 870              	.LBE4:
 871              		.loc 1 229 0
 872 0106 1A68     		ldr	r2, [r3]
 873 0108 1C46     		mov	r4, r3
 874              	.LVL29:
 875 010a 3A60     		str	r2, [r7]
 876 010c D8E7     		b	.L10
 877              	.LVL30:
 878              	.L15:
 879              	.LBE10:
 880              		.loc 1 275 0
 881 010e 0020     		movs	r0, #0
 882 0110 C1E7     		b	.L12
 883              		.cfi_endproc
 884              	.LFE188:
 885              		.size	chHeapAllocAligned, .-chHeapAllocAligned
 886 0112 00BFAFF3 		.section	.text.chHeapFree,"ax",%progbits
 886      0080AFF3 
 886      0080AFF3 
 886      0080
 887              		.align	2
 888              		.p2align 4,,15
 889              		.global	chHeapFree
 890              		.thumb
 891              		.thumb_func
 892              		.type	chHeapFree, %function
 893              	chHeapFree:
 894              	.LFB189:
 895              		.loc 1 285 0
 896              		.cfi_startproc
 897              		@ args = 0, pretend = 0, frame = 0
 898              		@ frame_needed = 0, uses_anonymous_args = 0
 899              	.LVL31:
 900 0000 F8B5     		push	{r3, r4, r5, r6, r7, lr}
 901              		.cfi_def_cfa_offset 24
 902              		.cfi_offset 3, -24
 903              		.cfi_offset 4, -20
 904              		.cfi_offset 5, -16
 905              		.cfi_offset 6, -12
 906              		.cfi_offset 7, -8
 907              		.cfi_offset 14, -4
 908              		.loc 1 298 0
 909 0002 50F8043C 		ldr	r3, [r0, #-4]
 910              		.loc 1 294 0
 911 0006 50F8084C 		ldr	r4, [r0, #-8]
 912              		.loc 1 298 0
 913 000a 0733     		adds	r3, r3, #7
ARM GAS  /tmp/cc1eExWI.s 			page 51


 914              		.loc 1 299 0
 915 000c DB08     		lsrs	r3, r3, #3
 916              		.loc 1 302 0
 917 000e 04F11006 		add	r6, r4, #16
 918              		.loc 1 298 0
 919 0012 40F8043C 		str	r3, [r0, #-4]
 920              		.loc 1 285 0
 921 0016 0546     		mov	r5, r0
 922              		.loc 1 295 0
 923 0018 0834     		adds	r4, r4, #8
 924              		.loc 1 302 0
 925 001a 3046     		mov	r0, r6
 926              	.LVL32:
 927 001c FFF7FEFF 		bl	chMtxLock
 928              	.LVL33:
 929              		.loc 1 292 0
 930 0020 A5F10801 		sub	r1, r5, #8
 931              	.LVL34:
 932              		.loc 1 295 0
 933 0024 2346     		mov	r3, r4
 934              	.LVL35:
 935              	.L32:
 936              		.loc 1 307 0
 937 0026 A342     		cmp	r3, r4
 938 0028 04D0     		beq	.L26
 939              	.L37:
 940              		.loc 1 307 0 is_stmt 0 discriminator 2
 941 002a 8B42     		cmp	r3, r1
 942 002c 02D3     		bcc	.L26
 943 002e 1B68     		ldr	r3, [r3]
 944              	.LVL36:
 945              		.loc 1 307 0
 946 0030 A342     		cmp	r3, r4
 947 0032 FAD1     		bne	.L37
 948              	.L26:
 949              		.loc 1 308 0 is_stmt 1 discriminator 1
 950 0034 1A68     		ldr	r2, [r3]
 951              		.loc 1 307 0 discriminator 1
 952 0036 1AB1     		cbz	r2, .L28
 953              		.loc 1 308 0
 954 0038 9142     		cmp	r1, r2
 955 003a 01D3     		bcc	.L28
 956 003c 1346     		mov	r3, r2
 957              	.LVL37:
 958              		.loc 1 326 0
 959 003e F2E7     		b	.L32
 960              	.LVL38:
 961              	.L28:
 962              		.loc 1 313 0
 963 0040 55F8040C 		ldr	r0, [r5, #-4]
 964              		.loc 1 310 0
 965 0044 45F8082C 		str	r2, [r5, #-8]
 966              		.loc 1 311 0
 967 0048 1960     		str	r1, [r3]
 968              		.loc 1 313 0
 969 004a 421C     		adds	r2, r0, #1
 970 004c 55F8087C 		ldr	r7, [r5, #-8]
ARM GAS  /tmp/cc1eExWI.s 			page 52


 971 0050 01EBC204 		add	r4, r1, r2, lsl #3
 972              	.LVL39:
 973 0054 BC42     		cmp	r4, r7
 974 0056 0AD0     		beq	.L38
 975              		.loc 1 318 0
 976 0058 5A68     		ldr	r2, [r3, #4]
 977 005a 501C     		adds	r0, r2, #1
 978 005c 03EBC000 		add	r0, r3, r0, lsl #3
 979 0060 8142     		cmp	r1, r0
 980 0062 13D0     		beq	.L39
 981              	.L31:
 982              		.loc 1 329 0
 983 0064 3046     		mov	r0, r6
 984              		.loc 1 332 0
 985 0066 BDE8F840 		pop	{r3, r4, r5, r6, r7, lr}
 986              	.LVL40:
 987              		.loc 1 329 0
 988 006a FFF7FEBF 		b	chMtxUnlock
 989              	.LVL41:
 990              	.L38:
 991              		.loc 1 315 0
 992 006e 6468     		ldr	r4, [r4, #4]
 993              		.loc 1 316 0
 994 0070 51F83220 		ldr	r2, [r1, r2, lsl #3]
 995              		.loc 1 315 0
 996 0074 2044     		add	r0, r0, r4
 997 0076 0130     		adds	r0, r0, #1
 998 0078 45F8040C 		str	r0, [r5, #-4]
 999              		.loc 1 316 0
 1000 007c 45F8082C 		str	r2, [r5, #-8]
 1001              		.loc 1 318 0
 1002 0080 5A68     		ldr	r2, [r3, #4]
 1003 0082 501C     		adds	r0, r2, #1
 1004 0084 03EBC000 		add	r0, r3, r0, lsl #3
 1005 0088 8142     		cmp	r1, r0
 1006 008a EBD1     		bne	.L31
 1007              	.L39:
 1008              		.loc 1 320 0
 1009 008c 55F8040C 		ldr	r0, [r5, #-4]
 1010              		.loc 1 321 0
 1011 0090 55F8081C 		ldr	r1, [r5, #-8]
 1012              	.LVL42:
 1013              		.loc 1 320 0
 1014 0094 0244     		add	r2, r2, r0
 1015 0096 0132     		adds	r2, r2, #1
 1016              		.loc 1 321 0
 1017 0098 83E80600 		stmia	r3, {r1, r2}
 1018              		.loc 1 329 0
 1019 009c 3046     		mov	r0, r6
 1020              		.loc 1 332 0
 1021 009e BDE8F840 		pop	{r3, r4, r5, r6, r7, lr}
 1022              	.LVL43:
 1023              		.loc 1 329 0
 1024 00a2 FFF7FEBF 		b	chMtxUnlock
 1025              	.LVL44:
 1026              		.cfi_endproc
 1027              	.LFE189:
ARM GAS  /tmp/cc1eExWI.s 			page 53


 1028              		.size	chHeapFree, .-chHeapFree
 1029 00a6 00BFAFF3 		.section	.text.chHeapStatus,"ax",%progbits
 1029      0080AFF3 
 1029      0080
 1030              		.align	2
 1031              		.p2align 4,,15
 1032              		.global	chHeapStatus
 1033              		.thumb
 1034              		.thumb_func
 1035              		.type	chHeapStatus, %function
 1036              	chHeapStatus:
 1037              	.LFB190:
 1038              		.loc 1 349 0
 1039              		.cfi_startproc
 1040              		@ args = 0, pretend = 0, frame = 0
 1041              		@ frame_needed = 0, uses_anonymous_args = 0
 1042              	.LVL45:
 1043              		.loc 1 354 0
 1044 0000 40F20003 		movw	r3, #:lower16:.LANCHOR0
 1045 0004 C0F20003 		movt	r3, #:upper16:.LANCHOR0
 1046              		.loc 1 349 0
 1047 0008 2DE9F047 		push	{r4, r5, r6, r7, r8, r9, r10, lr}
 1048              		.cfi_def_cfa_offset 32
 1049              		.cfi_offset 4, -32
 1050              		.cfi_offset 5, -28
 1051              		.cfi_offset 6, -24
 1052              		.cfi_offset 7, -20
 1053              		.cfi_offset 8, -16
 1054              		.cfi_offset 9, -12
 1055              		.cfi_offset 10, -8
 1056              		.cfi_offset 14, -4
 1057              		.loc 1 354 0
 1058 000c 0028     		cmp	r0, #0
 1059 000e 14BF     		ite	ne
 1060 0010 0446     		movne	r4, r0
 1061 0012 1C46     		moveq	r4, r3
 1062              	.LVL46:
 1063              		.loc 1 357 0
 1064 0014 04F11008 		add	r8, r4, #16
 1065 0018 4046     		mov	r0, r8
 1066              		.loc 1 349 0
 1067 001a 8A46     		mov	r10, r1
 1068 001c 9146     		mov	r9, r2
 1069              		.loc 1 357 0
 1070 001e FFF7FEFF 		bl	chMtxLock
 1071              	.LVL47:
 1072              		.loc 1 362 0
 1073 0022 A368     		ldr	r3, [r4, #8]
 1074 0024 E3B1     		cbz	r3, .L47
 1075              		.loc 1 359 0
 1076 0026 0025     		movs	r5, #0
 1077              		.loc 1 358 0
 1078 0028 2F46     		mov	r7, r5
 1079              		.loc 1 360 0
 1080 002a 2E46     		mov	r6, r5
 1081              	.LVL48:
 1082              	.L43:
ARM GAS  /tmp/cc1eExWI.s 			page 54


 1083              		.loc 1 362 0
 1084 002c 18CB     		ldmia	r3, {r3, r4}
 1085              	.LBB11:
 1086              		.loc 1 366 0
 1087 002e 0136     		adds	r6, r6, #1
 1088              	.LVL49:
 1089              		.loc 1 367 0
 1090 0030 2744     		add	r7, r7, r4
 1091              	.LVL50:
 1092 0032 A542     		cmp	r5, r4
 1093 0034 38BF     		it	cc
 1094 0036 2546     		movcc	r5, r4
 1095              	.LVL51:
 1096              	.LBE11:
 1097              		.loc 1 362 0
 1098 0038 002B     		cmp	r3, #0
 1099 003a F7D1     		bne	.L43
 1100              	.LVL52:
 1101              	.L42:
 1102              		.loc 1 376 0
 1103 003c BAF1000F 		cmp	r10, #0
 1104 0040 02D0     		beq	.L44
 1105              		.loc 1 377 0
 1106 0042 FF00     		lsls	r7, r7, #3
 1107 0044 CAF80070 		str	r7, [r10]
 1108              	.L44:
 1109              		.loc 1 381 0
 1110 0048 B9F1000F 		cmp	r9, #0
 1111 004c 02D0     		beq	.L45
 1112              		.loc 1 382 0
 1113 004e ED00     		lsls	r5, r5, #3
 1114 0050 C9F80050 		str	r5, [r9]
 1115              	.L45:
 1116              		.loc 1 384 0
 1117 0054 4046     		mov	r0, r8
 1118 0056 FFF7FEFF 		bl	chMtxUnlock
 1119              	.LVL53:
 1120              		.loc 1 387 0
 1121 005a 3046     		mov	r0, r6
 1122 005c BDE8F087 		pop	{r4, r5, r6, r7, r8, r9, r10, pc}
 1123              	.LVL54:
 1124              	.L47:
 1125              		.loc 1 359 0
 1126 0060 1D46     		mov	r5, r3
 1127              		.loc 1 358 0
 1128 0062 1F46     		mov	r7, r3
 1129              		.loc 1 360 0
 1130 0064 1E46     		mov	r6, r3
 1131 0066 E9E7     		b	.L42
 1132              		.cfi_endproc
 1133              	.LFE190:
 1134              		.size	chHeapStatus, .-chHeapStatus
 1135 0068 AFF30080 		.section	.bss.default_heap,"aw",%nobits
 1135      AFF30080 
 1136              		.align	3
 1137              		.set	.LANCHOR0,. + 0
 1138              		.type	default_heap, %object
ARM GAS  /tmp/cc1eExWI.s 			page 55


 1139              		.size	default_heap, 32
 1140              	default_heap:
 1141 0000 00000000 		.space	32
 1141      00000000 
 1141      00000000 
 1141      00000000 
 1141      00000000 
 1142              		.text
 1143              	.Letext0:
 1144              		.file 2 "/home/alex/MentorGraphics/Sourcery_CodeBench_Lite_for_ARM_EABI/lib/gcc/arm-none-eabi/4.8.
 1145              		.file 3 "/home/alex/MentorGraphics/Sourcery_CodeBench_Lite_for_ARM_EABI/arm-none-eabi/include/stdi
 1146              		.file 4 "../../../os/common/ports/ARMCMx/compilers/GCC/chtypes.h"
 1147              		.file 5 "../../../os/rt/include/chsystypes.h"
 1148              		.file 6 "../../../os/rt/include/chschd.h"
 1149              		.file 7 "../../../os/common/ports/ARMCMx/chcore.h"
 1150              		.file 8 "../../../os/common/ports/ARMCMx/chcore_v7m.h"
 1151              		.file 9 "../../../os/rt/include/chtm.h"
 1152              		.file 10 "../../../os/rt/include/chsem.h"
 1153              		.file 11 "../../../os/rt/include/chmtx.h"
 1154              		.file 12 "../../../os/common/oslib/include/chmemcore.h"
 1155              		.file 13 "../../../os/common/oslib/include/chheap.h"
 1156              		.file 14 "../../../os/common/ext/CMSIS/include/core_cm3.h"