ARM GAS  /tmp/ccSP7ANm.s 			page 1


   1              		.syntax unified
   2              		.cpu cortex-m3
   3              		.fpu softvfp
   4              		.eabi_attribute 20, 1
   5              		.eabi_attribute 21, 1
   6              		.eabi_attribute 23, 3
   7              		.eabi_attribute 24, 1
   8              		.eabi_attribute 25, 1
   9              		.eabi_attribute 26, 1
  10              		.eabi_attribute 30, 2
  11              		.eabi_attribute 34, 1
  12              		.eabi_attribute 18, 4
  13              		.thumb
  14              		.file	"chmemcore.c"
  15              		.text
  16              	.Ltext0:
  17              		.section	.gnu.lto_.jmpfuncs.539428c7be19665e,"",%progbits
  18 0000 789C6362 		.ascii	"x\234cb`b\300\006\270\2404\013\003\003+3\0333;\003\003"
  18      6062C006 
  18      B8A0340B 
  18      03032B33 
  18      1B333B03 
  19 0015 00021E00 		.ascii	"\000\002\036\000+"
  19      2B
  20              		.text
  21              		.section	.gnu.lto_.inline.539428c7be19665e,"",%progbits
  22 0000 789C6362 		.ascii	"x\234cb`b\300\006*\2404\013\003\003+\013#\003\023\313"
  22      6062C006 
  22      2AA0340B 
  22      03032B0B 
  22      230313CB 
  23 0014 027906B6 		.ascii	"\002y\006\266\005\362`\305\254\014\202\002\214L\214"
  23      05F260C5 
  23      AC0C8202 
  23      8C4C8C
  24 0023 8C203688 		.ascii	"\214 6\210`\021\2310\223\021\"\313\366A\217\207\201"
  24      60119930 
  24      931122CB 
  24      F6418F87 
  24      81
  25 0034 E9023F0B 		.ascii	"\351\002?\013H\216\215AX\210\221\011\254\004\254\230"
  25      488E8D41 
  25      58889109 
  25      AC04AC98 
  26 0044 4562C30E 		.ascii	"Eb\303\0164u\034 u\354\014l\254@+\200bp+\030\000\354"
  26      34751C20 
  26      75EC0C6C 
  26      AC402B80 
  26      62702B18 
  27 005a 3A0CF7   		.ascii	":\014\367"
  28              		.text
  29              		.section	.gnu.lto_.pureconst.539428c7be19665e,"",%progbits
  30 0000 789C6362 		.ascii	"x\234cb`b\340d\200\000\026\006\011V\0116+v\026\000\003"
  30      6062E064 
  30      80001606 
  30      09560936 
  30      2B761600 
ARM GAS  /tmp/ccSP7ANm.s 			page 2


  31 0015 380092   		.ascii	"8\000\222"
  32              		.text
  33              		.section	.gnu.lto__core_init.539428c7be19665e,"",%progbits
  34 0000 789C7D4E 		.ascii	"x\234}N?K\303@\024\177\277\213\005\007\005Wq\021\235"
  34      3F4BC340 
  34      147FBF8B 
  34      05070557 
  34      71119D
  35 0013 044976DD 		.ascii	"\004Iv\335\365\013T\320\351Hc\240\001\257\221ft\350"
  35      F50B54D0 
  35      E94863A0 
  35      01AF9166 
  35      74E8
  36 0025 8B8A7411 		.ascii	"\213\212t\021\342 \202\235\212\270\252\233\203P2uS\020"
  36      E220829D 
  36      8AB8AA9B 
  36      83503275 
  36      5310
  37 0037 FD0071F7 		.ascii	"\375\000q\367\023t\360\274\344j\221\202>\356\336{\367"
  37      1374F0BC 
  37      E46A9182 
  37      3EEEDE7B 
  37      F7
  38 0048 DEFDFE08 		.ascii	"\336\375\376\010\0224\035\213\346n\203h\313T8\004\221"
  38      12341D8B 
  38      E66E8368 
  38      CB543804 
  38      91
  39 0059 BD10A5B3 		.ascii	"\275\020\245\263\002(\033\002u\004:{\250\376\336\213"
  39      02281B02 
  39      75043A7B 
  39      A8FEDE8B 
  40 0069 BCD0FA6E 		.ascii	"\274\320\372n0\274\372DO\314\230I\215N\231\263\345\025"
  40      30BCFA44 
  40      4FCC9849 
  40      8D4E99B3 
  40      E515
  41 007b EA7391E5 		.ascii	"\352s\221\345og\227\340\017\276\340/\255\021\301\250"
  41      6F6797E0 
  41      0FBEE02F 
  41      AD11C1A8 
  42 008b AD83024C 		.ascii	"\255\203\002L\264|\334`\342`\214y\0372\343!\357\262"
  42      B47CDC60 
  42      E2608C79 
  42      1F32E321 
  42      EFB2
  43 009d D69D0AB2 		.ascii	"\326\235\012\2621\005\271\305/\323vS7\271t\267cV\246"
  43      3105B9C5 
  43      2FD37653 
  43      37B974B7 
  43      6356A6
  44 00b0 3ACF743C 		.ascii	":\317t<:y<_\362\321G\215zt\2352/D\300\021\215\270[v"
  44      3A793C5F 
  44      F2D1478D 
  44      7A749D32 
  44      2F44C011 
  45 00c8 4255B85D 		.ascii	"BU\270]c\312\222\331\015oFp\024\254ZE\362\364?\211\370"
ARM GAS  /tmp/ccSP7ANm.s 			page 3


  45      63CA92D9 
  45      0D6F4670 
  45      14AC5A45 
  45      F2F43F89 
  46 00dd 9BC4A946 		.ascii	"\233\304\251F\257\224\026\203UK\361\023u#`\\\226\230"
  46      AF941683 
  46      554BF113 
  46      7523605C 
  46      9698
  47 00ef 35D7F5EC 		.ascii	"5\327\365\354\211\023/\210\225\212[\246;\210\032^\322"
  47      89132F88 
  47      958A5BA6 
  47      3B881A5E 
  47      D2
  48 0100 0EBCA0A9 		.ascii	"\016\274\240\251B\025\304\355\320\015h^\312f\350\037"
  48      4215C4ED 
  48      D00D685E 
  48      CA66E81F 
  49 0110 CA869F84 		.ascii	"\312\206\237\204R\316\215_ak_\312o\216\225o\014"
  49      52CE8D5F 
  49      616B5FCA 
  49      6F8E956F 
  49      0C
  50              		.text
  51              		.section	.gnu.lto_chCoreAllocAlignedI.539428c7be19665e,"",%progbits
  52 0000 789C9D54 		.ascii	"x\234\235TMh\023Q\020\236yo\263I\363\323$\255\012\361"
  52      4D681351 
  52      109E796F 
  52      B349F3D3 
  52      24AD0AF1 
  53 0014 62E94D90 		.ascii	"b\351M\220D[\364\344\301\253W\261\240\240\207v\0151"
  53      445BF4E4 
  53      C1AB57B1 
  53      A0A08776 
  53      0D31
  54 0026 E026D2F6 		.ascii	"\340&\322\366 x\350K\267\320\372\203\011\342E\275\264"
  54      2078E84B 
  54      B7D0FA83 
  54      09E245BD 
  54      B4
  55 0037 88D85245 		.ascii	"\210\330RE\360$\0045\007Q+*z\024/\201R\020\024\321\233"
  55      F0240435 
  55      07512B2A 
  55      7A142F81 
  55      521014D1 
  56 004c B4E23AF3 		.ascii	"\264\342:\363\266\273m\322\242\301\307\356\314{\337"
  56      B6BB6DD2 
  56      A2C1C7EE 
  56      CC7BDF
  57 005b CC37336F 		.ascii	"\31473o2Y\001\002\332\327 \275\207\015\200\323\2441"
  57      32590102 
  57      DAD720BD 
  57      870D80D3 
  57      A431
  58 006d 04286AEF 		.ascii	"\004(j\357\000*\021!\214\317aPQ9\377\002@\305%\032\036"
  58      002A1121 
  58      8CCF6150 
ARM GAS  /tmp/ccSP7ANm.s 			page 4


  58      5139FF02 
  58      40C5251A 
  59 0082 6E20F206 		.ascii	"n \362\006\020&\2044p\342$r\020\263\037\346\224\272"
  59      10268434 
  59      70E22472 
  59      10B31FE6 
  59      94BA
  60 0094 DE5C597D 		.ascii	"\336\\Y}/n\336hL\315\252_\256\213XDJ\270\017\301B8A"
  60      2F6EDE68 
  60      4CCDAA5F 
  60      AE8B5844 
  60      4AB80FC1 
  61 00ab 07ECD34A 		.ascii	"\007\354\323J\030\255\025x\\\365h^ui\236,\242\024p\250"
  61      18AD1578 
  61      5CF5685E 
  61      75699E2C 
  61      A21470A8 
  62 00bf 335AE3D3 		.ascii	"3Z\343\323\364\325\314\345\331\311\232\372M\031u\302"
  62      F4D5CCE5 
  62      D9C99AFA 
  62      4D1975C2 
  63 00cf 23FF97F0 		.ascii	"#\377\227\360h\207\011\177\274\254f^\267$<\266-\323"
  63      6887097F 
  63      BCAC665E 
  63      B7243CB6 
  63      2DD3
  64 00e1 C62DD4FA 		.ascii	"\306-\324\372\364\265\214j\241\236\372W\322\207\242"
  64      F4B58C6A 
  64      A19EFA57 
  64      D287A2
  65 00f0 D174DD37 		.ascii	"\321t\3357\365\346\362\032\246w\"\024\321\220h#\032"
  65      F5E6F21A 
  65      A6772214 
  65      D1906823 
  65      1A
  66 0101 2444888E 		.ascii	"$D\210\216\322d\021f\021\241\234\"\012\3038\207\375"
  66      D2641166 
  66      11A19C22 
  66      0AC33887 
  66      FD
  67 0112 10237D87 		.ascii	"\020#}\207t\234-\011\026\335,\222\004/\022\234\"}\227"
  67      749C2D09 
  67      16DD2C92 
  67      042F129C 
  67      227D97
  68 0125 749AF43D 		.ascii	"t\232\364=\322=l\354\245\303\002\035h\205`J\251Z\237"
  68      D23D6CEC 
  68      A5C3021D 
  68      6885604A 
  68      A95A9F
  69 0138 E76CA304 		.ascii	"\347l\243\004\256\223\326q\222<\000C(X\313\267\340\314"
  69      AE93D671 
  69      923C0043 
  69      2858CBB7 
  69      E0CC
  70 014a 388BD5DD 		.ascii	"8\213\325\335\303\370\200\246\247\200\241\002\312\002"
  70      C3F880A6 
ARM GAS  /tmp/ccSP7ANm.s 			page 5


  70      A780A102 
  70      CA02
  71 0158 D225D820 		.ascii	"\322%\330 }\324$\003\337.\344\322J\002['\027\002k\270"
  71      7DD42403 
  71      DF2EE4D2 
  71      4A025B27 
  71      17026BB8 
  72 016c C0F18950 		.ascii	"\300\361\211PwF|,\242Ia\200%\020\036Fw#XS\227~\322\234"
  72      77467C2C 
  72      A2496180 
  72      25101E46 
  72      77235853 
  73 0184 F99ED1DB 		.ascii	"\371\236\321\333p\253\242T\212\372y\021V\325\014\357"
  73      70ABA254 
  73      8AFA7911 
  73      56D50CEF 
  74 0194 4CAFF99C 		.ascii	"L\257\371\234\322\\o$\321\276\005\031cDk+1\256\013\217"
  74      D25C6F24 
  74      D1BE0519 
  74      63446B2B 
  74      31AE0B8F 
  75 01a8 B5A10932 		.ascii	"\265\241\0112p\024\271Q\270S\017\254\335\272\366\204"
  75      7014B951 
  75      B8530FAC 
  75      DDBAF684 
  76 01b8 0EFEC5D9 		.ascii	"\016\376\305\331\345\303I\262l*\334\353!\301^\355\217"
  76      E5C349B2 
  76      6C2ADCEB 
  76      21C15EED 
  76      8F
  77 01c9 D71AE87B 		.ascii	"\327\032\350{\246\266\257\335\370[\355i\242\351:.9O"
  77      A6B6AFDD 
  77      F85BED69 
  77      A2E93A2E 
  77      394F
  78 01db 83403D1A 		.ascii	"\203@=\032\247\254\257\340\371J%\261\011\216l\314\322"
  78      A7ACAFE0 
  78      F94A25B1 
  78      098E6CCC 
  78      D2
  79 01ec 10B599FE 		.ascii	"\020\265\231\376\316\374\233]q\226\253{|\257^]\362z"
  79      CEFC9B5D 
  79      7196AB7B 
  79      7CAF5E5D 
  79      F27A
  80 01fe 6BBF9B1E 		.ascii	"k\277\233\036\334IW\211\352G6\3644|\240/\004\303\332"
  80      DC495789 
  80      EA4736F4 
  80      347CA02F 
  80      04C3DA
  81 0211 EF2320BB 		.ascii	"\357# \273\322e\304\327';(\207\274\377,\316\023\204"
  81      D265C4D7 
  81      273B2887 
  81      BCFF2CCE 
  81      1384
  82 0223 ECCB5FA2 		.ascii	"\354\313_\242\275\331l\316{\312c9\253l\333\345\022\355"
  82      BDD96CCE 
ARM GAS  /tmp/ccSP7ANm.s 			page 6


  82      7BCA6339 
  82      AB6CDBE5 
  82      12ED
  83 0235 CE154772 		.ascii	"\316\025Grc\243V\316:k\347m\253<\232\317Z\320U\312_"
  83      63A356CE 
  83      3A6BE76D 
  83      AB3C9ACF 
  83      5AD055CA 
  84 024a 18A76376 		.ascii	"\030\247cv\177\260;\020\311\227\316\360f\300\337\014"
  84      7FB03B10 
  84      C997CEF0 
  84      66C0DF0C 
  85 025a 06B68378 		.ascii	"\006\266\203x\376\017\315n\030\346"
  85      FE0FCD6E 
  85      18E6
  86              		.text
  87              		.section	.gnu.lto_chCoreAllocAligned.539428c7be19665e,"",%progbits
  88 0000 789C9D54 		.ascii	"x\234\235T]h\024W\024>\347\316l\366'\177\233\304\024"
  88      5D681457 
  88      143EE7CE 
  88      6CF6277F 
  88      9BC414
  89 0013 221217A1 		.ascii	"\"\022\027\241\017\205\270k\032\304'\241E(\364!\024"
  89      0F85B86B 
  89      1AC427A1 
  89      4528F421 
  89      14
  90 0024 8C823EC9 		.ascii	"\214\202>\311d\0346\013\331\335\260\023E\355\203w\263"
  90      641C360B 
  90      D9DDB013 
  90      45ED8377 
  90      B3
  91 0035 4A4C2B26 		.ascii	"JL+&-\025K\253\250h4A%\032)\330F\355>H\324\224FK\021"
  91      2D154BAB 
  91      A8683441 
  91      251A29D8 
  91      46ED3E48 
  92 004e 11111602 		.ascii	"\021\021\026\002\376\240-\372\324\220\332\216\347\316"
  92      FEA02DFA 
  92      D490DA8E 
  92      E7CE
  93 005c DD99DD8D 		.ascii	"\335\231\335\215\213\033\034v\357\271\367\234\373\235"
  93      8B1B1C76 
  93      EFB9F79C 
  93      FB9D
  94 006a EF3B77EE 		.ascii	"\357;w\356\031\006\014\026?\035\364\017z\001\002\010"
  94      19060C16 
  94      3F1DF40F 
  94      7A010208 
  95 007a 801E4036 		.ascii	"\200\036@62\013\220\3661\246>\365\002\017(c\323\000"
  95      320B90F6 
  95      31A63EF5 
  95      020F2863 
  95      D300
  96 008c BC464155 		.ascii	"\274FAU\372UD1\001\204\275LQq\357V\024I\274\253\340"
  96      FA554431 
  96      0184BD4C 
ARM GAS  /tmp/ccSP7ANm.s 			page 7


  96      5171EF56 
  96      1449BCAB 
  97 00a1 24E7DFE6 		.ascii	"$\347\337\346F\317\374\334\302O\014\214\360\377-\013"
  97      46CFFCDC 
  97      C24F0C8C 
  97      F0FF2D0B 
  98 00b1 6348746D 		.ascii	"cHtm\010:\302\026Z`\3106L-\345\227\310\354\324\340\241"
  98      083AC216 
  98      5A60C836 
  98      4C2DE597 
  98      C8ECD4E0 
  99 00c6 62A4C2A0 		.ascii	"b\244\302\240}\211\310W7\207[fJ\220\035e\221q|\013\372"
  99      7D89C857 
  99      37875B66 
  99      4A901D65 
  99      91717C0B 
 100 00db 70F060CB 		.ascii	"p\360`\313W\005\250\312`\375\322H\371\344\030\367\237"
 100      5705A8CA 
 100      60FDD248 
 100      F9E418F7 
 100      9F
 101 00ec E0AF2D4B 		.ascii	"\340\257-K\261\031?[\242\326\373\203\207\027\021~\361"
 101      B1193F5B 
 101      A2D6FB83 
 101      8717117E 
 101      F1
 102 00fd 7E845B2B 		.ascii	"~\204[+\301&X6gYG\377\274:7\216\215\313\025\214#\252"
 102      C1265836 
 102      675947FF 
 102      BC3A378E 
 102      8DCB158C 
 103 0113 34302F10 		.ascii	"40/\020\255O\014~1\004@\303\223\270\012\252\311^ [C"
 103      AD4F0C7E 
 103      310440C3 
 103      93B80AAA 
 103      C95E205B 
 104 0128 F61CD95A 		.ascii	"\366\034\331Z\021\254\023C\275\030\202\344>E\356\006"
 104      11AC1343 
 104      BD1882E4 
 104      3E45EE06 
 105 0138 B2E3641B 		.ascii	"\262\343d\033\311\236%\333$\202\313h1J\213fZx\210\332"
 105      C99E25DB 
 105      2482CB68 
 105      314A8B66 
 105      5A7888DA 
 106 014c 03FB381F 		.ascii	"\003\3738\037\011\345K\376i\346`\361\213\365hx\032Y"
 106      09E54BFE 
 106      69E660F1 
 106      8BF56878 
 106      1A59
 107 015e 05F120E2 		.ascii	"\005\361 \342\364l\242Q\334\266\315\204 \253\334\206"
 107      F46CA251 
 107      DCB6CD84 
 107      20ABDC86 
 108 016e 019F7322 		.ascii	"\001\237s\"\271#\203\367Z\316Or>\224\345\363\026\212"
 108      B92383F7 
 108      5ACE4F72 
ARM GAS  /tmp/ccSP7ANm.s 			page 8


 108      3E94E5F3 
 108      168A
 109 0180 73A962F0 		.ascii	"s\251b\360\015V:\030\341\253\012\321d\026\006^M\354"
 109      0D563A18 
 109      E1AB0AD1 
 109      6416065E 
 109      4DEC
 110 0192 3FB33C2F 		.ascii	"?\263</\327\321\235\2358\364KS\232d^\242\222\\\347\223"
 110      D7D19D9D 
 110      38F44B53 
 110      9A645EA2 
 110      925CE793 
 111 01a6 A3F3D52B 		.ascii	"\243\363\325+\334\325\320,\365\221\206\023T\256n\023"
 111      DCD5D02C 
 111      F5918613 
 111      54AE6E13 
 112 01b6 8A8214B0 		.ascii	"\212\202\024\260\333\002\341\031M)\256\310fk\205\005"
 112      DB02E119 
 112      4D29AEC8 
 112      666B8505 
 113 01c6 3CC6BFFF 		.ascii	"<\306\277\377$\206\336\022\372B\374\277|\334'\005\312"
 113      2486DE12 
 113      FA42FCBF 
 113      7CDC2705 
 113      CA
 114 01d7 22E56B89 		.ascii	"\"\345k\211\212\254\305Ug/\317\374\206t\035\322/-\253"
 114      8AACC555 
 114      672FCFFC 
 114      86741DD2 
 114      2F2DAB
 115 01ea DEBE40FB 		.ascii	"\336\276@\373Y\245\212\243H\216\337!s sn\330\251V\276"
 115      59A58AA3 
 115      488EDF21 
 115      7320736E 
 115      D8A956BE 
 116 01fe 4EA720FE 		.ascii	"N\247 \376\317wT\360U\362H\332Bq\252L\340%!%i4\274N"
 116      CF7754F0 
 116      55F248DA 
 116      4271AA4C 
 116      E0252125 
 117 0216 F128FA28 		.ascii	"\361(\372(&8\301\242\247\036\304\206\201q\305\211\372"
 117      2638C1A2 
 117      A71EC486 
 117      8171C589 
 117      FA
 118 0227 1DCC54A6 		.ascii	"\035\314T\246\333\361\005l\220_\224\305\244\317)5`\243"
 118      DBF1056C 
 118      905F94C5 
 118      A4CF2935 
 118      60A3
 119 0239 6FCF2FDC 		.ascii	"o\317/\334e\316\346\352\037\341\2074\347A\272\363_\302"
 119      65CEE6EA 
 119      1FE18734 
 119      E741BAF3 
 119      5FC2
 120 024b 023F2066 		.ascii	"\002? f~\331\310\202\325\237\257\220`\177\273\2445\004"
 120      7ED9C882 
ARM GAS  /tmp/ccSP7ANm.s 			page 9


 120      D59FAF90 
 120      607FBBA4 
 120      3504
 121 025d 93425D57 		.ascii	"\223B]W-\351\240\300\"o\035\005D\026\265\240=3\345F"
 121      2DE9A0C0 
 121      226F1D05 
 121      4416B5A0 
 121      3D33E546 
 122 0271 EB6DF975 		.ascii	"\353m\371uv\362\347\231\017\034w\220\"%\332O\331\332"
 122      76F2E799 
 122      0F1C7790 
 122      2225DA4F 
 122      D9DA
 123 0283 8352FB95 		.ascii	"\203R\373\225\177\263\350\354l(\257]y\227\366F\202\331"
 123      7FB3E8EC 
 123      6C28AF5D 
 123      7997F646 
 123      82D9
 124 0295 3A8632D7 		.ascii	":\2062\327\335DM\266\237Xo\301\215\307\351\332\242\203"
 124      DD444DB6 
 124      9F586FC1 
 124      8DC7E9DA 
 124      A283
 125 02a7 6C2ABCE4 		.ascii	"l*\274\344\315\224\230>\325\012a\277\316\314\015\257"
 125      CD94983E 
 125      D50A61BF 
 125      CECC0DAF 
 126 02b7 74762DB3 		.ascii	"tv-\263%\347\217\366e\225t/\345T\011\352dV\235\346\313"
 126      25E78FF6 
 126      6595742F 
 126      E55409EA 
 126      64569DE6 
 127 02cc 1D1B4579 		.ascii	"\035\033Ey34\274h\337\223\322\333I=\371\327\342\236"
 127      3334BC68 
 127      DF93D2DB 
 127      493DF9D7 
 127      E29E
 128 02de D470B262 		.ascii	"\324p\262b\277\333M\001\357\354\311GvON\227\366\344"
 128      BFDB4D01 
 128      EFECC947 
 128      764F4E97 
 128      F6E4
 129 02f0 F1DA56F7 		.ascii	"\361\332V\367sSh\316;E\315\351\221\037\223\2522\375"
 129      735368CE 
 129      3B45CDE9 
 129      911F93AA 
 129      32FD
 130 0302 A9E1159A 		.ascii	"\251\341\025\232\270\324N?j8\205\255R\326\037\220\316"
 130      B8D44E3F 
 130      6A3885AD 
 130      52D61F90 
 130      CE
 131 0313 8D193255 		.ascii	"\215\0312U\024\233\205\353\0014\013\004\245e/\256\211"
 131      149B85EB 
 131      01340B04 
 131      A5652FAE 
 131      89
ARM GAS  /tmp/ccSP7ANm.s 			page 10


 132 0324 B355CEFF 		.ascii	"\263U\316\377Z#>T(\316H$\370(\034\216\310_\322\214\350"
 132      5A233E54 
 132      28CE4824 
 132      F8281C8E 
 132      C85FD28C 
 133 0339 C9783C99 		.ascii	"\311x<\231\240Yo\254;b\246\364\210\336\0237\342z2e\204"
 133      A0596FAC 
 133      3B62A6F4 
 133      88DE1337 
 133      E27A3265 
 134 034e 7550CDD8 		.ascii	"uP\315\330\036\003\373\374\011cW?y\303k}Fb\273\230t"
 134      1E03FBFC 
 134      0963573F 
 134      79C36B7D 
 134      4662BB98 
 135 0363 38938FDD 		.ascii	"8\223\217\335X\273;[\263\272\014A_2\325oF>\335\330\271"
 135      58BB3B5B 
 135      B3BA0C41 
 135      5F32D56F 
 135      463EDDD8 
 136 0378 A1731771 		.ascii	"\241s\027q\010\202m;\327\305\303=\340\331\251\365\356"
 136      08826D3B 
 136      D7C5C33D 
 136      E0D9A9F5 
 136      EE
 137 0389 30DACB60 		.ascii	"0\332\313`(_dCg\327\347]\221XB\357\335\261\335\210\350"
 137      285F6443 
 137      67D7E75D 
 137      915842EF 
 137      DDB1DD88 
 138 039e 7133666E 		.ascii	"q3fn\213\352:\341V\026#R\375\205==\346n\223\342\301"
 138      8BEA3AE1 
 138      56162352 
 138      FD853D3D 
 138      E66E93E2 
 139 03b3 CEAE8DA1 		.ascii	"\316\256\215\241n\3154\372R\261\266\320\207k\200\245"
 139      6ECD34FA 
 139      52B1B6D0 
 139      876B80A5 
 140 03c3 C04BFA92 		.ascii	"\300K\372\222\251\335\340\321zc\321\304\033,\264\366"
 140      A9DDE0D1 
 140      7A63D1C4 
 140      1B2CB4F6 
 141 03d3 1F       		.ascii	"\037"
 142              		.text
 143              		.section	.gnu.lto_chCoreGetStatusX.539428c7be19665e,"",%progbits
 144 0000 789C9D52 		.ascii	"x\234\235R\277K\303@\030\375\276\273\\\233.\"N\272\225"
 144      BF4BC340 
 144      18FDBEBB 
 144      5C9B2E22 
 144      4EBA95
 145 0013 6E822493 		.ascii	"n\202$\223\277\026g\035\205\012:\326\030j\301$\320:"
 145      BF16671D 
 145      850A3AD6 
 145      186AC124 
 145      D03A
 146 0025 080EBDDA 		.ascii	"\010\016\275\332\016\272\225\342b],RT\020\012Nnvu\250"
ARM GAS  /tmp/ccSP7ANm.s 			page 11


 146      0EBA95E2 
 146      625D2C52 
 146      54100A4E 
 146      6E7675A8 
 147 0039 D0C9B5CE 		.ascii	"\320\311\265\316\202\177\200\024\342wW\023\250\210\212"
 147      827F8014 
 147      E2775713 
 147      A8888A
 148 0048 4772EFBB 		.ascii	"Gr\357\273\227{\357}w\204\001\203\257c\206\336i\242"
 148      977BEF7D 
 148      77840183 
 148      AF6386DE 
 148      69A2
 149 005a D7099103 		.ascii	"\327\011\221\003\262\372\023@\305d\210\252\000\2042"
 149      B2FA1340 
 149      C56488AA 
 149      008432
 150 0069 C3F216AA 		.ascii	"\303\362\026\252\255F\006ZR6\006\355N\237\237\235vk"
 150      AD46065A 
 150      523606ED 
 150      4E9F9F9D 
 150      766B
 151 007b 17721886 		.ascii	"\027r\030\206\210\005$\3339\004\007a\223\026\230\326"
 151      880524DB 
 151      39040761 
 151      931698D6 
 152 008b C08CF11C 		.ascii	"\300\214\361\034\255\255\313\273k\231\322:^@\316`\376"
 152      ADADCBBB 
 152      6B99D23A 
 152      5E40CE60 
 152      FE
 153 009c 4FB2C698 		.ascii	"O\262\306\230\214\322V\376\227\266\372\233\254\303\272"
 153      8CD256FE 
 153      97B6FA9B 
 153      ACC3BA
 154 00ab 8330BC7D 		.ascii	"\2030\274}\036\276<\340\224\311 \207-\314\000'\274$"
 154      1EBE3CE0 
 154      94C92087 
 154      2DCC0027 
 154      BC24
 155 00bd 3408DB84 		.ascii	"4\010\333\204\202\360\2120\001\344\232\244I\271\010"
 155      82F08A30 
 155      01E49AA4 
 155      49B908
 156 00cc A851621A 		.ascii	"\250Qb\032T\002\215,\315\352\0027\220)\344=8z\274\247"
 156      54028D2C 
 156      CDEA0237 
 156      9029E43D 
 156      387ABCA7 
 157 00e0 7BCBE10D 		.ascii	"{\313\341\015\012\310#;\207fE\312I:\316!\274\313cU\011"
 157      0AC8233B 
 157      876645CA 
 157      493ACE21 
 157      BCCB6355 
 158 00f5 4F4B5563 		.ascii	"OKUc\342\263!\222\275\306\032N2M\255E\214\361\275\013"
 158      E2B32192 
 158      BDC61A4E 
ARM GAS  /tmp/ccSP7ANm.s 			page 12


 158      324DAD45 
 158      8CF1BD0B 
 159 0109 FEE422F2 		.ascii	"\376\344\"\362\252\337\036TOb*\241\275\205\336\370V"
 159      AADF1E54 
 159      4F622AA1 
 159      BD85DEF8 
 159      56
 160 011a 9D88E824 		.ascii	"\235\210\350$}\001\350\003\306\304\310.K\001t&\365/"
 160      7D01E803 
 160      C6C4C82E 
 160      4B017426 
 160      F52F
 161 012c CD5A963D 		.ascii	"\315Z\226=z\202\222\355\004\236\027\370T\355\025\266"
 161      7A8292ED 
 161      049E17F8 
 161      54ED15B6 
 162 013c ED52D1B1 		.ascii	"\355R\321\261\235]\317\365\234\240\350Z\016\230\256"
 162      9D5DCFF5 
 162      9CA0E85A 
 162      0E98AE
 163 014b BF432B6B 		.ascii	"\277C+k!*\026S\276{\260\257\252\245\270Z\376\000\336"
 163      212A1653 
 163      BE7BB0AF 
 163      AAA5B85A 
 163      FE00DE
 164 015e B592CE   		.ascii	"\265\222\316"
 165              		.text
 166              		.section	.gnu.lto_.symbol_nodes.539428c7be19665e,"",%progbits
 167 0000 789C4DCA 		.ascii	"x\234M\312\313\015\2000\020\003Q\333\3136I3\276\346"
 167      CB0D8030 
 167      100351DB 
 167      CB364933 
 167      BEE6
 168 0012 480514C2 		.ascii	"H\005\024\302'\220\006\250\011\220\220\302\334\2364"
 168      279006A8 
 168      099090C2 
 168      DC9E34
 169 0021 8230E24B 		.ascii	"\2020\342K\033\015L\027`\317\205\271\020\203#O\022F"
 169      1B0D4C17 
 169      60CF85B9 
 169      1083234F 
 169      1246
 170 0033 AED4ABC6 		.ascii	"\256\324\253\306x\244\235f_Ui\375x\320\321\211\033."
 170      78A49D66 
 170      5F5569FD 
 170      78D0D189 
 170      1B2E
 171 0045 69188D   		.ascii	"i\030\215"
 172              		.text
 173              		.section	.gnu.lto_.refs.539428c7be19665e,"",%progbits
 174 0000 789C25C6 		.ascii	"x\234%\306\301\015\0000\010\303@'\001:G\367_\262\225"
 174      C10D0030 
 174      08C34027 
 174      013A47F7 
 174      5FB295
 175 0013 F0E76CCC 		.ascii	"\360\347l\314e+$[q\245\021\2212\253\017\371\367\000"
 175      652B245B 
ARM GAS  /tmp/ccSP7ANm.s 			page 13


 175      71A51191 
 175      32AB0FF9 
 175      F700
 176 0025 0A740064 		.ascii	"\012t\000d"
 177              		.text
 178              		.section	.gnu.lto_.decls.539428c7be19665e,"",%progbits
 179 0000 789CA556 		.ascii	"x\234\245Vml\024E\030\236\331\273\366\356\350\201(J"
 179      6D6C1445 
 179      189ED9BB 
 179      F6EEE881 
 179      284A
 180 0012 4AFC5130 		.ascii	"J\374Q0b\"\221\333\340G\204?`i\0104\241\206\320\220"
 180      622291DB 
 180      E047843F 
 180      60690834 
 180      A186D090 
 181 0026 F0CBCDB2 		.ascii	"\360\313\315\262\335r\027\356v\311\355\036\266\376a"
 181      DD7217EE 
 181      76C9ED1E 
 181      B6FE61
 182 0035 CA472368 		.ascii	"\312G#hBEH0Dr\005\212\020\203@Q\001\005=A\372E\264-"
 182      42454830 
 182      4472058A 
 182      10834051 
 182      01053D41 
 183 004d D2042986 		.ascii	"\322\004)\206\243JLD\260j\014!Q\317wvgo?\272WJ\234\360"
 183      A34A4C44 
 183      B06A0C21 
 183      51CF7776 
 183      676F3FBA 
 184 0065 96B99D79 		.ascii	"\226\271\235y\337\347y\277f\206C\034\332\205\021*\300"
 184      DFE779BF 
 184      6686431C 
 184      DA85112A 
 184      C0
 185 0076 C85620D4 		.ascii	"\310V \324\304!T\206\020Z\210\354\021\004i\0079\004"
 185      C4215486 
 185      105A88EC 
 185      11046907 
 185      3904
 186 0088 7212E434 		.ascii	"r\022\3444\373v\026\344<\310E\220n\344\036\355l\317"
 186      FB7616E4 
 186      3CC84590 
 186      6EE41EED 
 186      6CCF
 187 009a 05907320 		.ascii	"\005\220s \275 }l\015;\326\307\263A\361BL\177\012H\024"
 187      BD207D6C 
 187      0D3BD6C7 
 187      B341F142 
 187      4C7F0A48 
 188 00af 99DC1681 		.ascii	"\231\334\026\201\034a6-{\207\330\032\265w\034\344#\220"
 188      1C61362D 
 188      7B87D81A 
 188      B5771CE4 
 188      2390
 189 00c1 4BCCAE73 		.ascii	"K\314\256sP\376\223\230\276e\363\234\303\356\020\310"
 189      50FE9398 
ARM GAS  /tmp/ccSP7ANm.s 			page 14


 189      BE65F39C 
 189      C3EE10C8 
 190 00d1 55906B0E 		.ascii	"U\220k\016\373!\246w\035\344\006\310\010\303\273\015"
 190      FB21A677 
 190      1DE406C8 
 190      08C3BB0D 
 191 00e1 72D7E1C7 		.ascii	"r\327\341\307' \237\372`\322x\225{\374\010\372\370@"
 191      27209FFA 
 191      60D27895 
 191      7BFC08FA 
 191      F840
 192 00f3 F7714CFF 		.ascii	"\367qL\377\254\307F\025\332G\262\371\374\255\237\217"
 192      ACC74615 
 192      DA47B2F9 
 192      FCAD9F8F 
 193 0103 CF20D94D 		.ascii	"\317 \331M\271Ba\021\232\216v\023\030\331VB\260.\342"
 193      B9426111 
 193      9A8E7613 
 193      18D95642 
 193      B02EE2
 194 0116 854FA0D5 		.ascii	"\205O\240\325X\304S\"h\2461\211F\014\020\204D\274\037"
 194      58C45322 
 194      68A63189 
 194      460C1084 
 194      44BC1F
 195 0129 4F67B355 		.ascii	"Og\263U\001\323\034\207\236\303h\016:\002\372m\204\214"
 195      01D31C87 
 195      9EC3680E 
 195      3A02FA6D 
 195      848C
 196 013b 3C89FCC6 		.ascii	"<\211\374\3063\250\203\002\220\303$`\230\247\006\332"
 196      33A88302 
 196      90C32460 
 196      98A706DA 
 197 014b 7195738B 		.ascii	"q\225s\213\210\017`\316\3133?\232;\323}\011\223\235"
 197      880F60CE 
 197      CB333F9A 
 197      3BD37D09 
 197      939D
 198 015d E4EF4261 		.ascii	"\344\357Bas\330KtQEI\242\0370\242\001#\016(\202\336"
 198      73D84B74 
 198      514549A2 
 198      1F30A201 
 198      230E2882 
 199 0172 24641355 		.ascii	"$d\023U\\\326\003\201\363\323\232\215\016\202\013\371"
 199      5CD60381 
 199      F3D39A8D 
 199      0E820BF9 
 200 0182 7F4EBCCF 		.ascii	"\177N\274\317\023\022\026\361\021\034\001\335\0171\006"
 200      131216F1 
 200      111C01DD 
 200      0F3106
 201 0191 6B07F19C 		.ascii	"k\007\361\234\"\315\262\210\2336\374\2666Pk\3062\233"
 201      22CDB288 
 201      9B36FCB6 
 201      36506BC6 
 201      329B
ARM GAS  /tmp/ccSP7ANm.s 			page 15


 202 01a3 D05678A4 		.ascii	"\320Vx\244\310\301R\265cg\204\257\323\203\3604:@\310"
 202      C8C152B5 
 202      636784AF 
 202      D383F034 
 202      3A40C8
 203 01b6 CEFCD67B 		.ascii	"\316\374\326{\003\301\367H.h\021\3512\266\035\202\240"
 203      03C1F748 
 203      2E6811E9 
 203      32B61D82 
 203      A0
 204 01c7 F9913777 		.ascii	"\371\2217w1]\362\235\274\314\000\343\320\245\007h\231"
 204      315DF29D 
 204      BCCC00E3 
 204      D0A50768 
 204      99
 205 01d8 8C8CF46C 		.ascii	"\214\214\364l\"\307Z\267N\015\032QE\343(1\267\217\372"
 205      22C75AB7 
 205      4E0D1A51 
 205      45E32831 
 205      B78FFA
 206 01eb 66ABB32F 		.ascii	"f\253\263/\332\326\222/\024\252\314\014ph\320\327;\362"
 206      DAD6922F 
 206      14AACC0C 
 206      7068D0D7 
 206      3BF2
 207 01fd 2E654829 		.ascii	".eH)\213\370\030\030\022\361\311\01196\310\034\023\361"
 207      8BF81818 
 207      12F1C909 
 207      3936C81C 
 207      13F1
 208 020f 8907688D 		.ascii	"\211\007h\215\343X)%\346\330\307c\035\313\346s\177m"
 208      E3582925 
 208      E6D8C763 
 208      1DCBE673 
 208      7F6D
 209 0221 7FDB6A97 		.ascii	"\177\333j\227\260\247\012)\301Rex\306\247_~\362\204"
 209      B0A70A29 
 209      C1526578 
 209      C6A75F7E 
 209      F284
 210 0233 A448B3F3 		.ascii	"\244H\263\3630\2110\177a\303\351\361i~\346\246\371\024"
 210      3089307F 
 210      61C3E9F1 
 210      697EE6A6 
 210      F914
 211 0245 6A27E472 		.ascii	"j'\344r\256\320\321K\273\205\214B\341U\240\355v\315"
 211      AED0D14B 
 211      BB858C42 
 211      E155A0ED 
 211      76CD
 212 0257 B306C877 		.ascii	"\263\006\310w\220\312=v\003\204-\303\330n\200\341\035"
 212      90CA3D76 
 212      03842DC3 
 212      D86E80E1 
 212      1D
 213 0268 47CD06F8 		.ascii	"G\315\006\370\302\250\273+\234\267\001\260\247\001\260"
 213      C2A8BB2B 
ARM GAS  /tmp/ccSP7ANm.s 			page 16


 213      9CB701B0 
 213      A701B0
 214 0277 BB0170C4 		.ascii	"\273\001p\304\236\024\260\177\257Q\265s\270\302n\202"
 214      9E14B07F 
 214      AF51B573 
 214      B8C26E82 
 215 0287 EB459452 		.ascii	"\353E\224R\333\277\262\375\245\276\346\333\362\035\277"
 215      DBBFB2FD 
 215      A5BEE6DB 
 215      F21DBF
 216 0296 0C702DE4 		.ascii	"\014p-\344|\013\241\207\003\306\217\2426\232\225\231"
 216      7C0BA187 
 216      03C68FA2 
 216      369A9599 
 217 02a6 7BA698D4 		.ascii	"{\246\230\324m\202\027`\3151 \003\034vy\360\265\333"
 217      6D821760 
 217      CD312003 
 217      1C7679F0 
 217      B5DB
 218 02b8 36C4F19D 		.ascii	"6\304\361\235\256]4\335\204\374\013\246M\256\034\372"
 218      AE5D34DD 
 218      84FC0BA6 
 218      4DAE1CFA 
 219 02c8 E38124BB 		.ascii	"\343\201$\273\274$sC\255\2731\271I,C\224\012\207\356"
 219      BC247343 
 219      ADBB31B9 
 219      492C4394 
 219      0A87EE
 220 02db 7BF07B6C 		.ascii	"{\360{l5W\322L\340R`\275v\000=Z\024\245\224V\237\255"
 220      3557D24C 
 220      E05260BD 
 220      76003D5A 
 220      14A59456 
 221 02f1 45290E0C 		.ascii	"E)\016\014\344\006\273\267\021LZI\013-\032;\212\305"
 221      E406BBB7 
 221      114C5A49 
 221      0B2D1A3B 
 221      8AC5
 222 0303 8AC98D5F 		.ascii	"\212\311\215_1\364\330\347\034\345U\351\277W\304\337"
 222      31F4D8E7 
 222      1CE555E9 
 222      BF57C4DF 
 223 0313 E2D9F0B7 		.ascii	"\342\331\360\267\237\245\206.\365\027k\245\237\025\013"
 223      9FA5862E 
 223      F5176BA5 
 223      9F150B
 224 0322 875A03CE 		.ascii	"\207Z\003\316\330\270\3024\276*\003\315b\013\365qc\263"
 224      D8B8C234 
 224      BE2A03CD 
 224      620BF571 
 224      63B3
 225 0334 B32CFAED 		.ascii	"\263,\372\355N\365n\023\361 \253\022\303\025R\214e\264"
 225      4EF56E13 
 225      F120AB12 
 225      C315528C 
 225      65B4
 226 0346 74735F76 		.ascii	"ts_v\360\211F\354\3114\027kk\027\370\366V\300s\032{"
ARM GAS  /tmp/ccSP7ANm.s 			page 17


 226      F08946EC 
 226      C934176B 
 226      6B17F8F6 
 226      56C0731A 
 227 035b 59C00B8A 		.ascii	"Y\300\013\212\271/\342I\370a\256\255\341\035W~\307P"
 227      B92FE249 
 227      F861AEAD 
 227      E11D577E 
 227      C750
 228 036d AFB03064 		.ascii	"\257\2600d\364\355\376\200\267oC\236\276\015\271\373"
 228      F4EDFE80 
 228      B76F439E 
 228      BE0DB9FB 
 229 037d 3614B127 		.ascii	"6\024\261'\354\342b\261\313\276\342\011\336T\213\000"
 229      ECE262B1 
 229      CBBEE209 
 229      DE548B00 
 230 038d C74C5D7D 		.ascii	"\307L]}\350\330}_\"vV\362K\244m\276\265/\304\354\\{"
 230      E8D87D5F 
 230      227656F2 
 230      4BA46DBE 
 230      B52FC4EC 
 231 03a3 68E4E112 		.ascii	"h\344\341\022\310\345\014\231\036\370\271\321\374\251"
 231      C8E50C99 
 231      1EF8B9D1 
 231      FCA9
 232 03b1 BDF72EE2 		.ascii	"\275\367.\342\235\233I\217q\226f\303\346\333\007n\324"
 232      9D9B498F 
 232      719666C3 
 232      E6DB076E 
 232      D4
 233 03c2 80EFE9ED 		.ascii	"\200\357\351\355y\334\\\367>n~\030{\253\000\310\265"
 233      79DC5CF7 
 233      3E6E7E18 
 233      7BAB00C8 
 233      B5
 234 03d3 7D4333E0 		.ascii	"}C3\340\222\337B\012\205\215\263,\204\315\301\211 \334"
 234      92DF420A 
 234      858DB32C 
 234      84CDC189 
 234      20DC
 235 03e5 F022E47D 		.ascii	"\360\"\344}\021>\037\031]v\277\223\220mp\000ml\3312"
 235      113E1F19 
 235      5D76BF93 
 235      906D7000 
 235      6D6CD932 
 236 03f9 6BE24FBD 		.ascii	"k\342O\275\037\335/(\263\256<o\227/]T\215\235\034\372"
 236      1FDD2F28 
 236      B3AE3C6F 
 236      972F5D54 
 236      8D9D1CFA 
 237 040d 26C89268 		.ascii	"&\310\222h]\332]\321\266bY\016\033\032#%\357\355!l_"
 237      5DDA5DD1 
 237      B662590E 
 237      1B1A2325 
 237      EFED216C 
 238 0422 DC84FCD9 		.ascii	"\334\204\374\331\262\242\262\350\361\210\327\343[\276"
ARM GAS  /tmp/ccSP7ANm.s 			page 18


 238      B2A2B2E8 
 238      F188D7E3 
 238      5BBE
 239 0430 1E9FDA7B 		.ascii	"\036\237\332{\261\313/q7'\024\326\333^\220_K$\356\316"
 239      B1CB2F71 
 239      372714D6 
 239      DB5E905F 
 239      4B24EECE 
 240 0444 D8C4DD99 		.ascii	"\330\304\335\231\020\302]/\302on\004\364l,\306\233\377"
 240      10C25D2F 
 240      C26F6E04 
 240      F46C2CC6 
 240      9BFF
 241 0456 548D97D4 		.ascii	"T\215\227\324TJU`\226L\254\341\265\264\304K\361\224"
 241      544A5560 
 241      964CACE1 
 241      B5B4C44B 
 241      F194
 242 0468 9C92D4B4 		.ascii	"\234\222\324\264\034\223\320$\201N\204\204\222\320\313"
 242      1C93D024 
 242      814E8484 
 242      92D0CB
 243 0477 97BEBA6A 		.ascii	"\227\276\272jf\015J\362q5%\363bRn\342\353dEW\323K\323"
 243      660D4AF2 
 243      713525F3 
 243      62526EE2 
 243      EB644557 
 244 048e E2FA7842 		.ascii	"\342\372xB\322\370z5\223\226\344t\263P\2436\310\213"
 244      D2F87A35 
 244      9396E474 
 244      B350A336 
 244      C88B
 245 04a0 65458A0B 		.ascii	"eE\212\013\313\023\272,4\252i\241ze\235\260\244zq-O"
 245      CB13BA2C 
 245      34AA69A1 
 245      7A659DB0 
 245      A47A712D 
 246 04b5 51D64A12 		.ascii	"Q\326J\022/\246Ss\025U\221\347\312\342\232\004\377b"
 246      2FA65373 
 246      155591E7 
 246      CAE29A04 
 246      FF62
 247 04c7 6C7E6C1E 		.ascii	"l~l\036\237P\244d\246A\3465\275\241An\214\305Q\271\226"
 247      9F50A464 
 247      A641E635 
 247      BDA1416E 
 247      8CC551B9 
 248 04dc 784316F4 		.ascii	"xC\026\364iR\274\006hT'\223\252T\235L\254U\344\206\332"
 248      6952BC06 
 248      68542793 
 248      AA549D4C 
 248      AC55E486 
 249 04f1 205D2A13 		.ascii	" ]*\023\351\257\307\306.O5?-\225\365z]\3243\332\352"
 249      E9AFC7C6 
 249      2E4F353F 
 249      2D95F57A 
 249      5DD433DA 
ARM GAS  /tmp/ccSP7ANm.s 			page 19


 250 0506 D7FE276D 		.ascii	"\327\376'm7]\007\321\204\242\003\321P\006\376\237/\350"
 250      375D07D1 
 250      84A203D1 
 250      5006FE9F 
 250      2FE8
 251 0518 21456ED2 		.ascii	"!En\322!|\223\005!.\213\353\2055\242&\013B\271\2544"
 251      217C9305 
 251      212E8BEB 
 251      8535A226 
 251      0B42B9AC 
 252 052d C0C728FB 		.ascii	"\300\307(\373\010\277\004!(\305\305tX\020\0323\212$"
 252      08BF0421 
 252      28C5C574 
 252      58101A33 
 252      8A24
 253 053f 0893AD49 		.ascii	"\010\223\255I\354\245\005\363\026\204\251\265\027\236"
 253      ECA505F3 
 253      1684A9B5 
 253      179E
 254 054d 17F42A67 		.ascii	"\027\364*g\242\322z\021W\212k\315\032\300F\244x}\263"
 254      A2D27A11 
 254      578A6BCD 
 254      1AC046A4 
 254      787DB3
 255 0560 B65C95D6 		.ascii	"\266\\\225\326\315\365I\351z5\255k<\270PS\327\004*F"
 255      CDF549E9 
 255      7A35AD6B 
 255      3CB85053 
 255      D7042A46 
 256 0574 2637BC9C 		.ascii	"&7\274\234\242ztI\200p\255\233\347\243\007.\3605u\365"
 256      A27A7449 
 256      8070AD9B 
 256      E7A3072E 
 256      F03575F5 
 257 0588 B5F5365E 		.ascii	"\265\3656^JKh\002\244\015t\201\252&\353\302\342\352"
 257      4A4B6802 
 257      A40D7481 
 257      AA26EBC2 
 257      E2EA
 258 059a FA252B56 		.ascii	"\372%+V\326N\026\223\257\213\315\032TH2\241\310e\033"
 258      D64E1693 
 258      AF8BCD1A 
 258      544832A1 
 258      C8651B
 259 05ad C46446AE 		.ascii	"\304dF\2560X\255R\250\375\012\003)c\314\377\003\026"
 259      3058AD52 
 259      A8FD0A03 
 259      2963CCFF 
 259      0316
 260 05bf 5F4CE5   		.ascii	"_L\345"
 261              		.text
 262              		.section	.gnu.lto_.symtab.539428c7be19665e,"",%progbits
 263 0000 5F636F72 		.ascii	"_core_init\000\000\000\000\000\000\000\000\000\000\000"
 263      655F696E 
 263      69740000 
 263      00000000 
 263      00000000 
ARM GAS  /tmp/ccSP7ANm.s 			page 20


 264 0015 00A10000 		.ascii	"\000\241\000\000\000chCoreAllocAlignedI\000\000\000"
 264      00636843 
 264      6F726541 
 264      6C6C6F63 
 264      416C6967 
 265 0030 00000000 		.ascii	"\000\000\000\000\000\000\000\000\000\246\000\000\000"
 265      00000000 
 265      00A60000 
 265      00
 266 003d 6368436F 		.ascii	"chCoreAllocAligned\000\000\000\000\000\000\000\000\000"
 266      7265416C 
 266      6C6F6341 
 266      6C69676E 
 266      65640000 
 267 0058 000000B3 		.ascii	"\000\000\000\263\000\000\000chCoreGetStatusX\000\000"
 267      00000063 
 267      68436F72 
 267      65476574 
 267      53746174 
 268 0071 00000000 		.ascii	"\000\000\000\000\000\000\000\000\000\000\270\000\000"
 268      00000000 
 268      0000B800 
 268      00
 269 007e 005F5F68 		.ascii	"\000__heap_base__\000\000\002\000\000\000\000\000\000"
 269      6561705F 
 269      62617365 
 269      5F5F0000 
 269      02000000 
 270 0095 000000C2 		.ascii	"\000\000\000\302\000\000\000__heap_end__\000\000\002"
 270      0000005F 
 270      5F686561 
 270      705F656E 
 270      645F5F00 
 271 00ab 00000000 		.ascii	"\000\000\000\000\000\000\000\000\000\307\000\000\000"
 271      00000000 
 271      00C70000 
 271      00
 272              		.text
 273              		.section	.gnu.lto_.opts,"",%progbits
 274 0000 272D6D63 		.ascii	"'-mcpu=cortex-m3' '-mno-thumb-interwork' '-mthumb' "
 274      70753D63 
 274      6F727465 
 274      782D6D33 
 274      2720272D 
 275 0033 272D6767 		.ascii	"'-ggdb' '-O2' '-fomit-frame-pointer' '-falign-funct"
 275      64622720 
 275      272D4F32 
 275      2720272D 
 275      666F6D69 
 276 0066 696F6E73 		.ascii	"ions=16' '-ffunction-sections' '-fdata-sections' '-"
 276      3D313627 
 276      20272D66 
 276      66756E63 
 276      74696F6E 
 277 0099 666E6F2D 		.ascii	"fno-common' '-flto'\000"
 277      636F6D6D 
 277      6F6E2720 
ARM GAS  /tmp/ccSP7ANm.s 			page 21


 277      272D666C 
 277      746F2700 
 278              		.text
 279              		.cfi_sections	.debug_frame
 280              		.section	.text._core_init,"ax",%progbits
 281              		.align	2
 282              		.p2align 4,,15
 283              		.global	_core_init
 284              		.thumb
 285              		.thumb_func
 286              		.type	_core_init, %function
 287              	_core_init:
 288              	.LFB186:
 289              		.file 1 "../../../os/common/oslib/src/chmemcore.c"
 290              		.loc 1 79 0
 291              		.cfi_startproc
 292              		@ args = 0, pretend = 0, frame = 0
 293              		@ frame_needed = 0, uses_anonymous_args = 0
 294              		@ link register save eliminated.
 295              		.loc 1 85 0
 296 0000 40F20001 		movw	r1, #:lower16:.LANCHOR0
 297 0004 40F20000 		movw	r0, #:lower16:__heap_base__
 298              		.loc 1 86 0
 299 0008 40F20003 		movw	r3, #:lower16:.LANCHOR1
 300 000c 40F20002 		movw	r2, #:lower16:__heap_end__
 301              		.loc 1 85 0
 302 0010 C0F20001 		movt	r1, #:upper16:.LANCHOR0
 303 0014 C0F20000 		movt	r0, #:upper16:__heap_base__
 304              		.loc 1 86 0
 305 0018 C0F20003 		movt	r3, #:upper16:.LANCHOR1
 306 001c C0F20002 		movt	r2, #:upper16:__heap_end__
 307              		.loc 1 85 0
 308 0020 0860     		str	r0, [r1]
 309              		.loc 1 86 0
 310 0022 1A60     		str	r2, [r3]
 311 0024 7047     		bx	lr
 312              		.cfi_endproc
 313              	.LFE186:
 314              		.size	_core_init, .-_core_init
 315 0026 00BFAFF3 		.section	.text.chCoreAllocAlignedI,"ax",%progbits
 315      0080AFF3 
 315      0080
 316              		.align	2
 317              		.p2align 4,,15
 318              		.global	chCoreAllocAlignedI
 319              		.thumb
 320              		.thumb_func
 321              		.type	chCoreAllocAlignedI, %function
 322              	chCoreAllocAlignedI:
 323              	.LFB187:
 324              		.loc 1 108 0
 325              		.cfi_startproc
 326              		@ args = 0, pretend = 0, frame = 0
 327              		@ frame_needed = 0, uses_anonymous_args = 0
 328              		@ link register save eliminated.
 329              	.LVL0:
 330              		.loc 1 115 0
ARM GAS  /tmp/ccSP7ANm.s 			page 22


 331 0000 40F20003 		movw	r3, #:lower16:.LANCHOR0
 332 0004 C0F20003 		movt	r3, #:upper16:.LANCHOR0
 333              		.loc 1 108 0
 334 0008 30B4     		push	{r4, r5}
 335              		.cfi_def_cfa_offset 8
 336              		.cfi_offset 4, -8
 337              		.cfi_offset 5, -4
 338              		.loc 1 115 0
 339 000a 1C68     		ldr	r4, [r3]
 340              		.loc 1 117 0
 341 000c 40F20002 		movw	r2, #:lower16:.LANCHOR1
 342              		.loc 1 115 0
 343 0010 013C     		subs	r4, r4, #1
 344              		.loc 1 117 0
 345 0012 C0F20002 		movt	r2, #:upper16:.LANCHOR1
 346              		.loc 1 114 0
 347 0016 451E     		subs	r5, r0, #1
 348              		.loc 1 117 0
 349 0018 1268     		ldr	r2, [r2]
 350              		.loc 1 115 0
 351 001a 6018     		adds	r0, r4, r1
 352              	.LVL1:
 353              		.loc 1 114 0
 354 001c 4C42     		negs	r4, r1
 355              		.loc 1 115 0
 356 001e 2040     		ands	r0, r0, r4
 357              		.loc 1 114 0
 358 0020 2944     		add	r1, r1, r5
 359              	.LVL2:
 360 0022 0C40     		ands	r4, r4, r1
 361              	.LVL3:
 362              		.loc 1 117 0
 363 0024 121A     		subs	r2, r2, r0
 364 0026 9442     		cmp	r4, r2
 365              		.loc 1 120 0
 366 0028 9ABF     		itte	ls
 367 002a 2418     		addls	r4, r4, r0
 368              	.LVL4:
 369 002c 1C60     		strls	r4, [r3]
 370              		.loc 1 118 0
 371 002e 0020     		movhi	r0, #0
 372              	.LVL5:
 373              		.loc 1 123 0
 374 0030 30BC     		pop	{r4, r5}
 375 0032 7047     		bx	lr
 376              		.cfi_endproc
 377              	.LFE187:
 378              		.size	chCoreAllocAlignedI, .-chCoreAllocAlignedI
 379 0034 AFF30080 		.section	.text.chCoreAllocAligned,"ax",%progbits
 379      AFF30080 
 379      AFF30080 
 380              		.align	2
 381              		.p2align 4,,15
 382              		.global	chCoreAllocAligned
 383              		.thumb
 384              		.thumb_func
 385              		.type	chCoreAllocAligned, %function
ARM GAS  /tmp/ccSP7ANm.s 			page 23


 386              	chCoreAllocAligned:
 387              	.LFB188:
 388              		.loc 1 137 0
 389              		.cfi_startproc
 390              		@ args = 0, pretend = 0, frame = 0
 391              		@ frame_needed = 0, uses_anonymous_args = 0
 392              		@ link register save eliminated.
 393              	.LVL6:
 394 0000 30B4     		push	{r4, r5}
 395              		.cfi_def_cfa_offset 8
 396              		.cfi_offset 4, -8
 397              		.cfi_offset 5, -4
 398              	.LBB26:
 399              	.LBB27:
 400              	.LBB28:
 401              	.LBB29:
 402              		.file 2 "../../../os/common/ext/CMSIS/include/cmsis_gcc.h"
 403              		.loc 2 264 0
 404 0002 2023     		movs	r3, #32
 405              	@ 264 "../../../os/common/ext/CMSIS/include/cmsis_gcc.h" 1
 406 0004 83F31188 		MSR basepri, r3
 407              	@ 0 "" 2
 408              	.LVL7:
 409              		.thumb
 410              	.LBE29:
 411              	.LBE28:
 412              	.LBE27:
 413              	.LBE26:
 414              	.LBB30:
 415              	.LBB31:
 416              		.loc 1 115 0
 417 0008 40F20003 		movw	r3, #:lower16:.LANCHOR0
 418 000c C0F20003 		movt	r3, #:upper16:.LANCHOR0
 419 0010 1C68     		ldr	r4, [r3]
 420              		.loc 1 117 0
 421 0012 40F20002 		movw	r2, #:lower16:.LANCHOR1
 422              		.loc 1 115 0
 423 0016 013C     		subs	r4, r4, #1
 424              		.loc 1 117 0
 425 0018 C0F20002 		movt	r2, #:upper16:.LANCHOR1
 426              		.loc 1 115 0
 427 001c 0C44     		add	r4, r4, r1
 428              		.loc 1 114 0
 429 001e 4D1E     		subs	r5, r1, #1
 430              		.loc 1 117 0
 431 0020 1268     		ldr	r2, [r2]
 432              		.loc 1 114 0
 433 0022 4942     		negs	r1, r1
 434              	.LVL8:
 435 0024 0544     		add	r5, r5, r0
 436              		.loc 1 115 0
 437 0026 04EA0100 		and	r0, r4, r1
 438              	.LVL9:
 439              		.loc 1 117 0
 440 002a 121A     		subs	r2, r2, r0
 441              		.loc 1 114 0
 442 002c 2940     		ands	r1, r1, r5
ARM GAS  /tmp/ccSP7ANm.s 			page 24


 443              	.LVL10:
 444              		.loc 1 117 0
 445 002e 9142     		cmp	r1, r2
 446              		.loc 1 120 0
 447 0030 9ABF     		itte	ls
 448 0032 0918     		addls	r1, r1, r0
 449              	.LVL11:
 450 0034 1960     		strls	r1, [r3]
 451              		.loc 1 118 0
 452 0036 0020     		movhi	r0, #0
 453              	.LVL12:
 454              	.LBE31:
 455              	.LBE30:
 456              	.LBB32:
 457              	.LBB33:
 458              	.LBB34:
 459              	.LBB35:
 460              	.LBB36:
 461              		.loc 2 264 0
 462 0038 0023     		movs	r3, #0
 463              	@ 264 "../../../os/common/ext/CMSIS/include/cmsis_gcc.h" 1
 464 003a 83F31188 		MSR basepri, r3
 465              	@ 0 "" 2
 466              		.thumb
 467              	.LBE36:
 468              	.LBE35:
 469              	.LBE34:
 470              	.LBE33:
 471              	.LBE32:
 472              		.loc 1 145 0
 473 003e 30BC     		pop	{r4, r5}
 474              	.LVL13:
 475 0040 7047     		bx	lr
 476              		.cfi_endproc
 477              	.LFE188:
 478              		.size	chCoreAllocAligned, .-chCoreAllocAligned
 479 0042 00BFAFF3 		.section	.text.chCoreGetStatusX,"ax",%progbits
 479      0080AFF3 
 479      0080AFF3 
 479      0080
 480              		.align	2
 481              		.p2align 4,,15
 482              		.global	chCoreGetStatusX
 483              		.thumb
 484              		.thumb_func
 485              		.type	chCoreGetStatusX, %function
 486              	chCoreGetStatusX:
 487              	.LFB189:
 488              		.loc 1 154 0
 489              		.cfi_startproc
 490              		@ args = 0, pretend = 0, frame = 0
 491              		@ frame_needed = 0, uses_anonymous_args = 0
 492              		@ link register save eliminated.
 493              		.loc 1 157 0
 494 0000 40F20002 		movw	r2, #:lower16:.LANCHOR1
 495 0004 40F20003 		movw	r3, #:lower16:.LANCHOR0
 496 0008 C0F20002 		movt	r2, #:upper16:.LANCHOR1
ARM GAS  /tmp/ccSP7ANm.s 			page 25


 497 000c C0F20003 		movt	r3, #:upper16:.LANCHOR0
 498 0010 1068     		ldr	r0, [r2]
 499 0012 1B68     		ldr	r3, [r3]
 500              		.loc 1 159 0
 501 0014 C01A     		subs	r0, r0, r3
 502 0016 7047     		bx	lr
 503              		.cfi_endproc
 504              	.LFE189:
 505              		.size	chCoreGetStatusX, .-chCoreGetStatusX
 506 0018 AFF30080 		.section	.bss.endmem,"aw",%nobits
 506      AFF30080 
 507              		.align	2
 508              		.set	.LANCHOR1,. + 0
 509              		.type	endmem, %object
 510              		.size	endmem, 4
 511              	endmem:
 512 0000 00000000 		.space	4
 513              		.section	.bss.nextmem,"aw",%nobits
 514              		.align	2
 515              		.set	.LANCHOR0,. + 0
 516              		.type	nextmem, %object
 517              		.size	nextmem, 4
 518              	nextmem:
 519 0000 00000000 		.space	4
 520              		.text
 521              	.Letext0:
 522              		.file 3 "/home/alex/MentorGraphics/Sourcery_CodeBench_Lite_for_ARM_EABI/lib/gcc/arm-none-eabi/4.8.
 523              		.file 4 "/home/alex/MentorGraphics/Sourcery_CodeBench_Lite_for_ARM_EABI/arm-none-eabi/include/stdi
 524              		.file 5 "../../../os/common/ports/ARMCMx/compilers/GCC/chtypes.h"
 525              		.file 6 "../../../os/rt/include/chsystypes.h"
 526              		.file 7 "../../../os/rt/include/chschd.h"
 527              		.file 8 "../../../os/common/ports/ARMCMx/chcore.h"
 528              		.file 9 "../../../os/common/ports/ARMCMx/chcore_v7m.h"
 529              		.file 10 "../../../os/rt/include/chtm.h"
 530              		.file 11 "../../../os/rt/include/chsem.h"
 531              		.file 12 "../../../os/rt/include/chmtx.h"
 532              		.file 13 "../../../os/rt/include/chsys.h"
 533              		.file 14 "../../../os/common/ext/CMSIS/include/core_cm3.h"