ARM GAS  /tmp/ccxxnAte.s 			page 1


   1              		.syntax unified
   2              		.cpu cortex-m3
   3              		.fpu softvfp
   4              		.eabi_attribute 20, 1
   5              		.eabi_attribute 21, 1
   6              		.eabi_attribute 23, 3
   7              		.eabi_attribute 24, 1
   8              		.eabi_attribute 25, 1
   9              		.eabi_attribute 26, 1
  10              		.eabi_attribute 30, 2
  11              		.eabi_attribute 34, 1
  12              		.eabi_attribute 18, 4
  13              		.thumb
  14              		.file	"chmsg.c"
  15              		.text
  16              	.Ltext0:
  17              		.section	.gnu.lto_.jmpfuncs.61eb1a0820de6ce1,"",%progbits
  18 0000 789C6362 		.ascii	"x\234cb`b\300\0064\24143\0033#S\004c&#\003\017\003\003"
  18      6062C006 
  18      34A13433 
  18      03332353 
  18      04632623 
  19 0018 23035035 		.ascii	"#\003P5\224\313\007\224cf\002)``,\003*\004\0009\234"
  19      94CB0794 
  19      63660229 
  19      60602C03 
  19      2A040039 
  20 002d 025F     		.ascii	"\002_"
  21              		.text
  22              		.section	.gnu.lto_.inline.61eb1a0820de6ce1,"",%progbits
  23 0000 789C6362 		.ascii	"x\234cb`b\300\006\342\24043\003\203\210\014##\003#\220"
  23      6062C006 
  23      E2A03433 
  23      0383880C 
  23      23230323 
  24 0015 CD247E63 		.ascii	"\315$~c3#\003\347\0153\260\026&n\006\240(\230\234\340"
  24      332303E7 
  24      0D33B016 
  24      266E06A0 
  24      28989CE0 
  25 0029 C7C420C8 		.ascii	"\307\304 \310\017\344H\034\330\315\310\300\266@\036"
  25      0FE4481C 
  25      D8CDC8C0 
  25      B6401E
  26 0038 49013303 		.ascii	"I\0013\003\207\000P\206e\201<\\\202\231\007(9\301o\202"
  26      87005086 
  26      65813C5C 
  26      82990728 
  26      39C16F82 
  27 004c 1F0300E2 		.ascii	"\037\003\000\342\275\012T"
  27      BD0A54
  28              		.text
  29              		.section	.gnu.lto_.pureconst.61eb1a0820de6ce1,"",%progbits
  30 0000 789C6362 		.ascii	"x\234cb`b`g\200\000f\006+&+f+\000\002\361\000\302"
  30      60626067 
  30      80006606 
  30      2B262B66 
ARM GAS  /tmp/ccxxnAte.s 			page 2


  30      2B0002F1 
  31              		.text
  32              		.section	.gnu.lto_chMsgSend.61eb1a0820de6ce1,"",%progbits
  33 0000 789C9D54 		.ascii	"x\234\235T_h\024G\030\377\276\235\275\354y\311ec\205"
  33      5F681447 
  33      18FFBE9D 
  33      BDEC79C9 
  33      656385
  34 0013 82AD8D87 		.ascii	"\202\255\215\207 \024\265\331j\037Z_l\213OE\002\305"
  34      2014B5D9 
  34      6A1F5A5F 
  34      6C8B4F45 
  34      02C5
  35 0025 28AD4FB2 		.ascii	"(\255O\262\031\217d\301\365\316\333S\264>8\227\244\320"
  35      198F64C1 
  35      F5CEDB53 
  35      B43E3897 
  35      A4D0
  36 0037 52050915 		.ascii	"R\005\011\025bUZ\021J\254\240P(\255\370\207\223JL\024"
  36      62555A11 
  36      4AACA050 
  36      28ADF887 
  36      934A4C14 
  37 004b CF3F7DB1 		.ascii	"\317?}\261\241\350a\251\265-h\253/\242\201\35373\273"
  37      A1E861A9 
  37      B52D68AB 
  37      2FA281EB 
  37      3733BB
  38 005e 9BCB199B 		.ascii	"\233\313\031\233\320\275\333\235og\347\373\315o~\337"
  38      D0BDDB9D 
  38      6F67E7FB 
  38      CD6F7EDF 
  39 006e CCCF0003 		.ascii	"\314\317\000\003\032\257\025t\337l\002\370\213ZL\000"
  39      1AAF1574 
  39      DF6C02F8 
  39      8B5A4C00 
  40 007e 1AFB2A00 		.ascii	"\032\373*\000\245\244a\260\021\033D\312\274\264\012"
  40      A5A461B0 
  40      111B44CA 
  40      BCB40A
  41 008d 440B4353 		.ascii	"D\013CSw\233\2102\000\204\335\0063q\367\006\224\030"
  41      779B8832 
  41      0084DD06 
  41      3371F706 
  41      9418
  42 009f B8088E08 		.ascii	"\270\010\216\0101X\375\370\376=< \312\003_\211\211Z"
  42      3158FDF8 
  42      FE3D3C20 
  42      CA035F89 
  42      895A
  43 00b1 0DD1439A 		.ascii	"\015\321C\232\257\035\201#|H/\230Q\215aN%p\322(Wk\265"
  43      AF1D8123 
  43      7C482F98 
  43      518D614E 
  43      2570D228 
  44 00c8 89EFEEDD 		.ascii	"\211\357\356\335\271\212s_d\340\342\021\302K\240\217"
  44      B98A735F 
ARM GAS  /tmp/ccxxnAte.s 			page 3


  44      64E0E211 
  44      C24BA08F 
  45 00d8 60D10393 		.ascii	"`\321\003\223\340!K\321\303L\003\365\331\024\311\264"
  45      E0214BD1 
  45      C34C03F5 
  45      D914C9B4 
  46 00e8 040C08B1 		.ascii	"\004\014\010\261/\243G\373H\013\343\252\177\035=%\305"
  46      2FA347FB 
  46      480BE3AA 
  46      7F1D3D25 
  46      C5
  47 00f9 F5D4452D 		.ascii	"\365\324E-\273\002}\343C\304\313\305\243\264\274\036"
  47      BB027DE3 
  47      43C4CBC5 
  47      A3B4BC1E 
  48 0109 644BE11B 		.ascii	"dK\341\033A\327\007\004\263\024\226x\2308\010_\224\204"
  48      41D70704 
  48      B3149678 
  48      9838085F 
  48      9484
  49 011b 68F3B069 		.ascii	"h\363\260i\027<\021\237\310\310\362\221\021\226\244"
  49      173C119F 
  49      C8C8F291 
  49      1196A4
  50 012a 6B2992DD 		.ascii	"k)\222\335\010a\033\0060\006}\345W4\250\346\320#S\250"
  50      08611B06 
  50      30067DE5 
  50      5734A8E6 
  50      D02353A8 
  51 013e 370910CA 		.ascii	"7\011\020\312\261\377\330\225\3638\330/F\305@\231\364"
  51      B1FFD895 
  51      F338D82F 
  51      46C54099 
  51      F4
  52 014f 58E861D2 		.ascii	"X\350a\322\200\367g\322C\366%3\024T\240\357\237\023"
  52      80F767D2 
  52      43F62533 
  52      1454A0EF 
  52      9F13
  53 0161 FD5FBF14 		.ascii	"\375_\277\024\2564Zr\371\370\215\203\354U\027\207i\316"
  53      AE345A72 
  53      F9F88D83 
  53      EC551787 
  53      69CE
  54 0173 B8EFD7CF 		.ascii	"\270\357\327\317\0377/\210\337>\275E,57\216r>\203n\246"
  54      1F372F88 
  54      DF3EBD45 
  54      2C35378E 
  54      723E836E 
  55 0188 2A45BF61 		.ascii	"*E\277a\012I.\2467C;\234\302\303b\350\035\017\347L\231"
  55      0A492EA6 
  55      37433B9C 
  55      C2C362E8 
  55      1D0FE74C 
  56 019d 7DF2FB99 		.ascii	"}\362\373\231\360{J\363#A/\377\360\340\232\241\361C"
  56      F07B4AF3 
  56      23412FFF 
ARM GAS  /tmp/ccxxnAte.s 			page 4


  56      F0E09AA1 
  56      F143
  57 01af 35DFF0B0 		.ascii	"5\337\360\2609\014\323\036\266\220\244\204\223&I$^$"
  57      390CD31E 
  57      B690A484 
  57      93264924 
  57      5E24
  58 01c1 9D11B68A 		.ascii	"\235\021\266\212\011\351\225P`O\372\237\356eQu\222\273"
  58      09E99550 
  58      604FFA9F 
  58      EE655175 
  58      92BB
  59 01d3 E0234FD6 		.ascii	"\340#O\326\210\012\323\032\243X\365(ur\215A\310B\013"
  59      880AD31A 
  59      A358F528 
  59      75728D41 
  59      C8420B
  60 01e6 5EBE3D72 		.ascii	"^\276=r\031\305\240(\375]\253\331j\363]\300\231\324"
  60      19C5A028 
  60      FD5DABD9 
  60      6AF35DC0 
  60      99D4
  61 01f8 8EAA563D 		.ascii	"\216\252V=\307\377\003\212\031pq\026PI\255\316\304\335"
  61      C7FF038A 
  61      19707116 
  61      5049ADCE 
  61      C4DD
  62 020a 9F0FFD68 		.ascii	"\237\017\375h7\226\355\263\333\313]<MEs\361\224*]T "
  62      3796EDB3 
  62      DBCB5D3C 
  62      4D4573F1 
  62      942A5D54 
  63 021f 05A3C5AB 		.ascii	"\005\243\305\253~_\371m\376\002\2653\225\226\315Z\005"
  63      7E5FF96D 
  63      FE02B533 
  63      9596CD5A 
  63      05
  64 0230 BD3D1BE5 		.ascii	"\275=\033\345LH\210s\262\351\306\2468\216X\214\017="
  64      4C488873 
  64      B2E9C6A6 
  64      388E588C 
  64      0F3D
  65 0242 DAB3C6C5 		.ascii	"\332\263\306\305\263JV[\011\0121Tk\250)[\246\241\254"
  65      B34A565B 
  65      090A3154 
  65      6BA8295B 
  65      A6A1AC
  66 0255 385DE58E 		.ascii	"8]\345\216]\263ufHc\345\377`d\3251\262\303]\363h\317"
  66      5DB37566 
  66      4863E5FF 
  66      6064D531 
  66      B2C35DF3 
  67 026b AA29B85B 		.ascii	"\252)\270['q\273\032p\355\331\254\224i\334\233\215\270"
  67      2771BB1A 
  67      70EDD9AC 
  67      9469DC9B 
  67      8DB8
ARM GAS  /tmp/ccxxnAte.s 			page 5


  68 027d E9D9AD35 		.ascii	"\351\331\2555\002\030\377eb\357\374h\007\246\224T\366"
  68      0218FF65 
  68      62EFFC68 
  68      07A69454 
  68      F6
  69 028e F47B2F19 		.ascii	"\364{/\031\226z\024.\374^J\307)r\210\331Z\267\025\326"
  69      967A142E 
  69      FC5E4AC7 
  69      297288D9 
  69      5AB715D6 
  70 02a2 13F288CD 		.ascii	"\023\362\210\315\256\302@u\364hh=\000\261\275\264q-"
  70      AEC24075 
  70      F468683D 
  70      00B1BDB4 
  70      712D
  71 02b4 35E55A1E 		.ascii	"5\345Z\036\316\215rLeX2\351R\177\352\231\244\027\270"
  71      CE8D724C 
  71      655832E9 
  71      527FEA99 
  71      A417B8
  72 02c7 5C7B7844 		.ascii	"\\{xD\315\026\262\301y\232\375\343\207oEL\322\241\000"
  72      CD16B2C1 
  72      799AFDE3 
  72      876F454C 
  72      D2A100
  73 02da 6F4F1EC7 		.ascii	"oO\036\307\2253\036\3079\361i\352+[\032\211|\226\300"
  73      95331EC7 
  73      39F169EA 
  73      2B5B1A89 
  73      7C96C0
  74 02ed 1AEDEC8F 		.ascii	"\032\355\354\217J\243\235\271xLy\313\214~&\203\347\372"
  74      4AA39DB9 
  74      784C79CB 
  74      8C7E2683 
  74      E7FA
  75 02ff D99F87A5 		.ascii	"\331\237\207\245\237\3754\325\317\276L\267\307&?ilw"
  75      9FFD34D5 
  75      CFBE4CB7 
  75      C7263F69 
  75      6C77
  76 0311 EB8C4D39 		.ascii	"\353\214M93'\354g\275\315\305\223\024\3043G^\346\342"
  76      3327EC67 
  76      BDCDC593 
  76      14C43347 
  76      5EE6E2
  77 0324 B7D8AE59 		.ascii	"\267\330\256Y]\207R\265\302c\335t\347::\343T\0029\366"
  77      5D8752B5 
  77      C263DD74 
  77      E73A3AE3 
  77      540239F6 
  78 0338 E58E0E47 		.ascii	"\345\216\016G\377s\201S(:A\201;\274\327\017z:80^\314"
  78      FF738153 
  78      283A4181 
  78      3BBCD70F 
  78      7A3A3830 
  79 034e BF56FF9D 		.ascii	"\277V\377\235\347|?\267\305\311\347\012\305\300ywm\347"
  79      E77C3FB7 
ARM GAS  /tmp/ccxxnAte.s 			page 6


  79      C5C9E70A 
  79      C5C07977 
  79      6DE7
  80 0360 EACE1D34 		.ascii	"\352\316\0354\230\347\012\331\215\333\337\364;z!\261"
  80      98E70AD9 
  80      8DDBDFF4 
  80      3B7A21B1 
  81 0370 DDDDBC2D 		.ascii	"\335\335\274-\273|\232\234\354\216\242\263\272\263\353"
  81      BB7C9A9C 
  81      EC8EA2B3 
  81      BAB3EB
  82 037f BD2EC7DB 		.ascii	"\275.\307\333\3027o\333\224u\270\037x\301\306\036\316"
  82      C2376FDB 
  82      9475B81F 
  82      78C1C61E 
  82      CE
  83 0390 296F6103 		.ascii	")oa\003\213xLo\2603\240\357m\235]k3\335n\220\315\027"
  83      8B784C6F 
  83      B033A0EF 
  83      6D9D5D6B 
  83      33DD6E90 
  84 03a6 BC6599C5 		.ascii	"\274e\231\305\257\203Q\000\313\317\372\271\302N0\212"
  84      AF835100 
  84      CBCFFAB9 
  84      C24E308A 
  85 03b6 7956DC9A 		.ascii	"yV\334\232\317<\037\202\367n\"\214\177\001\341\232\330"
  85      CF3C1F82 
  85      F76E228C 
  85      7F01E19A 
  85      D8
  86 03c7 03       		.ascii	"\003"
  87              		.text
  88              		.section	.gnu.lto_chMsgWait.61eb1a0820de6ce1,"",%progbits
  89 0000 789C9D55 		.ascii	"x\234\235Ukh\024W\024>\347\316\354N\222}T\354\237j5"
  89      6B681457 
  89      143EE7CE 
  89      EC4E927D 
  89      54EC9F6A 
  90 0015 2E82507C 		.ascii	".\202P|d,\376(\371\327\342/\301 \030E\375%\223q\331"
  90      642CFE28 
  90      F9D7E22F 
  90      C1201845 
  90      FD259371 
  91 002a 1D70DDB8 		.ascii	"\035p\335\270\263\212\232\037\336<\012Z\025S[\360\021"
  91      B38A9A1F 
  91      DE3C0A5A 
  91      15535BF0 
  91      11
  92 003b 82CF5654 		.ascii	"\202\317VT\324R[\010\024qK\203F\304\224\010\202\266"
  92      D4525B08 
  92      14714B83 
  92      46C49408 
  92      82B6
  93 004d 3F5C2D6D 		.ascii	"?\\-mU\024\224\"\006\211\331\236{\357\314\354\003\363"
  93      55149422 
  93      0689D99E 
  93      7BEFCCEC 
ARM GAS  /tmp/ccxxnAte.s 			page 7


  93      03F3
  94 005f C0BB3B33 		.ascii	"\300\273;3g\356\343;\337\371\356\271g\0300\250m\313"
  94      67EEE33B 
  94      DFF9EEB9 
  94      671830A8 
  94      6DCB
  95 0071 E89A6F00 		.ascii	"\350\232o\000\030\010\200!@\326;\014\320Y\307\230\366"
  95      18088021 
  95      40D63B0C 
  95      D059C798 
  95      F6
  96 0082 CA00DEA0 		.ascii	"\312\000\336\240\367]\007\340Q\015u\325\257#\012\003"
  96      F75D07E0 
  96      510D75D5 
  96      AF230A03 
  97 0092 1076334D 		.ascii	"\020v3M\307\335\033P\200\340|8\311\371\241\342\227\343"
  97      C7DD1B50 
  97      80E07C38 
  97      C9F9A1E2 
  97      97E3
  98 00a4 8FF1282F 		.ascii	"\217\361(/\364\234\340c\245\022\242\203\344\260\021"
  98      F49CE063 
  98      A512A283 
  98      E4B011
  99 00b3 C146584F 		.ascii	"\301FXO/\230\220\017\246W3\270\314\012\305Ri\354\352"
  99      2F98900F 
  99      A65733B8 
  99      CC0AC552 
  99      69ECEA
 100 00c6 B387FB70 		.ascii	"\263\207\373p\346\207:\320\252\260\270\031t\323\"\302"
 100      E6873AD0 
 100      AAB0B819 
 100      74D322C2 
 101 00d6 8A0A2B06 		.ascii	"\212\012+\006\026\236$Gq\321C-\004=\234\367&T'\010\037"
 101      169E2447 
 101      71D1432D 
 101      043D9CF7 
 101      26542708 
 102 00eb D4D6D05D 		.ascii	"\324\326\320]\360[\213L<\265\233\320UG\361)v\337\234"
 102      F05B8B4C 
 102      3CB59BD0 
 102      5547F129 
 102      76DF9C
 103 00fe BBFD2B1E 		.ascii	"\273\375+\036\352\346C\274\247@\364\3469\2503X5\025"
 103      EAE643BC 
 103      A740F4E6 
 103      39A83358 
 103      3515
 104 0110 3DD1A727 		.ascii	"=\321\247'\310\030\206\256\227\027\273\277\237\3559"
 104      C81886AE 
 104      9717BBBF 
 104      9FED39
 105 011f F61914CE 		.ascii	"\366\031\024\316\336\351\323>\261\360\214\244\341\365"
 105      DEE9D33E 
 105      B1F08CA4 
 105      E1F5
 106 012d 5DFB7634 		.ascii	"]\373v42'x\333\373\226hYx\232\364\265Q\370ctiR8\372"
ARM GAS  /tmp/ccxxnAte.s 			page 8


 106      322778DB 
 106      FB966859 
 106      789AF4B5 
 106      51F86374 
 107 0145 9D2593F6 		.ascii	"\235%\223\366ES\233\323\010\003\330\317\217|\356\320"
 107      45539BD3 
 107      0803D8CF 
 107      8F7CEED0 
 108 0155 E44AEFE5 		.ascii	"\344J\357\345\361_\274\361\260\342w\033\272\376\030"
 108      F15FBCF1 
 108      B0E2771B 
 108      BAFE18
 109 0164 1D1F650A 		.ascii	"\035\037e\012?\205\372\"XH\012-\202\363\234\332V\007"
 109      3F85FA22 
 109      58480A2D 
 109      82F39CDA 
 109      5607
 110 0176 8D3E38D6 		.ascii	"\215>8\326\311\371\014\007\353:\340\015\337#\254\372"
 110      C9F90C07 
 110      EB3AE00D 
 110      DF23ACFA 
 111 0186 0CFAE8F5 		.ascii	"\014\372\350\365\022\245\015\301{z\006\220t\005S\201"
 111      12A50DC1 
 111      7B7A0690 
 111      74055381 
 112 0196 2AFD0A0F 		.ascii	"*\375\012\017n\034\230\305Ot\365\362qR\217\\XxJF2\231"
 112      6E1C98C5 
 112      4F74F5F2 
 112      71528F5C 
 112      58784A46 
 113 01ac 7AC44751 		.ascii	"z\304GQ\034{t\377\330\256Z\351n\275}\031\262\360\212"
 113      1C7B74FF 
 113      D8AE5AE9 
 113      6EBD7D19 
 113      B2F08A
 114 01bf 54CED747 		.ascii	"T\316\327GW\313\"*\200\342\341\341\273#\250\225\003"
 114      57CB222A 
 114      80E2E1E1 
 114      BB23A895 
 114      03
 115 01d0 5AE76043 		.ascii	"Z\347`C\020P\204\340\205W\237;\0230?\013\345\332\204"
 115      105084E0 
 115      85579F3B 
 115      13303F0B 
 115      E5DA84
 116 01e3 BE9E2D09 		.ascii	"\276\236-\011\274\351>\257Y\370\223\224(\332\001\273"
 116      BCE93EAF 
 116      59F89394 
 116      28DA01BB 
 117 01f3 28A33CC4 		.ascii	"(\243<\304?qz\220\001\332\020\014\376\373\360\357\361"
 117      3F717A90 
 117      01DA100C 
 117      FEFBF0EF 
 117      F1
 118 0204 A5BEE2B4 		.ascii	"\245\276\342\264$Z\216x-y~eh\277COq\354\267\0065\007"
 118      245A8E78 
 118      2D797E65 
ARM GAS  /tmp/ccxxnAte.s 			page 9


 118      68BF434F 
 118      71ECB706 
 119 021a 20503E6A 		.ascii	" P>j+\020\251VL$s\334_\247\313\224\025b\335+\335\323"
 119      2B10A956 
 119      4C2473DC 
 119      5FA7CB94 
 119      1562DD2B 
 120 0230 7CF4B0BF 		.ascii	"|\364\260\277\237\013\337{+e\370\377\240\217hT\205\377"
 120      9F0BDF7B 
 120      2B65F8FF 
 120      A08F6854 
 120      85FF
 121 0242 B5173ECA 		.ascii	"\265\027>\312\330\3035\261\373MdC\363d\331\2401\370"
 121      D8C335B1 
 121      FB4D6443 
 121      F364D9A0 
 121      31F8
 122 0254 0BA73A4B 		.ascii	"\013\247:K\344\333\313\206\377F\372O\033^:(@\376#\347"
 122      E4DBCB86 
 122      FF46FA4F 
 122      1B5E3A28 
 122      40FE23E7 
 123 0268 F5B27068 		.ascii	"\365\262ph\323\314\255 \215\366\225,\013\007\253\262"
 123      D3CCAD20 
 123      8DF6952C 
 123      0B07ABB2 
 124 0278 28ACDCC5 		.ascii	"(\254\334\305\274,:~\360\371\254%\004\033\350\327\340"
 124      BC2C3A7E 
 124      F0F9AC25 
 124      041BE8D7 
 124      E0
 125 0289 85AA2D56 		.ascii	"\205\252-V\241\312l\031R[#b\235k\341uz\263\360\006\301"
 125      A1CA6C19 
 125      525B2362 
 125      9D6BE175 
 125      7AB3F006 
 126 029e 128EA27D 		.ascii	"\022\216\242}\344\365\376\225j \205\361\252s\326Q\223"
 126      E4F5FE95 
 126      6A2085F1 
 126      AA73D651 
 126      93
 127 02af 43B14A1D 		.ascii	"C\261J\035\365\000\274\332\021A\336\374!\256\000=\234"
 127      F500BCDA 
 127      1141DEFC 
 127      21AE003D 
 127      9C
 128 02c0 D8F448A6 		.ascii	"\330\364H\246D\326\320\362[\003\257\3677W\001\254+s"
 128      44D6D0F2 
 128      5B03AFF7 
 128      375701AC 
 128      2B73
 129 02d2 6AAEE114 		.ascii	"j\256\341\024\237\210S\250\002\327\220\361\277xt\355"
 129      9F8853A8 
 129      02D790F1 
 129      BF7874ED 
 130 02e2 2325A55F 		.ascii	"#%\245__\245\273\201\321\322c/\215<\037\021\007?\010"
 130      5FA5BB81 
ARM GAS  /tmp/ccxxnAte.s 			page 10


 130      D1D2632F 
 130      8D3C1F11 
 130      073F08
 131 02f5 92A72AE8 		.ascii	"\222\247*\350p9\313cJ\324\212J\374d\270\266\022[\370"
 131      7039CB63 
 131      4AD48A4A 
 131      FC64B8B6 
 131      125BF8
 132 0308 DD941B2E 		.ascii	"\335\224\033.\213\2410&,\305O\373E)\276[]\212\217\307"
 132      8BA13026 
 132      2CC54FFB 
 132      4529BE5B 
 132      5D8A8FC7 
 133 031c 1A83CF45 		.ascii	"\032\203\317E\271&\017\262r\266\030\002\324\306\272"
 133      B9260FB2 
 133      72B61802 
 133      D4C6BA
 134 032b 7794650B 		.ascii	"w\224e\013/\220\021x\366\313\260\205\227\260Q\261\032"
 134      2F901178 
 134      F6CBB085 
 134      97B051B1 
 134      1A
 135 033c 81CEE257 		.ascii	"\201\316\342WI\377p\305T\347\032:\013t\232\305\334\217"
 135      49FF70C5 
 135      54E71A3A 
 135      0B749AC5 
 135      DC8F
 136 034e 9B9A4CF5 		.ascii	"\233\232L\365\317\272f.o\2729\333\264\323\0317\325d"
 136      CFBA662E 
 136      6FBA39DB 
 136      B4D31937 
 136      D564
 137 0360 03CBB72F 		.ascii	"\003\313\267/\251\034\266\263\231Lv\213\331\236\315"
 137      A91CB6B3 
 137      994C768B 
 137      D99ECD
 138 036f E55DF38B 		.ascii	"\345]\363\213\325-\313[v\320\\;\233Kn\334\376Y\246)"
 138      D52DCB5B 
 138      76D05C3B 
 138      9B4B6EDC 
 138      FE59A629 
 139 0383 0DA1EDD6 		.ascii	"\015\241\355\326\346m\311O\337\261&\271#o.oi]\321j:"
 139      E66DC94F 
 139      DFB126B9 
 139      236F2E6F 
 139      695DD16A 
 140 0398 5BECCDDB 		.ascii	"[\354\315\3336%M;\343:\356\306\224m\323\272y5$\2029"
 140      36254D3B 
 140      E33AEEC6 
 140      946DD3BA 
 140      79352482 
 141 03ad 6977A74B 		.ascii	"iw\247K\3433ZZW'\332,7\331\236s\026'\026,\005\226\003"
 141      E3335A5A 
 141      5727DA2C 
 141      37D99E73 
 141      1627162C 
 142 03c4 2393CC64 		.ascii	"#\223\314ds;'Y+\202H\203\226\337\332\236\230\030\337"
ARM GAS  /tmp/ccxxnAte.s 			page 11


 142      733B2759 
 142      2B824883 
 142      96DFDA9E 
 142      9818DF
 143 03d7 4E6FA249 		.ascii	"No\242I\377\003\231\311\373\333"
 143      FF0399C9 
 143      FBDB
 144              		.text
 145              		.section	.gnu.lto_chMsgRelease.61eb1a0820de6ce1,"",%progbits
 146 0000 789C8D52 		.ascii	"x\234\215RMh\023Q\020\236y\333m\242\"\366\352\017\351"
 146      4D681351 
 146      109E79DB 
 146      6DA222F6 
 146      EA0FE9
 147 0013 522878D0 		.ascii	"R(x\320\254\236\274*=\011\346\322T\320SY\237K\262\320"
 147      AC9EBC2A 
 147      3D09E6D2 
 147      54D05359 
 147      9F4BB2D0 
 148 0027 ED86DDB4 		.ascii	"\355\206\335\264\264x\350KZA{1\004\017\202\024\255\212"
 148      B478E84B 
 148      5A417B31 
 148      040F8214 
 148      AD8A
 149 0039 3FC5B650 		.ascii	"?\305\266P\025<\351\212\027K1RPO\036r\022\275\325[\261"
 149      153CE98A 
 149      174B3152 
 149      504F1E72 
 149      12BDD55B 
 150 004e 9675DE6E 		.ascii	"\226u\336n\262&\241Z\037\373~vf\336\367\315\314\367"
 150      B226A15A 
 150      1FFB7E76 
 150      66DEF7CD 
 150      CCF7
 151 0060 1830E81C 		.ascii	"\0300\350\034\007i*\012\300W\332Q\001d\225\032@)\311"
 151      07692A0A 
 151      C057DA51 
 151      0164951A 
 151      4029C9
 152 0073 10E50110 		.ascii	"\020\345\001\020\246\030N]\3040v\231\371\365 Xz5\273"
 152      A6184E5D 
 152      C4307699 
 152      F9F52058 
 152      7A35BB
 153 0086 F40517D8 		.ascii	"\364\005\027\330^\005m\204.Z\244W\205\031!*\232\215"
 153      5E056D84 
 153      2E5AA457 
 153      8519212A 
 153      9A8D
 154 0098 44C1C3F0 		.ascii	"D\301\303\360!Z%\306y2\321\256\254B9\011\320\007\363"
 154      215A25C6 
 154      7932D1AE 
 154      AC423909 
 154      D007F3
 155 00ab 4254EBDB 		.ascii	"BT\353\333\217\337\277\301\352\264x'f\374 \300^\013"
 155      8FDFBFC1 
 155      EAB47827 
ARM GAS  /tmp/ccxxnAte.s 			page 12


 155      66FC20C0 
 155      5E0B
 156 00bd 29B77328 		.ascii	")\267s(\257^@\013Q\0137\326\325\236\254\264\201F\207"
 156      AF5E400B 
 156      510B37D6 
 156      D59EACB4 
 156      814687
 157 00d0 1A947F2C 		.ascii	"\032\224\177,L?<\324`m\322\373[\353\267\225\243\006"
 157      4C3F3CD4 
 157      606DD2FB 
 157      5BEBB795 
 157      A306
 158 00e2 DEC3BE38 		.ascii	"\336\303\2768%\377\331\315\315}G\342\277\325\217\224"
 158      25FFD9CD 
 158      CD7D47E2 
 158      BFD58F94 
 159 00f2 A081F3A8 		.ascii	"\240\201\363\250\022\227\344c4\025\010KEx@G\362+Q\243"
 159      1297E463 
 159      3415084B 
 159      45784047 
 159      F22B51A3 
 160 0106 52F002E7 		.ascii	"R\360\002\347\304\255\323V\024\020\263\377\361\277l"
 160      C4ADD356 
 160      1410B3FF 
 160      F1BF6C
 161 0115 F81B79B6 		.ascii	"\370\033y\266\226\350\277\236]CQ\025\245\215 8`\241"
 161      96E8BF9E 
 161      5D435115 
 161      A58D2038 
 161      60A1
 162 0127 CAC0C7DD 		.ascii	"\312\300\307\335\352\313I\242\026\220\212X\021b\317"
 162      EACB49A2 
 162      16908A58 
 162      1162CF
 163 0136 5DF12B08 		.ascii	"]\361+\010\024\013\273\031\274\375\017\0102|\200\253"
 163      140BBB19 
 163      BCFD0F08 
 163      327C80AB 
 164 0146 1B371E6D 		.ascii	"\0337\036mmbg\177\326>\225U\003\227\251=\006.\206Mj"
 164      6D62677F 
 164      D63E9555 
 164      0397A93D 
 164      062E864D 
 165 015b B6A20173 		.ascii	"\266\242\001s\005~\212k\242\307\302\004G\212\\!_\224"
 165      057E8A6B 
 165      A2C7C204 
 165      478A5C21 
 165      5F94
 166 016d 17E15A98 		.ascii	"\027\341Z\230l/\261\276\375\255\326\251\242\201\367"
 166      6C2FB1BE 
 166      FDADD6A9 
 166      A281F7
 167 017c C396EE2A 		.ascii	"\303\226\356*#\374K\306\357sR\306\347\3552\336\331\237"
 167      23FC4BC6 
 167      EF7352C6 
 167      E7ED32DE 
 167      D99F
ARM GAS  /tmp/ccxxnAte.s 			page 13


 168 018e 8ADF596C 		.ascii	"\212\337Yl\276\376\271E\317n\011\3121\261\203\244\006"
 168      BEFEB945 
 168      CF6E09CA 
 168      31B183A4 
 168      06
 169 019f 3EA143CC 		.ascii	">\241C\314\334\224\320\300\247\230\212,\353P\252/\366"
 169      DC94D0C0 
 169      A7988A2C 
 169      EB50AA2F 
 169      F6
 170 01b0 4750CD31 		.ascii	"GP\3151D\375\246\267+C\017\247\323z\3649\236\356\026"
 170      44FDA6B7 
 170      2B430FA7 
 170      D37AF439 
 170      9EEE16
 171 01c3 75CFE53A 		.ascii	"u\317\345:\317\333^.\315\341x\253\217;\266\355\214\352"
 171      CFDB5E2E 
 171      CDE178AB 
 171      8F3BB6ED 
 171      8CEA
 172 01d5 05C72D7A 		.ascii	"\005\307-z\372\231\301\314@f\202\002\271\343\232\303"
 172      FA99C1CC 
 172      40668202 
 172      B9E39AC3 
 173 01e5 E3A7EC74 		.ascii	"\343\247\354t\036\324qcd\314<\271\303\035s\242\250\017"
 173      1ED47163 
 173      64CC3CB9 
 173      C31D73A2 
 173      A80F
 174 01f7 64B267B3 		.ascii	"d\262g\263\2725\312G\306.\233:\267=\313\033\316qN\367"
 174      BA35CA47 
 174      C62E9B3A 
 174      B73DCB1B 
 174      CE714EF7 
 175 020b 7A3B3288 		.ascii	"z;2\210c\362\336\244G\376\236LvP\273dxf\301\265\216"
 175      63F2DEA4 
 175      47FE9E4C 
 175      7650BB64 
 175      7866C1B5 
 176 0220 69FD2780 		.ascii	"i\375'\200\271\220\260M\333q'\201\025\013\012\345\372"
 176      B990B04D 
 176      DB712781 
 176      150B0AE5 
 176      FA
 177 0231 77085948 		.ascii	"w\010YH\036~\003\230\370\370\303"
 177      1E7E0398 
 177      F8F8C3
 178              		.text
 179              		.section	.gnu.lto_.symbol_nodes.61eb1a0820de6ce1,"",%progbits
 180 0000 789C45C8 		.ascii	"x\234E\310\273\015\2000\020\203a\373.\241d\005F=$\032"
 180      BB0D8030 
 180      108361FB 
 180      2EA16405 
 180      463D241A 
 181 0014 44C5046C 		.ascii	"D\305\004lA\303\263\240H\307\016\210\226\031\020\221"
 181      41C3B3A0 
 181      48C70E88 
ARM GAS  /tmp/ccxxnAte.s 			page 14


 181      96191091 
 182 0024 40C4D5FF 		.ascii	"@\304\325\377Y 0|\223\201\261\333\0350\353j\372\231"
 182      5920307C 
 182      9381B1DB 
 182      1D30EB6A 
 182      FA99
 183 0036 B120238D 		.ascii	"\261 #\215\351\225\211&\211\\i\372\262,\311\205\346"
 183      E9958926 
 183      895C69FA 
 183      B22CC985 
 183      E6
 184 0047 92369AFF 		.ascii	"\2226\232\377\245\3608CP\205C\325\\\205\212\303\331"
 184      A5F03843 
 184      508543D5 
 184      5C858AC3 
 184      D9
 185 0058 E7AA19AA 		.ascii	"\347\252\031\252\343&\036ko%+"
 185      E3261E6B 
 185      6F252B
 186              		.text
 187              		.section	.gnu.lto_.refs.61eb1a0820de6ce1,"",%progbits
 188 0000 789C6362 		.ascii	"x\234cb`b\340f\200\000F bb\002R\214\014\000\001s\000"
 188      6062E066 
 188      80004620 
 188      62620252 
 188      8C0C0001 
 189 0016 18       		.ascii	"\030"
 190              		.text
 191              		.section	.gnu.lto_.decls.61eb1a0820de6ce1,"",%progbits
 192 0000 789CAD3B 		.ascii	"x\234\255;ip\024\327\231}\21443h\000\331I\\PI\305\362"
 192      697014D7 
 192      997D8C34 
 192      336800D9 
 192      495C5049 
 193 0016 96B39575 		.ascii	"\226\263\225u\225\021\354&6N\325\306\007\311\032\252"
 193      9511EC26 
 193      364ED5C6 
 193      07C91AAA 
 194 0026 C21685D6 		.ascii	"\302\026\205\326\345\255\312V\306\315\250\221f\231\313"
 194      E5ADCA56 
 194      C6CDA891 
 194      6699CB
 195 0035 3D2D40BF 		.ascii	"=-@\277\334\222\000a\202m!q)\306 0>\301f-\022\216p\015"
 195      DC920061 
 195      826D2171 
 195      29C62030 
 195      3EC1662D 
 196 004d D8DC3237 		.ascii	"\330\33427\310,\227\274\005\330\030L\220\205m0\004\355"
 196      C82C97BC 
 196      05D8184C 
 196      90856D30 
 196      04ED
 197 005f F7BEEE9E 		.ascii	"\367\276\356\236\351\367\246{\246[\270\213\367\324\335"
 197      E9F7A67B 
 197      A65BB88B 
 197      F7D4DD
 198 006e F3BEEF7D 		.ascii	"\363\276\357}\367\373\336\367\032\201\023\270\007\005"
ARM GAS  /tmp/ccxxnAte.s 			page 15


 198      F7FBDEF7 
 198      1A8113B8 
 198      0705
 199 007c 8EEB87CB 		.ascii	"\216\353\207\313\377+\216\373M)\307\3718\216\37354\336"
 199      FF2B8EFB 
 199      4D29C7F9 
 199      388EFB35 
 199      34DE
 200 008e 68E482D7 		.ascii	"h\344\202\327\334rh\317\302\213\337C\213@\253\2016\205"
 200      DC7268CF 
 200      C28BDF43 
 200      8B40AB81 
 200      3685
 201 00a0 D7C7C4CD 		.ascii	"\327\307\304\315\201\306E\306\376\020\332*hC\240\205"
 201      81C645C6 
 201      FE10DA2A 
 201      6843A085 
 202 00b0 A0ED34C6 		.ascii	"\240\3554\306\326A\227\200\266\013\332\016x\336\015"
 202      D6419780 
 202      B60BDA0E 
 202      78DE0D
 203 00bf 7FF7427B 		.ascii	"\177\367B{\035\356\007\303\337\325\360w-\264[\320\366"
 203      1DEE07C3 
 203      DFD5F077 
 203      2DB45BD0 
 203      F6
 204 00d0 C3732DB4 		.ascii	"\303s-\264.h\325\320\006\301;\025\376j\320B\320~\014"
 204      2E68D5D0 
 204      06C13B15 
 204      FE6AD042 
 204      D07E0C
 205 00e3 EDDFA075 		.ascii	"\355\337\240u\302\373\215\3206A\373\016\332Px\0274\350"
 205      C2FB8DD0 
 205      3641FB0E 
 205      DA507817 
 205      34E8
 206 00f5 F818EE0F 		.ascii	"\370\030\356\017C;\006\355\214A7\241\377\"\264K\274"
 206      433B06ED 
 206      8C4137A1 
 206      FF22B44B 
 206      BC
 207 0106 CEEF7FC0 		.ascii	"\316\357\177\300\337\211\320\256\360\371\274\020\236"
 207      DF89D0AE 
 207      F0F9BC10 
 207      9E
 208 0113 CB6D78B1 		.ascii	"\313mx\261\322n\345\211\320Nx\3502\370%t\023^\374\026"
 208      D26EE589 
 208      D04E78E8 
 208      32F82574 
 208      135EFC16 
 209 0127 DA09CD84 		.ascii	"\332\011\315\204\336N\013\315Ac.+\275_\031\264\336\262"
 209      DE4E0BCD 
 209      41632E2B 
 209      BD5F19B4 
 209      DEB2
 210 0139 D06B27EF 		.ascii	"\320k'\357\337\033\374\356\260\320h\322F\350&\262\345"
 210      DF1BFCEE 
ARM GAS  /tmp/ccxxnAte.s 			page 16


 210      B0D068D2 
 210      46E826B2 
 210      E5
 211 014a 41CFFF65 		.ascii	"A\317\377e\300\005\014\030\353\\\202\240\353\323\234"
 211      C0050C18 
 211      EB5C82A0 
 211      EBD39C
 212 0159 478431CF 		.ascii	"G\2041\317\301_\011\232_\240\347\273\237[\252u\364\364"
 212      C15F099A 
 212      5FA0E7BB 
 212      9F5BAA75 
 212      F4F4
 213 016b 5CB8BC61 		.ascii	"\\\270\274a\270\326\321\230\351\357\177\234\273\217"
 213      B8D6D198 
 213      E9EF7F9C 
 213      BB8F
 214 0179 5BA0C1D5 		.ascii	"[\240\301\3251K\323x5\310\3156\036\306\356\001z\376"
 214      314BD378 
 214      35C8CD36 
 214      1EC6EE01 
 214      7AFE
 215 018b 9397F821 		.ascii	"\223\227\370!A\256\002oBA\024\371\317\270\225\232\326"
 215      41AE026F 
 215      424114F9 
 215      CFB8959A 
 215      D6
 216 019c D2F3F795 		.ascii	"\322\363\367\225s\377U\323\002\022\377:\037\004c\004"
 216      73FF55D3 
 216      0212FF3A 
 216      1F046304 
 217 01ac 013CC4BD 		.ascii	"\001<\304\275\003\240-\232\266\242\222\341\022/\367"
 217      03A02D9A 
 217      B6A292E1 
 217      122FF7
 218 01bb A8DB771F 		.ascii	"\250\333w\037<\3147\0029\022\377\026\"\377\220\347\201"
 218      3CCC3702 
 218      3912FF16 
 218      22FF90E7 
 218      81
 219 01cc 9B37F987 		.ascii	"\2337\371\207\014T\022_\032\264\242\306gs\000\301\007"
 219      0C54125F 
 219      1AB4A2C6 
 219      677300C1 
 219      07
 220 01dd 8F64AE1B 		.ascii	"\217d\256\033\304=\370\027\2147\350+\334\200\341\354"
 220      C43DF817 
 220      8C37E82B 
 220      DC80E1EC 
 221 01ed 08262856 		.ascii	"\010&(V\360\367\341\235\310\241\254\313\2709\232\326"
 221      F0F7E19D 
 221      C8A1ACCB 
 221      B8399AD6 
 222 01fd 68B0792F 		.ascii	"h\260y/7\217\340\253\2600\334\3413\021\374&\307\361"
 222      378FE0AB 
 222      B030DCE1 
 222      3311FC26 
 222      C7F1
ARM GAS  /tmp/ccxxnAte.s 			page 17


 223 020f FA03DB7E 		.ascii	"\372\003\333~\205\302\\\315\337\013h\2561\374\026E#"
 223      85C25CCD 
 223      DF0B68AE 
 223      31FC1645 
 223      23
 224 0220 70371164 		.ascii	"p7\021d\015\200\353\200\210X\353Y\324z\246\221o@Q\222"
 224      0D80EB80 
 224      8858EB59 
 224      D47AA691 
 224      6F405192 
 225 0234 DF380A2D 		.ascii	"\3378\012-u=\300u\000@\346\333}Kx\255c\007o3\345\023"
 225      753DC075 
 225      0040E6DB 
 225      7D4B78AD 
 225      63076F33 
 226 024a E68C010B 		.ascii	"\346\214\001\013\341/\037\233\307\317@\374k\221\364"
 226      E12F1F9B 
 226      C7CF40FC 
 226      6B91F4
 227 0259 95822DE9 		.ascii	"\225\202-\351\035O8!\022\270?#\310\272<\322\217\034"
 227      1D4F3821 
 227      12B83F23 
 227      C8BA3CD2 
 227      8F1C
 228 026b 34495FE7 		.ascii	"4I_\347\202\364\306\314\3419\257\015'\244K\374*\276"
 228      82F4C6CC 
 228      E139AF0D 
 228      27A44BFC 
 228      2ABE
 229 027d 0CF0EECC 		.ascii	"\014\360\356\314\342\265S\235q\253_\306\000\032\337"
 229      E2B5539D 
 229      71AB5FC6 
 229      001ADF
 230 028c 917DA116 		.ascii	"\221}\241\026\311D\266\3173\262\012;RM\273\313q+\361"
 230      C944B6CF 
 230      33B20A3B 
 230      524DBBCB 
 230      712BF1
 231 029f 1BF89F41 		.ascii	"\033\370\237A\277\221\177\000\372M\320g/\201;(\230Z"
 231      BF917F00 
 231      FA4DD067 
 231      2F813B28 
 231      985A
 232 02b1 B5135D71 		.ascii	"\265\023]q\026n\356[\202\"A\337kt\345\326\035\206[o"
 232      166EEE5B 
 232      822241DF 
 232      6B74E5D6 
 232      1D865B6F 
 233 02c5 43CF3BCE 		.ascii	"C\317;\316\250\323=\242\366\346c\275\206\023\357@Tg"
 233      A8D33DA2 
 233      F6E663BD 
 233      8613EF40 
 233      5467
 234 02d7 04D689FD 		.ascii	"\004\326\211\375\214\023\373ig\304\237\215\033\342\203"
 234      8C13FB69 
 234      67C49F8D 
 234      1BE283
ARM GAS  /tmp/ccxxnAte.s 			page 18


 235 02e6 4339AFC3 		.ascii	"C9\257\303\005\356\"+@;\265\005\234\004H\214\360l+\337"
 235      05EE222B 
 235      403BB505 
 235      9C04488C 
 235      F06C2BDF 
 236 02fa D6A4ED19 		.ascii	"\326\244\355\031i\032r\251\023\337\002w\031'\333\315"
 236      691A72A9 
 236      13DF0277 
 236      1927DBCD 
 237 030a 1A726F77 		.ascii	"\032row\227i\310\273]\031\362_\366-B\255\025\015%\202"
 237      9769C8BB 
 237      5D19F25F 
 237      F62D42AD 
 237      150D2582 
 238 031e 39FF8338 		.ascii	"9\377\2038\377\012\221\314\337\305\316\277\345\324\351"
 238      FF0A91CC 
 238      DFC5CEBF 
 238      E5D4E9
 239 032d 99C6FC5D 		.ascii	"\231\306\374]\256\346\337\330=?\177~\211\377\365\217"
 239      AEE6DFD8 
 239      3D3F7F7E 
 239      89FFF58F 
 240 033d 0AE9BBB7 		.ascii	"\012\351\273\267\373b\2571\313!\364\230\323\"\253\357"
 240      FB62AF31 
 240      CB21F498 
 240      D322ABEF 
 241 034d C7CB6805 		.ascii	"\307\313h\005\302\263e\200\300]\310\322? \207\005F\257"
 241      C2B36580 
 241      C05DC8D2 
 241      3F208705 
 241      46AF
 242 035f 2EE05B89 		.ascii	".\340[\211\262L\032>\367\214\261\202\222\304\346n\014"
 242      B24C1A3E 
 242      F78CB182 
 242      92C4E66E 
 242      0C
 243 0370 013AB2CB 		.ascii	"\001:\262\313n\2209\332Rcf\253\025\331U\317\310h\312"
 243      6E9039DA 
 243      526366AB 
 243      15D955CF 
 243      C868CA
 244 0383 0E5991F5 		.ascii	"\016Y\221\365\272AV\356L\331\021+\262\353\236\221\321"
 244      BA4156EE 
 244      4CD9112B 
 244      B2EB9E91 
 244      D1
 245 0394 941DB322 		.ascii	"\224\035\263\"\373\326\015\262a\316\224\235\260\"\273"
 245      FBD60DB2 
 245      61CE949D 
 245      B022BB
 246 03a3 E519194D 		.ascii	"\345\031\031M\331'Vd\375n\220U\330P\226\275\234\022"
 246      D9275664 
 246      FD6E9055 
 246      D85096BD 
 246      9C12
 247 03b5 82FD7CD6 		.ascii	"\202\375|\326\316\005\256\321g\306\004\2176\315\345"
 247      CE05AED1 
ARM GAS  /tmp/ccxxnAte.s 			page 19


 247      67C6048F 
 247      36CDE5
 248 03c4 70CCF479 		.ascii	"p\314\364y\015b\024\337\020\304\316\255\320\203\230"
 248      0D6214DF 
 248      10C4CEAD 
 248      D08398
 249 03d3 B99ABDE8 		.ascii	"\271\232\275\350\006c\001\203i\331oY\032_\361\214\214"
 249      06630183 
 249      69D96F59 
 249      1A5FF18C 
 249      8C
 250 03e4 56CB5282 		.ascii	"V\313R\202\214\2125\306*\323\363Ff\330\342\\\270\013"
 250      8C8A35C6 
 250      2AD3F346 
 250      66D8E25C 
 250      B80B
 251 03f6 98B84876 		.ascii	"\230\270Hv\251\3076H6\205\354`m\3300\373\261\022\377"
 251      A9C73648 
 251      3685EC60 
 251      6DD830FB 
 251      B112FF
 252 0409 252EB157 		.ascii	"%.\261W\371`\226\012\375\336\274\353'i4\267\300g\227"
 252      F960960A 
 252      FDDEBCEB 
 252      276934B7 
 252      C06797
 253 041c B72282C2 		.ascii	"\267\"\202\302\240N\226p\331j\011\177r#\246\002\256"
 253      A04E9670 
 253      D96A097F 
 253      7223A602 
 253      AE
 254 042d 70C8494C 		.ascii	"p\310IL\231Y\332l\276\341\203\237\024L\324z\273\257"
 254      9959DA6C 
 254      BEE1839F 
 254      144CD47A 
 254      BBAF
 255 043f 2E3796E3 		.ascii	".7\226\343>\\\216\227\371lWvW\310\332\233oo\347\233"
 255      3E5C8E97 
 255      F96C5776 
 255      57C8DA9B 
 255      6F6FE79B 
 256 0453 10D93788 		.ascii	"\020\3317\210\354]\037\033\353\203\314\332\036\244\027"
 256      EC5D1F1B 
 256      EB83CCDA 
 256      1EA417
 257 0462 EB603077 		.ascii	"\353`0w\323o^\264\364]\3038I\377+\253\364\327z\226>"
 257      D36F5EB4 
 257      F45DC338 
 257      49FF2BAB 
 257      F4D77A96 
 258 0477 EB43DFB4 		.ascii	"\353C\337\264\362}\215\332\342\221\026{+h\234\220K]"
 258      F27D8DDA 
 258      E291167B 
 258      2B689C90 
 258      4B5D
 259 0489 BF2C622E 		.ascii	"\277,b.u\013\205\364W{\211\273@\324\336\374^%\"\272"
 259      750B85F4 
ARM GAS  /tmp/ccxxnAte.s 			page 20


 259      577B89BB 
 259      40D4DEFC 
 259      5E2522BA 
 260 049d A36F87F2 		.ascii	"\243o\207\362\244\3153\322\346i\311e\015\326\260W/c"
 260      A4CD33D2 
 260      E669C965 
 260      0DD6B057 
 260      2F63
 261 04af 056E3F2B 		.ascii	"\005n?+:\212\304\002\2212+\272\333\336Ew\315\020]\223"
 261      3A8AC402 
 261      91322BBA 
 261      DBDE4577 
 261      CD105D93 
 262 04c3 40383E9C 		.ascii	"@8>\234\307\361\035\217,\013\334I\317l\004h6Z\373\275"
 262      C7F11D8F 
 262      2C0BDC49 
 262      CF6C0468 
 262      365AFBBD 
 263 04d7 B371C360 		.ascii	"\263q\303`c6\262q\356{`\3433\317l\224[\330\300m\325"
 263      6336B271 
 263      EE7B60E3 
 263      33CF6C94 
 263      5BD8C06D 
 264 04ec 7C7D31F8 		.ascii	"|}1\370\001\327Z8\243%\364\274$\374\200\312&3\307\017"
 264      01D75A38 
 264      A325F4BC 
 264      24FC80CA 
 264      2633C70F 
 265 0500 F015FAEB 		.ascii	"\360\025\372\353\342\233\311\276\003K\214\035\231^$"
 265      E29BC9BE 
 265      034B8C1D 
 265      995E24
 266 050f B882B413 		.ascii	"\270\202\264\023\330\201$xZ\246\345 .;:\262\276\273"
 266      D8812478 
 266      5AA6E520 
 266      2E3B3AB2 
 266      BEBB
 267 0521 42D69859 		.ascii	"B\326\230Y\366\212\271]|\234\254b\267\357\022\335\346"
 267      F68AB95D 
 267      7C9CAC62 
 267      B7EF12DD 
 267      E6
 268 0532 836C7866 		.ascii	"\203lxf\322\347\325\016\261'\273\223\336\265\335\010"
 268      D2E7D50E 
 268      B127BB93 
 268      DEB5DD08 
 269 0542 D08B0442 		.ascii	"\320\213\004BPS\011k,\253x&\201&/,C\234t\270P\260\004"
 269      5053096B 
 269      2CAB7826 
 269      81262F2C 
 269      439C74B8 
 270 0559 C2852577 		.ascii	"\302\205%w\245\003\260\237\257\333\314dBW\304\222\273"
 270      A503B09F 
 270      AFDBCC64 
 270      4257C492 
 270      BB
 271 056a C2089B54 		.ascii	"\302\010\233TC\021\305\266;\317\231\270B\310\310J\234"
ARM GAS  /tmp/ccxxnAte.s 			page 21


 271      4311C5B6 
 271      3BCF99B8 
 271      42C8C84A 
 271      9C
 272 057b 7699C0EC 		.ascii	"v\231\300\354v\216^\356\231e\310\221\374V\334HO]\010"
 272      768E5EEE 
 272      9965C891 
 272      FC56DC48 
 272      4F5D08
 273 058e 6AAD21BD 		.ascii	"j\255!\275~!\361[x\301\300j\267\376\0257\321\263\362"
 273      7E21F15B 
 273      78C1C06A 
 273      B7FE1537 
 273      D1B3F2
 274 05a1 9E911E8A 		.ascii	"\236\221\036\212h\1776v\333+\3650\227\247\362\267\330"
 274      687F3676 
 274      DB2BF530 
 274      97A7F2B7 
 274      D8
 275 05b2 F8E0A160 		.ascii	"\370\340\241`%p\335Y\021\271M\034\331\313\311\244\226"
 275      2570DD59 
 275      11B94D1C 
 275      D9CBC9A4 
 275      96
 276 05c3 5A4DEAD4 		.ascii	"ZM\352\324\335\031\000\230\324\256\225\272I\0253\001"
 276      DD190098 
 276      D4AE95BA 
 276      49153301 
 277 05d3 8DB7E693 		.ascii	"\215\267\346\223\002\367\1778\363*\326\006\326\377m"
 277      02F77F38 
 277      F32AD606 
 277      D6FF6D
 278 05e2 4FB3B117 		.ascii	"O\263\261\027]\345\312\006\276\266\261\201U\003\264"
 278      5DE5CA06 
 278      BEB6B181 
 278      5503B4
 279 05f1 0130E84B 		.ascii	"\0010\350K{yD\247\347\307\177,\345it\036\367\215\267"
 279      7B7944A7 
 279      E7C77F2C 
 279      E569741E 
 279      F78DB7
 280 0604 65AF82D1 		.ascii	"e\257\202\321\255+s\362\002\011\325k\005R\227\233W\232"
 280      AD2B73F2 
 280      0209D56B 
 280      0552979B 
 280      579A
 281 0616 174D5032 		.ascii	"\027MP2\026\323\312\211Q\342\337\023H\302\374\276@j"
 281      16D3CA89 
 281      51E2DF13 
 281      48C2FCBE 
 281      406A
 282 0628 526BB0FF 		.ascii	"Rk\260\377@\260T\246\234\314\2423g\026\022\377WV\214"
 282      40B054A6 
 282      9CCCA233 
 282      671612FF 
 282      57568C
 283 063b 6EB72D45 		.ascii	"n\267-E\247y\327j}\355\245wg}\013\217\034\360\265k\231"
ARM GAS  /tmp/ccxxnAte.s 			page 22


 283      A779D76A 
 283      7DEDA577 
 283      677D0B8F 
 283      1CF0B56B 
 284 0650 19A28722 		.ascii	"\031\242\207\"\331j\303m7\240\333v\344\311v\007\353"
 284      D96AC36D 
 284      37A0DB76 
 284      E4C97607 
 284      EB
 285 0661 B66E6A55 		.ascii	"\266njU\253\007\312H\366\2024\267\324E\232[a#s3\272"
 285      AB07CA48 
 285      F68234B7 
 285      D4459A5B 
 285      61237333 
 286 0676 B79E98EF 		.ascii	"\267\236\230\357\262\336\225-]w5\030\025\340\255hi\177"
 286      B2DE952D 
 286      5D773518 
 286      15E0AD68 
 286      697F
 287 0688 61A4E1A2 		.ascii	"a\244\341\242p\366\021\202lg\335xQk\266p\266\335\205"
 287      70F61182 
 287      6C67DD78 
 287      516BB670 
 287      B6DD85
 288 069b 1B3766D6 		.ascii	"\0337f\326R\025`\323\002\267\027\266\300\202\022\245"
 288      521560D3 
 288      02B717B6 
 288      C08212A5 
 289 06ab 94B8DDE2 		.ascii	"\224\270\335\342 \037\242\203|du\012\201;\346F\372?"
 289      201FA283 
 289      7C64750A 
 289      813BE646 
 289      FA3F
 290 06bd 77324508 		.ascii	"w2E\010CG\364\342\273YL?\315\342\263\013D\024>\2536"
 290      4347F4E2 
 290      BB594C3F 
 290      CDE2B30B 
 290      44143EAB 
 291 06d2 619B7E14 		.ascii	"a\233~\024\363%\335J/\270!n\2443\262em\246p\337\305"
 291      F325DD4A 
 291      2FB8216E 
 291      A433B265 
 291      6DA670DF 
 292 06e7 FCE4AA1B 		.ascii	"\374\344\252\033|\243\235\230m\314\254?j&\207z\251\371"
 292      7CA39D98 
 292      6DCCAC3F 
 292      6A26877A 
 292      A9F9
 293 06f9 1BCFF868 		.ascii	"\033\317\370h\372\216\267Q\371\\\277\033tO\270\326}"
 293      FA8EB751 
 293      F95CBF1B 
 293      744FB8D6 
 293      7D
 294 070a EE640542 		.ascii	"\356d\005B!V\023:\261`\277\025\373]\330_\304\376s\354"
 294      2156133A 
 294      B160BF15 
 294      FB5DD85F 
ARM GAS  /tmp/ccxxnAte.s 			page 23


 294      C4FE73EC 
 295 071e BFC0BE17 		.ascii	"\277\300\276\027\373\357\260o\3040\332\214\375\\\354"
 295      FBEFB06F 
 295      C430DA8C 
 295      FD5CEC
 296 072d B760BF0B 		.ascii	"\267`\277\013\373=\330\357\303\276\013\373\003n\002"
 296      FB3DD8EF 
 296      C3BE0BFB 
 296      036E02
 297 073c 2E93011A 		.ascii	".\223\001\032gPzf\2067\317\210\026\373\234\351\247]"
 297      67507A66 
 297      8637CF88 
 297      16FB9CE9 
 297      A75D
 298 074e F341EE75 		.ascii	"\363A\356uMk\355\271p\371\023\021\"\240/[\320\301a\313"
 298      4D6BEDB9 
 298      70F91311 
 298      22A02F5B 
 298      D0C161CB 
 299 0762 F9FB6DA7 		.ascii	"\371\373m\2475\362P\204m\321^\225\307\232y`k\0210\203"
 299      35F25084 
 299      6DD15E95 
 299      C79A7960 
 299      6B113083 
 300 0776 A67FE4DE 		.ascii	"\246\177\344\336 \361`\315\254\231\345>\363\2453\230"
 300      20F160CD 
 300      AC99E53E 
 300      F3A53398 
 301 0786 C1E76181 		.ascii	"\301\347a\201:\310\324\21713\347v\277d\177\214\251\323"
 301      3AC8D48F 
 301      3133E776 
 301      BF647F8C 
 301      A9D3
 302 0798 E824B44F 		.ascii	"\350$\264O\204\3738Z:\220\0263\2421\350l\324:\337\326"
 302      84FB385A 
 302      3A901633 
 302      A231E86C 
 302      D43ADFD6 
 303 07ac 8266EA2D 		.ascii	"\202f\352-\361\335BA2O\332\222\271m\316~\310\007\264"
 303      F1DD4241 
 303      324FDA92 
 303      B96DCE7E 
 303      C807B4
 304 07bf DBFDFD22 		.ascii	"\333\375\375\"K\246CM\235\340:-P\347\212:\015"
 304      4BA6434D 
 304      9DE03A2D 
 304      50E78A3A 
 304      0D
 305 07d0 4514DC61 		.ascii	"E\024\334a\253`\355V\365X\323T\216\012$$\236r`\203\326"
 305      AB60ED56 
 305      F558D354 
 305      8E0A2424 
 305      9E726083 
 306 07e5 ED3253B7 		.ascii	"\3552S\267\022\177\274\010\030\255\333\227\264\231\345"
 306      127FBC08 
 306      18ADDB97 
 306      B499E5
ARM GAS  /tmp/ccxxnAte.s 			page 24


 307 07f4 3C32C719 		.ascii	"<2\307\031P\224/\235\313\227RO\013D\373s\315\374\274"
 307      50942F9D 
 307      CB97524F 
 307      0B44FB73 
 307      CDFCBC
 308 0807 A68E3DDA 		.ascii	"\246\216=\3325\262 \272\027\324yVP\267\220dJ0\357\345"
 308      35B220BA 
 308      17D47956 
 308      50B79064 
 308      4A30EFE5 
 309 081b A9571F7A 		.ascii	"\251W\037z\321\216\224\314\315\263/\017\327\226{\266"
 309      D18E94CC 
 309      CDB32F0F 
 309      D7967BB6 
 310 082b ABCFED34 		.ascii	"\253\317\3554\306\020\262\311\201\220/l\011\231\267"
 310      C610B2C9 
 310      81902F6C 
 310      0999B7
 311 083a 6C6E9610 		.ascii	"ln\226\020\335\"\004n\267\003\206+4\206\177\340\226"
 311      DD22046E 
 311      B703862B 
 311      34867FE0 
 311      96
 312 084b 130CC797 		.ascii	"\023\014\307\227.\344\001\203\246\335\201\015\202\335"
 312      2EE40183 
 312      A6DD810D 
 312      82DD
 313 0859 1992DFE4 		.ascii	"\031\222\337\344B\345,{\321\353\313\215\372\336U\\\323"
 313      42E52C7B 
 313      D1EBCB8D 
 313      FADE555C 
 313      D3
 314 086a 8FF96DD7 		.ascii	"\217\371m\327tgD\002\327\203 \275\371k\372\331Y\306"
 314      74674402 
 314      D78320BD 
 314      F96BFAD9 
 314      59C6
 315 087c 9ADEEB2A 		.ascii	"\232\336\353*5\237w\312\361@\272'\233\364\376\304B\373"
 315      359F77CA 
 315      F140BA27 
 315      9BF4FEC4 
 315      42FB
 316 088e 81EE4F0D 		.ascii	"\201\356O\015\332\277F\332\277(N;\215H\340\276E\220"
 316      DABF46DA 
 316      BF284E3B 
 316      8D48E0BE 
 316      4590
 317 08a0 1BF9B47F 		.ascii	"\033\371\264\177i\036\244\335pE\373\372n\353znn,n\014"
 317      691EA4DD 
 317      7045FBFA 
 317      6EEB7A6E 
 317      6E2C6E0C 
 318 08b4 7863B141 		.ascii	"xc\261A?\300\330\206\366\275\223E\346i[\241\231g[\372"
 318      3FC0D886 
 318      F6BD9345 
 318      E6695BA1 
 318      99675BFA 
ARM GAS  /tmp/ccxxnAte.s 			page 25


 319 08c8 71E505CF 		.ascii	"q\345\005\317\310*(\312\216.\2423\257\317\334\340+p"
 319      C82A28CA 
 319      8E2EA233 
 319      AFCFDCE0 
 319      2B70
 320 08da C0601C22 		.ascii	"\300`\034\"\351\310.yFF\023\367\277\335\226\323\212"
 320      E9C82E79 
 320      464613F7 
 320      BFDD96D3 
 320      8A
 321 08eb 9901BE38 		.ascii	"\231\001\27682\2732\274\335e5\022X\3471'\274\205\253"
 321      32BB32BC 
 321      DD653512 
 321      58E73127 
 321      BC85AB
 322 08fe F76DECFF 		.ascii	"\367m\354\377\216\375\035\354\373\261\327D*c|)`z\211"
 322      8EFD1DEC 
 322      FBB1D744 
 322      2A637C29 
 322      607A89
 323 0911 AD291633 		.ascii	"\255)\0263\011-\323\356\354\036T\275$\353\331\2375\360"
 323      092DD3EE 
 323      EC1E54BD 
 323      24EBD99F 
 323      35F0
 324 0923 33D18467 		.ascii	"3\321\204g\210\304;\332\002E\275\203\251\273\274\203"
 324      88C43BDA 
 324      0245BD83 
 324      A9BBBC83 
 325 0933 10CD62DE 		.ascii	"\020\315b\336\347\032'L\347 \277\025O\326\317,tW\366"
 325      E71A274C 
 325      E720BF15 
 325      4FD6CF2C 
 325      7457F6
 326 0946 E9C84AE4 		.ascii	"\351\310J\344\207\026>\016\2347\277;\231\213|d\212\363"
 326      87163E0E 
 326      9C37BF3B 
 326      998B7C64 
 326      8AF3
 327 0958 412312B8 		.ascii	"A#\022\270C\010\362J>#\273LF^q\305\310k\013M\333\377"
 327      4308F24A 
 327      3E23BB4C 
 327      465E71C5 
 327      C86B0B4D 
 328 096e A398DB75 		.ascii	"\243\230\333u\020\330\001mH3KO\240\271\352\3106{FF\333"
 328      10D8016D 
 328      48334B4F 
 328      A0B9EAC8 
 328      367B4646 
 329 0983 FE072796 		.ascii	"\376\007'\226\014\323:\266\233_\200h\263\264\237\277"
 329      0CD33AB6 
 329      9B5F8068 
 329      B3B49FBF 
 330 0993 9D1349B9 		.ascii	"\235\023I\271\211A\260\212v\335C\270\271] \222\367\237"
 330      8941B08A 
 330      76DD43B8 
 330      B95D2092 
ARM GAS  /tmp/ccxxnAte.s 			page 26


 330      F79F
 331 09a5 3282758F 		.ascii	"2\202u\217\250\275y\375hD\264\030\021]f\020I\274\310"
 331      A8BD79FD 
 331      6844B418 
 331      115D6610 
 331      49BCC8
 332 09b8 6C92457A 		.ascii	"l\222Ez\223,\006s7$u\3626X\340\256g\365kGd\261\000I"
 332      932C0673 
 332      372475F2 
 332      3658E0AE 
 332      67F56B47 
 333 09d0 CA525D0B 		.ascii	"\312R]\013l\312R\356\023\223\245\"\223\017<\316\244"
 333      6CCA52EE 
 333      1393A522 
 333      930F3CCE 
 333      A4
 334 09e1 0385B6D5 		.ascii	"\003\205\266\325/\237m0\312\230\257\211$n}\307\210\217"
 334      2F9F6D30 
 334      CA98AF89 
 334      246E7DC7 
 334      888F
 335 09f3 A92E93B9 		.ascii	"\251.\223\271\234\350X!\2269\030q\336o\002\327\024\344"
 335      9CE85821 
 335      96391871 
 335      DE6F02D7 
 335      14E4
 336 0a05 8B1B5CC1 		.ascii	"\213\033\\\301\303\346\217\3370\353\303\270\021\233"
 336      C3E68FDF 
 336      30EBC3B8 
 336      119B
 337 0a13 ED06A1DD 		.ascii	"\355\006\241\335R`wY\375U\342\347\211$\340\266\212$"
 337      52607759 
 337      FD55E2E7 
 337      8924E0B6 
 337      8A24
 338 0a25 B0B6613F 		.ascii	"\260\266a?\037\373%\330\257\024]l\240\210\227eq\353"
 338      1FFB25D8 
 338      AF145D6C 
 338      A0889765 
 338      71EB
 339 0a37 9EDB3C60 		.ascii	"\236\333<`\317\275\226\357\271^\220Q\202\314|mx\256"
 339      CFBD96EF 
 339      B95E9051 
 339      82CC7C6D 
 339      78AE
 340 0a49 EE8812FF 		.ascii	"\356\210\022\377\252\310\340\363f\316\231\371\213B\207"
 340      AAC8E0F3 
 340      66CE99F9 
 340      8B4287
 341 0a58 9E33BD7A 		.ascii	"\2363\275zn\220\367\210\254\274\220R\232-Jy\021\225"
 341      6E90F788 
 341      ACBC9052 
 341      9A2D4A79 
 341      1195
 342 0a6a 320755F0 		.ascii	"2\007U\360&\366oa\3776\275\362-\0102+\037\265\314\330"
 342      26F66F61 
 342      FF36BDF2 
ARM GAS  /tmp/ccxxnAte.s 			page 27


 342      2D08322B 
 342      1FB5CCD8 
 343 0a7e ADC356F1 		.ascii	"\255\303V\361h\231\3779\005\262v_\244\372\322,R\255"
 343      6899FF39 
 343      05B2765F 
 343      A4FAD22C 
 343      52AD
 344 0a90 C6E56249 		.ascii	"\306\345bI\320s\221j\025\202\254\311[.Z\357\230\313"
 344      D073916A 
 344      1582ACC9 
 344      5B2E5AEF 
 344      98CB
 345 0aa2 C59AE2CB 		.ascii	"\305\232\342\313\305\214\246L\373\237\336\314\255{M"
 345      C58CA64C 
 345      FB9FDECC 
 345      AD7B4D
 346 0ab1 5907BE02 		.ascii	"Y\007\276\002!\332\311H\251\357\0106e\351\360h\244\366"
 346      21DAC948 
 346      A9EF0836 
 346      65E9F068 
 346      A4F6
 347 0ac3 AA5B6351 		.ascii	"\252[cQ\335\007\250\272NZQ;YEy,jm<e&\301\372\307\255"
 347      DD07A8BA 
 347      4E5A513B 
 347      5945792C 
 347      6A6D3C65 
 348 0adc 7B597CF4 		.ascii	"{Y|\364\247\254v\010i\315\037\361\242\371\223\357_z"
 348      A7AC7608 
 348      69CD1FF1 
 348      A2F993EF 
 348      5F7A
 349 0aee 1417A18D 		.ascii	"\024\027\241\215\250\367>\257z'\"\332\314\350<\323+"
 349      A8F73EAF 
 349      7A2722DA 
 349      CCE83CD3 
 349      2B
 350 0aff 57E86F8B 		.ascii	"W\350o\213'\0077/\340Y\200\207\332\362y\343\310x\033"
 350      2707372F 
 350      E0598087 
 350      DAF279E3 
 350      C8781B
 351 0b12 3AEA8C41 		.ascii	":\352\214A\337Kmy.\242\331\374}\031\315f\213\321lA\243"
 351      DF4B6D79 
 351      2EA2D9FC 
 351      7D19CD66 
 351      8BD16C41 
 352 0b27 D94A1B4D 		.ascii	"\331J\033M\333 \027F\223r=_\257%\313\356\303,\373:f"
 352      DB201746 
 352      93723D5F 
 352      AF25CBEE 
 352      C32CFB3A 
 353 0b3c D34D1859 		.ascii	"\323M\030YVa\277\016\373\0154\035\013\263\3423\215\215"
 353      5661BF0E 
 353      FB0D341D 
 353      0BB3E233 
 353      8D8D
 354 0b4e DAA612DC 		.ascii	"\332\246\022\334\037\211\331}3\263\246\256u(\036\022"
ARM GAS  /tmp/ccxxnAte.s 			page 28


 354      1F89D97D 
 354      33B3A6AE 
 354      75281E12 
 355 0b5e A89DB975 		.ascii	"\250\235\271u\203\201\272\352\3004\201\332\225\203\272"
 355      8381BAEA 
 355      C03481DA 
 355      9583BA
 356 0b6d 876B41CB 		.ascii	"\207kA\313{b\361\020\375C\"\273@L`v\213\367\340\035"
 356      7B62F110 
 356      FD4322BB 
 356      404C6076 
 356      8BF7E01D 
 357 0b81 75AA8823 		.ascii	"u\252\210#\234f\331#\346>V\012\005s7<=u\0053\363hs\234"
 357      9C66D923 
 357      E63E560A 
 357      0573373C 
 357      3D750533 
 358 0b99 DFC0B3D7 		.ascii	"\337\300\263\327\363\314\373\034f.\265\027\025)\230"
 358      F3CCFB1C 
 358      662EB517 
 358      152998
 359 0ba8 38A1DAEF 		.ascii	"8\241\332\357(\340\363\005\240\272rP\244\204\222\271"
 359      28E0F305 
 359      A0BA7250 
 359      A48492B9 
 360 0bb8 D6D3D7D9 		.ascii	"\326\323\327\331\373\207\325\235\232\366\242v\247\377"
 360      FB87D59D 
 360      9AF6A276 
 360      A7FF
 361 0bc6 858619BC 		.ascii	"\205\206\031\274\373\364\355\200\230_&\334\310\270c"
 361      FBF4ED80 
 361      985F26DC 
 361      C8B863
 362 0bd5 B6E4A5BD 		.ascii	"\266\344\245\275\255\211\331\212\327\307\"S\361:(\346"
 362      AD89D98A 
 362      D7C72253 
 362      F13A28E6 
 363 0be5 557780B4 		.ascii	"Uw\200\264\315\257\036\037NN\236\264\376\376\027\036"
 363      CDAF1E1F 
 363      4E4E9EB4 
 363      FEFE171E 
 364 0bf5 D0E713B8 		.ascii	"\320\347\023\270\017]\315p\230\235\341\210\355\014\233"
 364      0F5DCD70 
 364      989DE188 
 364      ED0C9B
 365 0c04 D6F58EBD 		.ascii	"\326\365\216\275\231c\376\001\367\314\037gs\327\035"
 365      9963FE01 
 365      F7CC1F67 
 365      73D71D
 366 0c13 F945B57E 		.ascii	"\371E\265~\212T\034\011;\3322\303\314\214\332\343\341"
 366      8A541C09 
 366      3BDA32C3 
 366      CC8CDAE3 
 366      E1
 367 0c24 5DA116DE 		.ascii	"]\241\026\336\374\006\374\3252\002qLt*#\356\240\312"
 367      FC06FCD5 
 367      3202714C 
ARM GAS  /tmp/ccxxnAte.s 			page 29


 367      742A23EE 
 367      A0CA
 368 0c36 887D0D13 		.ascii	"\210}\015\023\206e9>\306r\334m\313\361\242#\347\207"
 368      8665393E 
 368      C672DC6D 
 368      CBF1A223 
 368      E787
 369 0c48 0F4CDD67 		.ascii	"\017L\335gY\216\251z\253\341\357\214\004\226\227\331"
 369      598EA97A 
 369      ABE1EF8C 
 369      049697D9 
 370 0c58 D65BD7CB 		.ascii	"\326[\327\313L\275\365\214#\307\271zk\2536O\027\325"
 370      4CBDF58C 
 370      23C7B97A 
 370      6BAB364F 
 370      17D5
 371 0c6a 4ECCF7DF 		.ascii	"N\314\367\337G\324\316\200\006A\206\250Nj\026Q\235a"
 371      47D4CE80 
 371      064186A8 
 371      4E6A1651 
 371      9D61
 372 0c7c 45F5A9AD 		.ascii	"E\365\251\255\250\276\352<\\\233g~\235en\314\357\";"
 372      A8BEEA3C 
 372      5C9B677E 
 372      9D656ECC 
 372      EF223B
 373 0c8f C3670E06 		.ascii	"\303g\016\006\376e\276\201ou5\303%v\206/\304\274\362"
 373      FE65BE81 
 373      6F7535C3 
 373      2576862F 
 373      C4BCF2
 374 0ca2 E6A1433D 		.ascii	"\346\241C=;\257.\346g\367h-X\336\264\3065K:5\301\024"
 374      3BAF2EE6 
 374      67F7682D 
 374      58DEB4C6 
 374      354B3A35 
 375 0cb8 DC208474 		.ascii	"\334 \204t\210~\314(\370\315s\364\373\233C\364\263."
 375      887ECC28 
 375      F8CD73F4 
 375      FB9B43F4 
 375      B32E
 376 0cca 6EB951E4 		.ascii	"n\271Q\344?\225\2241'&\014\021\002w\324\360&\211\007"
 376      3F959431 
 376      27260C11 
 376      0277D4F0 
 376      268907
 377 0cdd 5F33C5DA 		.ascii	"_3\305\332\266\355\246\325\306\237\244l<\3005\343\307"
 377      B6EDA6D5 
 377      C69FA46C 
 377      3CC035E3 
 377      C7
 378 0cee 6933B506 		.ascii	"i3\265\006\376\371\354\352\352\360\355,\254\243b\000"
 378      FEF9ECEA 
 378      EAF0ED2C 
 378      ACA36200 
 379 0cfe A6690839 		.ascii	"\246i\0109~\371J\006\230L\351\367\346]\201O/\373\354"
 379      7EF94A06 
ARM GAS  /tmp/ccxxnAte.s 			page 30


 379      984CE9F7 
 379      E65D814F 
 379      2FFBEC
 380 0d11 7C89F19D 		.ascii	"|\211\361\235\346\220\255\357la}\347\253\302\276\223"
 380      E690ADEF 
 380      6C617DE7 
 380      ABC2BE93 
 381 0d21 3DA83979 		.ascii	"=\2509y\232\270\200N\"\005E\361n\020x\303!x\\\031\276"
 381      9AB8804E 
 381      220545F1 
 381      6E1078C3 
 381      21785C19 
 382 0d36 D1397814 		.ascii	"\3219x\024\252\375\337f9\336)\346q\274\310\236\343\233"
 382      AAFDDF66 
 382      39DE29E6 
 382      71BCC89E 
 382      E39B
 383 0d48 84637DF8 		.ascii	"\204c}\370y\334\343\335r\345\364\215Z\337\371\011cs"
 383      79DCE3DD 
 383      72E5F48D 
 383      5ADFF909 
 383      6373
 384 0d5a 47534E50 		.ascii	"GSNP\006\201wh\216\2315\365t\2015\265\301\307\256\251"
 384      06817768 
 384      8E9935F5 
 384      748135B5 
 384      C1C7AEA9 
 385 0d6e 6DDBF6FE 		.ascii	"m\333\366\376\324\032d\315\243\211w\354\031\334\310"
 385      D41A64CD 
 385      A38977EC 
 385      19DCC8
 386 0d7d AAB4D1E7 		.ascii	"\252\264\321\347\346\370\351\014{\374\344\014F\037?"
 386      E6F8E90C 
 386      7BFCE40C 
 386      461F3F
 387 0d8c 51C19000 		.ascii	"Q\301\220\000Q\006\335\344\263\015$\357\266\027\015"
 387      5106DDE4 
 387      B30D24EF 
 387      B6170D
 388 0d9b 24B5E6A4 		.ascii	"$\265\346\244\203\021\322!\2200\243`C\354\363\032H\346"
 388      8311D221 
 388      9030A360 
 388      43ECF31A 
 388      48E6
 389 0dad F8EC0349 		.ascii	"\370\354\003I\210b\304\034\005\267\327D\346x\216!B\340"
 389      8862C41C 
 389      05B7D744 
 389      E6788E21 
 389      42E0
 390 0dbf D687AC81 		.ascii	"\326\207\254\201\204\373\361\210\021\225\372\277d\272"
 390      84FBF188 
 390      1195FABF 
 390      64BA
 391 0dcd 52512BD3 		.ascii	"RQ+\323J\2442R\033O\327\214\210p\243\255\277E\222\361"
 391      4AA43252 
 391      1B4FD78C 
 391      8870A3AD 
ARM GAS  /tmp/ccxxnAte.s 			page 31


 391      BF4592F1 
 392 0de1 78325199 		.ascii	"x2Q\231J*j\272\362\311\211\343\307\214\237N\336\245"
 392      4A2A6ABA 
 392      F2C989E3 
 392      C78C9F4E 
 392      DEA5
 393 0df3 A2315949 		.ascii	"\2421YIW>=f\014\200\251\365)9=\242\226+\001\370\260"
 393      573E3D66 
 393      0C80A9F5 
 393      29393DA2 
 393      962B01F8 
 394 0e08 5AFAF4BF 		.ascii	"Z\372\364\277?S1\206\373Cem2.WJ1yz\345x9\241&\225\247"
 394      3F533186 
 394      FB43656D 
 394      322E574A 
 394      31797AE5 
 395 0e22 1529551B 		.ascii	"\025)U\033\215\244+\253\222uJDV\352\303c\222\325\362"
 395      8DA42BAB 
 395      92754A44 
 395      56EAC363 
 395      92D5F2
 396 0e35 53722252 		.ascii	"Sr\"R\033\376]T\225\303\223\223J\030\246\010\377\366"
 396      1BFE5D54 
 396      95C39393 
 396      4A18A608 
 396      FFF6
 397 0e47 C9A7C655 		.ascii	"\311\247\306UJJ\374\341D2!?,K\223\242\225\321D$VW-W"
 397      4A4AFCE1 
 397      4432213F 
 397      2C4B93A2 
 397      95D14424 
 398 0e5f A6D5EA68 		.ascii	"\246\325\352hB\205\271\374\360\347_\3769\254>\3100b"
 398      4285B9FC 
 398      F0E75FFE 
 398      39AC3EC8 
 398      3062
 399 0e71 0E8CD4A6 		.ascii	"\016\214\324\246\353\323&a\001\265V\221\245\352\260"
 399      EBD32661 
 399      01B55691 
 399      A5EAB0
 400 0e80 1A84A9F4 		.ascii	"\032\204\251\364\373\012g\270Hm5\300\014\325\307\245"
 400      FB0A67B8 
 400      486D35C0 
 400      0CD5C7A5 
 401 0e90 C3CFD7C9 		.ascii	"\303\317\327\311urX-\317\202\032\257|\011y\272\352K"
 401      7572582D 
 401      CF821AAF 
 401      7C0979BA 
 401      EA4B
 402 0ea2 29F2D412 		.ascii	")\362\324\022|\366\253)%\232\014\253\201:\2034\037y"
 402      7CF6AB29 
 402      259A0CAB 
 402      813A8334 
 402      1F79
 403 0eb4 0E11C985 		.ascii	"\016\021\311\205#\311\204\012\243\377\251\250dk#IE\206"
 403      23C9840A 
 403      A3FFA9A8 
ARM GAS  /tmp/ccxxnAte.s 			page 32


 403      646B2349 
 403      4586
 404 0ec6 D9CB100C 		.ascii	"\331\313\020\014\020E\324\351\017\273\203\012O}4NxU"
 404      1045D4E9 
 404      0FBB830A 
 404      4F7D344E 
 404      7855
 405 0ed8 E41A905D 		.ascii	"\344\032\220]X\025\224_\010\312/\005\345\021AyTPF\013"
 405      5815945F 
 405      08CA2F05 
 405      E5114179 
 405      5450460B 
 406 0eec CA63A232 		.ascii	"\312c\2422j$\264QBL\021\322)\021P\227$\344i\262R\222"
 406      6A24B451 
 406      424C11D2 
 406      29115097 
 406      24E469B2 
 407 0f02 8C55CB8A 		.ascii	"\214U\313\212/R+)\276\204\024\227\007\245\325)R,Z\223"
 407      2F522B29 
 407      BE841497 
 407      07A5D529 
 407      522C5A93 
 408 0f16 309879E4 		.ascii	"0\230y\344\027\240\325i\322$)-\007\324\264*\201\252"
 408      17A0D569 
 408      D224292D 
 408      07D4B42A 
 408      81AA
 409 0f28 543FF961 		.ascii	"T?\371atX-\301g\277\032\007U\302\323\344\230T\223\366"
 409      74582DC1 
 409      67BF1A07 
 409      55C2D3E4 
 409      985493F6 
 410 0f3c AB8A3C39 		.ascii	"\253\212<9\015\002 \177J\225\352z\260\213\200<=\252"
 410      0D02207F 
 410      4A95EA7A 
 410      B08B803C 
 410      3DAA
 411 0f4e 466050E9 		.ascii	"F`P\351459\351\277S\367\032*\201!\262\002&@\200\247"
 411      343539E9 
 411      BF53F71A 
 411      2A8121B2 
 411      02264080 
 412 0f63 A9AA92F2 		.ascii	"\251\252\222\362\247\301X\000 \004\362N\313q0\031\340"
 412      A7C15800 
 412      2004F24E 
 412      CB713019 
 412      E0
 413 0f74 ED7E676D 		.ascii	"\355~gm\311\204\351\222HB\015\253\"\364\200\036^\245"
 413      C984E992 
 413      48420DAB 
 413      22F4801E 
 413      5EA5
 414 0f86 02001DAF 		.ascii	"\002\000\035\257\003\231;C\306\325\351\00429-!+~\034"
 414      03993B43 
 414      C6D5E904 
 414      32392D21 
 414      2B7E1C
ARM GAS  /tmp/ccxxnAte.s 			page 33


 415 0f99 4BB854E1 		.ascii	"K\270T\341u\252L"
 415      75AA4C
 416 0fa0 9E4A8890 		.ascii	"\236J\210\220\322S\340\225<\215\334\360uCL\355\307\242"
 416      D253E095 
 416      3C8DDCF0 
 416      75434CED 
 416      C7A2
 417 0fb2 69986CA8 		.ascii	"i\230l\250\305\036\310\033\3774)\252F\0235\001\240\035"
 417      C51EC81B 
 417      FF3429AA 
 417      46133501 
 417      A01D
 418 0fc4 ED2120A7 		.ascii	"\355! \247\344\004Xk\215\037P\222\021\240\031)Fl\242"
 418      E404586B 
 418      8D1F5092 
 418      11A01929 
 418      466CA2
 419 0fd7 249E4A26 		.ascii	"$\236J&c`\213\343\3235U0FPS\"@\351/\236\0054!\274\233"
 419      63608BE3 
 419      D3355530 
 419      46505322 
 419      40E92F9E 
 420 0ff0 28C76410 		.ascii	"(\307d\020\371\340HmU\244\366\351dUL\226"
 420      F9E0486D 
 420      55A4F6E9 
 420      64554C96 
 421 1000 535565F8 		.ascii	"SUe\3704\021\246\255\037\027\302\373g\245)r\035\376"
 421      3411A6AD 
 421      1F17C2FB 
 421      67A52972 
 421      1DFE
 422 1012 1026262F 		.ascii	"\020&&/\307u3\327\357C\204\300z\203d\300\024\316=\373"
 422      C77533D7 
 422      EF4384C0 
 422      7A8364C0 
 422      14CE3DFB 
 423 1026 23750A48 		.ascii	"#u\012H^-Q\310\323\217\246F\025\265N\212\205\325h\034"
 423      5E2D51C8 
 423      D38FA646 
 423      15B54E8A 
 423      85D5681C 
 424 103a 3CDB80B8 		.ascii	"<\333\200\270\017 l~\030J\275\323}\203z\025$\263\303"
 424      0F206C7E 
 424      184ABDD3 
 424      7D837A15 
 424      24B3C3
 425 104d 8D6140A3 		.ascii	"\215a@\243\036\001\355V\3131U\012LU'\327%\"`\033\344"
 425      1E01ED56 
 425      CB31550A 
 425      4C5527D7 
 425      2522601B 
 426 1062 8F989294 		.ascii	"\217\230\222\224@LJ\253dl\351T\225\340\036b0Q-O\252"
 426      404C4AAB 
 426      646CE954 
 426      95E01E62 
 426      30512D4F 
 427 1077 ABD1C56C 		.ascii	"\253\321\305l}\023LI\211h$\014\342\022\253'\325\014"
ARM GAS  /tmp/ccxxnAte.s 			page 34


 427      7D134C49 
 427      8968240C 
 427      E212AB27 
 427      D50C
 428 1089 8A4B801E 		.ascii	"\212K\200\036\265\360SGE\253\304B\312\325x8\002F=I\221"
 428      B5F05347 
 428      45ABC442 
 428      CAD57838 
 428      02463D49 
 429 109e D468122C 		.ascii	"\324h\022,\333\257\250h4\245\311\311\223\323\262*\250"
 429      DBAFA868 
 429      34A5C9C9 
 429      93D3B22A 
 429      A8
 430 10af 7121525B 		.ascii	"q!R[\300\316\352I \001\301V\325\247\177\227\214L\011"
 430      C0CEEA49 
 430      2001C156 
 430      D5A77F97 
 430      8C4C09
 431 10c2 A283C6E0 		.ascii	"\242\203\306\340n\224\215{\202\257W\216\031_5\256*\207"
 431      6E948D7B 
 431      82AF578E 
 431      195F35AE 
 431      2A87
 432 10d4 219E8EA6 		.ascii	"!\236\216\246\3035\221\010`\031\034\006\313V\303O=Y"
 432      C3359108 
 432      60191C06 
 432      CB56C34F 
 432      3D59
 433 10e6 F5DB0913 		.ascii	"\365\333\011\023\307\015\226b\323\244\37248{,\232\220"
 433      C70D9662 
 433      D3A4FA34 
 433      387B2C9A 
 433      90
 434 10f7 4BA64AB1 		.ascii	"K\246J\261:9\244\007\235h\"-+\252\250>\237*\303\211"
 434      3A39A407 
 434      9D68222D 
 434      2BAAA83E 
 434      9F2AC389 
 435 110b 9F499009 		.ascii	"\237I\220\011\365\330P\207\367\201p\030\345\031\036"
 435      F5D85087 
 435      F7817018 
 435      E5191E
 436 111a 6CDE8CF8 		.ascii	"l\336\214\370\345c\243F\026\260z\010\361`\365\341\247"
 436      E563A346 
 436      16B07A08 
 436      F160F5E1 
 436      A7
 437 112b C00287A2 		.ascii	"\300\002\207\242\231\215KO\320\355t\334=\372\254\223"
 437      998D4B4F 
 437      D0ED74DC 
 437      3DFAAC93 
 438 113b A3939360 		.ascii	"\243\223\223`'\361\344Tb{9C\254\242\346x\354\377\001"
 438      27F1E454 
 438      627B3943 
 438      ACA2E678 
 438      ECFF01
ARM GAS  /tmp/ccxxnAte.s 			page 35


 439 114e 56140F97 		.ascii	"V\024\017\227"
 440              		.text
 441              		.section	.gnu.lto_.symtab.61eb1a0820de6ce1,"",%progbits
 442 0000 63684D73 		.ascii	"chMsgSend\000\000\000\000\000\000\000\000\000\000\000"
 442      6753656E 
 442      64000000 
 442      00000000 
 442      00000000 
 443 0014 00A10000 		.ascii	"\000\241\000\000\000chMsgWait\000\000\000\000\000\000"
 443      0063684D 
 443      73675761 
 443      69740000 
 443      00000000 
 444 0028 00000000 		.ascii	"\000\000\000\000\000\000W\001\000\000chMsgRelease\000"
 444      00005701 
 444      00006368 
 444      4D736752 
 444      656C6561 
 445 003f 00000000 		.ascii	"\000\000\000\000\000\000\000\000\000\000\000[\001\000"
 445      00000000 
 445      0000005B 
 445      0100
 446 004d 00636800 		.ascii	"\000ch\000\000\002\000\000\000\000\000\000\000\000\000"
 446      00020000 
 446      00000000 
 446      000000
 447 005c 6D010000 		.ascii	"m\001\000\000chSchGoSleepS\000\000\002\000\000\000\000"
 447      63685363 
 447      68476F53 
 447      6C656570 
 447      53000002 
 448 0074 00000000 		.ascii	"\000\000\000\000\000c\001\000\000chSchReadyI\000\000"
 448      00630100 
 448      00636853 
 448      63685265 
 448      61647949 
 449 008a 02000000 		.ascii	"\002\000\000\000\000\000\000\000\000\000g\001\000\000"
 449      00000000 
 449      00006701 
 449      0000
 450 0098 63685363 		.ascii	"chSchWakeupS\000\000\002\000\000\000\000\000\000\000"
 450      6857616B 
 450      65757053 
 450      00000200 
 450      00000000 
 451 00ae 00006B01 		.ascii	"\000\000k\001\000\000"
 451      0000
 452              		.text
 453              		.section	.gnu.lto_.opts,"",%progbits
 454 0000 272D6D63 		.ascii	"'-mcpu=cortex-m3' '-mno-thumb-interwork' '-mthumb' "
 454      70753D63 
 454      6F727465 
 454      782D6D33 
 454      2720272D 
 455 0033 272D6767 		.ascii	"'-ggdb' '-O2' '-fomit-frame-pointer' '-falign-funct"
 455      64622720 
 455      272D4F32 
ARM GAS  /tmp/ccxxnAte.s 			page 36


 455      2720272D 
 455      666F6D69 
 456 0066 696F6E73 		.ascii	"ions=16' '-ffunction-sections' '-fdata-sections' '-"
 456      3D313627 
 456      20272D66 
 456      66756E63 
 456      74696F6E 
 457 0099 666E6F2D 		.ascii	"fno-common' '-flto'\000"
 457      636F6D6D 
 457      6F6E2720 
 457      272D666C 
 457      746F2700 
 458              		.text
 459              		.cfi_sections	.debug_frame
 460              		.section	.text.chMsgSend,"ax",%progbits
 461              		.align	2
 462              		.p2align 4,,15
 463              		.global	chMsgSend
 464              		.thumb
 465              		.thumb_func
 466              		.type	chMsgSend, %function
 467              	chMsgSend:
 468              	.LFB186:
 469              		.file 1 "../../../os/rt/src/chmsg.c"
 470              		.loc 1 87 0
 471              		.cfi_startproc
 472              		@ args = 0, pretend = 0, frame = 0
 473              		@ frame_needed = 0, uses_anonymous_args = 0
 474              	.LVL0:
 475              		.loc 1 88 0
 476 0000 40F20003 		movw	r3, #:lower16:ch
 477 0004 C0F20003 		movt	r3, #:upper16:ch
 478              		.loc 1 87 0
 479 0008 10B5     		push	{r4, lr}
 480              		.cfi_def_cfa_offset 8
 481              		.cfi_offset 4, -8
 482              		.cfi_offset 14, -4
 483              		.loc 1 88 0
 484 000a 9C69     		ldr	r4, [r3, #24]
 485              	.LVL1:
 486              	.LBB52:
 487              	.LBB53:
 488              	.LBB54:
 489              	.LBB55:
 490              		.file 2 "../../../os/common/ext/CMSIS/include/cmsis_gcc.h"
 491              		.loc 2 264 0
 492 000c 2023     		movs	r3, #32
 493              	@ 264 "../../../os/common/ext/CMSIS/include/cmsis_gcc.h" 1
 494 000e 83F31188 		MSR basepri, r3
 495              	@ 0 "" 2
 496              		.thumb
 497              	.LBE55:
 498              	.LBE54:
 499              	.LBE53:
 500              	.LBE52:
 501              		.loc 1 93 0
 502 0012 6162     		str	r1, [r4, #36]
ARM GAS  /tmp/ccxxnAte.s 			page 37


 503              	.LVL2:
 504              		.loc 1 95 0
 505 0014 90F82020 		ldrb	r2, [r0, #32]	@ zero_extendqisi2
 506              	.LBB56:
 507              	.LBB57:
 508              		.file 3 "../../../os/rt/include/chschd.h"
 509              		.loc 3 612 0
 510 0018 036B     		ldr	r3, [r0, #48]
 511              	.LBE57:
 512              	.LBE56:
 513              		.loc 1 94 0
 514 001a 00F12C01 		add	r1, r0, #44
 515              	.LVL3:
 516              		.loc 1 95 0
 517 001e 0E2A     		cmp	r2, #14
 518              	.LBB59:
 519              	.LBB58:
 520              		.loc 3 612 0
 521 0020 84E80A00 		stmia	r4, {r1, r3}
 522              		.loc 3 613 0
 523 0024 1C60     		str	r4, [r3]
 524              		.loc 3 614 0
 525 0026 0463     		str	r4, [r0, #48]
 526              	.LVL4:
 527              	.LBE58:
 528              	.LBE59:
 529              		.loc 1 95 0
 530 0028 07D0     		beq	.L4
 531              	.LVL5:
 532              	.L2:
 533              		.loc 1 98 0
 534 002a 0C20     		movs	r0, #12
 535 002c FFF7FEFF 		bl	chSchGoSleepS
 536              	.LVL6:
 537              		.loc 1 99 0
 538 0030 606A     		ldr	r0, [r4, #36]
 539              	.LVL7:
 540              	.LBB60:
 541              	.LBB61:
 542              	.LBB62:
 543              	.LBB63:
 544              	.LBB64:
 545              		.loc 2 264 0
 546 0032 0023     		movs	r3, #0
 547              	@ 264 "../../../os/common/ext/CMSIS/include/cmsis_gcc.h" 1
 548 0034 83F31188 		MSR basepri, r3
 549              	@ 0 "" 2
 550              		.thumb
 551              	.LBE64:
 552              	.LBE63:
 553              	.LBE62:
 554              	.LBE61:
 555              	.LBE60:
 556              		.loc 1 103 0
 557 0038 10BD     		pop	{r4, pc}
 558              	.LVL8:
 559              	.L4:
ARM GAS  /tmp/ccxxnAte.s 			page 38


 560              		.loc 1 96 0
 561 003a FFF7FEFF 		bl	chSchReadyI
 562              	.LVL9:
 563 003e F4E7     		b	.L2
 564              		.cfi_endproc
 565              	.LFE186:
 566              		.size	chMsgSend, .-chMsgSend
 567              		.section	.text.chMsgWait,"ax",%progbits
 568              		.align	2
 569              		.p2align 4,,15
 570              		.global	chMsgWait
 571              		.thumb
 572              		.thumb_func
 573              		.type	chMsgWait, %function
 574              	chMsgWait:
 575              	.LFB187:
 576              		.loc 1 119 0
 577              		.cfi_startproc
 578              		@ args = 0, pretend = 0, frame = 0
 579              		@ frame_needed = 0, uses_anonymous_args = 0
 580              	.LVL10:
 581 0000 10B5     		push	{r4, lr}
 582              		.cfi_def_cfa_offset 8
 583              		.cfi_offset 4, -8
 584              		.cfi_offset 14, -4
 585              	.LBB65:
 586              	.LBB66:
 587              	.LBB67:
 588              	.LBB68:
 589              		.loc 2 264 0
 590 0002 2023     		movs	r3, #32
 591              	@ 264 "../../../os/common/ext/CMSIS/include/cmsis_gcc.h" 1
 592 0004 83F31188 		MSR basepri, r3
 593              	@ 0 "" 2
 594              		.thumb
 595              	.LBE68:
 596              	.LBE67:
 597              	.LBE66:
 598              	.LBE65:
 599              		.loc 1 123 0
 600 0008 40F20004 		movw	r4, #:lower16:ch
 601 000c C0F20004 		movt	r4, #:upper16:ch
 602 0010 A269     		ldr	r2, [r4, #24]
 603              	.LVL11:
 604              	.LBB69:
 605              	.LBB70:
 606              		.file 4 "../../../os/rt/include/chmsg.h"
 607              		.loc 4 83 0
 608 0012 1346     		mov	r3, r2
 609 0014 53F82C0F 		ldr	r0, [r3, #44]!
 610              	.LBE70:
 611              	.LBE69:
 612              		.loc 1 123 0
 613 0018 9842     		cmp	r0, r3
 614 001a 09D0     		beq	.L7
 615              	.LVL12:
 616              	.L6:
ARM GAS  /tmp/ccxxnAte.s 			page 39


 617              	.LBB71:
 618              	.LBB72:
 619              		.loc 3 620 0
 620 001c 0168     		ldr	r1, [r0]
 621              	.LBE72:
 622              	.LBE71:
 623              		.loc 1 127 0
 624 001e 0D24     		movs	r4, #13
 625              	.LBB74:
 626              	.LBB73:
 627              		.loc 3 620 0
 628 0020 D162     		str	r1, [r2, #44]
 629              		.loc 3 621 0
 630 0022 4B60     		str	r3, [r1, #4]
 631              	.LBE73:
 632              	.LBE74:
 633              	.LBB75:
 634              	.LBB76:
 635              	.LBB77:
 636              	.LBB78:
 637              	.LBB79:
 638              		.loc 2 264 0
 639 0024 0022     		movs	r2, #0
 640              	.LBE79:
 641              	.LBE78:
 642              	.LBE77:
 643              	.LBE76:
 644              	.LBE75:
 645              		.loc 1 127 0
 646 0026 80F82040 		strb	r4, [r0, #32]
 647              	.LVL13:
 648              	.LBB84:
 649              	.LBB83:
 650              	.LBB82:
 651              	.LBB81:
 652              	.LBB80:
 653              		.loc 2 264 0
 654              	@ 264 "../../../os/common/ext/CMSIS/include/cmsis_gcc.h" 1
 655 002a 82F31188 		MSR basepri, r2
 656              	@ 0 "" 2
 657              		.thumb
 658              	.LBE80:
 659              	.LBE81:
 660              	.LBE82:
 661              	.LBE83:
 662              	.LBE84:
 663              		.loc 1 131 0
 664 002e 10BD     		pop	{r4, pc}
 665              	.LVL14:
 666              	.L7:
 667              		.loc 1 124 0
 668 0030 0E20     		movs	r0, #14
 669 0032 FFF7FEFF 		bl	chSchGoSleepS
 670              	.LVL15:
 671 0036 A269     		ldr	r2, [r4, #24]
 672 0038 D06A     		ldr	r0, [r2, #44]
 673 003a 02F12C03 		add	r3, r2, #44
ARM GAS  /tmp/ccxxnAte.s 			page 40


 674 003e EDE7     		b	.L6
 675              		.cfi_endproc
 676              	.LFE187:
 677              		.size	chMsgWait, .-chMsgWait
 678              		.section	.text.chMsgRelease,"ax",%progbits
 679              		.align	2
 680              		.p2align 4,,15
 681              		.global	chMsgRelease
 682              		.thumb
 683              		.thumb_func
 684              		.type	chMsgRelease, %function
 685              	chMsgRelease:
 686              	.LFB188:
 687              		.loc 1 143 0
 688              		.cfi_startproc
 689              		@ args = 0, pretend = 0, frame = 0
 690              		@ frame_needed = 0, uses_anonymous_args = 0
 691              	.LVL16:
 692 0000 08B5     		push	{r3, lr}
 693              		.cfi_def_cfa_offset 8
 694              		.cfi_offset 3, -8
 695              		.cfi_offset 14, -4
 696              	.LBB85:
 697              	.LBB86:
 698              	.LBB87:
 699              	.LBB88:
 700              		.loc 2 264 0
 701 0002 2023     		movs	r3, #32
 702              	@ 264 "../../../os/common/ext/CMSIS/include/cmsis_gcc.h" 1
 703 0004 83F31188 		MSR basepri, r3
 704              	@ 0 "" 2
 705              	.LVL17:
 706              		.thumb
 707              	.LBE88:
 708              	.LBE87:
 709              	.LBE86:
 710              	.LBE85:
 711              	.LBB89:
 712              	.LBB90:
 713              		.loc 4 117 0
 714 0008 FFF7FEFF 		bl	chSchWakeupS
 715              	.LVL18:
 716              	.LBE90:
 717              	.LBE89:
 718              	.LBB91:
 719              	.LBB92:
 720              	.LBB93:
 721              	.LBB94:
 722              	.LBB95:
 723              		.loc 2 264 0
 724 000c 0023     		movs	r3, #0
 725              	@ 264 "../../../os/common/ext/CMSIS/include/cmsis_gcc.h" 1
 726 000e 83F31188 		MSR basepri, r3
 727              	@ 0 "" 2
 728              		.thumb
 729 0012 08BD     		pop	{r3, pc}
 730              	.LBE95:
ARM GAS  /tmp/ccxxnAte.s 			page 41


 731              	.LBE94:
 732              	.LBE93:
 733              	.LBE92:
 734              	.LBE91:
 735              		.cfi_endproc
 736              	.LFE188:
 737              		.size	chMsgRelease, .-chMsgRelease
 738 0014 AFF30080 		.text
 738      AFF30080 
 738      AFF30080 
 739              	.Letext0:
 740              		.file 5 "/home/alex/MentorGraphics/Sourcery_CodeBench_Lite_for_ARM_EABI/arm-none-eabi/include/stdi
 741              		.file 6 "../../../os/common/ports/ARMCMx/compilers/GCC/chtypes.h"
 742              		.file 7 "../../../os/rt/include/chsystypes.h"
 743              		.file 8 "../../../os/common/ports/ARMCMx/chcore.h"
 744              		.file 9 "../../../os/common/ports/ARMCMx/chcore_v7m.h"
 745              		.file 10 "../../../os/rt/include/chtm.h"
 746              		.file 11 "../../../os/rt/include/chsem.h"
 747              		.file 12 "../../../os/rt/include/chmtx.h"
 748              		.file 13 "../../../os/rt/include/chsys.h"
 749              		.file 14 "../../../os/common/ext/CMSIS/include/core_cm3.h"
 750              		.section	.debug_info,"",%progbits
 751              	.Ldebug_info0:
 752 0000 650A0000 		.4byte	0xa65
 753 0004 0400     		.2byte	0x4
 754 0006 00000000 		.4byte	.Ldebug_abbrev0
 755 000a 04       		.byte	0x4
 756 000b 01       		.uleb128 0x1
 757 000c 1C020000 		.4byte	.LASF103
 758 0010 01       		.byte	0x1
 759 0011 31000000 		.4byte	.LASF104
 760 0015 16050000 		.4byte	.LASF105
 761 0019 48000000 		.4byte	.Ldebug_ranges0+0x48
 762 001d 00000000 		.4byte	0
 763 0021 00000000 		.4byte	.Ldebug_line0
 764 0025 02       		.uleb128 0x2
 765 0026 04       		.byte	0x4
 766 0027 05       		.byte	0x5
 767 0028 696E7400 		.ascii	"int\000"
 768 002c 03       		.uleb128 0x3
 769 002d 04       		.byte	0x4
 770 002e 07       		.byte	0x7
 771 002f 6E000000 		.4byte	.LASF0
 772 0033 03       		.uleb128 0x3
 773 0034 01       		.byte	0x1
 774 0035 06       		.byte	0x6
 775 0036 C5040000 		.4byte	.LASF1
 776 003a 04       		.uleb128 0x4
 777 003b 06030000 		.4byte	.LASF4
 778 003f 05       		.byte	0x5
 779 0040 2A       		.byte	0x2a
 780 0041 45000000 		.4byte	0x45
 781 0045 03       		.uleb128 0x3
 782 0046 01       		.byte	0x1
 783 0047 08       		.byte	0x8
 784 0048 60040000 		.4byte	.LASF2
 785 004c 03       		.uleb128 0x3
ARM GAS  /tmp/ccxxnAte.s 			page 42


 786 004d 02       		.byte	0x2
 787 004e 05       		.byte	0x5
 788 004f 9E030000 		.4byte	.LASF3
 789 0053 04       		.uleb128 0x4
 790 0054 8D030000 		.4byte	.LASF5
 791 0058 05       		.byte	0x5
 792 0059 36       		.byte	0x36
 793 005a 5E000000 		.4byte	0x5e
 794 005e 03       		.uleb128 0x3
 795 005f 02       		.byte	0x2
 796 0060 07       		.byte	0x7
 797 0061 D7040000 		.4byte	.LASF6
 798 0065 04       		.uleb128 0x4
 799 0066 43040000 		.4byte	.LASF7
 800 006a 05       		.byte	0x5
 801 006b 4F       		.byte	0x4f
 802 006c 70000000 		.4byte	0x70
 803 0070 03       		.uleb128 0x3
 804 0071 04       		.byte	0x4
 805 0072 05       		.byte	0x5
 806 0073 A8030000 		.4byte	.LASF8
 807 0077 04       		.uleb128 0x4
 808 0078 25010000 		.4byte	.LASF9
 809 007c 05       		.byte	0x5
 810 007d 50       		.byte	0x50
 811 007e 82000000 		.4byte	0x82
 812 0082 03       		.uleb128 0x3
 813 0083 04       		.byte	0x4
 814 0084 07       		.byte	0x7
 815 0085 1E040000 		.4byte	.LASF10
 816 0089 03       		.uleb128 0x3
 817 008a 08       		.byte	0x8
 818 008b 05       		.byte	0x5
 819 008c 30030000 		.4byte	.LASF11
 820 0090 04       		.uleb128 0x4
 821 0091 EB030000 		.4byte	.LASF12
 822 0095 05       		.byte	0x5
 823 0096 78       		.byte	0x78
 824 0097 9B000000 		.4byte	0x9b
 825 009b 03       		.uleb128 0x3
 826 009c 08       		.byte	0x8
 827 009d 07       		.byte	0x7
 828 009e 84010000 		.4byte	.LASF13
 829 00a2 04       		.uleb128 0x4
 830 00a3 96030000 		.4byte	.LASF14
 831 00a7 06       		.byte	0x6
 832 00a8 39       		.byte	0x39
 833 00a9 77000000 		.4byte	0x77
 834 00ad 04       		.uleb128 0x4
 835 00ae 7A030000 		.4byte	.LASF15
 836 00b2 06       		.byte	0x6
 837 00b3 3C       		.byte	0x3c
 838 00b4 3A000000 		.4byte	0x3a
 839 00b8 04       		.uleb128 0x4
 840 00b9 FD020000 		.4byte	.LASF16
 841 00bd 06       		.byte	0x6
 842 00be 3D       		.byte	0x3d
ARM GAS  /tmp/ccxxnAte.s 			page 43


 843 00bf 3A000000 		.4byte	0x3a
 844 00c3 04       		.uleb128 0x4
 845 00c4 16040000 		.4byte	.LASF17
 846 00c8 06       		.byte	0x6
 847 00c9 3E       		.byte	0x3e
 848 00ca 3A000000 		.4byte	0x3a
 849 00ce 04       		.uleb128 0x4
 850 00cf 6B010000 		.4byte	.LASF18
 851 00d3 06       		.byte	0x6
 852 00d4 40       		.byte	0x40
 853 00d5 77000000 		.4byte	0x77
 854 00d9 04       		.uleb128 0x4
 855 00da 3E030000 		.4byte	.LASF19
 856 00de 06       		.byte	0x6
 857 00df 41       		.byte	0x41
 858 00e0 65000000 		.4byte	0x65
 859 00e4 04       		.uleb128 0x4
 860 00e5 44010000 		.4byte	.LASF20
 861 00e9 06       		.byte	0x6
 862 00ea 43       		.byte	0x43
 863 00eb 77000000 		.4byte	0x77
 864 00ef 04       		.uleb128 0x4
 865 00f0 9B010000 		.4byte	.LASF21
 866 00f4 06       		.byte	0x6
 867 00f5 45       		.byte	0x45
 868 00f6 65000000 		.4byte	0x65
 869 00fa 04       		.uleb128 0x4
 870 00fb 52000000 		.4byte	.LASF22
 871 00ff 07       		.byte	0x7
 872 0100 35       		.byte	0x35
 873 0101 53000000 		.4byte	0x53
 874 0105 04       		.uleb128 0x4
 875 0106 F6010000 		.4byte	.LASF23
 876 010a 07       		.byte	0x7
 877 010b 3F       		.byte	0x3f
 878 010c 10010000 		.4byte	0x110
 879 0110 05       		.uleb128 0x5
 880 0111 17030000 		.4byte	.LASF41
 881 0115 44       		.byte	0x44
 882 0116 03       		.byte	0x3
 883 0117 9A       		.byte	0x9a
 884 0118 EE010000 		.4byte	0x1ee
 885 011c 06       		.uleb128 0x6
 886 011d 3D040000 		.4byte	.LASF24
 887 0121 03       		.byte	0x3
 888 0122 9B       		.byte	0x9b
 889 0123 23020000 		.4byte	0x223
 890 0127 00       		.byte	0
 891 0128 06       		.uleb128 0x6
 892 0129 D9020000 		.4byte	.LASF25
 893 012d 03       		.byte	0x3
 894 012e 9C       		.byte	0x9c
 895 012f CE000000 		.4byte	0xce
 896 0133 08       		.byte	0x8
 897 0134 07       		.uleb128 0x7
 898 0135 63747800 		.ascii	"ctx\000"
 899 0139 03       		.byte	0x3
ARM GAS  /tmp/ccxxnAte.s 			page 44


 900 013a 9D       		.byte	0x9d
 901 013b 1B040000 		.4byte	0x41b
 902 013f 0C       		.byte	0xc
 903 0140 06       		.uleb128 0x6
 904 0141 5A040000 		.4byte	.LASF26
 905 0145 03       		.byte	0x3
 906 0146 9F       		.byte	0x9f
 907 0147 F9010000 		.4byte	0x1f9
 908 014b 10       		.byte	0x10
 909 014c 06       		.uleb128 0x6
 910 014d 9A040000 		.4byte	.LASF27
 911 0151 03       		.byte	0x3
 912 0152 A0       		.byte	0xa0
 913 0153 F9010000 		.4byte	0x1f9
 914 0157 14       		.byte	0x14
 915 0158 06       		.uleb128 0x6
 916 0159 FA030000 		.4byte	.LASF28
 917 015d 03       		.byte	0x3
 918 015e A7       		.byte	0xa7
 919 015f A0050000 		.4byte	0x5a0
 920 0163 18       		.byte	0x18
 921 0164 06       		.uleb128 0x6
 922 0165 F6020000 		.4byte	.LASF29
 923 0169 03       		.byte	0x3
 924 016a B0       		.byte	0xb0
 925 016b B2050000 		.4byte	0x5b2
 926 016f 1C       		.byte	0x1c
 927 0170 06       		.uleb128 0x6
 928 0171 AD040000 		.4byte	.LASF30
 929 0175 03       		.byte	0x3
 930 0176 B5       		.byte	0xb5
 931 0177 B8000000 		.4byte	0xb8
 932 017b 20       		.byte	0x20
 933 017c 06       		.uleb128 0x6
 934 017d 4C000000 		.4byte	.LASF31
 935 0181 03       		.byte	0x3
 936 0182 B9       		.byte	0xb9
 937 0183 AD000000 		.4byte	0xad
 938 0187 21       		.byte	0x21
 939 0188 06       		.uleb128 0x6
 940 0189 8F000000 		.4byte	.LASF32
 941 018d 03       		.byte	0x3
 942 018e BE       		.byte	0xbe
 943 018f C3000000 		.4byte	0xc3
 944 0193 22       		.byte	0x22
 945 0194 08       		.uleb128 0x8
 946 0195 7500     		.ascii	"u\000"
 947 0197 03       		.byte	0x3
 948 0198 0F01     		.2byte	0x10f
 949 019a D5040000 		.4byte	0x4d5
 950 019e 24       		.byte	0x24
 951 019f 09       		.uleb128 0x9
 952 01a0 6E040000 		.4byte	.LASF33
 953 01a4 03       		.byte	0x3
 954 01a5 1401     		.2byte	0x114
 955 01a7 FF010000 		.4byte	0x1ff
 956 01ab 28       		.byte	0x28
ARM GAS  /tmp/ccxxnAte.s 			page 45


 957 01ac 09       		.uleb128 0x9
 958 01ad 0E030000 		.4byte	.LASF34
 959 01b1 03       		.byte	0x3
 960 01b2 1A01     		.2byte	0x11a
 961 01b4 23020000 		.4byte	0x223
 962 01b8 2C       		.byte	0x2c
 963 01b9 09       		.uleb128 0x9
 964 01ba 65000000 		.4byte	.LASF35
 965 01be 03       		.byte	0x3
 966 01bf 2001     		.2byte	0x120
 967 01c1 E4000000 		.4byte	0xe4
 968 01c5 34       		.byte	0x34
 969 01c6 09       		.uleb128 0x9
 970 01c7 C9010000 		.4byte	.LASF36
 971 01cb 03       		.byte	0x3
 972 01cc 2701     		.2byte	0x127
 973 01ce 9A050000 		.4byte	0x59a
 974 01d2 38       		.byte	0x38
 975 01d3 09       		.uleb128 0x9
 976 01d4 5C000000 		.4byte	.LASF37
 977 01d8 03       		.byte	0x3
 978 01d9 2B01     		.2byte	0x12b
 979 01db CE000000 		.4byte	0xce
 980 01df 3C       		.byte	0x3c
 981 01e0 09       		.uleb128 0x9
 982 01e1 6F050000 		.4byte	.LASF38
 983 01e5 03       		.byte	0x3
 984 01e6 3201     		.2byte	0x132
 985 01e8 D6020000 		.4byte	0x2d6
 986 01ec 40       		.byte	0x40
 987 01ed 00       		.byte	0
 988 01ee 04       		.uleb128 0x4
 989 01ef E3020000 		.4byte	.LASF39
 990 01f3 07       		.byte	0x7
 991 01f4 44       		.byte	0x44
 992 01f5 F9010000 		.4byte	0x1f9
 993 01f9 0A       		.uleb128 0xa
 994 01fa 04       		.byte	0x4
 995 01fb 05010000 		.4byte	0x105
 996 01ff 04       		.uleb128 0x4
 997 0200 80000000 		.4byte	.LASF40
 998 0204 07       		.byte	0x7
 999 0205 49       		.byte	0x49
 1000 0206 0A020000 		.4byte	0x20a
 1001 020a 05       		.uleb128 0x5
 1002 020b 00000000 		.4byte	.LASF42
 1003 020f 04       		.byte	0x4
 1004 0210 03       		.byte	0x3
 1005 0211 88       		.byte	0x88
 1006 0212 23020000 		.4byte	0x223
 1007 0216 06       		.uleb128 0x6
 1008 0217 7B000000 		.4byte	.LASF43
 1009 021b 03       		.byte	0x3
 1010 021c 89       		.byte	0x89
 1011 021d F9010000 		.4byte	0x1f9
 1012 0221 00       		.byte	0
 1013 0222 00       		.byte	0
ARM GAS  /tmp/ccxxnAte.s 			page 46


 1014 0223 04       		.uleb128 0x4
 1015 0224 B3010000 		.4byte	.LASF44
 1016 0228 07       		.byte	0x7
 1017 0229 50       		.byte	0x50
 1018 022a 2E020000 		.4byte	0x22e
 1019 022e 05       		.uleb128 0x5
 1020 022f E2000000 		.4byte	.LASF45
 1021 0233 08       		.byte	0x8
 1022 0234 03       		.byte	0x3
 1023 0235 8F       		.byte	0x8f
 1024 0236 53020000 		.4byte	0x253
 1025 023a 06       		.uleb128 0x6
 1026 023b 7B000000 		.4byte	.LASF43
 1027 023f 03       		.byte	0x3
 1028 0240 90       		.byte	0x90
 1029 0241 F9010000 		.4byte	0x1f9
 1030 0245 00       		.byte	0
 1031 0246 06       		.uleb128 0x6
 1032 0247 DD000000 		.4byte	.LASF46
 1033 024b 03       		.byte	0x3
 1034 024c 91       		.byte	0x91
 1035 024d F9010000 		.4byte	0x1f9
 1036 0251 04       		.byte	0x4
 1037 0252 00       		.byte	0
 1038 0253 04       		.uleb128 0x4
 1039 0254 30040000 		.4byte	.LASF47
 1040 0258 07       		.byte	0x7
 1041 0259 57       		.byte	0x57
 1042 025a 5E020000 		.4byte	0x25e
 1043 025e 0B       		.uleb128 0xb
 1044 025f C3000000 		.4byte	.LASF48
 1045 0263 1C       		.byte	0x1c
 1046 0264 03       		.byte	0x3
 1047 0265 6A01     		.2byte	0x16a
 1048 0267 BA020000 		.4byte	0x2ba
 1049 026b 09       		.uleb128 0x9
 1050 026c 3D040000 		.4byte	.LASF24
 1051 0270 03       		.byte	0x3
 1052 0271 6B01     		.2byte	0x16b
 1053 0273 23020000 		.4byte	0x223
 1054 0277 00       		.byte	0
 1055 0278 09       		.uleb128 0x9
 1056 0279 D9020000 		.4byte	.LASF25
 1057 027d 03       		.byte	0x3
 1058 027e 6C01     		.2byte	0x16c
 1059 0280 CE000000 		.4byte	0xce
 1060 0284 08       		.byte	0x8
 1061 0285 08       		.uleb128 0x8
 1062 0286 63747800 		.ascii	"ctx\000"
 1063 028a 03       		.byte	0x3
 1064 028b 6E01     		.2byte	0x16e
 1065 028d 1B040000 		.4byte	0x41b
 1066 0291 0C       		.byte	0xc
 1067 0292 09       		.uleb128 0x9
 1068 0293 5A040000 		.4byte	.LASF26
 1069 0297 03       		.byte	0x3
 1070 0298 7101     		.2byte	0x171
ARM GAS  /tmp/ccxxnAte.s 			page 47


 1071 029a F9010000 		.4byte	0x1f9
 1072 029e 10       		.byte	0x10
 1073 029f 09       		.uleb128 0x9
 1074 02a0 9A040000 		.4byte	.LASF27
 1075 02a4 03       		.byte	0x3
 1076 02a5 7201     		.2byte	0x172
 1077 02a7 F9010000 		.4byte	0x1f9
 1078 02ab 14       		.byte	0x14
 1079 02ac 09       		.uleb128 0x9
 1080 02ad 02050000 		.4byte	.LASF49
 1081 02b1 03       		.byte	0x3
 1082 02b2 7501     		.2byte	0x175
 1083 02b4 F9010000 		.4byte	0x1f9
 1084 02b8 18       		.byte	0x18
 1085 02b9 00       		.byte	0
 1086 02ba 04       		.uleb128 0x4
 1087 02bb F3000000 		.4byte	.LASF50
 1088 02bf 07       		.byte	0x7
 1089 02c0 5C       		.byte	0x5c
 1090 02c1 C5020000 		.4byte	0x2c5
 1091 02c5 0A       		.uleb128 0xa
 1092 02c6 04       		.byte	0x4
 1093 02c7 CB020000 		.4byte	0x2cb
 1094 02cb 0C       		.uleb128 0xc
 1095 02cc D6020000 		.4byte	0x2d6
 1096 02d0 0D       		.uleb128 0xd
 1097 02d1 D6020000 		.4byte	0x2d6
 1098 02d5 00       		.byte	0
 1099 02d6 0E       		.uleb128 0xe
 1100 02d7 04       		.byte	0x4
 1101 02d8 04       		.uleb128 0x4
 1102 02d9 4E030000 		.4byte	.LASF51
 1103 02dd 07       		.byte	0x7
 1104 02de 61       		.byte	0x61
 1105 02df E3020000 		.4byte	0x2e3
 1106 02e3 0B       		.uleb128 0xb
 1107 02e4 73010000 		.4byte	.LASF52
 1108 02e8 14       		.byte	0x14
 1109 02e9 03       		.byte	0x3
 1110 02ea 4501     		.2byte	0x145
 1111 02ec 32030000 		.4byte	0x332
 1112 02f0 09       		.uleb128 0x9
 1113 02f1 7B000000 		.4byte	.LASF43
 1114 02f5 03       		.byte	0x3
 1115 02f6 4601     		.2byte	0x146
 1116 02f8 B8050000 		.4byte	0x5b8
 1117 02fc 00       		.byte	0
 1118 02fd 09       		.uleb128 0x9
 1119 02fe DD000000 		.4byte	.LASF46
 1120 0302 03       		.byte	0x3
 1121 0303 4701     		.2byte	0x147
 1122 0305 B8050000 		.4byte	0x5b8
 1123 0309 04       		.byte	0x4
 1124 030a 09       		.uleb128 0x9
 1125 030b D1040000 		.4byte	.LASF53
 1126 030f 03       		.byte	0x3
 1127 0310 4801     		.2byte	0x148
ARM GAS  /tmp/ccxxnAte.s 			page 48


 1128 0312 FA000000 		.4byte	0xfa
 1129 0316 08       		.byte	0x8
 1130 0317 09       		.uleb128 0x9
 1131 0318 D1000000 		.4byte	.LASF54
 1132 031c 03       		.byte	0x3
 1133 031d 4901     		.2byte	0x149
 1134 031f BA020000 		.4byte	0x2ba
 1135 0323 0C       		.byte	0xc
 1136 0324 08       		.uleb128 0x8
 1137 0325 70617200 		.ascii	"par\000"
 1138 0329 03       		.byte	0x3
 1139 032a 4B01     		.2byte	0x14b
 1140 032c D6020000 		.4byte	0x2d6
 1141 0330 10       		.byte	0x10
 1142 0331 00       		.byte	0
 1143 0332 04       		.uleb128 0x4
 1144 0333 76040000 		.4byte	.LASF55
 1145 0337 07       		.byte	0x7
 1146 0338 66       		.byte	0x66
 1147 0339 3D030000 		.4byte	0x33d
 1148 033d 0B       		.uleb128 0xb
 1149 033e D1010000 		.4byte	.LASF56
 1150 0342 0C       		.byte	0xc
 1151 0343 03       		.byte	0x3
 1152 0344 5501     		.2byte	0x155
 1153 0346 7F030000 		.4byte	0x37f
 1154 034a 09       		.uleb128 0x9
 1155 034b 7B000000 		.4byte	.LASF43
 1156 034f 03       		.byte	0x3
 1157 0350 5601     		.2byte	0x156
 1158 0352 B8050000 		.4byte	0x5b8
 1159 0356 00       		.byte	0
 1160 0357 09       		.uleb128 0x9
 1161 0358 DD000000 		.4byte	.LASF46
 1162 035c 03       		.byte	0x3
 1163 035d 5801     		.2byte	0x158
 1164 035f B8050000 		.4byte	0x5b8
 1165 0363 04       		.byte	0x4
 1166 0364 09       		.uleb128 0x9
 1167 0365 D1040000 		.4byte	.LASF53
 1168 0369 03       		.byte	0x3
 1169 036a 5A01     		.2byte	0x15a
 1170 036c FA000000 		.4byte	0xfa
 1171 0370 08       		.byte	0x8
 1172 0371 09       		.uleb128 0x9
 1173 0372 E2030000 		.4byte	.LASF57
 1174 0376 03       		.byte	0x3
 1175 0377 6201     		.2byte	0x162
 1176 0379 FA000000 		.4byte	0xfa
 1177 037d 0A       		.byte	0xa
 1178 037e 00       		.byte	0
 1179 037f 04       		.uleb128 0x4
 1180 0380 21030000 		.4byte	.LASF58
 1181 0384 07       		.byte	0x7
 1182 0385 6B       		.byte	0x6b
 1183 0386 8A030000 		.4byte	0x38a
 1184 038a 0B       		.uleb128 0xb
ARM GAS  /tmp/ccxxnAte.s 			page 49


 1185 038b 15010000 		.4byte	.LASF59
 1186 038f 04       		.byte	0x4
 1187 0390 03       		.byte	0x3
 1188 0391 7C01     		.2byte	0x17c
 1189 0393 A5030000 		.4byte	0x3a5
 1190 0397 09       		.uleb128 0x9
 1191 0398 70030000 		.4byte	.LASF60
 1192 039c 03       		.byte	0x3
 1193 039d 8401     		.2byte	0x184
 1194 039f BE050000 		.4byte	0x5be
 1195 03a3 00       		.byte	0
 1196 03a4 00       		.byte	0
 1197 03a5 04       		.uleb128 0x4
 1198 03a6 B3040000 		.4byte	.LASF61
 1199 03aa 07       		.byte	0x7
 1200 03ab 70       		.byte	0x70
 1201 03ac B0030000 		.4byte	0x3b0
 1202 03b0 0B       		.uleb128 0xb
 1203 03b1 CA030000 		.4byte	.LASF62
 1204 03b5 74       		.byte	0x74
 1205 03b6 03       		.byte	0x3
 1206 03b7 9C01     		.2byte	0x19c
 1207 03b9 FE030000 		.4byte	0x3fe
 1208 03bd 09       		.uleb128 0x9
 1209 03be F4030000 		.4byte	.LASF63
 1210 03c2 03       		.byte	0x3
 1211 03c3 A001     		.2byte	0x1a0
 1212 03c5 53020000 		.4byte	0x253
 1213 03c9 00       		.byte	0
 1214 03ca 09       		.uleb128 0x9
 1215 03cb AF000000 		.4byte	.LASF64
 1216 03cf 03       		.byte	0x3
 1217 03d0 A401     		.2byte	0x1a4
 1218 03d2 32030000 		.4byte	0x332
 1219 03d6 1C       		.byte	0x1c
 1220 03d7 08       		.uleb128 0x8
 1221 03d8 64626700 		.ascii	"dbg\000"
 1222 03dc 03       		.byte	0x3
 1223 03dd A801     		.2byte	0x1a8
 1224 03df 7F030000 		.4byte	0x37f
 1225 03e3 28       		.byte	0x28
 1226 03e4 09       		.uleb128 0x9
 1227 03e5 82030000 		.4byte	.LASF65
 1228 03e9 03       		.byte	0x3
 1229 03ea AC01     		.2byte	0x1ac
 1230 03ec 05010000 		.4byte	0x105
 1231 03f0 2C       		.byte	0x2c
 1232 03f1 08       		.uleb128 0x8
 1233 03f2 746D00   		.ascii	"tm\000"
 1234 03f5 03       		.byte	0x3
 1235 03f6 B101     		.2byte	0x1b1
 1236 03f8 CA040000 		.4byte	0x4ca
 1237 03fc 70       		.byte	0x70
 1238 03fd 00       		.byte	0
 1239 03fe 03       		.uleb128 0x3
 1240 03ff 04       		.byte	0x4
 1241 0400 07       		.byte	0x7
ARM GAS  /tmp/ccxxnAte.s 			page 50


 1242 0401 0D040000 		.4byte	.LASF66
 1243 0405 04       		.uleb128 0x4
 1244 0406 28000000 		.4byte	.LASF67
 1245 040a 08       		.byte	0x8
 1246 040b 65       		.byte	0x65
 1247 040c D6020000 		.4byte	0x2d6
 1248 0410 04       		.uleb128 0x4
 1249 0411 F7040000 		.4byte	.LASF68
 1250 0415 08       		.byte	0x8
 1251 0416 6D       		.byte	0x6d
 1252 0417 90000000 		.4byte	0x90
 1253 041b 05       		.uleb128 0x5
 1254 041c B6000000 		.4byte	.LASF69
 1255 0420 04       		.byte	0x4
 1256 0421 08       		.byte	0x8
 1257 0422 89       		.byte	0x89
 1258 0423 33040000 		.4byte	0x433
 1259 0427 07       		.uleb128 0x7
 1260 0428 737000   		.ascii	"sp\000"
 1261 042b 08       		.byte	0x8
 1262 042c 8A       		.byte	0x8a
 1263 042d AF040000 		.4byte	0x4af
 1264 0431 00       		.byte	0
 1265 0432 00       		.byte	0
 1266 0433 0B       		.uleb128 0xb
 1267 0434 B1030000 		.4byte	.LASF70
 1268 0438 24       		.byte	0x24
 1269 0439 09       		.byte	0x9
 1270 043a 5901     		.2byte	0x159
 1271 043c AF040000 		.4byte	0x4af
 1272 0440 08       		.uleb128 0x8
 1273 0441 723400   		.ascii	"r4\000"
 1274 0444 09       		.byte	0x9
 1275 0445 6C01     		.2byte	0x16c
 1276 0447 05040000 		.4byte	0x405
 1277 044b 00       		.byte	0
 1278 044c 08       		.uleb128 0x8
 1279 044d 723500   		.ascii	"r5\000"
 1280 0450 09       		.byte	0x9
 1281 0451 6D01     		.2byte	0x16d
 1282 0453 05040000 		.4byte	0x405
 1283 0457 04       		.byte	0x4
 1284 0458 08       		.uleb128 0x8
 1285 0459 723600   		.ascii	"r6\000"
 1286 045c 09       		.byte	0x9
 1287 045d 6E01     		.2byte	0x16e
 1288 045f 05040000 		.4byte	0x405
 1289 0463 08       		.byte	0x8
 1290 0464 08       		.uleb128 0x8
 1291 0465 723700   		.ascii	"r7\000"
 1292 0468 09       		.byte	0x9
 1293 0469 6F01     		.2byte	0x16f
 1294 046b 05040000 		.4byte	0x405
 1295 046f 0C       		.byte	0xc
 1296 0470 08       		.uleb128 0x8
 1297 0471 723800   		.ascii	"r8\000"
 1298 0474 09       		.byte	0x9
ARM GAS  /tmp/ccxxnAte.s 			page 51


 1299 0475 7001     		.2byte	0x170
 1300 0477 05040000 		.4byte	0x405
 1301 047b 10       		.byte	0x10
 1302 047c 08       		.uleb128 0x8
 1303 047d 723900   		.ascii	"r9\000"
 1304 0480 09       		.byte	0x9
 1305 0481 7101     		.2byte	0x171
 1306 0483 05040000 		.4byte	0x405
 1307 0487 14       		.byte	0x14
 1308 0488 08       		.uleb128 0x8
 1309 0489 72313000 		.ascii	"r10\000"
 1310 048d 09       		.byte	0x9
 1311 048e 7201     		.2byte	0x172
 1312 0490 05040000 		.4byte	0x405
 1313 0494 18       		.byte	0x18
 1314 0495 08       		.uleb128 0x8
 1315 0496 72313100 		.ascii	"r11\000"
 1316 049a 09       		.byte	0x9
 1317 049b 7301     		.2byte	0x173
 1318 049d 05040000 		.4byte	0x405
 1319 04a1 1C       		.byte	0x1c
 1320 04a2 08       		.uleb128 0x8
 1321 04a3 6C7200   		.ascii	"lr\000"
 1322 04a6 09       		.byte	0x9
 1323 04a7 7401     		.2byte	0x174
 1324 04a9 05040000 		.4byte	0x405
 1325 04ad 20       		.byte	0x20
 1326 04ae 00       		.byte	0
 1327 04af 0A       		.uleb128 0xa
 1328 04b0 04       		.byte	0x4
 1329 04b1 33040000 		.4byte	0x433
 1330 04b5 0F       		.uleb128 0xf
 1331 04b6 04       		.byte	0x4
 1332 04b7 0A       		.byte	0xa
 1333 04b8 38       		.byte	0x38
 1334 04b9 CA040000 		.4byte	0x4ca
 1335 04bd 06       		.uleb128 0x6
 1336 04be 06020000 		.4byte	.LASF71
 1337 04c2 0A       		.byte	0xa
 1338 04c3 3C       		.byte	0x3c
 1339 04c4 A2000000 		.4byte	0xa2
 1340 04c8 00       		.byte	0
 1341 04c9 00       		.byte	0
 1342 04ca 04       		.uleb128 0x4
 1343 04cb 17000000 		.4byte	.LASF72
 1344 04cf 0A       		.byte	0xa
 1345 04d0 3D       		.byte	0x3d
 1346 04d1 B5040000 		.4byte	0x4b5
 1347 04d5 10       		.uleb128 0x10
 1348 04d6 04       		.byte	0x4
 1349 04d7 03       		.byte	0x3
 1350 04d8 D2       		.byte	0xd2
 1351 04d9 38050000 		.4byte	0x538
 1352 04dd 11       		.uleb128 0x11
 1353 04de FF010000 		.4byte	.LASF73
 1354 04e2 03       		.byte	0x3
 1355 04e3 D9       		.byte	0xd9
ARM GAS  /tmp/ccxxnAte.s 			page 52


 1356 04e4 D9000000 		.4byte	0xd9
 1357 04e8 11       		.uleb128 0x11
 1358 04e9 66050000 		.4byte	.LASF74
 1359 04ed 03       		.byte	0x3
 1360 04ee E0       		.byte	0xe0
 1361 04ef D9000000 		.4byte	0xd9
 1362 04f3 11       		.uleb128 0x11
 1363 04f4 9E000000 		.4byte	.LASF75
 1364 04f8 03       		.byte	0x3
 1365 04f9 E7       		.byte	0xe7
 1366 04fa D6020000 		.4byte	0x2d6
 1367 04fe 11       		.uleb128 0x11
 1368 04ff BF040000 		.4byte	.LASF76
 1369 0503 03       		.byte	0x3
 1370 0504 EE       		.byte	0xee
 1371 0505 38050000 		.4byte	0x538
 1372 0509 11       		.uleb128 0x11
 1373 050a 2E010000 		.4byte	.LASF77
 1374 050e 03       		.byte	0x3
 1375 050f F3       		.byte	0xf3
 1376 0510 D9000000 		.4byte	0xd9
 1377 0514 11       		.uleb128 0x11
 1378 0515 4B040000 		.4byte	.LASF78
 1379 0519 03       		.byte	0x3
 1380 051a FC       		.byte	0xfc
 1381 051b 63050000 		.4byte	0x563
 1382 051f 12       		.uleb128 0x12
 1383 0520 10000000 		.4byte	.LASF79
 1384 0524 03       		.byte	0x3
 1385 0525 0501     		.2byte	0x105
 1386 0527 9A050000 		.4byte	0x59a
 1387 052b 12       		.uleb128 0x12
 1388 052c D6000000 		.4byte	.LASF80
 1389 0530 03       		.byte	0x3
 1390 0531 0D01     		.2byte	0x10d
 1391 0533 E4000000 		.4byte	0xe4
 1392 0537 00       		.byte	0
 1393 0538 0A       		.uleb128 0xa
 1394 0539 04       		.byte	0x4
 1395 053a EE010000 		.4byte	0x1ee
 1396 053e 05       		.uleb128 0x5
 1397 053f 5E010000 		.4byte	.LASF81
 1398 0543 0C       		.byte	0xc
 1399 0544 0B       		.byte	0xb
 1400 0545 34       		.byte	0x34
 1401 0546 63050000 		.4byte	0x563
 1402 054a 06       		.uleb128 0x6
 1403 054b 3D040000 		.4byte	.LASF24
 1404 054f 0B       		.byte	0xb
 1405 0550 35       		.byte	0x35
 1406 0551 23020000 		.4byte	0x223
 1407 0555 00       		.byte	0
 1408 0556 07       		.uleb128 0x7
 1409 0557 636E7400 		.ascii	"cnt\000"
 1410 055b 0B       		.byte	0xb
 1411 055c 37       		.byte	0x37
 1412 055d EF000000 		.4byte	0xef
ARM GAS  /tmp/ccxxnAte.s 			page 53


 1413 0561 08       		.byte	0x8
 1414 0562 00       		.byte	0
 1415 0563 0A       		.uleb128 0xa
 1416 0564 04       		.byte	0x4
 1417 0565 3E050000 		.4byte	0x53e
 1418 0569 05       		.uleb128 0x5
 1419 056a 13020000 		.4byte	.LASF82
 1420 056e 10       		.byte	0x10
 1421 056f 0C       		.byte	0xc
 1422 0570 39       		.byte	0x39
 1423 0571 9A050000 		.4byte	0x59a
 1424 0575 06       		.uleb128 0x6
 1425 0576 3D040000 		.4byte	.LASF24
 1426 057a 0C       		.byte	0xc
 1427 057b 3A       		.byte	0x3a
 1428 057c 23020000 		.4byte	0x223
 1429 0580 00       		.byte	0
 1430 0581 06       		.uleb128 0x6
 1431 0582 AD010000 		.4byte	.LASF83
 1432 0586 0C       		.byte	0xc
 1433 0587 3C       		.byte	0x3c
 1434 0588 F9010000 		.4byte	0x1f9
 1435 058c 08       		.byte	0x8
 1436 058d 06       		.uleb128 0x6
 1437 058e 7B000000 		.4byte	.LASF43
 1438 0592 0C       		.byte	0xc
 1439 0593 3E       		.byte	0x3e
 1440 0594 CE050000 		.4byte	0x5ce
 1441 0598 0C       		.byte	0xc
 1442 0599 00       		.byte	0
 1443 059a 0A       		.uleb128 0xa
 1444 059b 04       		.byte	0x4
 1445 059c 69050000 		.4byte	0x569
 1446 05a0 0A       		.uleb128 0xa
 1447 05a1 04       		.byte	0x4
 1448 05a2 A6050000 		.4byte	0x5a6
 1449 05a6 13       		.uleb128 0x13
 1450 05a7 AB050000 		.4byte	0x5ab
 1451 05ab 03       		.uleb128 0x3
 1452 05ac 01       		.byte	0x1
 1453 05ad 08       		.byte	0x8
 1454 05ae DE020000 		.4byte	.LASF84
 1455 05b2 0A       		.uleb128 0xa
 1456 05b3 04       		.byte	0x4
 1457 05b4 10040000 		.4byte	0x410
 1458 05b8 0A       		.uleb128 0xa
 1459 05b9 04       		.byte	0x4
 1460 05ba D8020000 		.4byte	0x2d8
 1461 05be 14       		.uleb128 0x14
 1462 05bf A0050000 		.4byte	0x5a0
 1463 05c3 04       		.uleb128 0x4
 1464 05c4 52040000 		.4byte	.LASF85
 1465 05c8 0C       		.byte	0xc
 1466 05c9 34       		.byte	0x34
 1467 05ca 69050000 		.4byte	0x569
 1468 05ce 0A       		.uleb128 0xa
 1469 05cf 04       		.byte	0x4
ARM GAS  /tmp/ccxxnAte.s 			page 54


 1470 05d0 C3050000 		.4byte	0x5c3
 1471 05d4 03       		.uleb128 0x3
 1472 05d5 01       		.byte	0x1
 1473 05d6 02       		.byte	0x2
 1474 05d7 0D020000 		.4byte	.LASF86
 1475 05db 15       		.uleb128 0x15
 1476 05dc D4030000 		.4byte	.LASF90
 1477 05e0 02       		.byte	0x2
 1478 05e1 0601     		.2byte	0x106
 1479 05e3 03       		.byte	0x3
 1480 05e4 F5050000 		.4byte	0x5f5
 1481 05e8 16       		.uleb128 0x16
 1482 05e9 C3010000 		.4byte	.LASF92
 1483 05ed 02       		.byte	0x2
 1484 05ee 0601     		.2byte	0x106
 1485 05f0 77000000 		.4byte	0x77
 1486 05f4 00       		.byte	0
 1487 05f5 17       		.uleb128 0x17
 1488 05f6 A5000000 		.4byte	.LASF87
 1489 05fa 09       		.byte	0x9
 1490 05fb 5202     		.2byte	0x252
 1491 05fd 03       		.byte	0x3
 1492 05fe 17       		.uleb128 0x17
 1493 05ff 0A050000 		.4byte	.LASF88
 1494 0603 09       		.byte	0x9
 1495 0604 6A02     		.2byte	0x26a
 1496 0606 03       		.byte	0x3
 1497 0607 17       		.uleb128 0x17
 1498 0608 BF020000 		.4byte	.LASF89
 1499 060c 0D       		.byte	0xd
 1500 060d 7601     		.2byte	0x176
 1501 060f 03       		.byte	0x3
 1502 0610 15       		.uleb128 0x15
 1503 0611 EA040000 		.4byte	.LASF91
 1504 0615 03       		.byte	0x3
 1505 0616 6102     		.2byte	0x261
 1506 0618 03       		.byte	0x3
 1507 0619 35060000 		.4byte	0x635
 1508 061d 18       		.uleb128 0x18
 1509 061e 747000   		.ascii	"tp\000"
 1510 0621 03       		.byte	0x3
 1511 0622 6102     		.2byte	0x261
 1512 0624 F9010000 		.4byte	0x1f9
 1513 0628 18       		.uleb128 0x18
 1514 0629 74717000 		.ascii	"tqp\000"
 1515 062d 03       		.byte	0x3
 1516 062e 6102     		.2byte	0x261
 1517 0630 35060000 		.4byte	0x635
 1518 0634 00       		.byte	0
 1519 0635 0A       		.uleb128 0xa
 1520 0636 04       		.byte	0x4
 1521 0637 23020000 		.4byte	0x223
 1522 063b 15       		.uleb128 0x15
 1523 063c A1010000 		.4byte	.LASF93
 1524 0640 0D       		.byte	0xd
 1525 0641 8201     		.2byte	0x182
 1526 0643 03       		.byte	0x3
ARM GAS  /tmp/ccxxnAte.s 			page 55


 1527 0644 56060000 		.4byte	0x656
 1528 0648 19       		.uleb128 0x19
 1529 0649 E8010000 		.4byte	.LASF96
 1530 064d 66060000 		.4byte	0x666
 1531 0651 A1010000 		.4byte	.LASF93
 1532 0655 00       		.byte	0
 1533 0656 1A       		.uleb128 0x1a
 1534 0657 AB050000 		.4byte	0x5ab
 1535 065b 66060000 		.4byte	0x666
 1536 065f 1B       		.uleb128 0x1b
 1537 0660 FE030000 		.4byte	0x3fe
 1538 0664 0B       		.byte	0xb
 1539 0665 00       		.byte	0
 1540 0666 13       		.uleb128 0x13
 1541 0667 56060000 		.4byte	0x656
 1542 066b 1C       		.uleb128 0x1c
 1543 066c C9020000 		.4byte	.LASF94
 1544 0670 04       		.byte	0x4
 1545 0671 4F       		.byte	0x4f
 1546 0672 D4050000 		.4byte	0x5d4
 1547 0676 03       		.byte	0x3
 1548 0677 86060000 		.4byte	0x686
 1549 067b 1D       		.uleb128 0x1d
 1550 067c 747000   		.ascii	"tp\000"
 1551 067f 04       		.byte	0x4
 1552 0680 4F       		.byte	0x4f
 1553 0681 F9010000 		.4byte	0x1f9
 1554 0685 00       		.byte	0
 1555 0686 1E       		.uleb128 0x1e
 1556 0687 5E030000 		.4byte	.LASF95
 1557 068b 03       		.byte	0x3
 1558 068c 6902     		.2byte	0x269
 1559 068e F9010000 		.4byte	0x1f9
 1560 0692 03       		.byte	0x3
 1561 0693 AF060000 		.4byte	0x6af
 1562 0697 18       		.uleb128 0x18
 1563 0698 74717000 		.ascii	"tqp\000"
 1564 069c 03       		.byte	0x3
 1565 069d 6902     		.2byte	0x269
 1566 069f 35060000 		.4byte	0x635
 1567 06a3 1F       		.uleb128 0x1f
 1568 06a4 747000   		.ascii	"tp\000"
 1569 06a7 03       		.byte	0x3
 1570 06a8 6A02     		.2byte	0x26a
 1571 06aa F9010000 		.4byte	0x1f9
 1572 06ae 00       		.byte	0
 1573 06af 20       		.uleb128 0x20
 1574 06b0 8C040000 		.4byte	.LASF97
 1575 06b4 04       		.byte	0x4
 1576 06b5 71       		.byte	0x71
 1577 06b6 03       		.byte	0x3
 1578 06b7 D1060000 		.4byte	0x6d1
 1579 06bb 1D       		.uleb128 0x1d
 1580 06bc 747000   		.ascii	"tp\000"
 1581 06bf 04       		.byte	0x4
 1582 06c0 71       		.byte	0x71
 1583 06c1 F9010000 		.4byte	0x1f9
ARM GAS  /tmp/ccxxnAte.s 			page 56


 1584 06c5 1D       		.uleb128 0x1d
 1585 06c6 6D736700 		.ascii	"msg\000"
 1586 06ca 04       		.byte	0x4
 1587 06cb 71       		.byte	0x71
 1588 06cc D9000000 		.4byte	0xd9
 1589 06d0 00       		.byte	0
 1590 06d1 21       		.uleb128 0x21
 1591 06d2 94000000 		.4byte	.LASF98
 1592 06d6 01       		.byte	0x1
 1593 06d7 57       		.byte	0x57
 1594 06d8 D9000000 		.4byte	0xd9
 1595 06dc 00000000 		.4byte	.LFB186
 1596 06e0 40000000 		.4byte	.LFE186-.LFB186
 1597 06e4 01       		.uleb128 0x1
 1598 06e5 9C       		.byte	0x9c
 1599 06e6 E8070000 		.4byte	0x7e8
 1600 06ea 22       		.uleb128 0x22
 1601 06eb 747000   		.ascii	"tp\000"
 1602 06ee 01       		.byte	0x1
 1603 06ef 57       		.byte	0x57
 1604 06f0 F9010000 		.4byte	0x1f9
 1605 06f4 00000000 		.4byte	.LLST0
 1606 06f8 22       		.uleb128 0x22
 1607 06f9 6D736700 		.ascii	"msg\000"
 1608 06fd 01       		.byte	0x1
 1609 06fe 57       		.byte	0x57
 1610 06ff D9000000 		.4byte	0xd9
 1611 0703 3A000000 		.4byte	.LLST1
 1612 0707 23       		.uleb128 0x23
 1613 0708 63747000 		.ascii	"ctp\000"
 1614 070c 01       		.byte	0x1
 1615 070d 58       		.byte	0x58
 1616 070e F9010000 		.4byte	0x1f9
 1617 0712 01       		.uleb128 0x1
 1618 0713 54       		.byte	0x54
 1619 0714 24       		.uleb128 0x24
 1620 0715 36010000 		.4byte	.LASF100
 1621 0719 F8070000 		.4byte	0x7f8
 1622 071d 25       		.uleb128 0x25
 1623 071e 07060000 		.4byte	0x607
 1624 0722 0C000000 		.4byte	.LBB52
 1625 0726 06000000 		.4byte	.LBE52-.LBB52
 1626 072a 01       		.byte	0x1
 1627 072b 5C       		.byte	0x5c
 1628 072c 59070000 		.4byte	0x759
 1629 0730 26       		.uleb128 0x26
 1630 0731 F5050000 		.4byte	0x5f5
 1631 0735 0C000000 		.4byte	.LBB53
 1632 0739 06000000 		.4byte	.LBE53-.LBB53
 1633 073d 0D       		.byte	0xd
 1634 073e 7801     		.2byte	0x178
 1635 0740 26       		.uleb128 0x26
 1636 0741 DB050000 		.4byte	0x5db
 1637 0745 0C000000 		.4byte	.LBB54
 1638 0749 06000000 		.4byte	.LBE54-.LBB54
 1639 074d 09       		.byte	0x9
 1640 074e 5A02     		.2byte	0x25a
ARM GAS  /tmp/ccxxnAte.s 			page 57


 1641 0750 27       		.uleb128 0x27
 1642 0751 E8050000 		.4byte	0x5e8
 1643 0755 20       		.byte	0x20
 1644 0756 00       		.byte	0
 1645 0757 00       		.byte	0
 1646 0758 00       		.byte	0
 1647 0759 28       		.uleb128 0x28
 1648 075a 10060000 		.4byte	0x610
 1649 075e 18000000 		.4byte	.LBB56
 1650 0762 00000000 		.4byte	.Ldebug_ranges0+0
 1651 0766 01       		.byte	0x1
 1652 0767 5E       		.byte	0x5e
 1653 0768 7D070000 		.4byte	0x77d
 1654 076c 29       		.uleb128 0x29
 1655 076d 28060000 		.4byte	0x628
 1656 0771 80000000 		.4byte	.LLST2
 1657 0775 2A       		.uleb128 0x2a
 1658 0776 1D060000 		.4byte	0x61d
 1659 077a 01       		.uleb128 0x1
 1660 077b 54       		.byte	0x54
 1661 077c 00       		.byte	0
 1662 077d 25       		.uleb128 0x25
 1663 077e 3B060000 		.4byte	0x63b
 1664 0782 32000000 		.4byte	.LBB60
 1665 0786 06000000 		.4byte	.LBE60-.LBB60
 1666 078a 01       		.byte	0x1
 1667 078b 64       		.byte	0x64
 1668 078c CB070000 		.4byte	0x7cb
 1669 0790 2B       		.uleb128 0x2b
 1670 0791 32000000 		.4byte	.LBB61
 1671 0795 06000000 		.4byte	.LBE61-.LBB61
 1672 0799 2C       		.uleb128 0x2c
 1673 079a 48060000 		.4byte	0x648
 1674 079e 26       		.uleb128 0x26
 1675 079f FE050000 		.4byte	0x5fe
 1676 07a3 32000000 		.4byte	.LBB62
 1677 07a7 06000000 		.4byte	.LBE62-.LBB62
 1678 07ab 0D       		.byte	0xd
 1679 07ac 8F01     		.2byte	0x18f
 1680 07ae 26       		.uleb128 0x26
 1681 07af DB050000 		.4byte	0x5db
 1682 07b3 32000000 		.4byte	.LBB63
 1683 07b7 06000000 		.4byte	.LBE63-.LBB63
 1684 07bb 09       		.byte	0x9
 1685 07bc 6D02     		.2byte	0x26d
 1686 07be 29       		.uleb128 0x29
 1687 07bf E8050000 		.4byte	0x5e8
 1688 07c3 CB000000 		.4byte	.LLST3
 1689 07c7 00       		.byte	0
 1690 07c8 00       		.byte	0
 1691 07c9 00       		.byte	0
 1692 07ca 00       		.byte	0
 1693 07cb 2D       		.uleb128 0x2d
 1694 07cc 30000000 		.4byte	.LVL6
 1695 07d0 2D0A0000 		.4byte	0xa2d
 1696 07d4 DE070000 		.4byte	0x7de
 1697 07d8 2E       		.uleb128 0x2e
ARM GAS  /tmp/ccxxnAte.s 			page 58


 1698 07d9 01       		.uleb128 0x1
 1699 07da 50       		.byte	0x50
 1700 07db 01       		.uleb128 0x1
 1701 07dc 3C       		.byte	0x3c
 1702 07dd 00       		.byte	0
 1703 07de 2F       		.uleb128 0x2f
 1704 07df 3E000000 		.4byte	.LVL9
 1705 07e3 3F0A0000 		.4byte	0xa3f
 1706 07e7 00       		.byte	0
 1707 07e8 1A       		.uleb128 0x1a
 1708 07e9 AB050000 		.4byte	0x5ab
 1709 07ed F8070000 		.4byte	0x7f8
 1710 07f1 1B       		.uleb128 0x1b
 1711 07f2 FE030000 		.4byte	0x3fe
 1712 07f6 09       		.byte	0x9
 1713 07f7 00       		.byte	0
 1714 07f8 13       		.uleb128 0x13
 1715 07f9 E8070000 		.4byte	0x7e8
 1716 07fd 21       		.uleb128 0x21
 1717 07fe 44030000 		.4byte	.LASF99
 1718 0802 01       		.byte	0x1
 1719 0803 77       		.byte	0x77
 1720 0804 F9010000 		.4byte	0x1f9
 1721 0808 00000000 		.4byte	.LFB187
 1722 080c 40000000 		.4byte	.LFE187-.LFB187
 1723 0810 01       		.uleb128 0x1
 1724 0811 9C       		.byte	0x9c
 1725 0812 FF080000 		.4byte	0x8ff
 1726 0816 30       		.uleb128 0x30
 1727 0817 747000   		.ascii	"tp\000"
 1728 081a 01       		.byte	0x1
 1729 081b 78       		.byte	0x78
 1730 081c F9010000 		.4byte	0x1f9
 1731 0820 25       		.uleb128 0x25
 1732 0821 07060000 		.4byte	0x607
 1733 0825 02000000 		.4byte	.LBB65
 1734 0829 06000000 		.4byte	.LBE65-.LBB65
 1735 082d 01       		.byte	0x1
 1736 082e 7A       		.byte	0x7a
 1737 082f 5C080000 		.4byte	0x85c
 1738 0833 26       		.uleb128 0x26
 1739 0834 F5050000 		.4byte	0x5f5
 1740 0838 02000000 		.4byte	.LBB66
 1741 083c 06000000 		.4byte	.LBE66-.LBB66
 1742 0840 0D       		.byte	0xd
 1743 0841 7801     		.2byte	0x178
 1744 0843 26       		.uleb128 0x26
 1745 0844 DB050000 		.4byte	0x5db
 1746 0848 02000000 		.4byte	.LBB67
 1747 084c 06000000 		.4byte	.LBE67-.LBB67
 1748 0850 09       		.byte	0x9
 1749 0851 5A02     		.2byte	0x25a
 1750 0853 27       		.uleb128 0x27
 1751 0854 E8050000 		.4byte	0x5e8
 1752 0858 20       		.byte	0x20
 1753 0859 00       		.byte	0
 1754 085a 00       		.byte	0
ARM GAS  /tmp/ccxxnAte.s 			page 59


 1755 085b 00       		.byte	0
 1756 085c 25       		.uleb128 0x25
 1757 085d 6B060000 		.4byte	0x66b
 1758 0861 12000000 		.4byte	.LBB69
 1759 0865 06000000 		.4byte	.LBE69-.LBB69
 1760 0869 01       		.byte	0x1
 1761 086a 7B       		.byte	0x7b
 1762 086b 79080000 		.4byte	0x879
 1763 086f 29       		.uleb128 0x29
 1764 0870 7B060000 		.4byte	0x67b
 1765 0874 DF000000 		.4byte	.LLST4
 1766 0878 00       		.byte	0
 1767 0879 28       		.uleb128 0x28
 1768 087a 86060000 		.4byte	0x686
 1769 087e 1C000000 		.4byte	.LBB71
 1770 0882 18000000 		.4byte	.Ldebug_ranges0+0x18
 1771 0886 01       		.byte	0x1
 1772 0887 7E       		.byte	0x7e
 1773 0888 A5080000 		.4byte	0x8a5
 1774 088c 29       		.uleb128 0x29
 1775 088d 97060000 		.4byte	0x697
 1776 0891 FD000000 		.4byte	.LLST5
 1777 0895 31       		.uleb128 0x31
 1778 0896 18000000 		.4byte	.Ldebug_ranges0+0x18
 1779 089a 32       		.uleb128 0x32
 1780 089b A3060000 		.4byte	0x6a3
 1781 089f 10010000 		.4byte	.LLST6
 1782 08a3 00       		.byte	0
 1783 08a4 00       		.byte	0
 1784 08a5 28       		.uleb128 0x28
 1785 08a6 3B060000 		.4byte	0x63b
 1786 08aa 24000000 		.4byte	.LBB75
 1787 08ae 30000000 		.4byte	.Ldebug_ranges0+0x30
 1788 08b2 01       		.byte	0x1
 1789 08b3 80       		.byte	0x80
 1790 08b4 EF080000 		.4byte	0x8ef
 1791 08b8 31       		.uleb128 0x31
 1792 08b9 30000000 		.4byte	.Ldebug_ranges0+0x30
 1793 08bd 2C       		.uleb128 0x2c
 1794 08be 48060000 		.4byte	0x648
 1795 08c2 33       		.uleb128 0x33
 1796 08c3 FE050000 		.4byte	0x5fe
 1797 08c7 24000000 		.4byte	.LBB77
 1798 08cb 30000000 		.4byte	.Ldebug_ranges0+0x30
 1799 08cf 0D       		.byte	0xd
 1800 08d0 8F01     		.2byte	0x18f
 1801 08d2 33       		.uleb128 0x33
 1802 08d3 DB050000 		.4byte	0x5db
 1803 08d7 24000000 		.4byte	.LBB78
 1804 08db 30000000 		.4byte	.Ldebug_ranges0+0x30
 1805 08df 09       		.byte	0x9
 1806 08e0 6D02     		.2byte	0x26d
 1807 08e2 29       		.uleb128 0x29
 1808 08e3 E8050000 		.4byte	0x5e8
 1809 08e7 23010000 		.4byte	.LLST7
 1810 08eb 00       		.byte	0
 1811 08ec 00       		.byte	0
ARM GAS  /tmp/ccxxnAte.s 			page 60


 1812 08ed 00       		.byte	0
 1813 08ee 00       		.byte	0
 1814 08ef 34       		.uleb128 0x34
 1815 08f0 36000000 		.4byte	.LVL15
 1816 08f4 2D0A0000 		.4byte	0xa2d
 1817 08f8 2E       		.uleb128 0x2e
 1818 08f9 01       		.uleb128 0x1
 1819 08fa 50       		.byte	0x50
 1820 08fb 01       		.uleb128 0x1
 1821 08fc 3E       		.byte	0x3e
 1822 08fd 00       		.byte	0
 1823 08fe 00       		.byte	0
 1824 08ff 35       		.uleb128 0x35
 1825 0900 FC000000 		.4byte	.LASF106
 1826 0904 01       		.byte	0x1
 1827 0905 8F       		.byte	0x8f
 1828 0906 00000000 		.4byte	.LFB188
 1829 090a 14000000 		.4byte	.LFE188-.LFB188
 1830 090e 01       		.uleb128 0x1
 1831 090f 9C       		.byte	0x9c
 1832 0910 FC090000 		.4byte	0x9fc
 1833 0914 22       		.uleb128 0x22
 1834 0915 747000   		.ascii	"tp\000"
 1835 0918 01       		.byte	0x1
 1836 0919 8F       		.byte	0x8f
 1837 091a F9010000 		.4byte	0x1f9
 1838 091e 37010000 		.4byte	.LLST8
 1839 0922 22       		.uleb128 0x22
 1840 0923 6D736700 		.ascii	"msg\000"
 1841 0927 01       		.byte	0x1
 1842 0928 8F       		.byte	0x8f
 1843 0929 D9000000 		.4byte	0xd9
 1844 092d 58010000 		.4byte	.LLST9
 1845 0931 24       		.uleb128 0x24
 1846 0932 50010000 		.4byte	.LASF101
 1847 0936 0C0A0000 		.4byte	0xa0c
 1848 093a 25       		.uleb128 0x25
 1849 093b 07060000 		.4byte	0x607
 1850 093f 02000000 		.4byte	.LBB85
 1851 0943 06000000 		.4byte	.LBE85-.LBB85
 1852 0947 01       		.byte	0x1
 1853 0948 91       		.byte	0x91
 1854 0949 76090000 		.4byte	0x976
 1855 094d 26       		.uleb128 0x26
 1856 094e F5050000 		.4byte	0x5f5
 1857 0952 02000000 		.4byte	.LBB86
 1858 0956 06000000 		.4byte	.LBE86-.LBB86
 1859 095a 0D       		.byte	0xd
 1860 095b 7801     		.2byte	0x178
 1861 095d 26       		.uleb128 0x26
 1862 095e DB050000 		.4byte	0x5db
 1863 0962 02000000 		.4byte	.LBB87
 1864 0966 06000000 		.4byte	.LBE87-.LBB87
 1865 096a 09       		.byte	0x9
 1866 096b 5A02     		.2byte	0x25a
 1867 096d 27       		.uleb128 0x27
 1868 096e E8050000 		.4byte	0x5e8
ARM GAS  /tmp/ccxxnAte.s 			page 61


 1869 0972 20       		.byte	0x20
 1870 0973 00       		.byte	0
 1871 0974 00       		.byte	0
 1872 0975 00       		.byte	0
 1873 0976 25       		.uleb128 0x25
 1874 0977 AF060000 		.4byte	0x6af
 1875 097b 08000000 		.4byte	.LBB89
 1876 097f 04000000 		.4byte	.LBE89-.LBB89
 1877 0983 01       		.byte	0x1
 1878 0984 93       		.byte	0x93
 1879 0985 B4090000 		.4byte	0x9b4
 1880 0989 29       		.uleb128 0x29
 1881 098a C5060000 		.4byte	0x6c5
 1882 098e 79010000 		.4byte	.LLST10
 1883 0992 29       		.uleb128 0x29
 1884 0993 BB060000 		.4byte	0x6bb
 1885 0997 9A010000 		.4byte	.LLST11
 1886 099b 34       		.uleb128 0x34
 1887 099c 0C000000 		.4byte	.LVL18
 1888 09a0 550A0000 		.4byte	0xa55
 1889 09a4 2E       		.uleb128 0x2e
 1890 09a5 01       		.uleb128 0x1
 1891 09a6 51       		.byte	0x51
 1892 09a7 03       		.uleb128 0x3
 1893 09a8 F3       		.byte	0xf3
 1894 09a9 01       		.uleb128 0x1
 1895 09aa 51       		.byte	0x51
 1896 09ab 2E       		.uleb128 0x2e
 1897 09ac 01       		.uleb128 0x1
 1898 09ad 50       		.byte	0x50
 1899 09ae 03       		.uleb128 0x3
 1900 09af F3       		.byte	0xf3
 1901 09b0 01       		.uleb128 0x1
 1902 09b1 50       		.byte	0x50
 1903 09b2 00       		.byte	0
 1904 09b3 00       		.byte	0
 1905 09b4 36       		.uleb128 0x36
 1906 09b5 3B060000 		.4byte	0x63b
 1907 09b9 0C000000 		.4byte	.LBB91
 1908 09bd 08000000 		.4byte	.LBE91-.LBB91
 1909 09c1 01       		.byte	0x1
 1910 09c2 94       		.byte	0x94
 1911 09c3 2B       		.uleb128 0x2b
 1912 09c4 0C000000 		.4byte	.LBB92
 1913 09c8 08000000 		.4byte	.LBE92-.LBB92
 1914 09cc 2C       		.uleb128 0x2c
 1915 09cd 48060000 		.4byte	0x648
 1916 09d1 26       		.uleb128 0x26
 1917 09d2 FE050000 		.4byte	0x5fe
 1918 09d6 0C000000 		.4byte	.LBB93
 1919 09da 08000000 		.4byte	.LBE93-.LBB93
 1920 09de 0D       		.byte	0xd
 1921 09df 8F01     		.2byte	0x18f
 1922 09e1 26       		.uleb128 0x26
 1923 09e2 DB050000 		.4byte	0x5db
 1924 09e6 0C000000 		.4byte	.LBB94
 1925 09ea 08000000 		.4byte	.LBE94-.LBB94
ARM GAS  /tmp/ccxxnAte.s 			page 62


 1926 09ee 09       		.byte	0x9
 1927 09ef 6D02     		.2byte	0x26d
 1928 09f1 27       		.uleb128 0x27
 1929 09f2 E8050000 		.4byte	0x5e8
 1930 09f6 00       		.byte	0
 1931 09f7 00       		.byte	0
 1932 09f8 00       		.byte	0
 1933 09f9 00       		.byte	0
 1934 09fa 00       		.byte	0
 1935 09fb 00       		.byte	0
 1936 09fc 1A       		.uleb128 0x1a
 1937 09fd AB050000 		.4byte	0x5ab
 1938 0a01 0C0A0000 		.4byte	0xa0c
 1939 0a05 1B       		.uleb128 0x1b
 1940 0a06 FE030000 		.4byte	0x3fe
 1941 0a0a 0C       		.byte	0xc
 1942 0a0b 00       		.byte	0
 1943 0a0c 13       		.uleb128 0x13
 1944 0a0d FC090000 		.4byte	0x9fc
 1945 0a11 37       		.uleb128 0x37
 1946 0a12 BD030000 		.4byte	.LASF102
 1947 0a16 0E       		.byte	0xe
 1948 0a17 9606     		.2byte	0x696
 1949 0a19 1D0A0000 		.4byte	0xa1d
 1950 0a1d 14       		.uleb128 0x14
 1951 0a1e 65000000 		.4byte	0x65
 1952 0a22 38       		.uleb128 0x38
 1953 0a23 636800   		.ascii	"ch\000"
 1954 0a26 03       		.byte	0x3
 1955 0a27 D201     		.2byte	0x1d2
 1956 0a29 A5030000 		.4byte	0x3a5
 1957 0a2d 39       		.uleb128 0x39
 1958 0a2e FF030000 		.4byte	.LASF107
 1959 0a32 03       		.byte	0x3
 1960 0a33 DE01     		.2byte	0x1de
 1961 0a35 3F0A0000 		.4byte	0xa3f
 1962 0a39 0D       		.uleb128 0xd
 1963 0a3a B8000000 		.4byte	0xb8
 1964 0a3e 00       		.byte	0
 1965 0a3f 3A       		.uleb128 0x3a
 1966 0a40 09010000 		.4byte	.LASF108
 1967 0a44 03       		.byte	0x3
 1968 0a45 DC01     		.2byte	0x1dc
 1969 0a47 F9010000 		.4byte	0x1f9
 1970 0a4b 550A0000 		.4byte	0xa55
 1971 0a4f 0D       		.uleb128 0xd
 1972 0a50 F9010000 		.4byte	0x1f9
 1973 0a54 00       		.byte	0
 1974 0a55 3B       		.uleb128 0x3b
 1975 0a56 A0040000 		.4byte	.LASF109
 1976 0a5a 03       		.byte	0x3
 1977 0a5b E001     		.2byte	0x1e0
 1978 0a5d 0D       		.uleb128 0xd
 1979 0a5e F9010000 		.4byte	0x1f9
 1980 0a62 0D       		.uleb128 0xd
 1981 0a63 D9000000 		.4byte	0xd9
 1982 0a67 00       		.byte	0
ARM GAS  /tmp/ccxxnAte.s 			page 63


 1983 0a68 00       		.byte	0
 1984              		.section	.debug_abbrev,"",%progbits
 1985              	.Ldebug_abbrev0:
 1986 0000 01       		.uleb128 0x1
 1987 0001 11       		.uleb128 0x11
 1988 0002 01       		.byte	0x1
 1989 0003 25       		.uleb128 0x25
 1990 0004 0E       		.uleb128 0xe
 1991 0005 13       		.uleb128 0x13
 1992 0006 0B       		.uleb128 0xb
 1993 0007 03       		.uleb128 0x3
 1994 0008 0E       		.uleb128 0xe
 1995 0009 1B       		.uleb128 0x1b
 1996 000a 0E       		.uleb128 0xe
 1997 000b 55       		.uleb128 0x55
 1998 000c 17       		.uleb128 0x17
 1999 000d 11       		.uleb128 0x11
 2000 000e 01       		.uleb128 0x1
 2001 000f 10       		.uleb128 0x10
 2002 0010 17       		.uleb128 0x17
 2003 0011 00       		.byte	0
 2004 0012 00       		.byte	0
 2005 0013 02       		.uleb128 0x2
 2006 0014 24       		.uleb128 0x24
 2007 0015 00       		.byte	0
 2008 0016 0B       		.uleb128 0xb
 2009 0017 0B       		.uleb128 0xb
 2010 0018 3E       		.uleb128 0x3e
 2011 0019 0B       		.uleb128 0xb
 2012 001a 03       		.uleb128 0x3
 2013 001b 08       		.uleb128 0x8
 2014 001c 00       		.byte	0
 2015 001d 00       		.byte	0
 2016 001e 03       		.uleb128 0x3
 2017 001f 24       		.uleb128 0x24
 2018 0020 00       		.byte	0
 2019 0021 0B       		.uleb128 0xb
 2020 0022 0B       		.uleb128 0xb
 2021 0023 3E       		.uleb128 0x3e
 2022 0024 0B       		.uleb128 0xb
 2023 0025 03       		.uleb128 0x3
 2024 0026 0E       		.uleb128 0xe
 2025 0027 00       		.byte	0
 2026 0028 00       		.byte	0
 2027 0029 04       		.uleb128 0x4
 2028 002a 16       		.uleb128 0x16
 2029 002b 00       		.byte	0
 2030 002c 03       		.uleb128 0x3
 2031 002d 0E       		.uleb128 0xe
 2032 002e 3A       		.uleb128 0x3a
 2033 002f 0B       		.uleb128 0xb
 2034 0030 3B       		.uleb128 0x3b
 2035 0031 0B       		.uleb128 0xb
 2036 0032 49       		.uleb128 0x49
 2037 0033 13       		.uleb128 0x13
 2038 0034 00       		.byte	0
 2039 0035 00       		.byte	0
ARM GAS  /tmp/ccxxnAte.s 			page 64


 2040 0036 05       		.uleb128 0x5
 2041 0037 13       		.uleb128 0x13
 2042 0038 01       		.byte	0x1
 2043 0039 03       		.uleb128 0x3
 2044 003a 0E       		.uleb128 0xe
 2045 003b 0B       		.uleb128 0xb
 2046 003c 0B       		.uleb128 0xb
 2047 003d 3A       		.uleb128 0x3a
 2048 003e 0B       		.uleb128 0xb
 2049 003f 3B       		.uleb128 0x3b
 2050 0040 0B       		.uleb128 0xb
 2051 0041 01       		.uleb128 0x1
 2052 0042 13       		.uleb128 0x13
 2053 0043 00       		.byte	0
 2054 0044 00       		.byte	0
 2055 0045 06       		.uleb128 0x6
 2056 0046 0D       		.uleb128 0xd
 2057 0047 00       		.byte	0
 2058 0048 03       		.uleb128 0x3
 2059 0049 0E       		.uleb128 0xe
 2060 004a 3A       		.uleb128 0x3a
 2061 004b 0B       		.uleb128 0xb
 2062 004c 3B       		.uleb128 0x3b
 2063 004d 0B       		.uleb128 0xb
 2064 004e 49       		.uleb128 0x49
 2065 004f 13       		.uleb128 0x13
 2066 0050 38       		.uleb128 0x38
 2067 0051 0B       		.uleb128 0xb
 2068 0052 00       		.byte	0
 2069 0053 00       		.byte	0
 2070 0054 07       		.uleb128 0x7
 2071 0055 0D       		.uleb128 0xd
 2072 0056 00       		.byte	0
 2073 0057 03       		.uleb128 0x3
 2074 0058 08       		.uleb128 0x8
 2075 0059 3A       		.uleb128 0x3a
 2076 005a 0B       		.uleb128 0xb
 2077 005b 3B       		.uleb128 0x3b
 2078 005c 0B       		.uleb128 0xb
 2079 005d 49       		.uleb128 0x49
 2080 005e 13       		.uleb128 0x13
 2081 005f 38       		.uleb128 0x38
 2082 0060 0B       		.uleb128 0xb
 2083 0061 00       		.byte	0
 2084 0062 00       		.byte	0
 2085 0063 08       		.uleb128 0x8
 2086 0064 0D       		.uleb128 0xd
 2087 0065 00       		.byte	0
 2088 0066 03       		.uleb128 0x3
 2089 0067 08       		.uleb128 0x8
 2090 0068 3A       		.uleb128 0x3a
 2091 0069 0B       		.uleb128 0xb
 2092 006a 3B       		.uleb128 0x3b
 2093 006b 05       		.uleb128 0x5
 2094 006c 49       		.uleb128 0x49
 2095 006d 13       		.uleb128 0x13
 2096 006e 38       		.uleb128 0x38
ARM GAS  /tmp/ccxxnAte.s 			page 65


 2097 006f 0B       		.uleb128 0xb
 2098 0070 00       		.byte	0
 2099 0071 00       		.byte	0
 2100 0072 09       		.uleb128 0x9
 2101 0073 0D       		.uleb128 0xd
 2102 0074 00       		.byte	0
 2103 0075 03       		.uleb128 0x3
 2104 0076 0E       		.uleb128 0xe
 2105 0077 3A       		.uleb128 0x3a
 2106 0078 0B       		.uleb128 0xb
 2107 0079 3B       		.uleb128 0x3b
 2108 007a 05       		.uleb128 0x5
 2109 007b 49       		.uleb128 0x49
 2110 007c 13       		.uleb128 0x13
 2111 007d 38       		.uleb128 0x38
 2112 007e 0B       		.uleb128 0xb
 2113 007f 00       		.byte	0
 2114 0080 00       		.byte	0
 2115 0081 0A       		.uleb128 0xa
 2116 0082 0F       		.uleb128 0xf
 2117 0083 00       		.byte	0
 2118 0084 0B       		.uleb128 0xb
 2119 0085 0B       		.uleb128 0xb
 2120 0086 49       		.uleb128 0x49
 2121 0087 13       		.uleb128 0x13
 2122 0088 00       		.byte	0
 2123 0089 00       		.byte	0
 2124 008a 0B       		.uleb128 0xb
 2125 008b 13       		.uleb128 0x13
 2126 008c 01       		.byte	0x1
 2127 008d 03       		.uleb128 0x3
 2128 008e 0E       		.uleb128 0xe
 2129 008f 0B       		.uleb128 0xb
 2130 0090 0B       		.uleb128 0xb
 2131 0091 3A       		.uleb128 0x3a
 2132 0092 0B       		.uleb128 0xb
 2133 0093 3B       		.uleb128 0x3b
 2134 0094 05       		.uleb128 0x5
 2135 0095 01       		.uleb128 0x1
 2136 0096 13       		.uleb128 0x13
 2137 0097 00       		.byte	0
 2138 0098 00       		.byte	0
 2139 0099 0C       		.uleb128 0xc
 2140 009a 15       		.uleb128 0x15
 2141 009b 01       		.byte	0x1
 2142 009c 27       		.uleb128 0x27
 2143 009d 19       		.uleb128 0x19
 2144 009e 01       		.uleb128 0x1
 2145 009f 13       		.uleb128 0x13
 2146 00a0 00       		.byte	0
 2147 00a1 00       		.byte	0
 2148 00a2 0D       		.uleb128 0xd
 2149 00a3 05       		.uleb128 0x5
 2150 00a4 00       		.byte	0
 2151 00a5 49       		.uleb128 0x49
 2152 00a6 13       		.uleb128 0x13
 2153 00a7 00       		.byte	0
ARM GAS  /tmp/ccxxnAte.s 			page 66


 2154 00a8 00       		.byte	0
 2155 00a9 0E       		.uleb128 0xe
 2156 00aa 0F       		.uleb128 0xf
 2157 00ab 00       		.byte	0
 2158 00ac 0B       		.uleb128 0xb
 2159 00ad 0B       		.uleb128 0xb
 2160 00ae 00       		.byte	0
 2161 00af 00       		.byte	0
 2162 00b0 0F       		.uleb128 0xf
 2163 00b1 13       		.uleb128 0x13
 2164 00b2 01       		.byte	0x1
 2165 00b3 0B       		.uleb128 0xb
 2166 00b4 0B       		.uleb128 0xb
 2167 00b5 3A       		.uleb128 0x3a
 2168 00b6 0B       		.uleb128 0xb
 2169 00b7 3B       		.uleb128 0x3b
 2170 00b8 0B       		.uleb128 0xb
 2171 00b9 01       		.uleb128 0x1
 2172 00ba 13       		.uleb128 0x13
 2173 00bb 00       		.byte	0
 2174 00bc 00       		.byte	0
 2175 00bd 10       		.uleb128 0x10
 2176 00be 17       		.uleb128 0x17
 2177 00bf 01       		.byte	0x1
 2178 00c0 0B       		.uleb128 0xb
 2179 00c1 0B       		.uleb128 0xb
 2180 00c2 3A       		.uleb128 0x3a
 2181 00c3 0B       		.uleb128 0xb
 2182 00c4 3B       		.uleb128 0x3b
 2183 00c5 0B       		.uleb128 0xb
 2184 00c6 01       		.uleb128 0x1
 2185 00c7 13       		.uleb128 0x13
 2186 00c8 00       		.byte	0
 2187 00c9 00       		.byte	0
 2188 00ca 11       		.uleb128 0x11
 2189 00cb 0D       		.uleb128 0xd
 2190 00cc 00       		.byte	0
 2191 00cd 03       		.uleb128 0x3
 2192 00ce 0E       		.uleb128 0xe
 2193 00cf 3A       		.uleb128 0x3a
 2194 00d0 0B       		.uleb128 0xb
 2195 00d1 3B       		.uleb128 0x3b
 2196 00d2 0B       		.uleb128 0xb
 2197 00d3 49       		.uleb128 0x49
 2198 00d4 13       		.uleb128 0x13
 2199 00d5 00       		.byte	0
 2200 00d6 00       		.byte	0
 2201 00d7 12       		.uleb128 0x12
 2202 00d8 0D       		.uleb128 0xd
 2203 00d9 00       		.byte	0
 2204 00da 03       		.uleb128 0x3
 2205 00db 0E       		.uleb128 0xe
 2206 00dc 3A       		.uleb128 0x3a
 2207 00dd 0B       		.uleb128 0xb
 2208 00de 3B       		.uleb128 0x3b
 2209 00df 05       		.uleb128 0x5
 2210 00e0 49       		.uleb128 0x49
ARM GAS  /tmp/ccxxnAte.s 			page 67


 2211 00e1 13       		.uleb128 0x13
 2212 00e2 00       		.byte	0
 2213 00e3 00       		.byte	0
 2214 00e4 13       		.uleb128 0x13
 2215 00e5 26       		.uleb128 0x26
 2216 00e6 00       		.byte	0
 2217 00e7 49       		.uleb128 0x49
 2218 00e8 13       		.uleb128 0x13
 2219 00e9 00       		.byte	0
 2220 00ea 00       		.byte	0
 2221 00eb 14       		.uleb128 0x14
 2222 00ec 35       		.uleb128 0x35
 2223 00ed 00       		.byte	0
 2224 00ee 49       		.uleb128 0x49
 2225 00ef 13       		.uleb128 0x13
 2226 00f0 00       		.byte	0
 2227 00f1 00       		.byte	0
 2228 00f2 15       		.uleb128 0x15
 2229 00f3 2E       		.uleb128 0x2e
 2230 00f4 01       		.byte	0x1
 2231 00f5 03       		.uleb128 0x3
 2232 00f6 0E       		.uleb128 0xe
 2233 00f7 3A       		.uleb128 0x3a
 2234 00f8 0B       		.uleb128 0xb
 2235 00f9 3B       		.uleb128 0x3b
 2236 00fa 05       		.uleb128 0x5
 2237 00fb 27       		.uleb128 0x27
 2238 00fc 19       		.uleb128 0x19
 2239 00fd 20       		.uleb128 0x20
 2240 00fe 0B       		.uleb128 0xb
 2241 00ff 01       		.uleb128 0x1
 2242 0100 13       		.uleb128 0x13
 2243 0101 00       		.byte	0
 2244 0102 00       		.byte	0
 2245 0103 16       		.uleb128 0x16
 2246 0104 05       		.uleb128 0x5
 2247 0105 00       		.byte	0
 2248 0106 03       		.uleb128 0x3
 2249 0107 0E       		.uleb128 0xe
 2250 0108 3A       		.uleb128 0x3a
 2251 0109 0B       		.uleb128 0xb
 2252 010a 3B       		.uleb128 0x3b
 2253 010b 05       		.uleb128 0x5
 2254 010c 49       		.uleb128 0x49
 2255 010d 13       		.uleb128 0x13
 2256 010e 00       		.byte	0
 2257 010f 00       		.byte	0
 2258 0110 17       		.uleb128 0x17
 2259 0111 2E       		.uleb128 0x2e
 2260 0112 00       		.byte	0
 2261 0113 03       		.uleb128 0x3
 2262 0114 0E       		.uleb128 0xe
 2263 0115 3A       		.uleb128 0x3a
 2264 0116 0B       		.uleb128 0xb
 2265 0117 3B       		.uleb128 0x3b
 2266 0118 05       		.uleb128 0x5
 2267 0119 27       		.uleb128 0x27
ARM GAS  /tmp/ccxxnAte.s 			page 68


 2268 011a 19       		.uleb128 0x19
 2269 011b 20       		.uleb128 0x20
 2270 011c 0B       		.uleb128 0xb
 2271 011d 00       		.byte	0
 2272 011e 00       		.byte	0
 2273 011f 18       		.uleb128 0x18
 2274 0120 05       		.uleb128 0x5
 2275 0121 00       		.byte	0
 2276 0122 03       		.uleb128 0x3
 2277 0123 08       		.uleb128 0x8
 2278 0124 3A       		.uleb128 0x3a
 2279 0125 0B       		.uleb128 0xb
 2280 0126 3B       		.uleb128 0x3b
 2281 0127 05       		.uleb128 0x5
 2282 0128 49       		.uleb128 0x49
 2283 0129 13       		.uleb128 0x13
 2284 012a 00       		.byte	0
 2285 012b 00       		.byte	0
 2286 012c 19       		.uleb128 0x19
 2287 012d 34       		.uleb128 0x34
 2288 012e 00       		.byte	0
 2289 012f 03       		.uleb128 0x3
 2290 0130 0E       		.uleb128 0xe
 2291 0131 49       		.uleb128 0x49
 2292 0132 13       		.uleb128 0x13
 2293 0133 34       		.uleb128 0x34
 2294 0134 19       		.uleb128 0x19
 2295 0135 1C       		.uleb128 0x1c
 2296 0136 0E       		.uleb128 0xe
 2297 0137 00       		.byte	0
 2298 0138 00       		.byte	0
 2299 0139 1A       		.uleb128 0x1a
 2300 013a 01       		.uleb128 0x1
 2301 013b 01       		.byte	0x1
 2302 013c 49       		.uleb128 0x49
 2303 013d 13       		.uleb128 0x13
 2304 013e 01       		.uleb128 0x1
 2305 013f 13       		.uleb128 0x13
 2306 0140 00       		.byte	0
 2307 0141 00       		.byte	0
 2308 0142 1B       		.uleb128 0x1b
 2309 0143 21       		.uleb128 0x21
 2310 0144 00       		.byte	0
 2311 0145 49       		.uleb128 0x49
 2312 0146 13       		.uleb128 0x13
 2313 0147 2F       		.uleb128 0x2f
 2314 0148 0B       		.uleb128 0xb
 2315 0149 00       		.byte	0
 2316 014a 00       		.byte	0
 2317 014b 1C       		.uleb128 0x1c
 2318 014c 2E       		.uleb128 0x2e
 2319 014d 01       		.byte	0x1
 2320 014e 03       		.uleb128 0x3
 2321 014f 0E       		.uleb128 0xe
 2322 0150 3A       		.uleb128 0x3a
 2323 0151 0B       		.uleb128 0xb
 2324 0152 3B       		.uleb128 0x3b
ARM GAS  /tmp/ccxxnAte.s 			page 69


 2325 0153 0B       		.uleb128 0xb
 2326 0154 27       		.uleb128 0x27
 2327 0155 19       		.uleb128 0x19
 2328 0156 49       		.uleb128 0x49
 2329 0157 13       		.uleb128 0x13
 2330 0158 20       		.uleb128 0x20
 2331 0159 0B       		.uleb128 0xb
 2332 015a 01       		.uleb128 0x1
 2333 015b 13       		.uleb128 0x13
 2334 015c 00       		.byte	0
 2335 015d 00       		.byte	0
 2336 015e 1D       		.uleb128 0x1d
 2337 015f 05       		.uleb128 0x5
 2338 0160 00       		.byte	0
 2339 0161 03       		.uleb128 0x3
 2340 0162 08       		.uleb128 0x8
 2341 0163 3A       		.uleb128 0x3a
 2342 0164 0B       		.uleb128 0xb
 2343 0165 3B       		.uleb128 0x3b
 2344 0166 0B       		.uleb128 0xb
 2345 0167 49       		.uleb128 0x49
 2346 0168 13       		.uleb128 0x13
 2347 0169 00       		.byte	0
 2348 016a 00       		.byte	0
 2349 016b 1E       		.uleb128 0x1e
 2350 016c 2E       		.uleb128 0x2e
 2351 016d 01       		.byte	0x1
 2352 016e 03       		.uleb128 0x3
 2353 016f 0E       		.uleb128 0xe
 2354 0170 3A       		.uleb128 0x3a
 2355 0171 0B       		.uleb128 0xb
 2356 0172 3B       		.uleb128 0x3b
 2357 0173 05       		.uleb128 0x5
 2358 0174 27       		.uleb128 0x27
 2359 0175 19       		.uleb128 0x19
 2360 0176 49       		.uleb128 0x49
 2361 0177 13       		.uleb128 0x13
 2362 0178 20       		.uleb128 0x20
 2363 0179 0B       		.uleb128 0xb
 2364 017a 01       		.uleb128 0x1
 2365 017b 13       		.uleb128 0x13
 2366 017c 00       		.byte	0
 2367 017d 00       		.byte	0
 2368 017e 1F       		.uleb128 0x1f
 2369 017f 34       		.uleb128 0x34
 2370 0180 00       		.byte	0
 2371 0181 03       		.uleb128 0x3
 2372 0182 08       		.uleb128 0x8
 2373 0183 3A       		.uleb128 0x3a
 2374 0184 0B       		.uleb128 0xb
 2375 0185 3B       		.uleb128 0x3b
 2376 0186 05       		.uleb128 0x5
 2377 0187 49       		.uleb128 0x49
 2378 0188 13       		.uleb128 0x13
 2379 0189 00       		.byte	0
 2380 018a 00       		.byte	0
 2381 018b 20       		.uleb128 0x20
ARM GAS  /tmp/ccxxnAte.s 			page 70


 2382 018c 2E       		.uleb128 0x2e
 2383 018d 01       		.byte	0x1
 2384 018e 03       		.uleb128 0x3
 2385 018f 0E       		.uleb128 0xe
 2386 0190 3A       		.uleb128 0x3a
 2387 0191 0B       		.uleb128 0xb
 2388 0192 3B       		.uleb128 0x3b
 2389 0193 0B       		.uleb128 0xb
 2390 0194 27       		.uleb128 0x27
 2391 0195 19       		.uleb128 0x19
 2392 0196 20       		.uleb128 0x20
 2393 0197 0B       		.uleb128 0xb
 2394 0198 01       		.uleb128 0x1
 2395 0199 13       		.uleb128 0x13
 2396 019a 00       		.byte	0
 2397 019b 00       		.byte	0
 2398 019c 21       		.uleb128 0x21
 2399 019d 2E       		.uleb128 0x2e
 2400 019e 01       		.byte	0x1
 2401 019f 3F       		.uleb128 0x3f
 2402 01a0 19       		.uleb128 0x19
 2403 01a1 03       		.uleb128 0x3
 2404 01a2 0E       		.uleb128 0xe
 2405 01a3 3A       		.uleb128 0x3a
 2406 01a4 0B       		.uleb128 0xb
 2407 01a5 3B       		.uleb128 0x3b
 2408 01a6 0B       		.uleb128 0xb
 2409 01a7 27       		.uleb128 0x27
 2410 01a8 19       		.uleb128 0x19
 2411 01a9 49       		.uleb128 0x49
 2412 01aa 13       		.uleb128 0x13
 2413 01ab 11       		.uleb128 0x11
 2414 01ac 01       		.uleb128 0x1
 2415 01ad 12       		.uleb128 0x12
 2416 01ae 06       		.uleb128 0x6
 2417 01af 40       		.uleb128 0x40
 2418 01b0 18       		.uleb128 0x18
 2419 01b1 9742     		.uleb128 0x2117
 2420 01b3 19       		.uleb128 0x19
 2421 01b4 01       		.uleb128 0x1
 2422 01b5 13       		.uleb128 0x13
 2423 01b6 00       		.byte	0
 2424 01b7 00       		.byte	0
 2425 01b8 22       		.uleb128 0x22
 2426 01b9 05       		.uleb128 0x5
 2427 01ba 00       		.byte	0
 2428 01bb 03       		.uleb128 0x3
 2429 01bc 08       		.uleb128 0x8
 2430 01bd 3A       		.uleb128 0x3a
 2431 01be 0B       		.uleb128 0xb
 2432 01bf 3B       		.uleb128 0x3b
 2433 01c0 0B       		.uleb128 0xb
 2434 01c1 49       		.uleb128 0x49
 2435 01c2 13       		.uleb128 0x13
 2436 01c3 02       		.uleb128 0x2
 2437 01c4 17       		.uleb128 0x17
 2438 01c5 00       		.byte	0
ARM GAS  /tmp/ccxxnAte.s 			page 71


 2439 01c6 00       		.byte	0
 2440 01c7 23       		.uleb128 0x23
 2441 01c8 34       		.uleb128 0x34
 2442 01c9 00       		.byte	0
 2443 01ca 03       		.uleb128 0x3
 2444 01cb 08       		.uleb128 0x8
 2445 01cc 3A       		.uleb128 0x3a
 2446 01cd 0B       		.uleb128 0xb
 2447 01ce 3B       		.uleb128 0x3b
 2448 01cf 0B       		.uleb128 0xb
 2449 01d0 49       		.uleb128 0x49
 2450 01d1 13       		.uleb128 0x13
 2451 01d2 02       		.uleb128 0x2
 2452 01d3 18       		.uleb128 0x18
 2453 01d4 00       		.byte	0
 2454 01d5 00       		.byte	0
 2455 01d6 24       		.uleb128 0x24
 2456 01d7 34       		.uleb128 0x34
 2457 01d8 00       		.byte	0
 2458 01d9 03       		.uleb128 0x3
 2459 01da 0E       		.uleb128 0xe
 2460 01db 49       		.uleb128 0x49
 2461 01dc 13       		.uleb128 0x13
 2462 01dd 34       		.uleb128 0x34
 2463 01de 19       		.uleb128 0x19
 2464 01df 00       		.byte	0
 2465 01e0 00       		.byte	0
 2466 01e1 25       		.uleb128 0x25
 2467 01e2 1D       		.uleb128 0x1d
 2468 01e3 01       		.byte	0x1
 2469 01e4 31       		.uleb128 0x31
 2470 01e5 13       		.uleb128 0x13
 2471 01e6 11       		.uleb128 0x11
 2472 01e7 01       		.uleb128 0x1
 2473 01e8 12       		.uleb128 0x12
 2474 01e9 06       		.uleb128 0x6
 2475 01ea 58       		.uleb128 0x58
 2476 01eb 0B       		.uleb128 0xb
 2477 01ec 59       		.uleb128 0x59
 2478 01ed 0B       		.uleb128 0xb
 2479 01ee 01       		.uleb128 0x1
 2480 01ef 13       		.uleb128 0x13
 2481 01f0 00       		.byte	0
 2482 01f1 00       		.byte	0
 2483 01f2 26       		.uleb128 0x26
 2484 01f3 1D       		.uleb128 0x1d
 2485 01f4 01       		.byte	0x1
 2486 01f5 31       		.uleb128 0x31
 2487 01f6 13       		.uleb128 0x13
 2488 01f7 11       		.uleb128 0x11
 2489 01f8 01       		.uleb128 0x1
 2490 01f9 12       		.uleb128 0x12
 2491 01fa 06       		.uleb128 0x6
 2492 01fb 58       		.uleb128 0x58
 2493 01fc 0B       		.uleb128 0xb
 2494 01fd 59       		.uleb128 0x59
 2495 01fe 05       		.uleb128 0x5
ARM GAS  /tmp/ccxxnAte.s 			page 72


 2496 01ff 00       		.byte	0
 2497 0200 00       		.byte	0
 2498 0201 27       		.uleb128 0x27
 2499 0202 05       		.uleb128 0x5
 2500 0203 00       		.byte	0
 2501 0204 31       		.uleb128 0x31
 2502 0205 13       		.uleb128 0x13
 2503 0206 1C       		.uleb128 0x1c
 2504 0207 0B       		.uleb128 0xb
 2505 0208 00       		.byte	0
 2506 0209 00       		.byte	0
 2507 020a 28       		.uleb128 0x28
 2508 020b 1D       		.uleb128 0x1d
 2509 020c 01       		.byte	0x1
 2510 020d 31       		.uleb128 0x31
 2511 020e 13       		.uleb128 0x13
 2512 020f 52       		.uleb128 0x52
 2513 0210 01       		.uleb128 0x1
 2514 0211 55       		.uleb128 0x55
 2515 0212 17       		.uleb128 0x17
 2516 0213 58       		.uleb128 0x58
 2517 0214 0B       		.uleb128 0xb
 2518 0215 59       		.uleb128 0x59
 2519 0216 0B       		.uleb128 0xb
 2520 0217 01       		.uleb128 0x1
 2521 0218 13       		.uleb128 0x13
 2522 0219 00       		.byte	0
 2523 021a 00       		.byte	0
 2524 021b 29       		.uleb128 0x29
 2525 021c 05       		.uleb128 0x5
 2526 021d 00       		.byte	0
 2527 021e 31       		.uleb128 0x31
 2528 021f 13       		.uleb128 0x13
 2529 0220 02       		.uleb128 0x2
 2530 0221 17       		.uleb128 0x17
 2531 0222 00       		.byte	0
 2532 0223 00       		.byte	0
 2533 0224 2A       		.uleb128 0x2a
 2534 0225 05       		.uleb128 0x5
 2535 0226 00       		.byte	0
 2536 0227 31       		.uleb128 0x31
 2537 0228 13       		.uleb128 0x13
 2538 0229 02       		.uleb128 0x2
 2539 022a 18       		.uleb128 0x18
 2540 022b 00       		.byte	0
 2541 022c 00       		.byte	0
 2542 022d 2B       		.uleb128 0x2b
 2543 022e 0B       		.uleb128 0xb
 2544 022f 01       		.byte	0x1
 2545 0230 11       		.uleb128 0x11
 2546 0231 01       		.uleb128 0x1
 2547 0232 12       		.uleb128 0x12
 2548 0233 06       		.uleb128 0x6
 2549 0234 00       		.byte	0
 2550 0235 00       		.byte	0
 2551 0236 2C       		.uleb128 0x2c
 2552 0237 34       		.uleb128 0x34
ARM GAS  /tmp/ccxxnAte.s 			page 73


 2553 0238 00       		.byte	0
 2554 0239 31       		.uleb128 0x31
 2555 023a 13       		.uleb128 0x13
 2556 023b 00       		.byte	0
 2557 023c 00       		.byte	0
 2558 023d 2D       		.uleb128 0x2d
 2559 023e 898201   		.uleb128 0x4109
 2560 0241 01       		.byte	0x1
 2561 0242 11       		.uleb128 0x11
 2562 0243 01       		.uleb128 0x1
 2563 0244 31       		.uleb128 0x31
 2564 0245 13       		.uleb128 0x13
 2565 0246 01       		.uleb128 0x1
 2566 0247 13       		.uleb128 0x13
 2567 0248 00       		.byte	0
 2568 0249 00       		.byte	0
 2569 024a 2E       		.uleb128 0x2e
 2570 024b 8A8201   		.uleb128 0x410a
 2571 024e 00       		.byte	0
 2572 024f 02       		.uleb128 0x2
 2573 0250 18       		.uleb128 0x18
 2574 0251 9142     		.uleb128 0x2111
 2575 0253 18       		.uleb128 0x18
 2576 0254 00       		.byte	0
 2577 0255 00       		.byte	0
 2578 0256 2F       		.uleb128 0x2f
 2579 0257 898201   		.uleb128 0x4109
 2580 025a 00       		.byte	0
 2581 025b 11       		.uleb128 0x11
 2582 025c 01       		.uleb128 0x1
 2583 025d 31       		.uleb128 0x31
 2584 025e 13       		.uleb128 0x13
 2585 025f 00       		.byte	0
 2586 0260 00       		.byte	0
 2587 0261 30       		.uleb128 0x30
 2588 0262 34       		.uleb128 0x34
 2589 0263 00       		.byte	0
 2590 0264 03       		.uleb128 0x3
 2591 0265 08       		.uleb128 0x8
 2592 0266 3A       		.uleb128 0x3a
 2593 0267 0B       		.uleb128 0xb
 2594 0268 3B       		.uleb128 0x3b
 2595 0269 0B       		.uleb128 0xb
 2596 026a 49       		.uleb128 0x49
 2597 026b 13       		.uleb128 0x13
 2598 026c 00       		.byte	0
 2599 026d 00       		.byte	0
 2600 026e 31       		.uleb128 0x31
 2601 026f 0B       		.uleb128 0xb
 2602 0270 01       		.byte	0x1
 2603 0271 55       		.uleb128 0x55
 2604 0272 17       		.uleb128 0x17
 2605 0273 00       		.byte	0
 2606 0274 00       		.byte	0
 2607 0275 32       		.uleb128 0x32
 2608 0276 34       		.uleb128 0x34
 2609 0277 00       		.byte	0
ARM GAS  /tmp/ccxxnAte.s 			page 74


 2610 0278 31       		.uleb128 0x31
 2611 0279 13       		.uleb128 0x13
 2612 027a 02       		.uleb128 0x2
 2613 027b 17       		.uleb128 0x17
 2614 027c 00       		.byte	0
 2615 027d 00       		.byte	0
 2616 027e 33       		.uleb128 0x33
 2617 027f 1D       		.uleb128 0x1d
 2618 0280 01       		.byte	0x1
 2619 0281 31       		.uleb128 0x31
 2620 0282 13       		.uleb128 0x13
 2621 0283 52       		.uleb128 0x52
 2622 0284 01       		.uleb128 0x1
 2623 0285 55       		.uleb128 0x55
 2624 0286 17       		.uleb128 0x17
 2625 0287 58       		.uleb128 0x58
 2626 0288 0B       		.uleb128 0xb
 2627 0289 59       		.uleb128 0x59
 2628 028a 05       		.uleb128 0x5
 2629 028b 00       		.byte	0
 2630 028c 00       		.byte	0
 2631 028d 34       		.uleb128 0x34
 2632 028e 898201   		.uleb128 0x4109
 2633 0291 01       		.byte	0x1
 2634 0292 11       		.uleb128 0x11
 2635 0293 01       		.uleb128 0x1
 2636 0294 31       		.uleb128 0x31
 2637 0295 13       		.uleb128 0x13
 2638 0296 00       		.byte	0
 2639 0297 00       		.byte	0
 2640 0298 35       		.uleb128 0x35
 2641 0299 2E       		.uleb128 0x2e
 2642 029a 01       		.byte	0x1
 2643 029b 3F       		.uleb128 0x3f
 2644 029c 19       		.uleb128 0x19
 2645 029d 03       		.uleb128 0x3
 2646 029e 0E       		.uleb128 0xe
 2647 029f 3A       		.uleb128 0x3a
 2648 02a0 0B       		.uleb128 0xb
 2649 02a1 3B       		.uleb128 0x3b
 2650 02a2 0B       		.uleb128 0xb
 2651 02a3 27       		.uleb128 0x27
 2652 02a4 19       		.uleb128 0x19
 2653 02a5 11       		.uleb128 0x11
 2654 02a6 01       		.uleb128 0x1
 2655 02a7 12       		.uleb128 0x12
 2656 02a8 06       		.uleb128 0x6
 2657 02a9 40       		.uleb128 0x40
 2658 02aa 18       		.uleb128 0x18
 2659 02ab 9742     		.uleb128 0x2117
 2660 02ad 19       		.uleb128 0x19
 2661 02ae 01       		.uleb128 0x1
 2662 02af 13       		.uleb128 0x13
 2663 02b0 00       		.byte	0
 2664 02b1 00       		.byte	0
 2665 02b2 36       		.uleb128 0x36
 2666 02b3 1D       		.uleb128 0x1d
ARM GAS  /tmp/ccxxnAte.s 			page 75


 2667 02b4 01       		.byte	0x1
 2668 02b5 31       		.uleb128 0x31
 2669 02b6 13       		.uleb128 0x13
 2670 02b7 11       		.uleb128 0x11
 2671 02b8 01       		.uleb128 0x1
 2672 02b9 12       		.uleb128 0x12
 2673 02ba 06       		.uleb128 0x6
 2674 02bb 58       		.uleb128 0x58
 2675 02bc 0B       		.uleb128 0xb
 2676 02bd 59       		.uleb128 0x59
 2677 02be 0B       		.uleb128 0xb
 2678 02bf 00       		.byte	0
 2679 02c0 00       		.byte	0
 2680 02c1 37       		.uleb128 0x37
 2681 02c2 34       		.uleb128 0x34
 2682 02c3 00       		.byte	0
 2683 02c4 03       		.uleb128 0x3
 2684 02c5 0E       		.uleb128 0xe
 2685 02c6 3A       		.uleb128 0x3a
 2686 02c7 0B       		.uleb128 0xb
 2687 02c8 3B       		.uleb128 0x3b
 2688 02c9 05       		.uleb128 0x5
 2689 02ca 49       		.uleb128 0x49
 2690 02cb 13       		.uleb128 0x13
 2691 02cc 3F       		.uleb128 0x3f
 2692 02cd 19       		.uleb128 0x19
 2693 02ce 3C       		.uleb128 0x3c
 2694 02cf 19       		.uleb128 0x19
 2695 02d0 00       		.byte	0
 2696 02d1 00       		.byte	0
 2697 02d2 38       		.uleb128 0x38
 2698 02d3 34       		.uleb128 0x34
 2699 02d4 00       		.byte	0
 2700 02d5 03       		.uleb128 0x3
 2701 02d6 08       		.uleb128 0x8
 2702 02d7 3A       		.uleb128 0x3a
 2703 02d8 0B       		.uleb128 0xb
 2704 02d9 3B       		.uleb128 0x3b
 2705 02da 05       		.uleb128 0x5
 2706 02db 49       		.uleb128 0x49
 2707 02dc 13       		.uleb128 0x13
 2708 02dd 3F       		.uleb128 0x3f
 2709 02de 19       		.uleb128 0x19
 2710 02df 3C       		.uleb128 0x3c
 2711 02e0 19       		.uleb128 0x19
 2712 02e1 00       		.byte	0
 2713 02e2 00       		.byte	0
 2714 02e3 39       		.uleb128 0x39
 2715 02e4 2E       		.uleb128 0x2e
 2716 02e5 01       		.byte	0x1
 2717 02e6 3F       		.uleb128 0x3f
 2718 02e7 19       		.uleb128 0x19
 2719 02e8 03       		.uleb128 0x3
 2720 02e9 0E       		.uleb128 0xe
 2721 02ea 3A       		.uleb128 0x3a
 2722 02eb 0B       		.uleb128 0xb
 2723 02ec 3B       		.uleb128 0x3b
ARM GAS  /tmp/ccxxnAte.s 			page 76


 2724 02ed 05       		.uleb128 0x5
 2725 02ee 27       		.uleb128 0x27
 2726 02ef 19       		.uleb128 0x19
 2727 02f0 3C       		.uleb128 0x3c
 2728 02f1 19       		.uleb128 0x19
 2729 02f2 01       		.uleb128 0x1
 2730 02f3 13       		.uleb128 0x13
 2731 02f4 00       		.byte	0
 2732 02f5 00       		.byte	0
 2733 02f6 3A       		.uleb128 0x3a
 2734 02f7 2E       		.uleb128 0x2e
 2735 02f8 01       		.byte	0x1
 2736 02f9 3F       		.uleb128 0x3f
 2737 02fa 19       		.uleb128 0x19
 2738 02fb 03       		.uleb128 0x3
 2739 02fc 0E       		.uleb128 0xe
 2740 02fd 3A       		.uleb128 0x3a
 2741 02fe 0B       		.uleb128 0xb
 2742 02ff 3B       		.uleb128 0x3b
 2743 0300 05       		.uleb128 0x5
 2744 0301 27       		.uleb128 0x27
 2745 0302 19       		.uleb128 0x19
 2746 0303 49       		.uleb128 0x49
 2747 0304 13       		.uleb128 0x13
 2748 0305 3C       		.uleb128 0x3c
 2749 0306 19       		.uleb128 0x19
 2750 0307 01       		.uleb128 0x1
 2751 0308 13       		.uleb128 0x13
 2752 0309 00       		.byte	0
 2753 030a 00       		.byte	0
 2754 030b 3B       		.uleb128 0x3b
 2755 030c 2E       		.uleb128 0x2e
 2756 030d 01       		.byte	0x1
 2757 030e 3F       		.uleb128 0x3f
 2758 030f 19       		.uleb128 0x19
 2759 0310 03       		.uleb128 0x3
 2760 0311 0E       		.uleb128 0xe
 2761 0312 3A       		.uleb128 0x3a
 2762 0313 0B       		.uleb128 0xb
 2763 0314 3B       		.uleb128 0x3b
 2764 0315 05       		.uleb128 0x5
 2765 0316 27       		.uleb128 0x27
 2766 0317 19       		.uleb128 0x19
 2767 0318 3C       		.uleb128 0x3c
 2768 0319 19       		.uleb128 0x19
 2769 031a 00       		.byte	0
 2770 031b 00       		.byte	0
 2771 031c 00       		.byte	0
 2772              		.section	.debug_loc,"",%progbits
 2773              	.Ldebug_loc0:
 2774              	.LLST0:
 2775 0000 00000000 		.4byte	.LVL0
 2776 0004 2A000000 		.4byte	.LVL5
 2777 0008 0100     		.2byte	0x1
 2778 000a 50       		.byte	0x50
 2779 000b 2A000000 		.4byte	.LVL5
 2780 000f 3A000000 		.4byte	.LVL8
ARM GAS  /tmp/ccxxnAte.s 			page 77


 2781 0013 0400     		.2byte	0x4
 2782 0015 F3       		.byte	0xf3
 2783 0016 01       		.uleb128 0x1
 2784 0017 50       		.byte	0x50
 2785 0018 9F       		.byte	0x9f
 2786 0019 3A000000 		.4byte	.LVL8
 2787 001d 3D000000 		.4byte	.LVL9-1
 2788 0021 0100     		.2byte	0x1
 2789 0023 50       		.byte	0x50
 2790 0024 3D000000 		.4byte	.LVL9-1
 2791 0028 40000000 		.4byte	.LFE186
 2792 002c 0400     		.2byte	0x4
 2793 002e F3       		.byte	0xf3
 2794 002f 01       		.uleb128 0x1
 2795 0030 50       		.byte	0x50
 2796 0031 9F       		.byte	0x9f
 2797 0032 00000000 		.4byte	0
 2798 0036 00000000 		.4byte	0
 2799              	.LLST1:
 2800 003a 00000000 		.4byte	.LVL0
 2801 003e 1E000000 		.4byte	.LVL3
 2802 0042 0100     		.2byte	0x1
 2803 0044 51       		.byte	0x51
 2804 0045 1E000000 		.4byte	.LVL3
 2805 0049 28000000 		.4byte	.LVL4
 2806 004d 0200     		.2byte	0x2
 2807 004f 74       		.byte	0x74
 2808 0050 24       		.sleb128 36
 2809 0051 28000000 		.4byte	.LVL4
 2810 0055 32000000 		.4byte	.LVL7
 2811 0059 0400     		.2byte	0x4
 2812 005b F3       		.byte	0xf3
 2813 005c 01       		.uleb128 0x1
 2814 005d 51       		.byte	0x51
 2815 005e 9F       		.byte	0x9f
 2816 005f 32000000 		.4byte	.LVL7
 2817 0063 3A000000 		.4byte	.LVL8
 2818 0067 0100     		.2byte	0x1
 2819 0069 50       		.byte	0x50
 2820 006a 3A000000 		.4byte	.LVL8
 2821 006e 40000000 		.4byte	.LFE186
 2822 0072 0400     		.2byte	0x4
 2823 0074 F3       		.byte	0xf3
 2824 0075 01       		.uleb128 0x1
 2825 0076 51       		.byte	0x51
 2826 0077 9F       		.byte	0x9f
 2827 0078 00000000 		.4byte	0
 2828 007c 00000000 		.4byte	0
 2829              	.LLST2:
 2830 0080 14000000 		.4byte	.LVL2
 2831 0084 1E000000 		.4byte	.LVL3
 2832 0088 0300     		.2byte	0x3
 2833 008a 70       		.byte	0x70
 2834 008b 2C       		.sleb128 44
 2835 008c 9F       		.byte	0x9f
 2836 008d 1E000000 		.4byte	.LVL3
 2837 0091 2A000000 		.4byte	.LVL5
ARM GAS  /tmp/ccxxnAte.s 			page 78


 2838 0095 0100     		.2byte	0x1
 2839 0097 51       		.byte	0x51
 2840 0098 2A000000 		.4byte	.LVL5
 2841 009c 3A000000 		.4byte	.LVL8
 2842 00a0 0600     		.2byte	0x6
 2843 00a2 F3       		.byte	0xf3
 2844 00a3 01       		.uleb128 0x1
 2845 00a4 50       		.byte	0x50
 2846 00a5 23       		.byte	0x23
 2847 00a6 2C       		.uleb128 0x2c
 2848 00a7 9F       		.byte	0x9f
 2849 00a8 3A000000 		.4byte	.LVL8
 2850 00ac 3D000000 		.4byte	.LVL9-1
 2851 00b0 0100     		.2byte	0x1
 2852 00b2 51       		.byte	0x51
 2853 00b3 3D000000 		.4byte	.LVL9-1
 2854 00b7 40000000 		.4byte	.LFE186
 2855 00bb 0600     		.2byte	0x6
 2856 00bd F3       		.byte	0xf3
 2857 00be 01       		.uleb128 0x1
 2858 00bf 50       		.byte	0x50
 2859 00c0 23       		.byte	0x23
 2860 00c1 2C       		.uleb128 0x2c
 2861 00c2 9F       		.byte	0x9f
 2862 00c3 00000000 		.4byte	0
 2863 00c7 00000000 		.4byte	0
 2864              	.LLST3:
 2865 00cb 32000000 		.4byte	.LVL7
 2866 00cf 3A000000 		.4byte	.LVL8
 2867 00d3 0200     		.2byte	0x2
 2868 00d5 30       		.byte	0x30
 2869 00d6 9F       		.byte	0x9f
 2870 00d7 00000000 		.4byte	0
 2871 00db 00000000 		.4byte	0
 2872              	.LLST4:
 2873 00df 12000000 		.4byte	.LVL11
 2874 00e3 1C000000 		.4byte	.LVL12
 2875 00e7 0100     		.2byte	0x1
 2876 00e9 52       		.byte	0x52
 2877 00ea 30000000 		.4byte	.LVL14
 2878 00ee 35000000 		.4byte	.LVL15-1
 2879 00f2 0100     		.2byte	0x1
 2880 00f4 52       		.byte	0x52
 2881 00f5 00000000 		.4byte	0
 2882 00f9 00000000 		.4byte	0
 2883              	.LLST5:
 2884 00fd 1C000000 		.4byte	.LVL12
 2885 0101 30000000 		.4byte	.LVL14
 2886 0105 0100     		.2byte	0x1
 2887 0107 53       		.byte	0x53
 2888 0108 00000000 		.4byte	0
 2889 010c 00000000 		.4byte	0
 2890              	.LLST6:
 2891 0110 1C000000 		.4byte	.LVL12
 2892 0114 30000000 		.4byte	.LVL14
 2893 0118 0100     		.2byte	0x1
 2894 011a 50       		.byte	0x50
ARM GAS  /tmp/ccxxnAte.s 			page 79


 2895 011b 00000000 		.4byte	0
 2896 011f 00000000 		.4byte	0
 2897              	.LLST7:
 2898 0123 2A000000 		.4byte	.LVL13
 2899 0127 30000000 		.4byte	.LVL14
 2900 012b 0200     		.2byte	0x2
 2901 012d 30       		.byte	0x30
 2902 012e 9F       		.byte	0x9f
 2903 012f 00000000 		.4byte	0
 2904 0133 00000000 		.4byte	0
 2905              	.LLST8:
 2906 0137 00000000 		.4byte	.LVL16
 2907 013b 0B000000 		.4byte	.LVL18-1
 2908 013f 0100     		.2byte	0x1
 2909 0141 50       		.byte	0x50
 2910 0142 0B000000 		.4byte	.LVL18-1
 2911 0146 14000000 		.4byte	.LFE188
 2912 014a 0400     		.2byte	0x4
 2913 014c F3       		.byte	0xf3
 2914 014d 01       		.uleb128 0x1
 2915 014e 50       		.byte	0x50
 2916 014f 9F       		.byte	0x9f
 2917 0150 00000000 		.4byte	0
 2918 0154 00000000 		.4byte	0
 2919              	.LLST9:
 2920 0158 00000000 		.4byte	.LVL16
 2921 015c 0B000000 		.4byte	.LVL18-1
 2922 0160 0100     		.2byte	0x1
 2923 0162 51       		.byte	0x51
 2924 0163 0B000000 		.4byte	.LVL18-1
 2925 0167 14000000 		.4byte	.LFE188
 2926 016b 0400     		.2byte	0x4
 2927 016d F3       		.byte	0xf3
 2928 016e 01       		.uleb128 0x1
 2929 016f 51       		.byte	0x51
 2930 0170 9F       		.byte	0x9f
 2931 0171 00000000 		.4byte	0
 2932 0175 00000000 		.4byte	0
 2933              	.LLST10:
 2934 0179 08000000 		.4byte	.LVL17
 2935 017d 0B000000 		.4byte	.LVL18-1
 2936 0181 0100     		.2byte	0x1
 2937 0183 51       		.byte	0x51
 2938 0184 0B000000 		.4byte	.LVL18-1
 2939 0188 14000000 		.4byte	.LFE188
 2940 018c 0400     		.2byte	0x4
 2941 018e F3       		.byte	0xf3
 2942 018f 01       		.uleb128 0x1
 2943 0190 51       		.byte	0x51
 2944 0191 9F       		.byte	0x9f
 2945 0192 00000000 		.4byte	0
 2946 0196 00000000 		.4byte	0
 2947              	.LLST11:
 2948 019a 08000000 		.4byte	.LVL17
 2949 019e 0B000000 		.4byte	.LVL18-1
 2950 01a2 0100     		.2byte	0x1
 2951 01a4 50       		.byte	0x50
ARM GAS  /tmp/ccxxnAte.s 			page 80


 2952 01a5 0B000000 		.4byte	.LVL18-1
 2953 01a9 14000000 		.4byte	.LFE188
 2954 01ad 0400     		.2byte	0x4
 2955 01af F3       		.byte	0xf3
 2956 01b0 01       		.uleb128 0x1
 2957 01b1 50       		.byte	0x50
 2958 01b2 9F       		.byte	0x9f
 2959 01b3 00000000 		.4byte	0
 2960 01b7 00000000 		.4byte	0
 2961              		.section	.debug_aranges,"",%progbits
 2962 0000 2C000000 		.4byte	0x2c
 2963 0004 0200     		.2byte	0x2
 2964 0006 00000000 		.4byte	.Ldebug_info0
 2965 000a 04       		.byte	0x4
 2966 000b 00       		.byte	0
 2967 000c 0000     		.2byte	0
 2968 000e 0000     		.2byte	0
 2969 0010 00000000 		.4byte	.LFB186
 2970 0014 40000000 		.4byte	.LFE186-.LFB186
 2971 0018 00000000 		.4byte	.LFB187
 2972 001c 40000000 		.4byte	.LFE187-.LFB187
 2973 0020 00000000 		.4byte	.LFB188
 2974 0024 14000000 		.4byte	.LFE188-.LFB188
 2975 0028 00000000 		.4byte	0
 2976 002c 00000000 		.4byte	0
 2977              		.section	.debug_ranges,"",%progbits
 2978              	.Ldebug_ranges0:
 2979 0000 18000000 		.4byte	.LBB56
 2980 0004 1A000000 		.4byte	.LBE56
 2981 0008 20000000 		.4byte	.LBB59
 2982 000c 28000000 		.4byte	.LBE59
 2983 0010 00000000 		.4byte	0
 2984 0014 00000000 		.4byte	0
 2985 0018 1C000000 		.4byte	.LBB71
 2986 001c 1E000000 		.4byte	.LBE71
 2987 0020 20000000 		.4byte	.LBB74
 2988 0024 24000000 		.4byte	.LBE74
 2989 0028 00000000 		.4byte	0
 2990 002c 00000000 		.4byte	0
 2991 0030 24000000 		.4byte	.LBB75
 2992 0034 26000000 		.4byte	.LBE75
 2993 0038 2A000000 		.4byte	.LBB84
 2994 003c 2E000000 		.4byte	.LBE84
 2995 0040 00000000 		.4byte	0
 2996 0044 00000000 		.4byte	0
 2997 0048 00000000 		.4byte	.LFB186
 2998 004c 40000000 		.4byte	.LFE186
 2999 0050 00000000 		.4byte	.LFB187
 3000 0054 40000000 		.4byte	.LFE187
 3001 0058 00000000 		.4byte	.LFB188
 3002 005c 14000000 		.4byte	.LFE188
 3003 0060 00000000 		.4byte	0
 3004 0064 00000000 		.4byte	0
 3005              		.section	.debug_line,"",%progbits
 3006              	.Ldebug_line0:
 3007 0000 7C020000 		.section	.debug_str,"MS",%progbits,1
 3007      0200B401 
ARM GAS  /tmp/ccxxnAte.s 			page 81


 3007      00000201 
 3007      FB0E0D00 
 3007      01010101 
 3008              	.LASF42:
 3009 0000 63685F74 		.ascii	"ch_threads_list\000"
 3009      68726561 
 3009      64735F6C 
 3009      69737400 
 3010              	.LASF79:
 3011 0010 77746D74 		.ascii	"wtmtxp\000"
 3011      787000
 3012              	.LASF72:
 3013 0017 746D5F63 		.ascii	"tm_calibration_t\000"
 3013      616C6962 
 3013      72617469 
 3013      6F6E5F74 
 3013      00
 3014              	.LASF67:
 3015 0028 72656761 		.ascii	"regarm_t\000"
 3015      726D5F74 
 3015      00
 3016              	.LASF104:
 3017 0031 2E2E2F2E 		.ascii	"../../../os/rt/src/chmsg.c\000"
 3017      2E2F2E2E 
 3017      2F6F732F 
 3017      72742F73 
 3017      72632F63 
 3018              	.LASF31:
 3019 004c 666C6167 		.ascii	"flags\000"
 3019      7300
 3020              	.LASF22:
 3021 0052 73797374 		.ascii	"systime_t\000"
 3021      696D655F 
 3021      7400
 3022              	.LASF37:
 3023 005c 7265616C 		.ascii	"realprio\000"
 3023      7072696F 
 3023      00
 3024              	.LASF35:
 3025 0065 6570656E 		.ascii	"epending\000"
 3025      64696E67 
 3025      00
 3026              	.LASF0:
 3027 006e 756E7369 		.ascii	"unsigned int\000"
 3027      676E6564 
 3027      20696E74 
 3027      00
 3028              	.LASF43:
 3029 007b 6E657874 		.ascii	"next\000"
 3029      00
 3030              	.LASF40:
 3031 0080 74687265 		.ascii	"threads_list_t\000"
 3031      6164735F 
 3031      6C697374 
 3031      5F7400
 3032              	.LASF32:
 3033 008f 72656673 		.ascii	"refs\000"
ARM GAS  /tmp/ccxxnAte.s 			page 82


 3033      00
 3034              	.LASF98:
 3035 0094 63684D73 		.ascii	"chMsgSend\000"
 3035      6753656E 
 3035      6400
 3036              	.LASF75:
 3037 009e 77746F62 		.ascii	"wtobjp\000"
 3037      6A7000
 3038              	.LASF87:
 3039 00a5 706F7274 		.ascii	"port_lock\000"
 3039      5F6C6F63 
 3039      6B00
 3040              	.LASF64:
 3041 00af 76746C69 		.ascii	"vtlist\000"
 3041      737400
 3042              	.LASF69:
 3043 00b6 706F7274 		.ascii	"port_context\000"
 3043      5F636F6E 
 3043      74657874 
 3043      00
 3044              	.LASF48:
 3045 00c3 63685F72 		.ascii	"ch_ready_list\000"
 3045      65616479 
 3045      5F6C6973 
 3045      7400
 3046              	.LASF54:
 3047 00d1 66756E63 		.ascii	"func\000"
 3047      00
 3048              	.LASF80:
 3049 00d6 65776D61 		.ascii	"ewmask\000"
 3049      736B00
 3050              	.LASF46:
 3051 00dd 70726576 		.ascii	"prev\000"
 3051      00
 3052              	.LASF45:
 3053 00e2 63685F74 		.ascii	"ch_threads_queue\000"
 3053      68726561 
 3053      64735F71 
 3053      75657565 
 3053      00
 3054              	.LASF50:
 3055 00f3 76746675 		.ascii	"vtfunc_t\000"
 3055      6E635F74 
 3055      00
 3056              	.LASF106:
 3057 00fc 63684D73 		.ascii	"chMsgRelease\000"
 3057      6752656C 
 3057      65617365 
 3057      00
 3058              	.LASF108:
 3059 0109 63685363 		.ascii	"chSchReadyI\000"
 3059      68526561 
 3059      64794900 
 3060              	.LASF59:
 3061 0115 63685F73 		.ascii	"ch_system_debug\000"
 3061      79737465 
 3061      6D5F6465 
ARM GAS  /tmp/ccxxnAte.s 			page 83


 3061      62756700 
 3062              	.LASF9:
 3063 0125 75696E74 		.ascii	"uint32_t\000"
 3063      33325F74 
 3063      00
 3064              	.LASF77:
 3065 012e 73656E74 		.ascii	"sentmsg\000"
 3065      6D736700 
 3066              	.LASF100:
 3067 0136 5F5F6675 		.ascii	"__func__.5910\000"
 3067      6E635F5F 
 3067      2E353931 
 3067      3000
 3068              	.LASF20:
 3069 0144 6576656E 		.ascii	"eventmask_t\000"
 3069      746D6173 
 3069      6B5F7400 
 3070              	.LASF101:
 3071 0150 5F5F6675 		.ascii	"__func__.5919\000"
 3071      6E635F5F 
 3071      2E353931 
 3071      3900
 3072              	.LASF81:
 3073 015e 63685F73 		.ascii	"ch_semaphore\000"
 3073      656D6170 
 3073      686F7265 
 3073      00
 3074              	.LASF18:
 3075 016b 74707269 		.ascii	"tprio_t\000"
 3075      6F5F7400 
 3076              	.LASF52:
 3077 0173 63685F76 		.ascii	"ch_virtual_timer\000"
 3077      69727475 
 3077      616C5F74 
 3077      696D6572 
 3077      00
 3078              	.LASF13:
 3079 0184 6C6F6E67 		.ascii	"long long unsigned int\000"
 3079      206C6F6E 
 3079      6720756E 
 3079      7369676E 
 3079      65642069 
 3080              	.LASF21:
 3081 019b 636E745F 		.ascii	"cnt_t\000"
 3081      7400
 3082              	.LASF93:
 3083 01a1 63685379 		.ascii	"chSysUnlock\000"
 3083      73556E6C 
 3083      6F636B00 
 3084              	.LASF83:
 3085 01ad 6F776E65 		.ascii	"owner\000"
 3085      7200
 3086              	.LASF44:
 3087 01b3 74687265 		.ascii	"threads_queue_t\000"
 3087      6164735F 
 3087      71756575 
 3087      655F7400 
ARM GAS  /tmp/ccxxnAte.s 			page 84


 3088              	.LASF92:
 3089 01c3 76616C75 		.ascii	"value\000"
 3089      6500
 3090              	.LASF36:
 3091 01c9 6D74786C 		.ascii	"mtxlist\000"
 3091      69737400 
 3092              	.LASF56:
 3093 01d1 63685F76 		.ascii	"ch_virtual_timers_list\000"
 3093      69727475 
 3093      616C5F74 
 3093      696D6572 
 3093      735F6C69 
 3094              	.LASF96:
 3095 01e8 5F5F6675 		.ascii	"__func__.5200\000"
 3095      6E635F5F 
 3095      2E353230 
 3095      3000
 3096              	.LASF23:
 3097 01f6 74687265 		.ascii	"thread_t\000"
 3097      61645F74 
 3097      00
 3098              	.LASF73:
 3099 01ff 7264796D 		.ascii	"rdymsg\000"
 3099      736700
 3100              	.LASF71:
 3101 0206 6F666673 		.ascii	"offset\000"
 3101      657400
 3102              	.LASF86:
 3103 020d 5F426F6F 		.ascii	"_Bool\000"
 3103      6C00
 3104              	.LASF82:
 3105 0213 63685F6D 		.ascii	"ch_mutex\000"
 3105      75746578 
 3105      00
 3106              	.LASF103:
 3107 021c 474E5520 		.ascii	"GNU C 4.8.1 -mcpu=cortex-m3 -mno-thumb-interwork -m"
 3107      4320342E 
 3107      382E3120 
 3107      2D6D6370 
 3107      753D636F 
 3108 024f 7468756D 		.ascii	"thumb -ggdb -O2 -fomit-frame-pointer -falign-functi"
 3108      62202D67 
 3108      67646220 
 3108      2D4F3220 
 3108      2D666F6D 
 3109 0282 6F6E733D 		.ascii	"ons=16 -ffunction-sections -fdata-sections -fno-com"
 3109      3136202D 
 3109      6666756E 
 3109      6374696F 
 3109      6E2D7365 
 3110 02b5 6D6F6E20 		.ascii	"mon -flto\000"
 3110      2D666C74 
 3110      6F00
 3111              	.LASF89:
 3112 02bf 63685379 		.ascii	"chSysLock\000"
 3112      734C6F63 
 3112      6B00
ARM GAS  /tmp/ccxxnAte.s 			page 85


 3113              	.LASF94:
 3114 02c9 63684D73 		.ascii	"chMsgIsPendingI\000"
 3114      67497350 
 3114      656E6469 
 3114      6E674900 
 3115              	.LASF25:
 3116 02d9 7072696F 		.ascii	"prio\000"
 3116      00
 3117              	.LASF84:
 3118 02de 63686172 		.ascii	"char\000"
 3118      00
 3119              	.LASF39:
 3120 02e3 74687265 		.ascii	"thread_reference_t\000"
 3120      61645F72 
 3120      65666572 
 3120      656E6365 
 3120      5F7400
 3121              	.LASF29:
 3122 02f6 77616261 		.ascii	"wabase\000"
 3122      736500
 3123              	.LASF16:
 3124 02fd 74737461 		.ascii	"tstate_t\000"
 3124      74655F74 
 3124      00
 3125              	.LASF4:
 3126 0306 75696E74 		.ascii	"uint8_t\000"
 3126      385F7400 
 3127              	.LASF34:
 3128 030e 6D736771 		.ascii	"msgqueue\000"
 3128      75657565 
 3128      00
 3129              	.LASF41:
 3130 0317 63685F74 		.ascii	"ch_thread\000"
 3130      68726561 
 3130      6400
 3131              	.LASF58:
 3132 0321 73797374 		.ascii	"system_debug_t\000"
 3132      656D5F64 
 3132      65627567 
 3132      5F7400
 3133              	.LASF11:
 3134 0330 6C6F6E67 		.ascii	"long long int\000"
 3134      206C6F6E 
 3134      6720696E 
 3134      7400
 3135              	.LASF19:
 3136 033e 6D73675F 		.ascii	"msg_t\000"
 3136      7400
 3137              	.LASF99:
 3138 0344 63684D73 		.ascii	"chMsgWait\000"
 3138      67576169 
 3138      7400
 3139              	.LASF51:
 3140 034e 76697274 		.ascii	"virtual_timer_t\000"
 3140      75616C5F 
 3140      74696D65 
 3140      725F7400 
ARM GAS  /tmp/ccxxnAte.s 			page 86


 3141              	.LASF95:
 3142 035e 71756575 		.ascii	"queue_fifo_remove\000"
 3142      655F6669 
 3142      666F5F72 
 3142      656D6F76 
 3142      6500
 3143              	.LASF60:
 3144 0370 70616E69 		.ascii	"panic_msg\000"
 3144      635F6D73 
 3144      6700
 3145              	.LASF15:
 3146 037a 746D6F64 		.ascii	"tmode_t\000"
 3146      655F7400 
 3147              	.LASF65:
 3148 0382 6D61696E 		.ascii	"mainthread\000"
 3148      74687265 
 3148      616400
 3149              	.LASF5:
 3150 038d 75696E74 		.ascii	"uint16_t\000"
 3150      31365F74 
 3150      00
 3151              	.LASF14:
 3152 0396 7274636E 		.ascii	"rtcnt_t\000"
 3152      745F7400 
 3153              	.LASF3:
 3154 039e 73686F72 		.ascii	"short int\000"
 3154      7420696E 
 3154      7400
 3155              	.LASF8:
 3156 03a8 6C6F6E67 		.ascii	"long int\000"
 3156      20696E74 
 3156      00
 3157              	.LASF70:
 3158 03b1 706F7274 		.ascii	"port_intctx\000"
 3158      5F696E74 
 3158      63747800 
 3159              	.LASF102:
 3160 03bd 49544D5F 		.ascii	"ITM_RxBuffer\000"
 3160      52784275 
 3160      66666572 
 3160      00
 3161              	.LASF62:
 3162 03ca 63685F73 		.ascii	"ch_system\000"
 3162      79737465 
 3162      6D00
 3163              	.LASF90:
 3164 03d4 5F5F7365 		.ascii	"__set_BASEPRI\000"
 3164      745F4241 
 3164      53455052 
 3164      4900
 3165              	.LASF57:
 3166 03e2 6C617374 		.ascii	"lasttime\000"
 3166      74696D65 
 3166      00
 3167              	.LASF12:
 3168 03eb 75696E74 		.ascii	"uint64_t\000"
 3168      36345F74 
ARM GAS  /tmp/ccxxnAte.s 			page 87


 3168      00
 3169              	.LASF63:
 3170 03f4 726C6973 		.ascii	"rlist\000"
 3170      7400
 3171              	.LASF28:
 3172 03fa 6E616D65 		.ascii	"name\000"
 3172      00
 3173              	.LASF107:
 3174 03ff 63685363 		.ascii	"chSchGoSleepS\000"
 3174      68476F53 
 3174      6C656570 
 3174      5300
 3175              	.LASF66:
 3176 040d 73697A65 		.ascii	"sizetype\000"
 3176      74797065 
 3176      00
 3177              	.LASF17:
 3178 0416 74726566 		.ascii	"trefs_t\000"
 3178      735F7400 
 3179              	.LASF10:
 3180 041e 6C6F6E67 		.ascii	"long unsigned int\000"
 3180      20756E73 
 3180      69676E65 
 3180      6420696E 
 3180      7400
 3181              	.LASF47:
 3182 0430 72656164 		.ascii	"ready_list_t\000"
 3182      795F6C69 
 3182      73745F74 
 3182      00
 3183              	.LASF24:
 3184 043d 71756575 		.ascii	"queue\000"
 3184      6500
 3185              	.LASF7:
 3186 0443 696E7433 		.ascii	"int32_t\000"
 3186      325F7400 
 3187              	.LASF78:
 3188 044b 77747365 		.ascii	"wtsemp\000"
 3188      6D7000
 3189              	.LASF85:
 3190 0452 6D757465 		.ascii	"mutex_t\000"
 3190      785F7400 
 3191              	.LASF26:
 3192 045a 6E657765 		.ascii	"newer\000"
 3192      7200
 3193              	.LASF2:
 3194 0460 756E7369 		.ascii	"unsigned char\000"
 3194      676E6564 
 3194      20636861 
 3194      7200
 3195              	.LASF33:
 3196 046e 77616974 		.ascii	"waiting\000"
 3196      696E6700 
 3197              	.LASF55:
 3198 0476 76697274 		.ascii	"virtual_timers_list_t\000"
 3198      75616C5F 
 3198      74696D65 
ARM GAS  /tmp/ccxxnAte.s 			page 88


 3198      72735F6C 
 3198      6973745F 
 3199              	.LASF97:
 3200 048c 63684D73 		.ascii	"chMsgReleaseS\000"
 3200      6752656C 
 3200      65617365 
 3200      5300
 3201              	.LASF27:
 3202 049a 6F6C6465 		.ascii	"older\000"
 3202      7200
 3203              	.LASF109:
 3204 04a0 63685363 		.ascii	"chSchWakeupS\000"
 3204      6857616B 
 3204      65757053 
 3204      00
 3205              	.LASF30:
 3206 04ad 73746174 		.ascii	"state\000"
 3206      6500
 3207              	.LASF61:
 3208 04b3 63685F73 		.ascii	"ch_system_t\000"
 3208      79737465 
 3208      6D5F7400 
 3209              	.LASF76:
 3210 04bf 77747472 		.ascii	"wttrp\000"
 3210      7000
 3211              	.LASF1:
 3212 04c5 7369676E 		.ascii	"signed char\000"
 3212      65642063 
 3212      68617200 
 3213              	.LASF53:
 3214 04d1 64656C74 		.ascii	"delta\000"
 3214      6100
 3215              	.LASF6:
 3216 04d7 73686F72 		.ascii	"short unsigned int\000"
 3216      7420756E 
 3216      7369676E 
 3216      65642069 
 3216      6E7400
 3217              	.LASF91:
 3218 04ea 71756575 		.ascii	"queue_insert\000"
 3218      655F696E 
 3218      73657274 
 3218      00
 3219              	.LASF68:
 3220 04f7 73746B61 		.ascii	"stkalign_t\000"
 3220      6C69676E 
 3220      5F7400
 3221              	.LASF49:
 3222 0502 63757272 		.ascii	"current\000"
 3222      656E7400 
 3223              	.LASF88:
 3224 050a 706F7274 		.ascii	"port_unlock\000"
 3224      5F756E6C 
 3224      6F636B00 
 3225              	.LASF105:
 3226 0516 2F686F6D 		.ascii	"/home/alex/Embebidos Proyecto/ChibiOS_17.6.1/demos/"
 3226      652F616C 
ARM GAS  /tmp/ccxxnAte.s 			page 89


 3226      65782F45 
 3226      6D626562 
 3226      69646F73 
 3227 0549 53544D33 		.ascii	"STM32/RT-STM32F100-DISCOVERY\000"
 3227      322F5254 
 3227      2D53544D 
 3227      33324631 
 3227      30302D44 
 3228              	.LASF74:
 3229 0566 65786974 		.ascii	"exitcode\000"
 3229      636F6465 
 3229      00
 3230              	.LASF38:
 3231 056f 6D706F6F 		.ascii	"mpool\000"
 3231      6C00
 3232              		.comm	__gnu_lto_v1,1,1
 3233              		.ident	"GCC: (Sourcery CodeBench Lite 2013.11-24) 4.8.1"
ARM GAS  /tmp/ccxxnAte.s 			page 90


DEFINED SYMBOLS
                            *ABS*:00000000 chmsg.c
     /tmp/ccxxnAte.s:461    .text.chMsgSend:00000000 $t
     /tmp/ccxxnAte.s:467    .text.chMsgSend:00000000 chMsgSend
     /tmp/ccxxnAte.s:568    .text.chMsgWait:00000000 $t
     /tmp/ccxxnAte.s:574    .text.chMsgWait:00000000 chMsgWait
     /tmp/ccxxnAte.s:679    .text.chMsgRelease:00000000 $t
     /tmp/ccxxnAte.s:685    .text.chMsgRelease:00000000 chMsgRelease
                            *COM*:00000001 __gnu_lto_v1
                     .debug_frame:00000010 $d

UNDEFINED SYMBOLS
ch
chSchGoSleepS
chSchReadyI
chSchWakeupS
