ARM GAS  /tmp/ccxxnAte.s 			page 1


   1              		.syntax unified
   2              		.cpu cortex-m3
   3              		.fpu softvfp
   4              		.eabi_attribute 20, 1
   5              		.eabi_attribute 21, 1
   6              		.eabi_attribute 23, 3
   7              		.eabi_attribute 24, 1
   8              		.eabi_attribute 25, 1
   9              		.eabi_attribute 26, 1
  10              		.eabi_attribute 30, 2
  11              		.eabi_attribute 34, 1
  12              		.eabi_attribute 18, 4
  13              		.thumb
  14              		.file	"chmsg.c"
  15              		.text
  16              	.Ltext0:
  17              		.section	.gnu.lto_.jmpfuncs.61eb1a0820de6ce1,"",%progbits
  18 0000 789C6362 		.ascii	"x\234cb`b\300\0064\24143\0033#S\004c&#\003\017\003\003"
  18      6062C006 
  18      34A13433 
  18      03332353 
  18      04632623 
  19 0018 23035035 		.ascii	"#\003P5\224\313\007\224cf\002)``,\003*\004\0009\234"
  19      94CB0794 
  19      63660229 
  19      60602C03 
  19      2A040039 
  20 002d 025F     		.ascii	"\002_"
  21              		.text
  22              		.section	.gnu.lto_.inline.61eb1a0820de6ce1,"",%progbits
  23 0000 789C6362 		.ascii	"x\234cb`b\300\006\342\24043\003\203\210\014##\003#\220"
  23      6062C006 
  23      E2A03433 
  23      0383880C 
  23      23230323 
  24 0015 CD247E63 		.ascii	"\315$~c3#\003\347\0153\260\026&n\006\240(\230\234\340"
  24      332303E7 
  24      0D33B016 
  24      266E06A0 
  24      28989CE0 
  25 0029 C7C420C8 		.ascii	"\307\304 \310\017\344H\034\330\315\310\300\266@\036"
  25      0FE4481C 
  25      D8CDC8C0 
  25      B6401E
  26 0038 49013303 		.ascii	"I\0013\003\207\000P\206e\201<\\\202\231\007(9\301o\202"
  26      87005086 
  26      65813C5C 
  26      82990728 
  26      39C16F82 
  27 004c 1F0300E2 		.ascii	"\037\003\000\342\275\012T"
  27      BD0A54
  28              		.text
  29              		.section	.gnu.lto_.pureconst.61eb1a0820de6ce1,"",%progbits
  30 0000 789C6362 		.ascii	"x\234cb`b`g\200\000f\006+&+f+\000\002\361\000\302"
  30      60626067 
  30      80006606 
  30      2B262B66 
ARM GAS  /tmp/ccxxnAte.s 			page 2


  30      2B0002F1 
  31              		.text
  32              		.section	.gnu.lto_chMsgSend.61eb1a0820de6ce1,"",%progbits
  33 0000 789C9D54 		.ascii	"x\234\235T_h\024G\030\377\276\235\275\354y\311ec\205"
  33      5F681447 
  33      18FFBE9D 
  33      BDEC79C9 
  33      656385
  34 0013 82AD8D87 		.ascii	"\202\255\215\207 \024\265\331j\037Z_l\213OE\002\305"
  34      2014B5D9 
  34      6A1F5A5F 
  34      6C8B4F45 
  34      02C5
  35 0025 28AD4FB2 		.ascii	"(\255O\262\031\217d\301\365\316\333S\264>8\227\244\320"
  35      198F64C1 
  35      F5CEDB53 
  35      B43E3897 
  35      A4D0
  36 0037 52050915 		.ascii	"R\005\011\025bUZ\021J\254\240P(\255\370\207\223JL\024"
  36      62555A11 
  36      4AACA050 
  36      28ADF887 
  36      934A4C14 
  37 004b CF3F7DB1 		.ascii	"\317?}\261\241\350a\251\265-h\253/\242\201\35373\273"
  37      A1E861A9 
  37      B52D68AB 
  37      2FA281EB 
  37      3733BB
  38 005e 9BCB199B 		.ascii	"\233\313\031\233\320\275\333\235og\347\373\315o~\337"
  38      D0BDDB9D 
  38      6F67E7FB 
  38      CD6F7EDF 
  39 006e CCCF0003 		.ascii	"\314\317\000\003\032\257\025t\337l\002\370\213ZL\000"
  39      1AAF1574 
  39      DF6C02F8 
  39      8B5A4C00 
  40 007e 1AFB2A00 		.ascii	"\032\373*\000\245\244a\260\021\033D\312\274\264\012"
  40      A5A461B0 
  40      111B44CA 
  40      BCB40A
  41 008d 440B4353 		.ascii	"D\013CSw\233\2102\000\204\335\0063q\367\006\224\030"
  41      779B8832 
  41      0084DD06 
  41      3371F706 
  41      9418
  42 009f B8088E08 		.ascii	"\270\010\216\0101X\375\370\376=< \312\003_\211\211Z"
  42      3158FDF8 
  42      FE3D3C20 
  42      CA035F89 
  42      895A
  43 00b1 0DD1439A 		.ascii	"\015\321C\232\257\035\201#|H/\230Q\215aN%p\322(Wk\265"
  43      AF1D8123 
  43      7C482F98 
  43      518D614E 
  43      2570D228 
  44 00c8 89EFEEDD 		.ascii	"\211\357\356\335\271\212s_d\340\342\021\302K\240\217"
  44      B98A735F 
ARM GAS  /tmp/ccxxnAte.s 			page 3


  44      64E0E211 
  44      C24BA08F 
  45 00d8 60D10393 		.ascii	"`\321\003\223\340!K\321\303L\003\365\331\024\311\264"
  45      E0214BD1 
  45      C34C03F5 
  45      D914C9B4 
  46 00e8 040C08B1 		.ascii	"\004\014\010\261/\243G\373H\013\343\252\177\035=%\305"
  46      2FA347FB 
  46      480BE3AA 
  46      7F1D3D25 
  46      C5
  47 00f9 F5D4452D 		.ascii	"\365\324E-\273\002}\343C\304\313\305\243\264\274\036"
  47      BB027DE3 
  47      43C4CBC5 
  47      A3B4BC1E 
  48 0109 644BE11B 		.ascii	"dK\341\033A\327\007\004\263\024\226x\2308\010_\224\204"
  48      41D70704 
  48      B3149678 
  48      9838085F 
  48      9484
  49 011b 68F3B069 		.ascii	"h\363\260i\027<\021\237\310\310\362\221\021\226\244"
  49      173C119F 
  49      C8C8F291 
  49      1196A4
  50 012a 6B2992DD 		.ascii	"k)\222\335\010a\033\0060\006}\345W4\250\346\320#S\250"
  50      08611B06 
  50      30067DE5 
  50      5734A8E6 
  50      D02353A8 
  51 013e 370910CA 		.ascii	"7\011\020\312\261\377\330\225\3638\330/F\305@\231\364"
  51      B1FFD895 
  51      F338D82F 
  51      46C54099 
  51      F4
  52 014f 58E861D2 		.ascii	"X\350a\322\200\367g\322C\366%3\024T\240\357\237\023"
  52      80F767D2 
  52      43F62533 
  52      1454A0EF 
  52      9F13
  53 0161 FD5FBF14 		.ascii	"\375_\277\024\2564Zr\371\370\215\203\354U\027\207i\316"
  53      AE345A72 
  53      F9F88D83 
  53      EC551787 
  53      69CE
  54 0173 B8EFD7CF 		.ascii	"\270\357\327\317\0377/\210\337>\275E,57\216r>\203n\246"
  54      1F372F88 
  54      DF3EBD45 
  54      2C35378E 
  54      723E836E 
  55 0188 2A45BF61 		.ascii	"*E\277a\012I.\2467C;\234\302\303b\350\035\017\347L\231"
  55      0A492EA6 
  55      37433B9C 
  55      C2C362E8 
  55      1D0FE74C 
  56 019d 7DF2FB99 		.ascii	"}\362\373\231\360{J\363#A/\377\360\340\232\241\361C"
  56      F07B4AF3 
  56      23412FFF 
ARM GAS  /tmp/ccxxnAte.s 			page 4


  56      F0E09AA1 
  56      F143
  57 01af 35DFF0B0 		.ascii	"5\337\360\2609\014\323\036\266\220\244\204\223&I$^$"
  57      390CD31E 
  57      B690A484 
  57      93264924 
  57      5E24
  58 01c1 9D11B68A 		.ascii	"\235\021\266\212\011\351\225P`O\372\237\356eQu\222\273"
  58      09E99550 
  58      604FFA9F 
  58      EE655175 
  58      92BB
  59 01d3 E0234FD6 		.ascii	"\340#O\326\210\012\323\032\243X\365(ur\215A\310B\013"
  59      880AD31A 
  59      A358F528 
  59      75728D41 
  59      C8420B
  60 01e6 5EBE3D72 		.ascii	"^\276=r\031\305\240(\375]\253\331j\363]\300\231\324"
  60      19C5A028 
  60      FD5DABD9 
  60      6AF35DC0 
  60      99D4
  61 01f8 8EAA563D 		.ascii	"\216\252V=\307\377\003\212\031pq\026PI\255\316\304\335"
  61      C7FF038A 
  61      19707116 
  61      5049ADCE 
  61      C4DD
  62 020a 9F0FFD68 		.ascii	"\237\017\375h7\226\355\263\333\313]<MEs\361\224*]T "
  62      3796EDB3 
  62      DBCB5D3C 
  62      4D4573F1 
  62      942A5D54 
  63 021f 05A3C5AB 		.ascii	"\005\243\305\253~_\371m\376\002\2653\225\226\315Z\005"
  63      7E5FF96D 
  63      FE02B533 
  63      9596CD5A 
  63      05
  64 0230 BD3D1BE5 		.ascii	"\275=\033\345LH\210s\262\351\306\2468\216X\214\017="
  64      4C488873 
  64      B2E9C6A6 
  64      388E588C 
  64      0F3D
  65 0242 DAB3C6C5 		.ascii	"\332\263\306\305\263JV[\011\0121Tk\250)[\246\241\254"
  65      B34A565B 
  65      090A3154 
  65      6BA8295B 
  65      A6A1AC
  66 0255 385DE58E 		.ascii	"8]\345\216]\263ufHc\345\377`d\3251\262\303]\363h\317"
  66      5DB37566 
  66      4863E5FF 
  66      6064D531 
  66      B2C35DF3 
  67 026b AA29B85B 		.ascii	"\252)\270['q\273\032p\355\331\254\224i\334\233\215\270"
  67      2771BB1A 
  67      70EDD9AC 
  67      9469DC9B 
  67      8DB8
ARM GAS  /tmp/ccxxnAte.s 			page 5


  68 027d E9D9AD35 		.ascii	"\351\331\2555\002\030\377eb\357\374h\007\246\224T\366"
  68      0218FF65 
  68      62EFFC68 
  68      07A69454 
  68      F6
  69 028e F47B2F19 		.ascii	"\364{/\031\226z\024.\374^J\307)r\210\331Z\267\025\326"
  69      967A142E 
  69      FC5E4AC7 
  69      297288D9 
  69      5AB715D6 
  70 02a2 13F288CD 		.ascii	"\023\362\210\315\256\302@u\364hh=\000\261\275\264q-"
  70      AEC24075 
  70      F468683D 
  70      00B1BDB4 
  70      712D
  71 02b4 35E55A1E 		.ascii	"5\345Z\036\316\215rLeX2\351R\177\352\231\244\027\270"
  71      CE8D724C 
  71      655832E9 
  71      527FEA99 
  71      A417B8
  72 02c7 5C7B7844 		.ascii	"\\{xD\315\026\262\301y\232\375\343\207oEL\322\241\000"
  72      CD16B2C1 
  72      799AFDE3 
  72      876F454C 
  72      D2A100
  73 02da 6F4F1EC7 		.ascii	"oO\036\307\2253\036\3079\361i\352+[\032\211|\226\300"
  73      95331EC7 
  73      39F169EA 
  73      2B5B1A89 
  73      7C96C0
  74 02ed 1AEDEC8F 		.ascii	"\032\355\354\217J\243\235\271xLy\313\214~&\203\347\372"
  74      4AA39DB9 
  74      784C79CB 
  74      8C7E2683 
  74      E7FA
  75 02ff D99F87A5 		.ascii	"\331\237\207\245\237\3754\325\317\276L\267\307&?ilw"
  75      9FFD34D5 
  75      CFBE4CB7 
  75      C7263F69 
  75      6C77
  76 0311 EB8C4D39 		.ascii	"\353\214M93'\354g\275\315\305\223\024\3043G^\346\342"
  76      3327EC67 
  76      BDCDC593 
  76      14C43347 
  76      5EE6E2
  77 0324 B7D8AE59 		.ascii	"\267\330\256Y]\207R\265\302c\335t\347::\343T\0029\366"
  77      5D8752B5 
  77      C263DD74 
  77      E73A3AE3 
  77      540239F6 
  78 0338 E58E0E47 		.ascii	"\345\216\016G\377s\201S(:A\201;\274\327\017z:80^\314"
  78      FF738153 
  78      283A4181 
  78      3BBCD70F 
  78      7A3A3830 
  79 034e BF56FF9D 		.ascii	"\277V\377\235\347|?\267\305\311\347\012\305\300ywm\347"
  79      E77C3FB7 
ARM GAS  /tmp/ccxxnAte.s 			page 6


  79      C5C9E70A 
  79      C5C07977 
  79      6DE7
  80 0360 EACE1D34 		.ascii	"\352\316\0354\230\347\012\331\215\333\337\364;z!\261"
  80      98E70AD9 
  80      8DDBDFF4 
  80      3B7A21B1 
  81 0370 DDDDBC2D 		.ascii	"\335\335\274-\273|\232\234\354\216\242\263\272\263\353"
  81      BB7C9A9C 
  81      EC8EA2B3 
  81      BAB3EB
  82 037f BD2EC7DB 		.ascii	"\275.\307\333\3027o\333\224u\270\037x\301\306\036\316"
  82      C2376FDB 
  82      9475B81F 
  82      78C1C61E 
  82      CE
  83 0390 296F6103 		.ascii	")oa\003\213xLo\2603\240\357m\235]k3\335n\220\315\027"
  83      8B784C6F 
  83      B033A0EF 
  83      6D9D5D6B 
  83      33DD6E90 
  84 03a6 BC6599C5 		.ascii	"\274e\231\305\257\203Q\000\313\317\372\271\302N0\212"
  84      AF835100 
  84      CBCFFAB9 
  84      C24E308A 
  85 03b6 7956DC9A 		.ascii	"yV\334\232\317<\037\202\367n\"\214\177\001\341\232\330"
  85      CF3C1F82 
  85      F76E228C 
  85      7F01E19A 
  85      D8
  86 03c7 03       		.ascii	"\003"
  87              		.text
  88              		.section	.gnu.lto_chMsgWait.61eb1a0820de6ce1,"",%progbits
  89 0000 789C9D55 		.ascii	"x\234\235Ukh\024W\024>\347\316\354N\222}T\354\237j5"
  89      6B681457 
  89      143EE7CE 
  89      EC4E927D 
  89      54EC9F6A 
  90 0015 2E82507C 		.ascii	".\202P|d,\376(\371\327\342/\301 \030E\375%\223q\331"
  90      642CFE28 
  90      F9D7E22F 
  90      C1201845 
  90      FD259371 
  91 002a 1D70DDB8 		.ascii	"\035p\335\270\263\212\232\037\336<\012Z\025S[\360\021"
  91      B38A9A1F 
  91      DE3C0A5A 
  91      15535BF0 
  91      11
  92 003b 82CF5654 		.ascii	"\202\317VT\324R[\010\024qK\203F\304\224\010\202\266"
  92      D4525B08 
  92      14714B83 
  92      46C49408 
  92      82B6
  93 004d 3F5C2D6D 		.ascii	"?\\-mU\024\224\"\006\211\331\236{\357\314\354\003\363"
  93      55149422 
  93      0689D99E 
  93      7BEFCCEC 
ARM GAS  /tmp/ccxxnAte.s 			page 7


  93      03F3
  94 005f C0BB3B33 		.ascii	"\300\273;3g\356\343;\337\371\356\271g\0300\250m\313"
  94      67EEE33B 
  94      DFF9EEB9 
  94      671830A8 
  94      6DCB
  95 0071 E89A6F00 		.ascii	"\350\232o\000\030\010\200!@\326;\014\320Y\307\230\366"
  95      18088021 
  95      40D63B0C 
  95      D059C798 
  95      F6
  96 0082 CA00DEA0 		.ascii	"\312\000\336\240\367]\007\340Q\015u\325\257#\012\003"
  96      F75D07E0 
  96      510D75D5 
  96      AF230A03 
  97 0092 1076334D 		.ascii	"\020v3M\307\335\033P\200\340|8\311\371\241\342\227\343"
  97      C7DD1B50 
  97      80E07C38 
  97      C9F9A1E2 
  97      97E3
  98 00a4 8FF1282F 		.ascii	"\217\361(/\364\234\340c\245\022\242\203\344\260\021"
  98      F49CE063 
  98      A512A283 
  98      E4B011
  99 00b3 C146584F 		.ascii	"\301FXO/\230\220\017\246W3\270\314\012\305Ri\354\352"
  99      2F98900F 
  99      A65733B8 
  99      CC0AC552 
  99      69ECEA
 100 00c6 B387FB70 		.ascii	"\263\207\373p\346\207:\320\252\260\270\031t\323\"\302"
 100      E6873AD0 
 100      AAB0B819 
 100      74D322C2 
 101 00d6 8A0A2B06 		.ascii	"\212\012+\006\026\236$Gq\321C-\004=\234\367&T'\010\037"
 101      169E2447 
 101      71D1432D 
 101      043D9CF7 
 101      26542708 
 102 00eb D4D6D05D 		.ascii	"\324\326\320]\360[\213L<\265\233\320UG\361)v\337\234"
 102      F05B8B4C 
 102      3CB59BD0 
 102      5547F129 
 102      76DF9C
 103 00fe BBFD2B1E 		.ascii	"\273\375+\036\352\346C\274\247@\364\3469\2503X5\025"
 103      EAE643BC 
 103      A740F4E6 
 103      39A83358 
 103      3515
 104 0110 3DD1A727 		.ascii	"=\321\247'\310\030\206\256\227\027\273\277\237\3559"
 104      C81886AE 
 104      9717BBBF 
 104      9FED39
 105 011f F61914CE 		.ascii	"\366\031\024\316\336\351\323>\261\360\214\244\341\365"
 105      DEE9D33E 
 105      B1F08CA4 
 105      E1F5
 106 012d 5DFB7634 		.ascii	"]\373v42'x\333\373\226hYx\232\364\265Q\370ctiR8\372"
ARM GAS  /tmp/ccxxnAte.s 			page 8


 106      322778DB 
 106      FB966859 
 106      789AF4B5 
 106      51F86374 
 107 0145 9D2593F6 		.ascii	"\235%\223\366ES\233\323\010\003\330\317\217|\356\320"
 107      45539BD3 
 107      0803D8CF 
 107      8F7CEED0 
 108 0155 E44AEFE5 		.ascii	"\344J\357\345\361_\274\361\260\342w\033\272\376\030"
 108      F15FBCF1 
 108      B0E2771B 
 108      BAFE18
 109 0164 1D1F650A 		.ascii	"\035\037e\012?\205\372\"XH\012-\202\363\234\332V\007"
 109      3F85FA22 
 109      58480A2D 
 109      82F39CDA 
 109      5607
 110 0176 8D3E38D6 		.ascii	"\215>8\326\311\371\014\007\353:\340\015\337#\254\372"
 110      C9F90C07 
 110      EB3AE00D 
 110      DF23ACFA 
 111 0186 0CFAE8F5 		.ascii	"\014\372\350\365\022\245\015\301{z\006\220t\005S\201"
 111      12A50DC1 
 111      7B7A0690 
 111      74055381 
 112 0196 2AFD0A0F 		.ascii	"*\375\012\017n\034\230\305Ot\365\362qR\217\\XxJF2\231"
 112      6E1C98C5 
 112      4F74F5F2 
 112      71528F5C 
 112      58784A46 
 113 01ac 7AC44751 		.ascii	"z\304GQ\034{t\377\330\256Z\351n\275}\031\262\360\212"
 113      1C7B74FF 
 113      D8AE5AE9 
 113      6EBD7D19 
 113      B2F08A
 114 01bf 54CED747 		.ascii	"T\316\327GW\313\"*\200\342\341\341\273#\250\225\003"
 114      57CB222A 
 114      80E2E1E1 
 114      BB23A895 
 114      03
 115 01d0 5AE76043 		.ascii	"Z\347`C\020P\204\340\205W\237;\0230?\013\345\332\204"
 115      105084E0 
 115      85579F3B 
 115      13303F0B 
 115      E5DA84
 116 01e3 BE9E2D09 		.ascii	"\276\236-\011\274\351>\257Y\370\223\224(\332\001\273"
 116      BCE93EAF 
 116      59F89394 
 116      28DA01BB 
 117 01f3 28A33CC4 		.ascii	"(\243<\304?qz\220\001\332\020\014\376\373\360\357\361"
 117      3F717A90 
 117      01DA100C 
 117      FEFBF0EF 
 117      F1
 118 0204 A5BEE2B4 		.ascii	"\245\276\342\264$Z\216x-y~eh\277COq\354\267\0065\007"
 118      245A8E78 
 118      2D797E65 
ARM GAS  /tmp/ccxxnAte.s 			page 9


 118      68BF434F 
 118      71ECB706 
 119 021a 20503E6A 		.ascii	" P>j+\020\251VL$s\334_\247\313\224\025b\335+\335\323"
 119      2B10A956 
 119      4C2473DC 
 119      5FA7CB94 
 119      1562DD2B 
 120 0230 7CF4B0BF 		.ascii	"|\364\260\277\237\013\337{+e\370\377\240\217hT\205\377"
 120      9F0BDF7B 
 120      2B65F8FF 
 120      A08F6854 
 120      85FF
 121 0242 B5173ECA 		.ascii	"\265\027>\312\330\3035\261\373MdC\363d\331\2401\370"
 121      D8C335B1 
 121      FB4D6443 
 121      F364D9A0 
 121      31F8
 122 0254 0BA73A4B 		.ascii	"\013\247:K\344\333\313\206\377F\372O\033^:(@\376#\347"
 122      E4DBCB86 
 122      FF46FA4F 
 122      1B5E3A28 
 122      40FE23E7 
 123 0268 F5B27068 		.ascii	"\365\262ph\323\314\255 \215\366\225,\013\007\253\262"
 123      D3CCAD20 
 123      8DF6952C 
 123      0B07ABB2 
 124 0278 28ACDCC5 		.ascii	"(\254\334\305\274,:~\360\371\254%\004\033\350\327\340"
 124      BC2C3A7E 
 124      F0F9AC25 
 124      041BE8D7 
 124      E0
 125 0289 85AA2D56 		.ascii	"\205\252-V\241\312l\031R[#b\235k\341uz\263\360\006\301"
 125      A1CA6C19 
 125      525B2362 
 125      9D6BE175 
 125      7AB3F006 
 126 029e 128EA27D 		.ascii	"\022\216\242}\344\365\376\225j \205\361\252s\326Q\223"
 126      E4F5FE95 
 126      6A2085F1 
 126      AA73D651 
 126      93
 127 02af 43B14A1D 		.ascii	"C\261J\035\365\000\274\332\021A\336\374!\256\000=\234"
 127      F500BCDA 
 127      1141DEFC 
 127      21AE003D 
 127      9C
 128 02c0 D8F448A6 		.ascii	"\330\364H\246D\326\320\362[\003\257\3677W\001\254+s"
 128      44D6D0F2 
 128      5B03AFF7 
 128      375701AC 
 128      2B73
 129 02d2 6AAEE114 		.ascii	"j\256\341\024\237\210S\250\002\327\220\361\277xt\355"
 129      9F8853A8 
 129      02D790F1 
 129      BF7874ED 
 130 02e2 2325A55F 		.ascii	"#%\245__\245\273\201\321\322c/\215<\037\021\007?\010"
 130      5FA5BB81 
ARM GAS  /tmp/ccxxnAte.s 			page 10


 130      D1D2632F 
 130      8D3C1F11 
 130      073F08
 131 02f5 92A72AE8 		.ascii	"\222\247*\350p9\313cJ\324\212J\374d\270\266\022[\370"
 131      7039CB63 
 131      4AD48A4A 
 131      FC64B8B6 
 131      125BF8
 132 0308 DD941B2E 		.ascii	"\335\224\033.\213\2410&,\305O\373E)\276[]\212\217\307"
 132      8BA13026 
 132      2CC54FFB 
 132      4529BE5B 
 132      5D8A8FC7 
 133 031c 1A83CF45 		.ascii	"\032\203\317E\271&\017\262r\266\030\002\324\306\272"
 133      B9260FB2 
 133      72B61802 
 133      D4C6BA
 134 032b 7794650B 		.ascii	"w\224e\013/\220\021x\366\313\260\205\227\260Q\261\032"
 134      2F901178 
 134      F6CBB085 
 134      97B051B1 
 134      1A
 135 033c 81CEE257 		.ascii	"\201\316\342WI\377p\305T\347\032:\013t\232\305\334\217"
 135      49FF70C5 
 135      54E71A3A 
 135      0B749AC5 
 135      DC8F
 136 034e 9B9A4CF5 		.ascii	"\233\232L\365\317\272f.o\2729\333\264\323\0317\325d"
 136      CFBA662E 
 136      6FBA39DB 
 136      B4D31937 
 136      D564
 137 0360 03CBB72F 		.ascii	"\003\313\267/\251\034\266\263\231Lv\213\331\236\315"
 137      A91CB6B3 
 137      994C768B 
 137      D99ECD
 138 036f E55DF38B 		.ascii	"\345]\363\213\325-\313[v\320\\;\233Kn\334\376Y\246)"
 138      D52DCB5B 
 138      76D05C3B 
 138      9B4B6EDC 
 138      FE59A629 
 139 0383 0DA1EDD6 		.ascii	"\015\241\355\326\346m\311O\337\261&\271#o.oi]\321j:"
 139      E66DC94F 
 139      DFB126B9 
 139      236F2E6F 
 139      695DD16A 
 140 0398 5BECCDDB 		.ascii	"[\354\315\3336%M;\343:\356\306\224m\323\272y5$\2029"
 140      36254D3B 
 140      E33AEEC6 
 140      946DD3BA 
 140      79352482 
 141 03ad 6977A74B 		.ascii	"iw\247K\3433ZZW'\332,7\331\236s\026'\026,\005\226\003"
 141      E3335A5A 
 141      5727DA2C 
 141      37D99E73 
 141      1627162C 
 142 03c4 2393CC64 		.ascii	"#\223\314ds;'Y+\202H\203\226\337\332\236\230\030\337"
ARM GAS  /tmp/ccxxnAte.s 			page 11


 142      733B2759 
 142      2B824883 
 142      96DFDA9E 
 142      9818DF
 143 03d7 4E6FA249 		.ascii	"No\242I\377\003\231\311\373\333"
 143      FF0399C9 
 143      FBDB
 144              		.text
 145              		.section	.gnu.lto_chMsgRelease.61eb1a0820de6ce1,"",%progbits
 146 0000 789C8D52 		.ascii	"x\234\215RMh\023Q\020\236y\333m\242\"\366\352\017\351"
 146      4D681351 
 146      109E79DB 
 146      6DA222F6 
 146      EA0FE9
 147 0013 522878D0 		.ascii	"R(x\320\254\236\274*=\011\346\322T\320SY\237K\262\320"
 147      AC9EBC2A 
 147      3D09E6D2 
 147      54D05359 
 147      9F4BB2D0 
 148 0027 ED86DDB4 		.ascii	"\355\206\335\264\264x\350KZA{1\004\017\202\024\255\212"
 148      B478E84B 
 148      5A417B31 
 148      040F8214 
 148      AD8A
 149 0039 3FC5B650 		.ascii	"?\305\266P\025<\351\212\027K1RPO\036r\022\275\325[\261"
 149      153CE98A 
 149      174B3152 
 149      504F1E72 
 149      12BDD55B 
 150 004e 9675DE6E 		.ascii	"\226u\336n\262&\241Z\037\373~vf\336\367\315\314\367"
 150      B226A15A 
 150      1FFB7E76 
 150      66DEF7CD 
 150      CCF7
 151 0060 1830E81C 		.ascii	"\0300\350\034\007i*\012\300W\332Q\001d\225\032@)\311"
 151      07692A0A 
 151      C057DA51 
 151      0164951A 
 151      4029C9
 152 0073 10E50110 		.ascii	"\020\345\001\020\246\030N]\3040v\231\371\365 Xz5\273"
 152      A6184E5D 
 152      C4307699 
 152      F9F52058 
 152      7A35BB
 153 0086 F40517D8 		.ascii	"\364\005\027\330^\005m\204.Z\244W\205\031!*\232\215"
 153      5E056D84 
 153      2E5AA457 
 153      8519212A 
 153      9A8D
 154 0098 44C1C3F0 		.ascii	"D\301\303\360!Z%\306y2\321\256\254B9\011\320\007\363"
 154      215A25C6 
 154      7932D1AE 
 154      AC423909 
 154      D007F3
 155 00ab 4254EBDB 		.ascii	"BT\353\333\217\337\277\301\352\264x'f\374 \300^\013"
 155      8FDFBFC1 
 155      EAB47827 
ARM GAS  /tmp/ccxxnAte.s 			page 12


 155      66FC20C0 
 155      5E0B
 156 00bd 29B77328 		.ascii	")\267s(\257^@\013Q\0137\326\325\236\254\264\201F\207"
 156      AF5E400B 
 156      510B37D6 
 156      D59EACB4 
 156      814687
 157 00d0 1A947F2C 		.ascii	"\032\224\177,L?<\324`m\322\373[\353\267\225\243\006"
 157      4C3F3CD4 
 157      606DD2FB 
 157      5BEBB795 
 157      A306
 158 00e2 DEC3BE38 		.ascii	"\336\303\2768%\377\331\315\315}G\342\277\325\217\224"
 158      25FFD9CD 
 158      CD7D47E2 
 158      BFD58F94 
 159 00f2 A081F3A8 		.ascii	"\240\201\363\250\022\227\344c4\025\010KEx@G\362+Q\243"
 159      1297E463 
 159      3415084B 
 159      45784047 
 159      F22B51A3 
 160 0106 52F002E7 		.ascii	"R\360\002\347\304\255\323V\024\020\263\377\361\277l"
 160      C4ADD356 
 160      1410B3FF 
 160      F1BF6C
 161 0115 F81B79B6 		.ascii	"\370\033y\266\226\350\277\236]CQ\025\245\215 8`\241"
 161      96E8BF9E 
 161      5D435115 
 161      A58D2038 
 161      60A1
 162 0127 CAC0C7DD 		.ascii	"\312\300\307\335\352\313I\242\026\220\212X\021b\317"
 162      EACB49A2 
 162      16908A58 
 162      1162CF
 163 0136 5DF12B08 		.ascii	"]\361+\010\024\013\273\031\274\375\017\0102|\200\253"
 163      140BBB19 
 163      BCFD0F08 
 163      327C80AB 
 164 0146 1B371E6D 		.ascii	"\0337\036mmbg\177\326>\225U\003\227\251=\006.\206Mj"
 164      6D62677F 
 164      D63E9555 
 164      0397A93D 
 164      062E864D 
 165 015b B6A20173 		.ascii	"\266\242\001s\005~\212k\242\307\302\004G\212\\!_\224"
 165      057E8A6B 
 165      A2C7C204 
 165      478A5C21 
 165      5F94
 166 016d 17E15A98 		.ascii	"\027\341Z\230l/\261\276\375\255\326\251\242\201\367"
 166      6C2FB1BE 
 166      FDADD6A9 
 166      A281F7
 167 017c C396EE2A 		.ascii	"\303\226\356*#\374K\306\357sR\306\347\3552\336\331\237"
 167      23FC4BC6 
 167      EF7352C6 
 167      E7ED32DE 
 167      D99F
ARM GAS  /tmp/ccxxnAte.s 			page 13


 168 018e 8ADF596C 		.ascii	"\212\337Yl\276\376\271E\317n\011\3121\261\203\244\006"
 168      BEFEB945 
 168      CF6E09CA 
 168      31B183A4 
 168      06
 169 019f 3EA143CC 		.ascii	">\241C\314\334\224\320\300\247\230\212,\353P\252/\366"
 169      DC94D0C0 
 169      A7988A2C 
 169      EB50AA2F 
 169      F6
 170 01b0 4750CD31 		.ascii	"GP\3151D\375\246\267+C\017\247\323z\3649\236\356\026"
 170      44FDA6B7 
 170      2B430FA7 
 170      D37AF439 
 170      9EEE16
 171 01c3 75CFE53A 		.ascii	"u\317\345:\317\333^.\315\341x\253\217;\266\355\214\352"
 171      CFDB5E2E 
 171      CDE178AB 
 171      8F3BB6ED 
 171      8CEA
 172 01d5 05C72D7A 		.ascii	"\005\307-z\372\231\301\314@f\202\002\271\343\232\303"
 172      FA99C1CC 
 172      40668202 
 172      B9E39AC3 
 173 01e5 E3A7EC74 		.ascii	"\343\247\354t\036\324qcd\314<\271\303\035s\242\250\017"
 173      1ED47163 
 173      64CC3CB9 
 173      C31D73A2 
 173      A80F
 174 01f7 64B267B3 		.ascii	"d\262g\263\2725\312G\306.\233:\267=\313\033\316qN\367"
 174      BA35CA47 
 174      C62E9B3A 
 174      B73DCB1B 
 174      CE714EF7 
 175 020b 7A3B3288 		.ascii	"z;2\210c\362\336\244G\376\236LvP\273dxf\301\265\216"
 175      63F2DEA4 
 175      47FE9E4C 
 175      7650BB64 
 175      7866C1B5 
 176 0220 69FD2780 		.ascii	"i\375'\200\271\220\260M\333q'\201\025\013\012\345\372"
 176      B990B04D 
 176      DB712781 
 176      150B0AE5 
 176      FA
 177 0231 77085948 		.ascii	"w\010YH\036~\003\230\370\370\303"
 177      1E7E0398 
 177      F8F8C3
 178              		.text
 179              		.section	.gnu.lto_.symbol_nodes.61eb1a0820de6ce1,"",%progbits
 180 0000 789C45C8 		.ascii	"x\234E\310\273\015\2000\020\203a\373.\241d\005F=$\032"
 180      BB0D8030 
 180      108361FB 
 180      2EA16405 
 180      463D241A 
 181 0014 44C5046C 		.ascii	"D\305\004lA\303\263\240H\307\016\210\226\031\020\221"
 181      41C3B3A0 
 181      48C70E88 
ARM GAS  /tmp/ccxxnAte.s 			page 14


 181      96191091 
 182 0024 40C4D5FF 		.ascii	"@\304\325\377Y 0|\223\201\261\333\0350\353j\372\231"
 182      5920307C 
 182      9381B1DB 
 182      1D30EB6A 
 182      FA99
 183 0036 B120238D 		.ascii	"\261 #\215\351\225\211&\211\\i\372\262,\311\205\346"
 183      E9958926 
 183      895C69FA 
 183      B22CC985 
 183      E6
 184 0047 92369AFF 		.ascii	"\2226\232\377\245\3608CP\205C\325\\\205\212\303\331"
 184      A5F03843 
 184      508543D5 
 184      5C858AC3 
 184      D9
 185 0058 E7AA19AA 		.ascii	"\347\252\031\252\343&\036ko%+"
 185      E3261E6B 
 185      6F252B
 186              		.text
 187              		.section	.gnu.lto_.refs.61eb1a0820de6ce1,"",%progbits
 188 0000 789C6362 		.ascii	"x\234cb`b\340f\200\000F bb\002R\214\014\000\001s\000"
 188      6062E066 
 188      80004620 
 188      62620252 
 188      8C0C0001 
 189 0016 18       		.ascii	"\030"
 190              		.text
 191              		.section	.gnu.lto_.decls.61eb1a0820de6ce1,"",%progbits
 192 0000 789CAD3B 		.ascii	"x\234\255;ip\024\327\231}\21443h\000\331I\\PI\305\362"
 192      697014D7 
 192      997D8C34 
 192      336800D9 
 192      495C5049 
 193 0016 96B39575 		.ascii	"\226\263\225u\225\021\354&6N\325\306\007\311\032\252"
 193      9511EC26 
 193      364ED5C6 
 193      07C91AAA 
 194 0026 C21685D6 		.ascii	"\302\026\205\326\345\255\312V\306\315\250\221f\231\313"
 194      E5ADCA56 
 194      C6CDA891 
 194      6699CB
 195 0035 3D2D40BF 		.ascii	"=-@\277\334\222\000a\202m!q)\306 0>\301f-\022\216p\015"
 195      DC920061 
 195      826D2171 
 195      29C62030 
 195      3EC1662D 
 196 004d D8DC3237 		.ascii	"\330\33427\310,\227\274\005\330\030L\220\205m0\004\355"
 196      C82C97BC 
 196      05D8184C 
 196      90856D30 
 196      04ED
 197 005f F7BEEE9E 		.ascii	"\367\276\356\236\351\367\246{\246[\270\213\367\324\335"
 197      E9F7A67B 
 197      A65BB88B 
 197      F7D4DD
 198 006e F3BEEF7D 		.ascii	"\363\276\357}\367\373\336\367\032\201\023\270\007\005"
ARM GAS  /tmp/ccxxnAte.s 			page 15


 198      F7FBDEF7 
 198      1A8113B8 
 198      0705
 199 007c 8EEB87CB 		.ascii	"\216\353\207\313\377+\216\373M)\307\3718\216\37354\336"
 199      FF2B8EFB 
 199      4D29C7F9 
 199      388EFB35 
 199      34DE
 200 008e 68E482D7 		.ascii	"h\344\202\327\334rh\317\302\213\337C\213@\253\2016\205"
 200      DC7268CF 
 200      C28BDF43 
 200      8B40AB81 
 200      3685
 201 00a0 D7C7C4CD 		.ascii	"\327\307\304\315\201\306E\306\376\020\332*hC\240\205"
 201      81C645C6 
 201      FE10DA2A 
 201      6843A085 
 202 00b0 A0ED34C6 		.ascii	"\240\3554\306\326A\227\200\266\013\332\016x\336\015"
 202      D6419780 
 202      B60BDA0E 
 202      78DE0D
 203 00bf 7FF7427B 		.ascii	"\177\367B{\035\356\007\303\337\325\360w-\264[\320\366"
 203      1DEE07C3 
 203      DFD5F077 
 203      2DB45BD0 
 203      F6
 204 00d0 C3732DB4 		.ascii	"\303s-\264.h\325\320\006\301;\025\376j\320B\320~\014"
 204      2E68D5D0 
 204      06C13B15 
 204      FE6AD042 
 204      D07E0C
 205 00e3 EDDFA075 		.ascii	"\355\337\240u\302\373\215\3206A\373\016\332Px\0274\350"
 205      C2FB8DD0 
 205      3641FB0E 
 205      DA507817 
 205      34E8
 206 00f5 F818EE0F 		.ascii	"\370\030\356\017C;\006\355\214A7\241\377\"\264K\274"
 206      433B06ED 
 206      8C4137A1 
 206      FF22B44B 
 206      BC
 207 0106 CEEF7FC0 		.ascii	"\316\357\177\300\337\211\320\256\360\371\274\020\236"
 207      DF89D0AE 
 207      F0F9BC10 
 207      9E
 208 0113 CB6D78B1 		.ascii	"\313mx\261\322n\345\211\320Nx\3502\370%t\023^\374\026"
 208      D26EE589 
 208      D04E78E8 
 208      32F82574 
 208      135EFC16 
 209 0127 DA09CD84 		.ascii	"\332\011\315\204\336N\013\315Ac.+\275_\031\264\336\262"
 209      DE4E0BCD 
 209      41632E2B 
 209      BD5F19B4 
 209      DEB2
 210 0139 D06B27EF 		.ascii	"\320k'\357\337\033\374\356\260\320h\322F\350&\262\345"
 210      DF1BFCEE 
ARM GAS  /tmp/ccxxnAte.s 			page 16


 210      B0D068D2 
 210      46E826B2 
 210      E5
 211 014a 41CFFF65 		.ascii	"A\317\377e\300\005\014\030\353\\\202\240\353\323\234"
 211      C0050C18 
 211      EB5C82A0 
 211      EBD39C
 212 0159 478431CF 		.ascii	"G\2041\317\301_\011\232_\240\347\273\237[\252u\364\364"
 212      C15F099A 
 212      5FA0E7BB 
 212      9F5BAA75 
 212      F4F4
 213 016b 5CB8BC61 		.ascii	"\\\270\274a\270\326\321\230\351\357\177\234\273\217"
 213      B8D6D198 
 213      E9EF7F9C 
 213      BB8F
 214 0179 5BA0C1D5 		.ascii	"[\240\301\3251K\323x5\310\3156\036\306\356\001z\376"
 214      314BD378 
 214      35C8CD36 
 214      1EC6EE01 
 214      7AFE
 215 018b 9397F821 		.ascii	"\223\227\370!A\256\002oBA\024\371\317\270\225\232\326"
 215      41AE026F 
 215      424114F9 
 215      CFB8959A 
 215      D6
 216 019c D2F3F795 		.ascii	"\322\363\367\225s\377U\323\002\022\377:\037\004c\004"
 216      73FF55D3 
 216      0212FF3A 
 216      1F046304 
 217 01ac 013CC4BD 		.ascii	"\001<\304\275\003\240-\232\266\242\222\341\022/\367"
 217      03A02D9A 
 217      B6A292E1 
 217      122FF7
 218 01bb A8DB771F 		.ascii	"\250\333w\037<\3147\0029\022\377\026\"\377\220\347\201"
 218      3CCC3702 
 218      3912FF16 
 218      22FF90E7 
 218      81
 219 01cc 9B37F987 		.ascii	"\2337\371\207\014T\022_\032\264\242\306gs\000\301\007"
 219      0C54125F 
 219      1AB4A2C6 
 219      677300C1 
 219      07
 220 01dd 8F64AE1B 		.ascii	"\217d\256\033\304=\370\027\2147\350+\334\200\341\354"
 220      C43DF817 
 220      8C37E82B 
 220      DC80E1EC 
 221 01ed 08262856 		.ascii	"\010&(V\360\367\341\235\310\241\254\313\2709\232\326"
 221      F0F7E19D 
 221      C8A1ACCB 
 221      B8399AD6 
 222 01fd 68B0792F 		.ascii	"h\260y/7\217\340\253\2600\334\3413\021\374&\307\361"
 222      378FE0AB 
 222      B030DCE1 
 222      3311FC26 
 222      C7F1
ARM GAS  /tmp/ccxxnAte.s 			page 17


 223 020f FA03DB7E 		.ascii	"\372\003\333~\205\302\\\315\337\013h\2561\374\026E#"
 223      85C25CCD 
 223      DF0B68AE 
 223      31FC1645 
 223      23
 224 0220 70371164 		.ascii	"p7\021d\015\200\353\200\210X\353Y\324z\246\221o@Q\222"
 224      0D80EB80 
 224      8858EB59 
 224      D47AA691 
 224      6F405192 
 225 0234 DF380A2D 		.ascii	"\3378\012-u=\300u\000@\346\333}Kx\255c\007o3\345\023"
 225      753DC075 
 225      0040E6DB 
 225      7D4B78AD 
 225      63076F33 
 226 024a E68C010B 		.ascii	"\346\214\001\013\341/\037\233\307\317@\374k\221\364"
 226      E12F1F9B 
 226      C7CF40FC 
 226      6B91F4
 227 0259 95822DE9 		.ascii	"\225\202-\351\035O8!\022\270?#\310\272<\322\217\034"
 227      1D4F3821 
 227      12B83F23 
 227      C8BA3CD2 
 227      8F1C
 228 026b 34495FE7 		.ascii	"4I_\347\202\364\306\314\3419\257\015'\244K\374*\276"
 228      82F4C6CC 
 228      E139AF0D 
 228      27A44BFC 
 228      2ABE
 229 027d 0CF0EECC 		.ascii	"\014\360\356\314\342\265S\235q\253_\306\000\032\337"
 229      E2B5539D 
 229      71AB5FC6 
 229      001ADF
 230 028c 917DA116 		.ascii	"\221}\241\026\311D\266\3173\262\012;RM\273\313q+\361"
 230      C944B6CF 
 230      33B20A3B 
 230      524DBBCB 
 230      712BF1
 231 029f 1BF89F41 		.ascii	"\033\370\237A\277\221\177\000\372M\320g/\201;(\230Z"
 231      BF917F00 
 231      FA4DD067 
 231      2F813B28 
 231      985A
 232 02b1 B5135D71 		.ascii	"\265\023]q\026n\356[\202\"A\337kt\345\326\035\206[o"
 232      166EEE5B 
 232      822241DF 
 232      6B74E5D6 
 232      1D865B6F 
 233 02c5 43CF3BCE 		.ascii	"C\317;\316\250\323=\242\366\346c\275\206\023\357@Tg"
 233      A8D33DA2 
 233      F6E663BD 
 233      8613EF40 
 233      5467
 234 02d7 04D689FD 		.ascii	"\004\326\211\375\214\023\373ig\304\237\215\033\342\203"
 234      8C13FB69 
 234      67C49F8D 
 234      1BE283
ARM GAS  /tmp/ccxxnAte.s 			page 18


 235 02e6 4339AFC3 		.ascii	"C9\257\303\005\356\"+@;\265\005\234\004H\214\360l+\337"
 235      05EE222B 
 235      403BB505 
 235      9C04488C 
 235      F06C2BDF 
 236 02fa D6A4ED19 		.ascii	"\326\244\355\031i\032r\251\023\337\002w\031'\333\315"
 236      691A72A9 
 236      13DF0277 
 236      1927DBCD 
 237 030a 1A726F77 		.ascii	"\032row\227i\310\273]\031\362_\366-B\255\025\015%\202"
 237      9769C8BB 
 237      5D19F25F 
 237      F62D42AD 
 237      150D2582 
 238 031e 39FF8338 		.ascii	"9\377\2038\377\012\221\314\337\305\316\277\345\324\351"
 238      FF0A91CC 
 238      DFC5CEBF 
 238      E5D4E9
 239 032d 99C6FC5D 		.ascii	"\231\306\374]\256\346\337\330=?\177~\211\377\365\217"
 239      AEE6DFD8 
 239      3D3F7F7E 
 239      89FFF58F 
 240 033d 0AE9BBB7 		.ascii	"\012\351\273\267\373b\2571\313!\364\230\323\"\253\357"
 240      FB62AF31 
 240      CB21F498 
 240      D322ABEF 
 241 034d C7CB6805 		.ascii	"\307\313h\005\302\263e\200\300]\310\322? \207\005F\257"
 241      C2B36580 
 241      C05DC8D2 
 241      3F208705 
 241      46AF
 242 035f 2EE05B89 		.ascii	".\340[\211\262L\032>\367\214\261\202\222\304\346n\014"
 242      B24C1A3E 
 242      F78CB182 
 242      92C4E66E 
 242      0C
 243 0370 013AB2CB 		.ascii	"\001:\262\313n\2209\332Rcf\253\025\331U\317\310h\312"
 243      6E9039DA 
 243      526366AB 
 243      15D955CF 
 243      C868CA
 244 0383 0E5991F5 		.ascii	"\016Y\221\365\272AV\356L\331\021+\262\353\236\221\321"
 244      BA4156EE 
 244      4CD9112B 
 244      B2EB9E91 
 244      D1
 245 0394 941DB322 		.ascii	"\224\035\263\"\373\326\015\262a\316\224\235\260\"\273"
 245      FBD60DB2 
 245      61CE949D 
 245      B022BB
 246 03a3 E519194D 		.ascii	"\345\031\031M\331'Vd\375n\220U\330P\226\275\234\022"
 246      D9275664 
 246      FD6E9055 
 246      D85096BD 
 246      9C12
 247 03b5 82FD7CD6 		.ascii	"\202\375|\326\316\005\256\321g\306\004\2176\315\345"
 247      CE05AED1 
ARM GAS  /tmp/ccxxnAte.s 			page 19


 247      67C6048F 
 247      36CDE5
 248 03c4 70CCF479 		.ascii	"p\314\364y\015b\024\337\020\304\316\255\320\203\230"
 248      0D6214DF 
 248      10C4CEAD 
 248      D08398
 249 03d3 B99ABDE8 		.ascii	"\271\232\275\350\006c\001\203i\331oY\032_\361\214\214"
 249      06630183 
 249      69D96F59 
 249      1A5FF18C 
 249      8C
 250 03e4 56CB5282 		.ascii	"V\313R\202\214\2125\306*\323\363Ff\330\342\\\270\013"
 250      8C8A35C6 
 250      2AD3F346 
 250      66D8E25C 
 250      B80B
 251 03f6 98B84876 		.ascii	"\230\270Hv\251\3076H6\205\354`m\3300\373\261\022\377"
 251      A9C73648 
 251      3685EC60 
 251      6DD830FB 
 251      B112FF
 252 0409 252EB157 		.ascii	"%.\261W\371`\226\012\375\336\274\353'i4\267\300g\227"
 252      F960960A 
 252      FDDEBCEB 
 252      276934B7 
 252      C06797
 253 041c B72282C2 		.ascii	"\267\"\202\302\240N\226p\331j\011\177r#\246\002\256"
 253      A04E9670 
 253      D96A097F 
 253      7223A602 
 253      AE
 254 042d 70C8494C 		.ascii	"p\310IL\231Y\332l\276\341\203\237\024L\324z\273\257"
 254      9959DA6C 
 254      BEE1839F 
 254      144CD47A 
 254      BBAF
 255 043f 2E3796E3 		.ascii	".7\226\343>\\\216\227\371lWvW\310\332\233oo\347\233"
 255      3E5C8E97 
 255      F96C5776 
 255      57C8DA9B 
 255      6F6FE79B 
 256 0453 10D93788 		.ascii	"\020\3317\210\354]\037\033\353\203\314\332\036\244\027"
 256      EC5D1F1B 
 256      EB83CCDA 
 256      1EA417
 257 0462 EB603077 		.ascii	"\353`0w\323o^\264\364]\3038I\377+\253\364\327z\226>"
 257      D36F5EB4 
 257      F45DC338 
 257      49FF2BAB 
 257      F4D77A96 
 258 0477 EB43DFB4 		.ascii	"\353C\337\264\362}\215\332\342\221\026{+h\234\220K]"
 258      F27D8DDA 
 258      E291167B 
 258      2B689C90 
 258      4B5D
 259 0489 BF2C622E 		.ascii	"\277,b.u\013\205\364W{\211\273@\324\336\374^%\"\272"
 259      750B85F4 
ARM GAS  /tmp/ccxxnAte.s 			page 20


 259      577B89BB 
 259      40D4DEFC 
 259      5E2522BA 
 260 049d A36F87F2 		.ascii	"\243o\207\362\244\3153\322\346i\311e\015\326\260W/c"
 260      A4CD33D2 
 260      E669C965 
 260      0DD6B057 
 260      2F63
 261 04af 056E3F2B 		.ascii	"\005n?+:\212\304\002\2212+\272\333\336Ew\315\020]\223"
 261      3A8AC402 
 261      91322BBA 
 261      DBDE4577 
 261      CD105D93 
 262 04c3 40383E9C 		.ascii	"@8>\234\307\361\035\217,\013\334I\317l\004h6Z\373\275"
 262      C7F11D8F 
 262      2C0BDC49 
 262      CF6C0468 
 262      365AFBBD 
 263 04d7 B371C360 		.ascii	"\263q\303`c6\262q\356{`\3433\317l\224[\330\300m\325"
 263      6336B271 
 263      EE7B60E3 
 263      33CF6C94 
 263      5BD8C06D 
 264 04ec 7C7D31F8 		.ascii	"|}1\370\001\327Z8\243%\364\274$\374\200\312&3\307\017"
 264      01D75A38 
 264      A325F4BC 
 264      24FC80CA 
 264      2633C70F 
 265 0500 F015FAEB 		.ascii	"\360\025\372\353\342\233\311\276\003K\214\035\231^$"
 265      E29BC9BE 
 265      034B8C1D 
 265      995E24
 266 050f B882B413 		.ascii	"\270\202\264\023\330\201$xZ\246\345 .;:\262\276\273"
 266      D8812478 
 266      5AA6E520 
 266      2E3B3AB2 
 266      BEBB
 267 0521 42D69859 		.ascii	"B\326\230Y\366\212\271]|\234\254b\267\357\022\335\346"
 267      F68AB95D 
 267      7C9CAC62 
 267      B7EF12DD 
 267      E6
 268 0532 836C7866 		.ascii	"\203lxf\322\347\325\016\261'\273\223\336\265\335\010"
 268      D2E7D50E 
 268      B127BB93 
 268      DEB5DD08 
 269 0542 D08B0442 		.ascii	"\320\213\004BPS\011k,\253x&\201&/,C\234t\270P\260\004"
 269      5053096B 
 269      2CAB7826 
 269      81262F2C 
 269      439C74B8 
 270 0559 C2852577 		.ascii	"\302\205%w\245\003\260\237\257\333\314dBW\304\222\273"
 270      A503B09F 
 270      AFDBCC64 
 270      4257C492 
 270      BB
 271 056a C2089B54 		.ascii	"\302\010\233TC\021\305\266;\317\231\270B\310\310J\234"
ARM GAS  /tmp/ccxxnAte.s 			page 21


 271      4311C5B6 
 271      3BCF99B8 
 271      42C8C84A 
 271      9C
 272 057b 7699C0EC 		.ascii	"v\231\300\354v\216^\356\231e\310\221\374V\334HO]\010"
 272      768E5EEE 
 272      9965C891 
 272      FC56DC48 
 272      4F5D08
 273 058e 6AAD21BD 		.ascii	"j\255!\275~!\361[x\301\300j\267\376\0257\321\263\362"
 273      7E21F15B 
 273      78C1C06A 
 273      B7FE1537 
 273      D1B3F2
 274 05a1 9E911E8A 		.ascii	"\236\221\036\212h\1776v\333+\3650\227\247\362\267\330"
 274      687F3676 
 274      DB2BF530 
 274      97A7F2B7 
 274      D8
 275 05b2 F8E0A160 		.ascii	"\370\340\241`%p\335Y\021\271M\034\331\313\311\244\226"
 275      2570DD59 
 275      11B94D1C 
 275      D9CBC9A4 
 275      96
 276 05c3 5A4DEAD4 		.ascii	"ZM\352\324\335\031\000\230\324\256\225\272I\0253\001"
 276      DD190098 
 276      D4AE95BA 
 276      49153301 
 277 05d3 8DB7E693 		.ascii	"\215\267\346\223\002\367\1778\363*\326\006\326\377m"
 277      02F77F38 
 277      F32AD606 
 277      D6FF6D
 278 05e2 4FB3B117 		.ascii	"O\263\261\027]\345\312\006\276\266\261\201U\003\264"
 278      5DE5CA06 
 278      BEB6B181 
 278      5503B4
 279 05f1 0130E84B 		.ascii	"\0010\350K{yD\247\347\307\177,\345it\036\367\215\267"
 279      7B7944A7 
 279      E7C77F2C 
 279      E569741E 
 279      F78DB7
 280 0604 65AF82D1 		.ascii	"e\257\202\321\255+s\362\002\011\325k\005R\227\233W\232"
 280      AD2B73F2 
 280      0209D56B 
 280      0552979B 
 280      579A
 281 0616 174D5032 		.ascii	"\027MP2\026\323\312\211Q\342\337\023H\302\374\276@j"
 281      16D3CA89 
 281      51E2DF13 
 281      48C2FCBE 
 281      406A
 282 0628 526BB0FF 		.ascii	"Rk\260\377@\260T\246\234\314\2423g\026\022\377WV\214"
 282      40B054A6 
 282      9CCCA233 
 282      671612FF 
 282      57568C
 283 063b 6EB72D45 		.ascii	"n\267-E\247y\327j}\355\245wg}\013\217\034\360\265k\231"
ARM GAS  /tmp/ccxxnAte.s 			page 22


 283      A779D76A 
 283      7DEDA577 
 283      677D0B8F 
 283      1CF0B56B 
 284 0650 19A28722 		.ascii	"\031\242\207\"\331j\303m7\240\333v\344\311v\007\353"
 284      D96AC36D 
 284      37A0DB76 
 284      E4C97607 
 284      EB
 285 0661 B66E6A55 		.ascii	"\266njU\253\007\312H\366\2024\267\324E\232[a#s3\272"
 285      AB07CA48 
 285      F68234B7 
 285      D4459A5B 
 285      61237333 
 286 0676 B79E98EF 		.ascii	"\267\236\230\357\262\336\225-]w5\030\025\340\255hi\177"
 286      B2DE952D 
 286      5D773518 
 286      15E0AD68 
 286      697F
 287 0688 61A4E1A2 		.ascii	"a\244\341\242p\366\021\202lg\335xQk\266p\266\335\205"
 287      70F61182 
 287      6C67DD78 
 287      516BB670 
 287      B6DD85
 288 069b 1B3766D6 		.ascii	"\0337f\326R\025`\323\002\267\027\266\300\202\022\245"
 288      521560D3 
 288      02B717B6 
 288      C08212A5 
 289 06ab 94B8DDE2 		.ascii	"\224\270\335\342 \037\242\203|du\012\201;\346F\372?"
 289      201FA283 
 289      7C64750A 
 289      813BE646 
 289      FA3F
 290 06bd 77324508 		.ascii	"w2E\010CG\364\342\273YL?\315\342\263\013D\024>\2536"
 290      4347F4E2 
 290      BB594C3F 
 290      CDE2B30B 
 290      44143EAB 
 291 06d2 619B7E14 		.ascii	"a\233~\024\363%\335J/\270!n\2443\262em\246p\337\305"
 291      F325DD4A 
 291      2FB8216E 
 291      A433B265 
 291      6DA670DF 
 292 06e7 FCE4AA1B 		.ascii	"\374\344\252\033|\243\235\230m\314\254?j&\207z\251\371"
 292      7CA39D98 
 292      6DCCAC3F 
 292      6A26877A 
 292      A9F9
 293 06f9 1BCFF868 		.ascii	"\033\317\370h\372\216\267Q\371\\\277\033tO\270\326}"
 293      FA8EB751 
 293      F95CBF1B 
 293      744FB8D6 
 293      7D
 294 070a EE640542 		.ascii	"\356d\005B!V\023:\261`\277\025\373]\330_\304\376s\354"
 294      2156133A 
 294      B160BF15 
 294      FB5DD85F 
ARM GAS  /tmp/ccxxnAte.s 			page 23


 294      C4FE73EC 
 295 071e BFC0BE17 		.ascii	"\277\300\276\027\373\357\260o\3040\332\214\375\\\354"
 295      FBEFB06F 
 295      C430DA8C 
 295      FD5CEC
 296 072d B760BF0B 		.ascii	"\267`\277\013\373=\330\357\303\276\013\373\003n\002"
 296      FB3DD8EF 
 296      C3BE0BFB 
 296      036E02
 297 073c 2E93011A 		.ascii	".\223\001\032gPzf\2067\317\210\026\373\234\351\247]"
 297      67507A66 
 297      8637CF88 
 297      16FB9CE9 
 297      A75D
 298 074e F341EE75 		.ascii	"\363A\356uMk\355\271p\371\023\021\"\240/[\320\301a\313"
 298      4D6BEDB9 
 298      70F91311 
 298      22A02F5B 
 298      D0C161CB 
 299 0762 F9FB6DA7 		.ascii	"\371\373m\2475\362P\204m\321^\225\307\232y`k\0210\203"
 299      35F25084 
 299      6DD15E95 
 299      C79A7960 
 299      6B113083 
 300 0776 A67FE4DE 		.ascii	"\246\177\344\336 \361`\315\254\231\345>\363\2453\230"
 300      20F160CD 
 300      AC99E53E 
 300      F3A53398 
 301 0786 C1E76181 		.ascii	"\301\347a\201:\310\324\21713\347v\277d\177\214\251\323"
 301      3AC8D48F 
 301      3133E776 
 301      BF647F8C 
 301      A9D3
 302 0798 E824B44F 		.ascii	"\350$\264O\204\3738Z:\220\0263\2421\350l\324:\337\326"
 302      84FB385A 
 302      3A901633 
 302      A231E86C 
 302      D43ADFD6 
 303 07ac 8266EA2D 		.ascii	"\202f\352-\361\335BA2O\332\222\271m\316~\310\007\264"
 303      F1DD4241 
 303      324FDA92 
 303      B96DCE7E 
 303      C807B4
 304 07bf DBFDFD22 		.ascii	"\333\375\375\"K\246CM\235\340:-P\347\212:\015"
 304      4BA6434D 
 304      9DE03A2D 
 304      50E78A3A 
 304      0D
 305 07d0 4514DC61 		.ascii	"E\024\334a\253`\355V\365X\323T\216\012$$\236r`\203\326"
 305      AB60ED56 
 305      F558D354 
 305      8E0A2424 
 305      9E726083 
 306 07e5 ED3253B7 		.ascii	"\3552S\267\022\177\274\010\030\255\333\227\264\231\345"
 306      127FBC08 
 306      18ADDB97 
 306      B499E5
ARM GAS  /tmp/ccxxnAte.s 			page 24


 307 07f4 3C32C719 		.ascii	"<2\307\031P\224/\235\313\227RO\013D\373s\315\374\274"
 307      50942F9D 
 307      CB97524F 
 307      0B44FB73 
 307      CDFCBC
 308 0807 A68E3DDA 		.ascii	"\246\216=\3325\262 \272\027\324yVP\267\220dJ0\357\345"
 308      35B220BA 
 308      17D47956 
 308      50B79064 
 308      4A30EFE5 
 309 081b A9571F7A 		.ascii	"\251W\037z\321\216\224\314\315\263/\017\327\226{\266"
 309      D18E94CC 
 309      CDB32F0F 
 309      D7967BB6 
 310 082b ABCFED34 		.ascii	"\253\317\3554\306\020\262\311\201\220/l\011\231\267"
 310      C610B2C9 
 310      81902F6C 
 310      0999B7
 311 083a 6C6E9610 		.ascii	"ln\226\020\335\"\004n\267\003\206+4\206\177\340\226"
 311      DD22046E 
 311      B703862B 
 311      34867FE0 
 311      96
 312 084b 130CC797 		.ascii	"\023\014\307\227.\344\001\203\246\335\201\015\202\335"
 312      2EE40183 
 312      A6DD810D 
 312      82DD
 313 0859 1992DFE4 		.ascii	"\031\222\337\344B\345,{\321\353\313\215\372\336U\\\323"
 313      42E52C7B 
 313      D1EBCB8D 
 313      FADE555C 
 313      D3
 314 086a 8FF96DD7 		.ascii	"\217\371m\327tgD\002\327\203 \275\371k\372\331Y\306"
 314      74674402 
 314      D78320BD 
 314      F96BFAD9 
 314      59C6
 315 087c 9ADEEB2A 		.ascii	"\232\336\353*5\237w\312\361@\272'\233\364\376\304B\373"
 315      359F77CA 
 315      F140BA27 
 315      9BF4FEC4 
 315      42FB
 316 088e 81EE4F0D 		.ascii	"\201\356O\015\332\277F\332\277(N;\215H\340\276E\220"
 316      DABF46DA 
 316      BF284E3B 
 316      8D48E0BE 
 316      4590
 317 08a0 1BF9B47F 		.ascii	"\033\371\264\177i\036\244\335pE\373\372n\353znn,n\014"
 317      691EA4DD 
 317      7045FBFA 
 317      6EEB7A6E 
 317      6E2C6E0C 
 318 08b4 7863B141 		.ascii	"xc\261A?\300\330\206\366\275\223E\346i[\241\231g[\372"
 318      3FC0D886 
 318      F6BD9345 
 318      E6695BA1 
 318      99675BFA 
ARM GAS  /tmp/ccxxnAte.s 			page 25


 319 08c8 71E505CF 		.ascii	"q\345\005\317\310*(\312\216.\2423\257\317\334\340+p"
 319      C82A28CA 
 319      8E2EA233 
 319      AFCFDCE0 
 319      2B70
 320 08da C0601C22 		.ascii	"\300`\034\"\351\310.yFF\023\367\277\335\226\323\212"
 320      E9C82E79 
 320      464613F7 
 320      BFDD96D3 
 320      8A
 321 08eb 9901BE38 		.ascii	"\231\001\27682\2732\274\335e5\022X\3471'\274\205\253"
 321      32BB32BC 
 321      DD653512 
 321      58E73127 
 321      BC85AB
 322 08fe F76DECFF 		.ascii	"\367m\354\377\216\375\035\354\373\261\327D*c|)`z\211"
 322      8EFD1DEC 
 322      FBB1D744 
 322      2A637C29 
 322      607A89
 323 0911 AD291633 		.ascii	"\255)\0263\011-\323\356\354\036T\275$\353\331\2375\360"
 323      092DD3EE 
 323      EC1E54BD 
 323      24EBD99F 
 323      35F0
 324 0923 33D18467 		.ascii	"3\321\204g\210\304;\332\002E\275\203\251\273\274\203"
 324      88C43BDA 
 324      0245BD83 
 324      A9BBBC83 
 325 0933 10CD62DE 		.ascii	"\020\315b\336\347\032'L\347 \277\025O\326\317,tW\366"
 325      E71A274C 
 325      E720BF15 
 325      4FD6CF2C 
 325      7457F6
 326 0946 E9C84AE4 		.ascii	"\351\310J\344\207\026>\016\2347\277;\231\213|d\212\363"
 326      87163E0E 
 326      9C37BF3B 
 326      998B7C64 
 326      8AF3
 327 0958 412312B8 		.ascii	"A#\022\270C\010\362J>#\273LF^q\305\310k\013M\333\377"
 327      4308F24A 
 327      3E23BB4C 
 327      465E71C5 
 327      C86B0B4D 
 328 096e A398DB75 		.ascii	"\243\230\333u\020\330\001mH3KO\240\271\352\3106{FF\333"
 328      10D8016D 
 328      48334B4F 
 328      A0B9EAC8 
 328      367B4646 
 329 0983 FE072796 		.ascii	"\376\007'\226\014\323:\266\233_\200h\263\264\237\277"
 329      0CD33AB6 
 329      9B5F8068 
 329      B3B49FBF 
 330 0993 9D1349B9 		.ascii	"\235\023I\271\211A\260\212v\335C\270\271] \222\367\237"
 330      8941B08A 
 330      76DD43B8 
 330      B95D2092 
ARM GAS  /tmp/ccxxnAte.s 			page 26


 330      F79F
 331 09a5 3282758F 		.ascii	"2\202u\217\250\275y\375hD\264\030\021]f\020I\274\310"
 331      A8BD79FD 
 331      6844B418 
 331      115D6610 
 331      49BCC8
 332 09b8 6C92457A 		.ascii	"l\222Ez\223,\006s7$u\3626X\340\256g\365kGd\261\000I"
 332      932C0673 
 332      372475F2 
 332      3658E0AE 
 332      67F56B47 
 333 09d0 CA525D0B 		.ascii	"\312R]\013l\312R\356\023\223\245\"\223\017<\316\244"
 333      6CCA52EE 
 333      1393A522 
 333      930F3CCE 
 333      A4
 334 09e1 0385B6D5 		.ascii	"\003\205\266\325/\237m0\312\230\257\211$n}\307\210\217"
 334      2F9F6D30 
 334      CA98AF89 
 334      246E7DC7 
 334      888F
 335 09f3 A92E93B9 		.ascii	"\251.\223\271\234\350X!\2269\030q\336o\002\327\024\344"
 335      9CE85821 
 335      96391871 
 335      DE6F02D7 
 335      14E4
 336 0a05 8B1B5CC1 		.ascii	"\213\033\\\301\303\346\217\3370\353\303\270\021\233"
 336      C3E68FDF 
 336      30EBC3B8 
 336      119B
 337 0a13 ED06A1DD 		.ascii	"\355\006\241\335R`wY\375U\342\347\211$\340\266\212$"
 337      52607759 
 337      FD55E2E7 
 337      8924E0B6 
 337      8A24
 338 0a25 B0B6613F 		.ascii	"\260\266a?\037\373%\330\257\024]l\240\210\227eq\353"
 338      1FFB25D8 
 338      AF145D6C 
 338      A0889765 
 338      71EB
 339 0a37 9EDB3C60 		.ascii	"\236\333<`\317\275\226\357\271^\220Q\202\314|mx\256"
 339      CFBD96EF 
 339      B95E9051 
 339      82CC7C6D 
 339      78AE
 340 0a49 EE8812FF 		.ascii	"\356\210\022\377\252\310\340\363f\316\231\371\213B\207"
 340      AAC8E0F3 
 340      66CE99F9 
 340      8B4287
 341 0a58 9E33BD7A 		.ascii	"\2363\275zn\220\367\210\254\274\220R\232-Jy\021\225"
 341      6E90F788 
 341      ACBC9052 
 341      9A2D4A79 
 341      1195
 342 0a6a 320755F0 		.ascii	"2\007U\360&\366oa\3776\275\362-\0102+\037\265\314\330"
 342      26F66F61 
 342      FF36BDF2 
ARM GAS  /tmp/ccxxnAte.s 			page 27


 342      2D08322B 
 342      1FB5CCD8 
 343 0a7e ADC356F1 		.ascii	"\255\303V\361h\231\3779\005\262v_\244\372\322,R\255"
 343      6899FF39 
 343      05B2765F 
 343      A4FAD22C 
 343      52AD
 344 0a90 C6E56249 		.ascii	"\306\345bI\320s\221j\025\202\254\311[.Z\357\230\313"
 344      D073916A 
 344      1582ACC9 
 344      5B2E5AEF 
 344      98CB
 345 0aa2 C59AE2CB 		.ascii	"\305\232\342\313\305\214\246L\373\237\336\314\255{M"
 345      C58CA64C 
 345      FB9FDECC 
 345      AD7B4D
 346 0ab1 5907BE02 		.ascii	"Y\007\276\002!\332\311H\251\357\0106e\351\360h\244\366"
 346      21DAC948 
 346      A9EF0836 
 346      65E9F068 
 346      A4F6
 347 0ac3 AA5B6351 		.ascii	"\252[cQ\335\007\250\272NZQ;YEy,jm<e&\301\372\307\255"
 347      DD07A8BA 
 347      4E5A513B 
 347      5945792C 
 347      6A6D3C65 
 348 0adc 7B597CF4 		.ascii	"{Y|\364\247\254v\010i\315\037\361\242\371\223\357_z"
 348      A7AC7608 
 348      69CD1FF1 
 348      A2F993EF 
 348      5F7A
 349 0aee 1417A18D 		.ascii	"\024\027\241\215\250\367>\257z'\"\332\314\350<\323+"
 349      A8F73EAF 
 349      7A2722DA 
 349      CCE83CD3 
 349      2B
 350 0aff 57E86F8B 		.ascii	"W\350o\213'\0077/\340Y\200\207\332\362y\343\310x\033"
 350      2707372F 
 350      E0598087 
 350      DAF279E3 
 350      C8781B
 351 0b12 3AEA8C41 		.ascii	":\352\214A\337Kmy.\242\331\374}\031\315f\213\321lA\243"
 351      DF4B6D79 
 351      2EA2D9FC 
 351      7D19CD66 
 351      8BD16C41 
 352 0b27 D94A1B4D 		.ascii	"\331J\033M\333 \027F\223r=_\257%\313\356\303,\373:f"
 352      DB201746 
 352      93723D5F 
 352      AF25CBEE 
 352      C32CFB3A 
 353 0b3c D34D1859 		.ascii	"\323M\030YVa\277\016\373\0154\035\013\263\3423\215\215"
 353      5661BF0E 
 353      FB0D341D 
 353      0BB3E233 
 353      8D8D
 354 0b4e DAA612DC 		.ascii	"\332\246\022\334\037\211\331}3\263\246\256u(\036\022"
ARM GAS  /tmp/ccxxnAte.s 			page 28


 354      1F89D97D 
 354      33B3A6AE 
 354      75281E12 
 355 0b5e A89DB975 		.ascii	"\250\235\271u\203\201\272\352\3004\201\332\225\203\272"
 355      8381BAEA 
 355      C03481DA 
 355      9583BA
 356 0b6d 876B41CB 		.ascii	"\207kA\313{b\361\020\375C\"\273@L`v\213\367\340\035"
 356      7B62F110 
 356      FD4322BB 
 356      404C6076 
 356      8BF7E01D 
 357 0b81 75AA8823 		.ascii	"u\252\210#\234f\331#\346>V\012\005s7<=u\0053\363hs\234"
 357      9C66D923 
 357      E63E560A 
 357      0573373C 
 357      3D750533 
 358 0b99 DFC0B3D7 		.ascii	"\337\300\263\327\363\314\373\034f.\265\027\025)\230"
 358      F3CCFB1C 
 358      662EB517 
 358      152998
 359 0ba8 38A1DAEF 		.ascii	"8\241\332\357(\340\363\005\240\272rP\244\204\222\271"
 359      28E0F305 
 359      A0BA7250 
 359      A48492B9 
 360 0bb8 D6D3D7D9 		.ascii	"\326\323\327\331\373\207\325\235\232\366\242v\247\377"
 360      FB87D59D 
 360      9AF6A276 
 360      A7FF
 361 0bc6 858619BC 		.ascii	"\205\206\031\274\373\364\355\200\230_&\334\310\270c"
 361      FBF4ED80 
 361      985F26DC 
 361      C8B863
 362 0bd5 B6E4A5BD 		.ascii	"\266\344\245\275\255\211\331\212\327\307\"S\361:(\346"
 362      AD89D98A 
 362      D7C72253 
 362      F13A28E6 
 363 0be5 557780B4 		.ascii	"Uw\200\264\315\257\036\037NN\236\264\376\376\027\036"
 363      CDAF1E1F 
 363      4E4E9EB4 
 363      FEFE171E 
 364 0bf5 D0E713B8 		.ascii	"\320\347\023\270\017]\315p\230\235\341\210\355\014\233"
 364      0F5DCD70 
 364      989DE188 
 364      ED0C9B
 365 0c04 D6F58EBD 		.ascii	"\326\365\216\275\231c\376\001\367\314\037gs\327\035"
 365      9963FE01 
 365      F7CC1F67 
 365      73D71D
 366 0c13 F945B57E 		.ascii	"\371E\265~\212T\034\011;\3322\303\314\214\332\343\341"
 366      8A541C09 
 366      3BDA32C3 
 366      CC8CDAE3 
 366      E1
 367 0c24 5DA116DE 		.ascii	"]\241\026\336\374\006\374\3252\002qLt*#\356\240\312"
 367      FC06FCD5 
 367      3202714C 
ARM GAS  /tmp/ccxxnAte.s 			page 29


 367      742A23EE 
 367      A0CA
 368 0c36 887D0D13 		.ascii	"\210}\015\023\206e9>\306r\334m\313\361\242#\347\207"
 368      8665393E 
 368      C672DC6D 
 368      CBF1A223 
 368      E787
 369 0c48 0F4CDD67 		.ascii	"\017L\335gY\216\251z\253\341\357\214\004\226\227\331"
 369      598EA97A 
 369      ABE1EF8C 
 369      049697D9 
 370 0c58 D65BD7CB 		.ascii	"\326[\327\313L\275\365\214#\307\271zk\2536O\027\325"
 370      4CBDF58C 
 370      23C7B97A 
 370      6BAB364F 
 370      17D5
 371 0c6a 4ECCF7DF 		.ascii	"N\314\367\337G\324\316\200\006A\206\250Nj\026Q\235a"
 371      47D4CE80 
 371      064186A8 
 371      4E6A1651 
 371      9D61
 372 0c7c 45F5A9AD 		.ascii	"E\365\251\255\250\276\352<\\\233g~\235en\314\357\";"
 372      A8BEEA3C 
 372      5C9B677E 
 372      9D656ECC 
 372      EF223B
 373 0c8f C3670E06 		.ascii	"\303g\016\006\376e\276\201ou5\303%v\206/\304\274\362"
 373      FE65BE81 
 373      6F7535C3 
 373      2576862F 
 373      C4BCF2
 374 0ca2 E6A1433D 		.ascii	"\346\241C=;\257.\346g\367h-X\336\264\3065K:5\301\024"
 374      3BAF2EE6 
 374      67F7682D 
 374      58DEB4C6 
 374      354B3A35 
 375 0cb8 DC208474 		.ascii	"\334 \204t\210~\314(\370\315s\364\373\233C\364\263."
 375      887ECC28 
 375      F8CD73F4 
 375      FB9B43F4 
 375      B32E
 376 0cca 6EB951E4 		.ascii	"n\271Q\344?\225\2241'&\014\021\002w\324\360&\211\007"
 376      3F959431 
 376      27260C11 
 376      0277D4F0 
 376      268907
 377 0cdd 5F33C5DA 		.ascii	"_3\305\332\266\355\246\325\306\237\244l<\3005\343\307"
 377      B6EDA6D5 
 377      C69FA46C 
 377      3CC035E3 
 377      C7
 378 0cee 6933B506 		.ascii	"i3\265\006\376\371\354\352\352\360\355,\254\243b\000"
 378      FEF9ECEA 
 378      EAF0ED2C 
 378      ACA36200 
 379 0cfe A6690839 		.ascii	"\246i\0109~\371J\006\230L\351\367\346]\201O/\373\354"
 379      7EF94A06 
ARM GAS  /tmp/ccxxnAte.s 			page 30


 379      984CE9F7 
 379      E65D814F 
 379      2FFBEC
 380 0d11 7C89F19D 		.ascii	"|\211\361\235\346\220\255\357la}\347\253\302\276\223"
 380      E690ADEF 
 380      6C617DE7 
 380      ABC2BE93 
 381 0d21 3DA83979 		.ascii	"=\2509y\232\270\200N\"\005E\361n\020x\303!x\\\031\276"
 381      9AB8804E 
 381      220545F1 
 381      6E1078C3 
 381      21785C19 
 382 0d36 D1397814 		.ascii	"\3219x\024\252\375\337f9\336)\346q\274\310\236\343\233"
 382      AAFDDF66 
 382      39DE29E6 
 382      71BCC89E 
 382      E39B
 383 0d48 84637DF8 		.ascii	"\204c}\370y\334\343\335r\345\364\215Z\337\371\011cs"
 383      79DCE3DD 
 383      72E5F48D 
 383      5ADFF909 
 383      6373
 384 0d5a 47534E50 		.ascii	"GSNP\006\201wh\216\2315\365t\2015\265\301\307\256\251"
 384      06817768 
 384      8E9935F5 
 384      748135B5 
 384      C1C7AEA9 
 385 0d6e 6DDBF6FE 		.ascii	"m\333\366\376\324\032d\315\243\211w\354\031\334\310"
 385      D41A64CD 
 385      A38977EC 
 385      19DCC8
 386 0d7d AAB4D1E7 		.ascii	"\252\264\321\347\346\370\351\014{\374\344\014F\037?"
 386      E6F8E90C 
 386      7BFCE40C 
 386      461F3F
 387 0d8c 51C19000 		.ascii	"Q\301\220\000Q\006\335\344\263\015$\357\266\027\015"
 387      5106DDE4 
 387      B30D24EF 
 387      B6170D
 388 0d9b 24B5E6A4 		.ascii	"$\265\346\244\203\021\322!\2200\243`C\354\363\032H\346"
 388      8311D221 
 388      9030A360 
 388      43ECF31A 
 388      48E6
 389 0dad F8EC0349 		.ascii	"\370\354\003I\210b\304\034\005\267\327D\346x\216!B\340"
 389      8862C41C 
 389      05B7D744 
 389      E6788E21 
 389      42E0
 390 0dbf D687AC81 		.ascii	"\326\207\254\201\204\373\361\210\021\225\372\277d\272"
 390      84FBF188 
 390      1195FABF 
 390      64BA
 391 0dcd 52512BD3 		.ascii	"RQ+\323J\2442R\033O\327\214\210p\243\255\277E\222\361"
 391      4AA43252 
 391      1B4FD78C 
 391      8870A3AD 
ARM GAS  /tmp/ccxxnAte.s 			page 31


 391      BF4592F1 
 392 0de1 78325199 		.ascii	"x2Q\231J*j\272\362\311\211\343\307\214\237N\336\245"
 392      4A2A6ABA 
 392      F2C989E3 
 392      C78C9F4E 
 392      DEA5
 393 0df3 A2315949 		.ascii	"\2421YIW>=f\014\200\251\365)9=\242\226+\001\370\260"
 393      573E3D66 
 393      0C80A9F5 
 393      29393DA2 
 393      962B01F8 
 394 0e08 5AFAF4BF 		.ascii	"Z\372\364\277?S1\206\373Cem2.WJ1yz\345x9\241&\225\247"
 394      3F533186 
 394      FB43656D 
 394      322E574A 
 394      31797AE5 
 395 0e22 1529551B 		.ascii	"\025)U\033\215\244+\253\222uJDV\352\303c\222\325\362"
 395      8DA42BAB 
 395      92754A44 
 395      56EAC363 
 395      92D5F2
 396 0e35 53722252 		.ascii	"Sr\"R\033\376]T\225\303\223\223J\030\246\010\377\366"
 396      1BFE5D54 
 396      95C39393 
 396      4A18A608 
 396      FFF6
 397 0e47 C9A7C655 		.ascii	"\311\247\306UJJ\374\341D2!?,K\223\242\225\321D$VW-W"
 397      4A4AFCE1 
 397      4432213F 
 397      2C4B93A2 
 397      95D14424 
 398 0e5f A6D5EA68 		.ascii	"\246\325\352hB\205\271\374\360\347_\3769\254>\3100b"
 398      4285B9FC 
 398      F0E75FFE 
 398      39AC3EC8 
 398      3062
 399 0e71 0E8CD4A6 		.ascii	"\016\214\324\246\353\323&a\001\265V\221\245\352\260"
 399      EBD32661 
 399      01B55691 
 399      A5EAB0
 400 0e80 1A84A9F4 		.ascii	"\032\204\251\364\373\012g\270Hm5\300\014\325\307\245"
 400      FB0A67B8 
 400      486D35C0 
 400      0CD5C7A5 
 401 0e90 C3CFD7C9 		.ascii	"\303\317\327\311urX-\317\202\032\257|\011y\272\352K"
 401      7572582D 
 401      CF821AAF 
 401      7C0979BA 
 401      EA4B
 402 0ea2 29F2D412 		.ascii	")\362\324\022|\366\253)%\232\014\253\201:\2034\037y"
 402      7CF6AB29 
 402      259A0CAB 
 402      813A8334 
 402      1F79
 403 0eb4 0E11C985 		.ascii	"\016\021\311\205#\311\204\012\243\377\251\250dk#IE\206"
 403      23C9840A 
 403      A3FFA9A8 
ARM GAS  /tmp/ccxxnAte.s 			page 32


 403      646B2349 
 403      4586
 404 0ec6 D9CB100C 		.ascii	"\331\313\020\014\020E\324\351\017\273\203\012O}4NxU"
 404      1045D4E9 
 404      0FBB830A 
 404      4F7D344E 
 404      7855
 405 0ed8 E41A905D 		.ascii	"\344\032\220]X\025\224_\010\312/\005\345\021AyTPF\013"
 405      5815945F 
 405      08CA2F05 
 405      E5114179 
 405      5450460B 
 406 0eec CA63A232 		.ascii	"\312c\2422j$\264QBL\021\322)\021P\227$\344i\262R\222"
 406      6A24B451 
 406      424C11D2 
 406      29115097 
 406      24E469B2 
 407 0f02 8C55CB8A 		.ascii	"\214U\313\212/R+)\276\204\024\227\007\245\325)R,Z\223"
 407      2F522B29 
 407      BE841497 
 407      07A5D529 
 407      522C5A93 
 408 0f16 309879E4 		.ascii	"0\230y\344\027\240\325i\322$)-\007\324\264*\201\252"
 408      17A0D569 
 408      D224292D 
 408      07D4B42A 
 408      81AA
 409 0f28 543FF961 		.ascii	"T?\371atX-\301g\277\032\007U\302\323\344\230T\223\366"
 409      74582DC1 
 409      67BF1A07 
 409      55C2D3E4 
 409      985493F6 
 410 0f3c AB8A3C39 		.ascii	"\253\212<9\015\002 \177J\225\352z\260\213\200<=\252"
 410      0D02207F 
 410      4A95EA7A 
 410      B08B803C 
 410      3DAA
 411 0f4e 466050E9 		.ascii	"F`P\351459\351\277S\367\032*\201!\262\002&@\200\247"
 411      343539E9 
 411      BF53F71A 
 411      2A8121B2 
 411      02264080 
 412 0f63 A9AA92F2 		.ascii	"\251\252\222\362\247\301X\000 \004\362N\313q0\031\340"
 412      A7C15800 
 412      2004F24E 
 412      CB713019 
 412      E0
 413 0f74 ED7E676D 		.ascii	"\355~gm\311\204\351\222HB\015\253\"\364\200\036^\245"
 413      C984E992 
 413      48420DAB 
 413      22F4801E 
 413      5EA5
 414 0f86 02001DAF 		.ascii	"\002\000\035\257\003\231;C\306\325\351\00429-!+~\034"
 414      03993B43 
 414      C6D5E904 
 414      32392D21 
 414      2B7E1C
ARM GAS  /tmp/ccxxnAte.s 			page 33


 415 0f99 4BB854E1 		.ascii	"K\270T\341u\252L"
 415      75AA4C
 416 0fa0 9E4A8890 		.ascii	"\236J\210\220\322S\340\225<\215\334\360uCL\355\307\242"
 416      D253E095 
 416      3C8DDCF0 
 416      75434CED 
 416      C7A2
 417 0fb2 69986CA8 		.ascii	"i\230l\250\305\036\310\033\3774)\252F\0235\001\240\035"
 417      C51EC81B 
 417      FF3429AA 
 417      46133501 
 417      A01D
 418 0fc4 ED2120A7 		.ascii	"\355! \247\344\004Xk\215\037P\222\021\240\031)Fl\242"
 418      E404586B 
 418      8D1F5092 
 418      11A01929 
 418      466CA2
 419 0fd7 249E4A26 		.ascii	"$\236J&c`\213\343\3235U0FPS\"@\351/\236\0054!\274\233"
 419      63608BE3 
 419      D3355530 
 419      46505322 
 419      40E92F9E 
 420 0ff0 28C76410 		.ascii	"(\307d\020\371\340HmU\244\366\351dUL\226"
 420      F9E0486D 
 420      55A4F6E9 
 420      64554C96 
 421 1000 535565F8 		.ascii	"SUe\3704\021\246\255\037\027\302\373g\245)r\035\376"
 421      3411A6AD 
 421      1F17C2FB 
 421      67A52972 
 421      1DFE
 422 1012 1026262F 		.ascii	"\020&&/\307u3\327\357C\204\300z\203d\300\024\316=\373"
 422      C77533D7 
 422      EF4384C0 
 422      7A8364C0 
 422      14CE3DFB 
 423 1026 23750A48 		.ascii	"#u\012H^-Q\310\323\217\246F\025\265N\212\205\325h\034"
 423      5E2D51C8 
 423      D38FA646 
 423      15B54E8A 
 423      85D5681C 
 424 103a 3CDB80B8 		.ascii	"<\333\200\270\017 l~\030J\275\323}\203z\025$\263\303"
 424      0F206C7E 
 424      184ABDD3 
 424      7D837A15 
 424      24B3C3
 425 104d 8D6140A3 		.ascii	"\215a@\243\036\001\355V\3131U\012LU'\327%\"`\033\344"
 425      1E01ED56 
 425      CB31550A 
 425      4C5527D7 
 425      2522601B 
 426 1062 8F989294 		.ascii	"\217\230\222\224@LJ\253dl\351T\225\340\036b0Q-O\252"
 426      404C4AAB 
 426      646CE954 
 426      95E01E62 
 426      30512D4F 
 427 1077 ABD1C56C 		.ascii	"\253\321\305l}\023LI\211h$\014\342\022\253'\325\014"
ARM GAS  /tmp/ccxxnAte.s 			page 34


 427      7D134C49 
 427      8968240C 
 427      E212AB27 
 427      D50C
 428 1089 8A4B801E 		.ascii	"\212K\200\036\265\360SGE\253\304B\312\325x8\002F=I\221"
 428      B5F05347 
 428      45ABC442 
 428      CAD57838 
 428      02463D49 
 429 109e D468122C 		.ascii	"\324h\022,\333\257\250h4\245\311\311\223\323\262*\250"
 429      DBAFA868 
 429      34A5C9C9 
 429      93D3B22A 
 429      A8
 430 10af 7121525B 		.ascii	"q!R[\300\316\352I \001\301V\325\247\177\227\214L\011"
 430      C0CEEA49 
 430      2001C156 
 430      D5A77F97 
 430      8C4C09
 431 10c2 A283C6E0 		.ascii	"\242\203\306\340n\224\215{\202\257W\216\031_5\256*\207"
 431      6E948D7B 
 431      82AF578E 
 431      195F35AE 
 431      2A87
 432 10d4 219E8EA6 		.ascii	"!\236\216\246\3035\221\010`\031\034\006\313V\303O=Y"
 432      C3359108 
 432      60191C06 
 432      CB56C34F 
 432      3D59
 433 10e6 F5DB0913 		.ascii	"\365\333\011\023\307\015\226b\323\244\37248{,\232\220"
 433      C70D9662 
 433      D3A4FA34 
 433      387B2C9A 
 433      90
 434 10f7 4BA64AB1 		.ascii	"K\246J\261:9\244\007\235h\"-+\252\250>\237*\303\211"
 434      3A39A407 
 434      9D68222D 
 434      2BAAA83E 
 434      9F2AC389 
 435 110b 9F499009 		.ascii	"\237I\220\011\365\330P\207\367\201p\030\345\031\036"
 435      F5D85087 
 435      F7817018 
 435      E5191E
 436 111a 6CDE8CF8 		.ascii	"l\336\214\370\345c\243F\026\260z\010\361`\365\341\247"
 436      E563A346 
 436      16B07A08 
 436      F160F5E1 
 436      A7
 437 112b C00287A2 		.ascii	"\300\002\207\242\231\215KO\320\355t\334=\372\254\223"
 437      998D4B4F 
 437      D0ED74DC 
 437      3DFAAC93 
 438 113b A3939360 		.ascii	"\243\223\223`'\361\344Tb{9C\254\242\346x\354\377\001"
 438      27F1E454 
 438      627B3943 
 438      ACA2E678 
 438      ECFF01
ARM GAS  /tmp/ccxxnAte.s 			page 35


 439 114e 56140F97 		.ascii	"V\024\017\227"
 440              		.text
 441              		.section	.gnu.lto_.symtab.61eb1a0820de6ce1,"",%progbits
 442 0000 63684D73 		.ascii	"chMsgSend\000\000\000\000\000\000\000\000\000\000\000"
 442      6753656E 
 442      64000000 
 442      00000000 
 442      00000000 
 443 0014 00A10000 		.ascii	"\000\241\000\000\000chMsgWait\000\000\000\000\000\000"
 443      0063684D 
 443      73675761 
 443      69740000 
 443      00000000 
 444 0028 00000000 		.ascii	"\000\000\000\000\000\000W\001\000\000chMsgRelease\000"
 444      00005701 
 444      00006368 
 444      4D736752 
 444      656C6561 
 445 003f 00000000 		.ascii	"\000\000\000\000\000\000\000\000\000\000\000[\001\000"
 445      00000000 
 445      0000005B 
 445      0100
 446 004d 00636800 		.ascii	"\000ch\000\000\002\000\000\000\000\000\000\000\000\000"
 446      00020000 
 446      00000000 
 446      000000
 447 005c 6D010000 		.ascii	"m\001\000\000chSchGoSleepS\000\000\002\000\000\000\000"
 447      63685363 
 447      68476F53 
 447      6C656570 
 447      53000002 
 448 0074 00000000 		.ascii	"\000\000\000\000\000c\001\000\000chSchReadyI\000\000"
 448      00630100 
 448      00636853 
 448      63685265 
 448      61647949 
 449 008a 02000000 		.ascii	"\002\000\000\000\000\000\000\000\000\000g\001\000\000"
 449      00000000 
 449      00006701 
 449      0000
 450 0098 63685363 		.ascii	"chSchWakeupS\000\000\002\000\000\000\000\000\000\000"
 450      6857616B 
 450      65757053 
 450      00000200 
 450      00000000 
 451 00ae 00006B01 		.ascii	"\000\000k\001\000\000"
 451      0000
 452              		.text
 453              		.section	.gnu.lto_.opts,"",%progbits
 454 0000 272D6D63 		.ascii	"'-mcpu=cortex-m3' '-mno-thumb-interwork' '-mthumb' "
 454      70753D63 
 454      6F727465 
 454      782D6D33 
 454      2720272D 
 455 0033 272D6767 		.ascii	"'-ggdb' '-O2' '-fomit-frame-pointer' '-falign-funct"
 455      64622720 
 455      272D4F32 
ARM GAS  /tmp/ccxxnAte.s 			page 36


 455      2720272D 
 455      666F6D69 
 456 0066 696F6E73 		.ascii	"ions=16' '-ffunction-sections' '-fdata-sections' '-"
 456      3D313627 
 456      20272D66 
 456      66756E63 
 456      74696F6E 
 457 0099 666E6F2D 		.ascii	"fno-common' '-flto'\000"
 457      636F6D6D 
 457      6F6E2720 
 457      272D666C 
 457      746F2700 
 458              		.text
 459              		.cfi_sections	.debug_frame
 460              		.section	.text.chMsgSend,"ax",%progbits
 461              		.align	2
 462              		.p2align 4,,15
 463              		.global	chMsgSend
 464              		.thumb
 465              		.thumb_func
 466              		.type	chMsgSend, %function
 467              	chMsgSend:
 468              	.LFB186:
 469              		.file 1 "../../../os/rt/src/chmsg.c"
 470              		.loc 1 87 0
 471              		.cfi_startproc
 472              		@ args = 0, pretend = 0, frame = 0
 473              		@ frame_needed = 0, uses_anonymous_args = 0
 474              	.LVL0:
 475              		.loc 1 88 0
 476 0000 40F20003 		movw	r3, #:lower16:ch
 477 0004 C0F20003 		movt	r3, #:upper16:ch
 478              		.loc 1 87 0
 479 0008 10B5     		push	{r4, lr}
 480              		.cfi_def_cfa_offset 8
 481              		.cfi_offset 4, -8
 482              		.cfi_offset 14, -4
 483              		.loc 1 88 0
 484 000a 9C69     		ldr	r4, [r3, #24]
 485              	.LVL1:
 486              	.LBB52:
 487              	.LBB53:
 488              	.LBB54:
 489              	.LBB55:
 490              		.file 2 "../../../os/common/ext/CMSIS/include/cmsis_gcc.h"
 491              		.loc 2 264 0
 492 000c 2023     		movs	r3, #32
 493              	@ 264 "../../../os/common/ext/CMSIS/include/cmsis_gcc.h" 1
 494 000e 83F31188 		MSR basepri, r3
 495              	@ 0 "" 2
 496              		.thumb
 497              	.LBE55:
 498              	.LBE54:
 499              	.LBE53:
 500              	.LBE52:
 501              		.loc 1 93 0
 502 0012 6162     		str	r1, [r4, #36]
ARM GAS  /tmp/ccxxnAte.s 			page 37


 503              	.LVL2:
 504              		.loc 1 95 0
 505 0014 90F82020 		ldrb	r2, [r0, #32]	@ zero_extendqisi2
 506              	.LBB56:
 507              	.LBB57:
 508              		.file 3 "../../../os/rt/include/chschd.h"
 509              		.loc 3 612 0
 510 0018 036B     		ldr	r3, [r0, #48]
 511              	.LBE57:
 512              	.LBE56:
 513              		.loc 1 94 0
 514 001a 00F12C01 		add	r1, r0, #44
 515              	.LVL3:
 516              		.loc 1 95 0
 517 001e 0E2A     		cmp	r2, #14
 518              	.LBB59:
 519              	.LBB58:
 520              		.loc 3 612 0
 521 0020 84E80A00 		stmia	r4, {r1, r3}
 522              		.loc 3 613 0
 523 0024 1C60     		str	r4, [r3]
 524              		.loc 3 614 0
 525 0026 0463     		str	r4, [r0, #48]
 526              	.LVL4:
 527              	.LBE58:
 528              	.LBE59:
 529              		.loc 1 95 0
 530 0028 07D0     		beq	.L4
 531              	.LVL5:
 532              	.L2:
 533              		.loc 1 98 0
 534 002a 0C20     		movs	r0, #12
 535 002c FFF7FEFF 		bl	chSchGoSleepS
 536              	.LVL6:
 537              		.loc 1 99 0
 538 0030 606A     		ldr	r0, [r4, #36]
 539              	.LVL7:
 540              	.LBB60:
 541              	.LBB61:
 542              	.LBB62:
 543              	.LBB63:
 544              	.LBB64:
 545              		.loc 2 264 0
 546 0032 0023     		movs	r3, #0
 547              	@ 264 "../../../os/common/ext/CMSIS/include/cmsis_gcc.h" 1
 548 0034 83F31188 		MSR basepri, r3
 549              	@ 0 "" 2
 550              		.thumb
 551              	.LBE64:
 552              	.LBE63:
 553              	.LBE62:
 554              	.LBE61:
 555              	.LBE60:
 556              		.loc 1 103 0
 557 0038 10BD     		pop	{r4, pc}
 558              	.LVL8:
 559              	.L4:
ARM GAS  /tmp/ccxxnAte.s 			page 38


 560              		.loc 1 96 0
 561 003a FFF7FEFF 		bl	chSchReadyI
 562              	.LVL9:
 563 003e F4E7     		b	.L2
 564              		.cfi_endproc
 565              	.LFE186:
 566              		.size	chMsgSend, .-chMsgSend
 567              		.section	.text.chMsgWait,"ax",%progbits
 568              		.align	2
 569              		.p2align 4,,15
 570              		.global	chMsgWait
 571              		.thumb
 572              		.thumb_func
 573              		.type	chMsgWait, %function
 574              	chMsgWait:
 575              	.LFB187:
 576              		.loc 1 119 0
 577              		.cfi_startproc
 578              		@ args = 0, pretend = 0, frame = 0
 579              		@ frame_needed = 0, uses_anonymous_args = 0
 580              	.LVL10:
 581 0000 10B5     		push	{r4, lr}
 582              		.cfi_def_cfa_offset 8
 583              		.cfi_offset 4, -8
 584              		.cfi_offset 14, -4
 585              	.LBB65:
 586              	.LBB66:
 587              	.LBB67:
 588              	.LBB68:
 589              		.loc 2 264 0
 590 0002 2023     		movs	r3, #32
 591              	@ 264 "../../../os/common/ext/CMSIS/include/cmsis_gcc.h" 1
 592 0004 83F31188 		MSR basepri, r3
 593              	@ 0 "" 2
 594              		.thumb
 595              	.LBE68:
 596              	.LBE67:
 597              	.LBE66:
 598              	.LBE65:
 599              		.loc 1 123 0
 600 0008 40F20004 		movw	r4, #:lower16:ch
 601 000c C0F20004 		movt	r4, #:upper16:ch
 602 0010 A269     		ldr	r2, [r4, #24]
 603              	.LVL11:
 604              	.LBB69:
 605              	.LBB70:
 606              		.file 4 "../../../os/rt/include/chmsg.h"
 607              		.loc 4 83 0
 608 0012 1346     		mov	r3, r2
 609 0014 53F82C0F 		ldr	r0, [r3, #44]!
 610              	.LBE70:
 611              	.LBE69:
 612              		.loc 1 123 0
 613 0018 9842     		cmp	r0, r3
 614 001a 09D0     		beq	.L7
 615              	.LVL12:
 616              	.L6:
ARM GAS  /tmp/ccxxnAte.s 			page 39


 617              	.LBB71:
 618              	.LBB72:
 619              		.loc 3 620 0
 620 001c 0168     		ldr	r1, [r0]
 621              	.LBE72:
 622              	.LBE71:
 623              		.loc 1 127 0
 624 001e 0D24     		movs	r4, #13
 625              	.LBB74:
 626              	.LBB73:
 627              		.loc 3 620 0
 628 0020 D162     		str	r1, [r2, #44]
 629              		.loc 3 621 0
 630 0022 4B60     		str	r3, [r1, #4]
 631              	.LBE73:
 632              	.LBE74:
 633              	.LBB75:
 634              	.LBB76:
 635              	.LBB77:
 636              	.LBB78:
 637              	.LBB79:
 638              		.loc 2 264 0
 639 0024 0022     		movs	r2, #0
 640              	.LBE79:
 641              	.LBE78:
 642              	.LBE77:
 643              	.LBE76:
 644              	.LBE75:
 645              		.loc 1 127 0
 646 0026 80F82040 		strb	r4, [r0, #32]
 647              	.LVL13:
 648              	.LBB84:
 649              	.LBB83:
 650              	.LBB82:
 651              	.LBB81:
 652              	.LBB80:
 653              		.loc 2 264 0
 654              	@ 264 "../../../os/common/ext/CMSIS/include/cmsis_gcc.h" 1
 655 002a 82F31188 		MSR basepri, r2
 656              	@ 0 "" 2
 657              		.thumb
 658              	.LBE80:
 659              	.LBE81:
 660              	.LBE82:
 661              	.LBE83:
 662              	.LBE84:
 663              		.loc 1 131 0
 664 002e 10BD     		pop	{r4, pc}
 665              	.LVL14:
 666              	.L7:
 667              		.loc 1 124 0
 668 0030 0E20     		movs	r0, #14
 669 0032 FFF7FEFF 		bl	chSchGoSleepS
 670              	.LVL15:
 671 0036 A269     		ldr	r2, [r4, #24]
 672 0038 D06A     		ldr	r0, [r2, #44]
 673 003a 02F12C03 		add	r3, r2, #44
ARM GAS  /tmp/ccxxnAte.s 			page 40


 674 003e EDE7     		b	.L6
 675              		.cfi_endproc
 676              	.LFE187:
 677              		.size	chMsgWait, .-chMsgWait
 678              		.section	.text.chMsgRelease,"ax",%progbits
 679              		.align	2
 680              		.p2align 4,,15
 681              		.global	chMsgRelease
 682              		.thumb
 683              		.thumb_func
 684              		.type	chMsgRelease, %function
 685              	chMsgRelease:
 686              	.LFB188:
 687              		.loc 1 143 0
 688              		.cfi_startproc
 689              		@ args = 0, pretend = 0, frame = 0
 690              		@ frame_needed = 0, uses_anonymous_args = 0
 691              	.LVL16:
 692 0000 08B5     		push	{r3, lr}
 693              		.cfi_def_cfa_offset 8
 694              		.cfi_offset 3, -8
 695              		.cfi_offset 14, -4
 696              	.LBB85:
 697              	.LBB86:
 698              	.LBB87:
 699              	.LBB88:
 700              		.loc 2 264 0
 701 0002 2023     		movs	r3, #32
 702              	@ 264 "../../../os/common/ext/CMSIS/include/cmsis_gcc.h" 1
 703 0004 83F31188 		MSR basepri, r3
 704              	@ 0 "" 2
 705              	.LVL17:
 706              		.thumb
 707              	.LBE88:
 708              	.LBE87:
 709              	.LBE86:
 710              	.LBE85:
 711              	.LBB89:
 712              	.LBB90:
 713              		.loc 4 117 0
 714 0008 FFF7FEFF 		bl	chSchWakeupS
 715              	.LVL18:
 716              	.LBE90:
 717              	.LBE89:
 718              	.LBB91:
 719              	.LBB92:
 720              	.LBB93:
 721              	.LBB94:
 722              	.LBB95:
 723              		.loc 2 264 0
 724 000c 0023     		movs	r3, #0
 725              	@ 264 "../../../os/common/ext/CMSIS/include/cmsis_gcc.h" 1
 726 000e 83F31188 		MSR basepri, r3
 727              	@ 0 "" 2
 728              		.thumb
 729 0012 08BD     		pop	{r3, pc}
 730              	.LBE95:
ARM GAS  /tmp/ccxxnAte.s 			page 41


 731              	.LBE94:
 732              	.LBE93:
 733              	.LBE92:
 734              	.LBE91:
 735              		.cfi_endproc
 736              	.LFE188:
 737              		.size	chMsgRelease, .-chMsgRelease
 738 0014 AFF30080 		.text
 738      AFF30080 
 738      AFF30080 
 739              	.Letext0:
 740              		.file 5 "/home/alex/MentorGraphics/Sourcery_CodeBench_Lite_for_ARM_EABI/arm-none-eabi/include/stdi
 741              		.file 6 "../../../os/common/ports/ARMCMx/compilers/GCC/chtypes.h"
 742              		.file 7 "../../../os/rt/include/chsystypes.h"
 743              		.file 8 "../../../os/common/ports/ARMCMx/chcore.h"
 744              		.file 9 "../../../os/common/ports/ARMCMx/chcore_v7m.h"
 745              		.file 10 "../../../os/rt/include/chtm.h"
 746              		.file 11 "../../../os/rt/include/chsem.h"
 747              		.file 12 "../../../os/rt/include/chmtx.h"
 748              		.file 13 "../../../os/rt/include/chsys.h"
 749              		.file 14 "../../../os/common/ext/CMSIS/include/core_cm3.h"