ARM GAS  /tmp/ccB0KeDD.s 			page 1


   1              		.syntax unified
   2              		.cpu cortex-m3
   3              		.fpu softvfp
   4              		.eabi_attribute 20, 1
   5              		.eabi_attribute 21, 1
   6              		.eabi_attribute 23, 3
   7              		.eabi_attribute 24, 1
   8              		.eabi_attribute 25, 1
   9              		.eabi_attribute 26, 1
  10              		.eabi_attribute 30, 2
  11              		.eabi_attribute 34, 1
  12              		.eabi_attribute 18, 4
  13              		.thumb
  14              		.file	"chregistry.c"
  15              		.text
  16              	.Ltext0:
  17              		.section	.gnu.lto_.jmpfuncs.d8b6922a5c869a71,"",%progbits
  18 0000 789C6362 		.ascii	"x\234cb`b\300\006\224\2404+\003\003\023##\003\0033\210"
  18      6062C006 
  18      94A0342B 
  18      03031323 
  18      23030333 
  19 0015 002A6506 		.ascii	"\000*e\006\212\22510\260\200\270\254 \202\001\000\017"
  19      8A953130 
  19      B080B8AC 
  19      20820100 
  19      0F
  20 0026 B600BD   		.ascii	"\266\000\275"
  21              		.text
  22              		.section	.gnu.lto_.inline.d8b6922a5c869a71,"",%progbits
  23 0000 789C6362 		.ascii	"x\234cb`b\300\006z\2404+\003\003'\007#\003\023\317\203"
  23      6062C006 
  23      7AA0342B 
  23      03032707 
  23      230313CF 
  24 0015 5806B605 		.ascii	"X\006\266\005\362`\305L\014\274\242@!\376\005%\014\354"
  24      F260C54C 
  24      0CBCA240 
  24      21FE0525 
  24      0CEC
  25 0027 1DEA1021 		.ascii	"\035\352\020!n\006\006\306\011~\314\014\242\327\230"
  25      6E0606C6 
  25      097ECC0C 
  25      A2D798
  26 0036 80526287 		.ascii	"\200Rb\207\216\262\303\2253\3630\202\344Xx\201\022\023"
  26      8EB2C395 
  26      33F33082 
  26      E4587881 
  26      1213
  27 0048 FC3EB0B1 		.ascii	"\374>\260\2610\010lg\004\262E\376LfCW\304\312 x\210"
  27      30086C67 
  27      04B245FE 
  27      4C664357 
  27      C4CA2078 
  28 005d 1187010C 		.ascii	"\021\207\001\014\000r-\024A"
  28      00722D14 
  28      41
ARM GAS  /tmp/ccB0KeDD.s 			page 2


  29              		.text
  30              		.section	.gnu.lto_.pureconst.d8b6922a5c869a71,"",%progbits
  31 0000 789C6362 		.ascii	"x\234cb`b\340f\200\000V\006+&+f+\026+V+\000\007]\001"
  31      6062E066 
  31      80005606 
  31      2B262B66 
  31      2B162B56 
  32 0019 45       		.ascii	"E"
  33              		.text
  34              		.section	.gnu.lto_chRegFirstThread.d8b6922a5c869a71,"",%progbits
  35 0000 789C8552 		.ascii	"x\234\205RMh\023Q\020\236y\233\264i\202P\274)\222.\212"
  35      4D681351 
  35      109E799B 
  35      B4698250 
  35      BC29922E 
  36 0015 A056B3F6 		.ascii	"\240V\263\366 ^\225\236z\310\301\246\202^,\333uI\026"
  36      205E959E 
  36      7AC8C1A6 
  36      825E2CDB 
  36      754916
  37 0028 BA49D94D 		.ascii	"\272I\331MK\203\207\276\374\034\352\255\024\017\325"
  37      4B8387BE 
  37      FC1CEAAD 
  37      140FD5
  38 0037 12B4546B 		.ascii	"\022\264Tk\253\242GA\021\326\223\026L\244\236\304S\020"
  38      ABA24741 
  38      11D69316 
  38      4CA49EC4 
  38      5310
  39 0049 3C54BC88 		.ascii	"<T\274\210\027)B\234\267\177&A\332Mv\337\354\233\231"
  39      1729429C 
  39      B77F2641 
  39      DA4D76DF 
  39      EC9B99
  40 005c EFFB76BE 		.ascii	"\357\373v\276\307\200A\357u\204\356\033\022\300;ZQ\002"
  40      C78041EF 
  40      7584EE1B 
  40      12C03B5A 
  40      5102
  41 006e 644B4D80 		.ascii	"dKM\200r\214!\212\000\020\026\030.\\GQ\212\307a\215"
  41      728C218A 
  41      00101618 
  41      2E5C4751 
  41      8AC7618D 
  42 0082 F3E5D6B7 		.ascii	"\363\345\326\267\365]\274\313\235\332\003\376\247\335"
  42      F55DBCCB 
  42      9DDA03FE 
  42      A7DD
  43 0090 46349060 		.ascii	"F4\220`O h\010\327\350\005ewa\221n\236\027\314i\265"
  43      4F206808 
  43      D7E80565 
  43      7761916E 
  43      9E17CC69 
  44 00a5 DB3F7636 		.ascii	"\333?v6\277n\341\341\270\004*\256\021^\004\014\224\242"
  44      BF6EE1E1 
  44      B8042AAE 
  44      115E040C 
ARM GAS  /tmp/ccB0KeDD.s 			page 3


  44      94A2
  45 00b7 E2412551 		.ascii	"\342A%Q\250q\276${\031\020xtM\320S(\271\212L\254\322"
  45      A871BE24 
  45      7B191078 
  45      744DD053 
  45      28B98A4C 
  46 00cd 36546200 		.ascii	"6Tb\000\276\222\372V\343-.W\371{^sH\312\220\201\021"
  46      BE92FA56 
  46      E32D2E57 
  46      F97B5E73 
  46      48CA9081 
  47 00e2 263AF697 		.ascii	"&:\366\227\"\366\"2\005M\250\374|U\3358\352\023\007"
  47      22F62232 
  47      054DA8FC 
  47      7C55DD38 
  47      EA1307
  48 00f5 0A9CD79F 		.ascii	"\012\234\327\237V\245S*>te\370{\277\356\374N\034\013"
  48      56A5532A 
  48      3E7465F8 
  48      7BBFEEFC 
  48      4E1C0B
  49 0108 DFB63FD0 		.ascii	"\337\266?\320$U\\\307(q\011>F\267\344\016\211~\317("
  49      24555CC7 
  49      2871093E 
  49      46B7E40E 
  49      897ECF28 
  50 011c A4BCE48D 		.ascii	"\244\274\344\215;\011o\260\316W.\031T\334\311\376/\357"
  50      3B096FB0 
  50      CE572E19 
  50      54DCC9FE 
  50      2FEF
  51 012e F8F93E4F 		.ascii	"\370\371>O_\003*_>o\214x\360Y\224\206\341\011\247\353"
  51      5F032A5F 
  51      3E6F8C78 
  51      F0599486 
  51      E109A7EB 
  52 0142 0A0DDA0F 		.ascii	"\012\015\332\017/\030\330\277\012\367\312\234\017\032"
  52      2F18D8BF 
  52      0AF7CA9C 
  52      0F1A
  53 0150 18BB057B 		.ascii	"\030\273\005{|QD\003&\006\014\003.\322\024\202\277\372"
  53      7C514403 
  53      26060C03 
  53      2ED21482 
  53      BFFA
  54 0162 01D0F89C 		.ascii	"\001\320\370\234>\017\331\233sV\310\026\214+\217O\007"
  54      3E0FD99B 
  54      7356C816 
  54      8C2B8F4F 
  54      07
  55 0173 8C916138 		.ascii	"\214\221a8c`\234\030\010)A\025\0021@\012\216P\003\252"
  55      63609C18 
  55      08294115 
  55      0231400A 
  55      8E5003AA 
  56 0187 8BD57CD0 		.ascii	"\213\325|\320\022\245.Q\025G\357\003\306\274\204\257"
  56      12A52E51 
ARM GAS  /tmp/ccB0KeDD.s 			page 4


  56      1547EF03 
  56      C6BC84AF 
  57 0197 3771005A 		.ascii	"7q\000ZV\214\246\333\331\335f\257\263*>r\307|\240\265"
  57      568CA6DB 
  57      D9DD66AF 
  57      B32A3E72 
  57      C77CA0B5 
  58 01ab B09FB5DF 		.ascii	"\260\237\265\337\353\302\332\227\335\326\336?\224\014"
  58      EBC2DA97 
  58      DDD6DE3F 
  58      940C
  59 01b9 8F5FB87D 		.ascii	"\217_\270}\373c\207\307.\250\346\206\2756\253\370\224"
  59      FB6387C7 
  59      2EA8E686 
  59      BD36ABF8 
  59      94
  60 01ca 829039B0 		.ascii	"\202\2209\260U\305\347\230\364T\355@\271\265\251\207"
  60      55C5E798 
  60      F454ED40 
  60      B9B5A987 
  61 01da 7E7A9B13 		.ascii	"~z\233\023\344\011\035hQ+\247R\212\367/\330\212UTlK"
  61      E4091D68 
  61      512BA752 
  61      8AF72FD8 
  61      8A55546C 
  62 01ef 53B49CA5 		.ascii	"S\264\234\245g\015\273h\225R\032\260\342\314\271\316"
  62      670DBB68 
  62      95521AB0 
  62      E2CCB9CE 
  63 01ff 1AAD609A 		.ascii	"\032\255`\232\205\2742S\260\212\266ry<=\232\236\247"
  63      85BC3253 
  63      B08AB672 
  63      793C3D9A 
  63      9EA7
  64 0211 06AD60E9 		.ascii	"\006\255`\351\223s\027\315T\016\242s\352\364\254>\362"
  64      937317CD 
  64      540EA273 
  64      EAF4AC3E 
  64      F2
  65 0222 9F1E7DBE 		.ascii	"\237\036}\276\250\214\2463c\031\305\310k\323\2637uE"
  65      A88CA633 
  65      6319C5C8 
  65      6BD3B337 
  65      7545
  66 0234 336DC39E 		.ascii	"3m\303\236\314j\032\365\015\365(\011krv\311\246\374"
  66      CC6A1AF5 
  66      0DF52809 
  66      6B7276C9 
  66      A6FC
  67 0246 603A332E 		.ascii	"`:3.O\251\266>c\031g\345\223\347\201Y\320o\352f\301"
  67      4FA9B63E 
  67      631967E5 
  67      93E78159 
  67      D06FEA66 
  68 025b 2AC15F2F 		.ascii	"*\301_/\216\377@"
  68      8EFF40
  69              		.text
ARM GAS  /tmp/ccB0KeDD.s 			page 5


  70              		.section	.gnu.lto_chRegNextThread.d8b6922a5c869a71,"",%progbits
  71 0000 789C8553 		.ascii	"x\234\205SKHTQ\030\376\377s\357<R\013i\031\242C\021"
  71      4B485451 
  71      18FEFF73 
  71      EF3C520B 
  71      6919A243 
  72 0015 44963769 		.ascii	"D\2267i!\355\012W.f\243\011\265\222\353\3612^\360:r"
  72      21ED0A57 
  72      2E66A309 
  72      B592EBF1 
  72      325EF03A 
  73 002a EF289A0B 		.ascii	"\357(\232\013\217\316,\2146\"-2\021\223\036\320ShQ\213"
  73      8FCE2C8C 
  73      36222D32 
  73      11931ED0 
  73      5368518B 
  74 003e A066A085 		.ascii	"\240f\240\205B\332cS\266\032B)K\212VI\004\323\177\356"
  74      42DA6353 
  74      B61A4229 
  74      4B8A5649 
  74      04D37FEE 
  75 0052 CB71883C 		.ascii	"\313q\210<3\367\236\307\377\372\376\357|\227\001\203"
  75      33F79EC7 
  75      FFFAFEEF 
  75      7C970183 
  76 0062 CA719A9E 		.ascii	"\312q\232\236\357\012\300\022\315\030\001dS\253\000"
  76      EF0AC012 
  76      CD180164 
  76      53AB00
  77 0071 E371C6D4 		.ascii	"\343q\306\324<\202\250R\336\274\002\0205\012\252\336"
  77      3C82A852 
  77      DEBC0210 
  77      350AAADE 
  78 0081 B98A2817 		.ascii	"\271\212(\027\2000\306\024\025\307.\242L\202\207aA\210"
  78      8030C614 
  78      15C72EA2 
  78      4C828761 
  78      4188
  79 0093 E9E2C6E2 		.ascii	"\351\342\306\342&\316\210|\356\206\370S*!\232H\005\217"
  79      26CE887C 
  79      EE86F853 
  79      2A219A48 
  79      058F
  80 00a5 2070840B 		.ascii	" p\204\013\264\301\204;1u7\202E\226/\226J[\357\327?"
  80      B4C1843B 
  80      31753782 
  80      45962F96 
  80      4A5BEFD7 
  81 00ba 6DE1C103 		.ascii	"m\341\301\003\010:.P\276\010Z\010Q\177\023\003\023\225"
  81      083A2E50 
  81      BE085A08 
  81      517F1303 
  81      1395
  82 00cc B87C917F 		.ascii	"\270|\221\177\004rBL%<\213\205\004\200\273 \316\323"
  82      0472424C 
  82      253C8B85 
  82      0480BB20 
ARM GAS  /tmp/ccB0KeDD.s 			page 6


  82      CED3
  83 00de 5B62EB44 		.ascii	"[b\353D&ge\031&\342\000>\262\371\273+\005\234\316\212"
  83      26676519 
  83      26E2003E 
  83      B2F9BB2B 
  83      059CCE8A 
  84 00f2 2591CB13 		.ascii	"%\221\313\023\264\006\023UF\236{@\223gj\202\026\253"
  84      B4061355 
  84      469E7B40 
  84      93676A82 
  84      16AB
  85 0104 30F1F359 		.ascii	"0\361\363Y\366\316!\277v\000\"\377\342\335\254rL\307"
  85      F6CE21BF 
  85      760022FF 
  85      E2DDAC72 
  85      4CC7
  86 0116 5B84243C 		.ascii	"[\204$<\373uu\273\272.\334-\257\023\347:\336$n9\312"
  86      FB7575BB 
  86      BA2EDC2D 
  86      AF13E73A 
  86      DE246E39 
  87 012b 7A8C1EC5 		.ascii	"z\214\036\305%\215~\017iIv\305\273\230zx\216s\342\332"
  87      258D7E0F 
  87      694976C5 
  87      BB987A78 
  87      8E73E2DA 
  88 013f 59939CCB 		.ascii	"Y\223\234\313\253\357\330\013\276=\352\341[\201\211"
  88      ABEFD80B 
  88      BE3DEAE1 
  88      5B8189
  89 014e 8F1F1E9F 		.ascii	"\217\037\036\237\361\322\2470\332\010\367\004\215\026"
  89      F1D2A730 
  89      DA08F704 
  89      8D16
  90 015c 227E16AE 		.ascii	"\"~\026\256Sx,\205\021\231\306s\357\306\2401\342&\037"
  90      53782C85 
  90      1199C673 
  90      EFC6A031 
  90      E2261F
  91 016f F3C23C1E 		.ascii	"\363\302<\036S2\345\022\274\374\\\230\271\242\204\371"
  91      5332E512 
  91      BCFC5C98 
  91      B9A284F9 
  92 017f 46E1B798 		.ascii	"F\341\267\230\024b\320\304\270\237z\324\304}\026\262"
  92      1462D0C4 
  92      B89F7AD4 
  92      C47D16B2 
  93 018f 6E0C53ED 		.ascii	"n\014S\355\214Nj\206\344\242HT\333O\012\030\244\211"
  93      8C4E6A86 
  93      E4A24854 
  93      DB4F0A18 
  93      A489
  94 01a1 35C27113 		.ascii	"5\302q\023\253BD\321rD\201\"W ;\231\275\024\204\304"
  94      AB4244D1 
  94      72448122 
  94      57203B99 
  94      BD1484C4 
ARM GAS  /tmp/ccB0KeDD.s 			page 7


  95 01b5 294A7A55 		.ascii	")JzU\241\327e\233g\360A4\357\221\215\342\003Dj\231\024"
  95      A1D7659B 
  95      67F04134 
  95      EF918DE2 
  95      03446A99 
  96 01ca 824ED1ED 		.ascii	"\202N\321\355\277L\033\233\253\225\332\320\361\266{"
  96      BF4C1B9B 
  96      AB95DAD0 
  96      F1B67B
  97 01d9 517B8A03 		.ascii	"Q{\212\003\376'\216\257sR\034Ow\213c~\177}\250\341\360"
  97      FE278EAF 
  97      73521C4F 
  97      778B637E 
  97      7F7DA8E1 
  98 01ee F8F28F32 		.ascii	"\370\362\2172\225\270I\271\273\254\024\212\216\367i"
  98      95B849B9 
  98      BBAC148A 
  98      8EF769
  99 01fd 11560E84 		.ascii	"\021V\016\204\241\343#\254\367P\275\206\\\361\313\206"
  99      A1E323AC 
  99      F750BD86 
  99      5CF1CB86 
 100 020d 7FB700DE 		.ascii	"\177\267\000\336\015\326\232X\315}\321\220\"L\254\001"
 100      0DD69A58 
 100      CD7DD190 
 100      224CAC01 
 101 021d 780BE3C5 		.ascii	"x\013\343\305oF@\270\313\340\032\240O&\333Z\353!j\225"
 101      6F4640B8 
 101      CBE01AA0 
 101      4F26DB5A 
 101      EB216A95 
 102 0231 076B75F2 		.ascii	"\007ku\362\303B\311\242\254\224hj\322\274\177\332\321"
 102      C342C9A2 
 102      AC94686A 
 102      D2BC7FDA 
 102      D1
 103 0242 EC8CE6D8 		.ascii	"\354\214\346\330\\\343\275\266\2212\235\214=\322\304"
 103      5CE3BDB6 
 103      91329D8C 
 103      3DD2C4
 104 0251 41E9CF0C 		.ascii	"A\351\317\014\234,w\342i\313J\367k\003i;\343h\347\332"
 104      9C2C77E2 
 104      69CB4AF7 
 104      6B03693B 
 104      E368E7DA 
 105 0265 93ADC961 		.ascii	"\223\255\311a\212\340i\333\350\032j\261\232z!2\244\367"
 105      8AE069DB 
 105      E81A6AB1 
 105      9A7A2132 
 105      A4F7
 106 0277 0D1ACDFF 		.ascii	"\015\032\315\377\2101\2063Zk\262\243\255C3\373y\337"
 106      88318633 
 106      5A6BB2A3 
 106      AD4333FB 
 106      79DF
 107 0289 608FA171 		.ascii	"`\217\241q\3131\235\256\024\347\024\327P\001%\364\351"
 107      CB319DAE 
ARM GAS  /tmp/ccB0KeDD.s 			page 8


 107      14E714D7 
 107      500125F4 
 107      E9
 108 029a 75461CB2 		.ascii	"uF\034\262\327&;\332\023\335\272c\014\330\346\211\304"
 108      D7263BDA 
 108      13DDBA63 
 108      0CD8E689 
 108      C4
 109 02ab D153C06C 		.ascii	"\321S\300l\210Y\206\225\266G\340/7\261&\207"
 109      88598695 
 109      B647E02F 
 109      37B12687 
 110              		.text
 111              		.section	.gnu.lto_chRegFindThreadByName.d8b6922a5c869a71,"",%progbits
 112 0000 789C8D54 		.ascii	"x\234\215T]H\024Q\024>\347\316\356\354\352\256f\365"
 112      5D481451 
 112      143EE7CE 
 112      EEECEAAE 
 112      66F5
 113 0012 5261B6F4 		.ascii	"Ra\266\364\003\375:\371\020\275\026=\005\371P&\324S"
 113      03FD3AF9 
 113      10BD163D 
 113      05F95026 
 113      D453
 114 0024 8CD3320E 		.ascii	"\214\3232\0168\256\314l\242\024t]\015\352%\244z\260"
 114      38AECC6C 
 114      A214745D 
 114      0DEA25A4 
 114      7AB0
 115 0036 3234FA23 		.ascii	"24\372#3\214\336\312\2405\202Tr\245\236*z\220\"\304"
 115      338CDECA 
 115      A0358254 
 115      72A59E2A 
 115      7A9022C4 
 116 004a F041F1A1 		.ascii	"\360A\361\241\210\310\316\235;;\256R\331\335\235\271"
 116      88C8CE9D 
 116      3B3BAE52 
 116      D9DD9DB9 
 117 005a 3FE79CEF 		.ascii	"?\347\234\357|\347g.\003\006K\307!z\332\302\00034c\004"
 117      7CE7672E 
 117      03064BC7 
 117      217ADAC2 
 117      00333463 
 118 006f 9075E6E8 		.ascii	"\220u\346\350 \312P\221\013\205\205_(\300\213C\271Q"
 118      20CA5091 
 118      0B85855F 
 118      28C08B43 
 118      B951
 119 0081 001E0F31 		.ascii	"\000\036\0171\325[\024{\247qU\252a\030Q\314\200p\226"
 119      D55B147B 
 119      A77155AA 
 119      611851CC 
 119      807096
 120 0094 2921358C 		.ascii	")!5\214g\217\243@\307\215p\223\363K\023_>M\341U\236"
 120      678FA340 
 120      C78D7093 
 120      F34B135F 
ARM GAS  /tmp/ccB0KeDD.s 			page 9


 120      3E4DE155 
 121 00a9 EDE8E53F 		.ascii	"\355\350\345?\347\347\021-$&\233\020\014\204c\264\301"
 121      E7E7112D 
 121      24269B10 
 121      0C8463B4 
 121      C1
 122 00ba 8437B1D0 		.ascii	"\2047\261\320bj\003,;1?\337?\333\377\271\007W\257B\320"
 122      626A032C 
 122      3B313FDF 
 122      3FDBFFB9 
 122      0757AF42 
 123 00cf F126E131 		.ascii	"\361&\3411 \353\010\275\224(\332\010E\264\012\305|Y"
 123      20EB08BD 
 123      9428DA08 
 123      45B40AC5 
 123      7C59
 124 00e1 DC9F4BE8 		.ascii	"\334\237K\3500\\*^\004\023\206\016\316;\023R\002\302"
 124      305C2A5E 
 124      0413860E 
 124      CE3B1352 
 124      02C2
 125 00f3 278DA3F4 		.ascii	"'\215\243\364\236Q\241\026\031M\312\010d\242\000>\327"
 125      9E51A116 
 125      194DCA08 
 125      64A2003E 
 125      D7
 126 0104 9EFB6343 		.ascii	"\236\373cCx\251\235\017\363\216,\221\335`\241\312Hq"
 126      78A99D0F 
 126      F38E2C91 
 126      DD60A1CA 
 126      4871
 127 0116 19B2E24C 		.ascii	"\031\262\342LM\320\"\007\231\331\301\366\273\353|\267"
 127      4DD02207 
 127      99D9C1F6 
 127      BBEB7CB7 
 128 0126 79FFD9E7 		.ascii	"y\377\331\347o\257+[u\274\355\221\360\317\276]\371\036"
 128      6FAF2B5B 
 128      75BCED91 
 128      F0CFBE5D 
 128      F91E
 129 0138 2B0F7623 		.ascii	"+\017v#\257Y\300Vr\311\366\214^\\\313{3\235\374\027"
 129      AF59C056 
 129      72C9F68C 
 129      5E5CCB7B 
 129      339DFC17 
 130 014c 31F1B2F6 		.ascii	"1\361\262\366\020\227c\222\307\340\203\335\021\240\204"
 130      10976392 
 130      C7E083DD 
 130      11A084
 131 015b DCA22C18 		.ascii	"\334\242,\030\350EmP\270\006*\364x6H\277G\264%\267\212"
 131      E8456D50 
 131      B8062AF4 
 131      783648BF 
 131      47B425B7 
 132 0170 6C8D0A18 		.ascii	"l\215\012\030\302\033\274k\237E\255P\030\324\202\374"
 132      C21BBC6B 
 132      9F45AD50 
ARM GAS  /tmp/ccB0KeDD.s 			page 10


 132      18D482FC 
 133 0180 A52F8F4A 		.ascii	"\245/\217JWc\220\371\360\356n\225\216}\344\305\304\370"
 133      576390F9 
 133      F0EE6E95 
 133      8E7DE4C5 
 133      C4F8
 134 0192 0EE8E334 		.ascii	"\016\350\3434\016\023W\177\271\307\302\242\353p\255"
 134      0E13577F 
 134      B9C7C2A2 
 134      EB70AD
 135 01a1 8DF3320B 		.ascii	"\215\3632\013\213O\303\017~^\254b\266GIx\210yHub\253"
 135      8B4FC30F 
 135      7E5EAC62 
 135      B6474978 
 135      88794875 
 136 01b7 E34351B3 		.ascii	"\343CQ\263:!\363\327\000T\235\254*=\350\370\200\362"
 136      3A21F3D7 
 136      00549DAC 
 136      2A3DE8F8 
 136      80F2
 137 01c9 477EA4E7 		.ascii	"G~\244\347\256{\333\362\236Kv\300v\013\343\201\247\022"
 137      AE7BDBF2 
 137      9E4B76C0 
 137      760BE381 
 137      A712
 138 01db 5212E0E0 		.ascii	"R\022\340\340\203\263\002\3001h?\337\336\230\267,%c"
 138      83B302C0 
 138      31683FDF 
 138      DE98B72C 
 138      2563
 139 01ed A1194719 		.ascii	"\241\031G\031\317A)\360\351\307\376\017\224`<\242\005"
 139      CF4129F0 
 139      E9C7FE0F 
 139      94603CA2 
 139      05
 140 01fe 6D34955B 		.ascii	"m4\225[\332F:\336\361\012\260l\037\301\277\372\350\353"
 140      DA463ADE 
 140      F10AB06C 
 140      1FC1BFFA 
 140      E8EB
 141 0210 0DD14783 		.ascii	"\015\321G\203\213\373\250\247\244\"\350\235\340\370"
 141      8BFBA8A7 
 141      A422E89D 
 141      E0F8
 142 021e C2B847B0 		.ascii	"\302\270G\260\317k\200\260l\000\365\017\305\327q\200"
 142      CF6B80B0 
 142      6C00F50F 
 142      C5D77180 
 143 022e 1681E77C 		.ascii	"\026\201\347|\261u|\214\025\222\025E6qq\022e3\345\277"
 143      B1757C8C 
 143      15921545 
 143      36717112 
 143      6533E5BF 
 144 0242 24396AC9 		.ascii	"$9j\311\224\276}\377\033\2222S\324\217R\371\364\334"
 144      94BE7DFF 
 144      1B923253 
 144      D48F52F9 
ARM GAS  /tmp/ccB0KeDD.s 			page 11


 144      F4DC
 145 0254 40F77A91 		.ascii	"@\367z\221\234\010\245\220\340\025\022x\371[\263\000"
 145      9C08A590 
 145      E0151278 
 145      F95BB300 
 146 0264 DB351991 		.ascii	"\3335\031\221\26062\317nQ\026\237\344>>\306\313\205"
 146      B03632CF 
 146      6E51169F 
 146      E43E3EC6 
 146      CB85
 147 0276 592417FD 		.ascii	"Y$\027\375\313f\321\026\245\031\207s3\231\2713\022\335"
 147      CB66D116 
 147      A5198773 
 147      3399B933 
 147      12DD
 148 0288 C4A2A0F7 		.ascii	"\304\242\240\367J\015\331\336\202\230\211Q\013W\000"
 148      4A0DD9DE 
 148      82988951 
 148      0B5700
 149 0297 0CC3CBC9 		.ascii	"\014\303\313\311\266\252@W\200\026`\276\007\244\322"
 149      B6AA4057 
 149      801660BE 
 149      07A4D2
 150 02a6 B3E9D972 		.ascii	"\263\351\331r\023c\352\263\271\223\"\356\020\320U\250"
 150      1363EAB3 
 150      B99322EE 
 150      10D055A8 
 151 02b6 8C43286F 		.ascii	"\214C(o\025\013<\224\031\376\007b\212\313n\245\010\212"
 151      150B3C94 
 151      19FE0762 
 151      8ACB6EA5 
 151      088A
 152 02c8 1526CF14 		.ascii	"\025&\317\024M?\014\035\323COr\030\230/\264\226?\216"
 152      4D3F0C1D 
 152      D3434F72 
 152      18982FB4 
 152      963F8E
 153 02db 52417A5F 		.ascii	"RAz_\001\326\222\234\256\2517t\037\013H&)\211t)\335"
 153      01D6929C 
 153      AEA93774 
 153      1F0B4826 
 153      29897429 
 154 02f0 73E5BE59 		.ascii	"s\345\276Yhz..L\220T\205F\242\262R\223\377\224\2539"
 154      687A2E2E 
 154      4C905485 
 154      46A2B252 
 154      93FF94AB 
 155 0305 69CD750C 		.ascii	"i\315u\014\315\250w\222\246\345\246\235\326J\003\024"
 155      CDA87792 
 155      A6E5A69D 
 155      D64A0314 
 156 0315 23DDB4AB 		.ascii	"#\335\264\253P\311H\331v\252QkJ9iW\333\177\244\372@"
 156      50C948D9 
 156      76AA516B 
 156      4A396957 
 156      DB7FA4FA 
 157 032a 750B5918 		.ascii	"u\013Y\030)'y\242y\257]Y\017\341f\275\341T\262\352\017"
ARM GAS  /tmp/ccB0KeDD.s 			page 12


 157      292779A2 
 157      79AF5D59 
 157      0FE166BD 
 157      E154B2EA 
 158 033f 36C996B4 		.ascii	"6\311\226\264v\240\272\346`\215f5\032\015\247N&5\303"
 158      76A0BAE6 
 158      608D6635 
 158      1A0DA74E 
 158      2635C3
 159 0352 762DF784 		.ascii	"v-\367\204i\030d\267a\011\225@\247\336muI\316\322Me"
 159      691864B7 
 159      61099540 
 159      A7DE6D75 
 159      49CED24D 
 160 0367 D5354712 		.ascii	"\3255G\022u\272\233lr\254\235\211-\273\2019\020\261"
 160      75BA9B6C 
 160      72AC9D89 
 160      2DBB8139 
 160      10B1
 161 0379 9376CA69 		.ascii	"\223v\312i\205\315\1775\017\242\251\207\337\202r\217"
 161      85CD7F35 
 161      0FA2A987 
 161      DF82728F 
 162 0389 EE       		.ascii	"\356"
 163              		.text
 164              		.section	.gnu.lto_chRegFindThreadByPointer.d8b6922a5c869a71,"",%progbits
 165 0000 789C8D54 		.ascii	"x\234\215TMHTQ\024>\347\2767o\234\037AhU\210\015EPY"
 165      4D485451 
 165      143EE7BE 
 165      376F9C1F 
 165      41685588 
 166 0018 BE5C44DB 		.ascii	"\276\\D\333\244\225\220\213R\241V\361|\015\317\007\216"
 166      A495908B 
 166      52A156F1 
 166      7C0DCF07 
 166      8E
 167 0029 23EF4DA2 		.ascii	"#\357M\242\264\360:3\213\332\224H\220\375\330\030\375"
 167      B4F03A33 
 167      8BDA9448 
 167      90FDD818 
 167      FD
 168 003a 1B61B46D 		.ascii	"\033a\264m\321\030EZ\376P\253\222\026B\0131\204jeVd"
 168      D118455A 
 168      FE50AB92 
 168      16420B31 
 168      846A6556 
 169 004f E7BEFBE6 		.ascii	"\347\276\373\3469\211dw~\356\271\367\234\357\234\357"
 169      39896477 
 169      7EEEB9F7 
 169      9CEF9CEF 
 170 005f DEFBDDCB 		.ascii	"\336\373\335\313\200\301\372v\224~\257T\2007\324c\030"
 170      80C1FA76 
 170      947EAF54 
 170      8037D463 
 170      18
 171 0070 900DCC00 		.ascii	"\220\015\314\000\364W0T\244\241\260\320s\005xT\235y"
 171      F4573054 
ARM GAS  /tmp/ccB0KeDD.s 			page 13


 171      A4A1B0D0 
 171      73057854 
 171      9D79
 172 0082 0DC0E32A 		.ascii	"\015\300\343*\323<#\352\315\3065\031\326\020B\024= "
 172      D33C23EA 
 172      CDC63519 
 172      D6104214 
 172      3D20
 173 0094 F43145D5 		.ascii	"\3641E\325B\330w\022Ev\334\00179\037\234\177\371e\021"
 173      42D87712 
 173      4576DC01 
 173      37391F9C 
 173      7FF96511 
 174 00a8 AFF0627E 		.ascii	"\257\360b~\204\377Z]E\264\221\230\354D0\021N\320\000"
 174      84FF5A5D 
 174      45B49198 
 174      EC443011 
 174      4ED000
 175 00bb 135EC7D4 		.ascii	"\023^\307\324\277\251\215\261\342\374\352\352\307\345"
 175      BFA98DB1 
 175      E2FCEAEA 
 175      C7E5
 176 00c9 FB9FE670 		.ascii	"\373\237\346pK\025\202\2017)\037\003B\2071\205\020\361"
 176      4B158281 
 176      37291F03 
 176      42873185 
 176      10F1
 177 00db 67A27E1F 		.ascii	"g\242~\037#\217\022\027\177\004\016A\236\363\201\204"
 177      238F1217 
 177      7F040E41 
 177      9EF38184 
 178 00eb F480A844 		.ascii	"\364\200\250D\255\205\376\277j\320\212\214:e\022\262"
 178      AD85FEBF 
 178      6AD08A8C 
 178      3A6512B2 
 179 00fb 15003EC3 		.ascii	"\025\000>\303\302\203\351q\034\314\361\011\236/\022"
 179      C283E971 
 179      1CCCF109 
 179      9E2F12
 180 010a C5ED36AA 		.ascii	"\305\3556\252\214\0027\241(\346\324\004\0313\220\375"
 180      8C0237A1 
 180      28E6D404 
 180      193390FD 
 181 011a F6347777 		.ascii	"\3664ww\233_\266T\277\370\354\3355e\267\201\267=\022"
 181      9B5FB654 
 181      BFF8ECDD 
 181      3565B781 
 181      B73D12
 182 012d FEDCF2A5 		.ascii	"\376\334\362\245\357\261\352`49\305\002\266\222K\261"
 182      EFB1EA60 
 182      3439C502 
 182      B6924BB1 
 183 013d F0FAC256 		.ascii	"\360\372\302V>\222\035\340\277\211\211\267W\217p3&\245"
 183      3E921DE0 
 183      BF8989B7 
 183      578F7033 
 183      26A5
ARM GAS  /tmp/ccB0KeDD.s 			page 14


 184 014f 1CFCDE8D 		.ascii	"\034\374\336\2150\320\206\334\302\020!\274U\233\264"
 184      30D086DC 
 184      C21021BC 
 184      559BB4
 185 015e 5C9336C5 		.ascii	"\\\2236\305D\017\203\364yLC*\253HA\324\3008\016\363"
 185      440F83F4 
 185      794C432A 
 185      AB4841D4 
 185      C0380EF3 
 186 0172 A1C33661 		.ascii	"\241\3036a\312\027\265\346\177\341\3735Yj\032\262s\357"
 186      CA17B5E6 
 186      7FE1FB35 
 186      596A1AB2 
 186      73EF
 187 0184 EFD61B38 		.ascii	"\357\326\0338J\010\013\243\2650\312\251\035#\256\276"
 187      4A080BA3 
 187      B530CAA9 
 187      1D23AEBE 
 188 0194 79D0C6F0 		.ascii	"y\320\306\3605\270\332\317y\225\215\025g\341\007?'\254"
 188      35B8DACF 
 188      79958D15 
 188      67E1073F 
 188      27AC
 189 01a6 48CAA324 		.ascii	"H\312\243$*D\274Lmbh\340#Q\271M\370|\033\200N\247\250"
 189      2A44BC4C 
 189      6D6268E0 
 189      2351B94D 
 189      F87C1B80 
 190 01bd C90A063E 		.ascii	"\311\012\006>\244\375\243:\262\362\320\275=\245\312"
 190      A4FDA33A 
 190      B2F2D0BD 
 190      3DA5CA
 191 01cc B15AD86B 		.ascii	"\261Z\330kc4\250\024\243 \221\034\374\344\254,\3414"
 191      6334A814 
 191      A320911C 
 191      FCE4AC2C 
 191      E134
 192 01de E4CEE53A 		.ascii	"\344\316\345:K\3108\201Ed\024\345z\032\245\303\247\037"
 192      4BC83881 
 192      456414E5 
 192      7A1AA5C3 
 192      A71F
 193 01f0 FBBFA494 		.ascii	"\373\277\244\224\306#Z&\243\305\231\36522\360\216w\000"
 193      C6235A26 
 193      A3C599F5 
 193      3232F08E 
 193      7700
 194 0202 9BEA08FE 		.ascii	"\233\352\010\376\245\243\317\303BGO\377\326Q\241\262"
 194      A5A3CFC3 
 194      42474FFF 
 194      D651A1B2 
 195 0212 26D04E30 		.ascii	"&\320N0}~\326#8\352\011 $\005\240mp\370\006\216\221"
 195      7D7ED623 
 195      38EA0920 
 195      2405A06D 
 195      70F8068E 
 196 0227 11542E1D 		.ascii	"\021T.\035\266\201O\260F\262\242\225\315O.\240\024S"
ARM GAS  /tmp/ccB0KeDD.s 			page 15


 196      B6814FB0 
 196      46B2A295 
 196      CD4F2EA0 
 196      1453
 197 0239 E926C9D6 		.ascii	"\351&\311\326JP\272\361\376\035\222>K\234\337\004\274"
 197      4A50BAF1 
 197      FE1D923E 
 197      4B9CDF04 
 197      BC
 198 024a 5818BF7C 		.ascii	"X\030\277|1.A4e\321\253\342\267\017@\243(\273\276Rm"
 198      312E4134 
 198      65D1ABE2 
 198      B70F40A3 
 198      28BBBE52 
 199 025f 61445B5A 		.ascii	"aD[Z9-\362\250@\017\2122\013j\011\021\011\324\0227}"
 199      392DF2A8 
 199      400F8A32 
 199      0B6A0911 
 199      09D41237 
 200 0274 AC259E8C 		.ascii	"\254%\236\214JA\210\225\223\261\204\210& \2774^\230"
 200      4A418895 
 200      93B18488 
 200      2620BF34 
 200      5E98
 201 0286 C500BE76 		.ascii	"\305\000\276vT~k\241\345\217\274\002l%?]\373\267\364"
 201      547E6BA1 
 201      E58FBC02 
 201      6C253F5D 
 201      FBB7F4
 202 0299 AA89944C 		.ascii	"\252\211\224LRb\224\\\231Z\251\366a\352\365\237q\001"
 202      5262945C 
 202      995AA9F6 
 202      61EAF59F 
 202      7101
 203 02ab 410A1511 		.ascii	"A\012\025\021\211\272:]~\323\256\356dt\3271u\263\335"
 203      89BA3A5D 
 203      7ED3AEEE 
 203      6474D731 
 203      75B3DD
 204 02be 495AB69B 		.ascii	"IZ\266\233qz\353LP\314L\327\376\362 3\235J\245;\365"
 204      717AEB4C 
 204      50CC4CD7 
 204      FEF22033 
 204      9D4AA53B 
 205 02d3 AEB49371 		.ascii	"\256\264\223q\365\206\343MG\232z\010a\246\235\344\251"
 205      F586E34D 
 205      479A7A08 
 205      61A69DE4 
 205      A9
 206 02e4 EE43A9BA 		.ascii	"\356C\251\272v\010u\033\035g\222\365\033`\222=\031\375"
 206      7608751B 
 206      1D6792F5 
 206      1B60923D 
 206      19FD
 207 02f6 48537363 		.ascii	"HSsc\263nw\232\035gN'u3\345\332\356)\3134\011\267}\035"
 207      B36E779A 
 207      1D674E27 
ARM GAS  /tmp/ccB0KeDD.s 			page 16


 207      7533E5DA 
 207      EE29CB34 
 208 030e 9520A6DD 		.ascii	"\225 \246\335\355u\311\3172]UM\315\307\023m\206\233"
 208      ED75C9CF 
 208      325D554D 
 208      CDC7136D 
 208      869B
 209 0320 EC72EC7D 		.ascii	"\354r\354}\211]\007\2009\020N%Si\247\027\376\000\256"
 209      895D0780 
 209      39104E25 
 209      5369A717 
 209      FE00AE
 210 0333 5F5AAA   		.ascii	"_Z\252"
 211              		.text
 212              		.section	.gnu.lto_chRegFindThreadByWorkingArea.d8b6922a5c869a71,"",%progbits
 213 0000 789C8D54 		.ascii	"x\234\215TKh\024A\020\255\352\331\331]\367\343\007\274"
 213      4B681441 
 213      10ADEAD9 
 213      D95DF7E3 
 213      07BC
 214 0012 28495C14 		.ascii	"(I\\\024\301o\306\034\304\253!\247\200\0214\006\364"
 214      C16FC61C 
 214      C4AB21A7 
 214      80113406 
 214      F4
 215 0023 24E364D9 		.ascii	"$\343d\331\0148\3310\263\206\004\017\351\374 ^4\211"
 215      0C38D930 
 215      B386040F 
 215      E9FC205E 
 215      3489
 216 0035 1EFCB2F1 		.ascii	"\036\374\262\361\217QQ\004\017~\300\215\010&!Y\321\223"
 216      8F515104 
 216      0F7EC08D 
 216      08262159 
 216      D193
 217 0047 7A8A8888 		.ascii	"z\212\210\210\022\210\236\024\225\254\325\323\263\223"
 217      12889E14 
 217      95ACD5D3 
 217      B393
 218 0055 4D5063EF 		.ascii	"MPc\357\316tuW\325\253\327U5\315\200\301\302\261\213"
 218      CE747557 
 218      D5ABD755 
 218      35CD80C1 
 218      C2B18B
 219 0068 9EDD2AC0 		.ascii	"\236\335*\300\014\315\030\002d\375y\200\3160CE\012\012"
 219      0CCD1802 
 219      64FD7980 
 219      CE304345 
 219      0A0A
 220 007a 539F2AC0 		.ascii	"S\237*\300#\201\3748\000\217\005X\320\025\"\356n,(\315"
 220      2381FC38 
 220      008F0558 
 220      D01522EE 
 220      6E2C28CD 
 221 008e AA554431 		.ascii	"\252UD1\003B\007S\002A\025;\016\240@\307\265p\221\363"
 221      03420753 
 221      0241153B 
ARM GAS  /tmp/ccB0KeDD.s 			page 17


 221      0EA040C7 
 221      B57091F3 
 222 00a2 C1A90FB3 		.ascii	"\301\251\017\263\237\360\014\317\365\014\361_\205\002"
 222      9FF00CCF 
 222      F50CF15F 
 222      8502
 223 00b0 A289C464 		.ascii	"\242\211\304d\035\202\201\260\237\026\230p'\026\230"
 223      1D8281B0 
 223      9F169870 
 223      271698
 224 00bf 4FED0ECB 		.ascii	"O\355\016\313M\025\012\267\012S\357O\340\312\025\010"
 224      4D150AB7 
 224      0A53EF4F 
 224      E0CA1508 
 225 00cf 3A5E243C 		.ascii	":^$<\006\344\035\242\227\022F\013!\342mG\2759F\232@"
 225      06E41DA2 
 225      9712460B 
 225      21E26D47 
 225      BD39469A 
 226 00e4 5CBC0841 		.ascii	"\\\274\010A\205\036\316\373\023R\003\"\034\215}\364"
 226      851ECEFB 
 226      13520322 
 226      1C8D7DF4 
 227 00f4 FE128406 		.ascii	"\376\022\204\006d4)c\320\025\006\360hfoL\216\340`7\037"
 227      64342963 
 227      D01506F0 
 227      68666F4C 
 227      8EE06037 
 228 0109 E53D39E2 		.ascii	"\345=9\342\271\306D\225\221\341\"<\305\236\232 !\017"
 228      B9C64495 
 228      91E1223C 
 228      C59E9A20 
 228      210F
 229 011b 5D5F1F75 		.ascii	"]_\037u_[\355\205-\306\317=yuN\331\240\343\025\227\204"
 229      5F5BED85 
 229      2DC6CF3D 
 229      79754ED9 
 229      A0E31597 
 230 0130 B7F7EDD4 		.ascii	"\267\367\355\324\367h\231\277\032\233`>[\311%\227\035"
 230      F76899BF 
 230      1A9B603E 
 230      5BC92597 
 230      1D
 231 0141 3FBE8A0F 		.ascii	"?\276\212\017u\365\363Yb\342&\3546.\306\244\210\301"
 231      75F5F359 
 231      62E226EC 
 231      362EC6A4 
 231      88C1
 232 0153 7F664340 		.ascii	"\177fC@\011\271\214*y\270\2476\350\270\006*\364\270"
 232      09B98C2A 
 232      79B8A736 
 232      E8B8062A 
 232      F4B8
 233 0165 3E48BFBB 		.ascii	">H\277\273\264\244\260\212\354\212\012\030\301\013\374"
 233      B4A4B08A 
 233      EC8A0A18 
 233      C10BFC
ARM GAS  /tmp/ccB0KeDD.s 			page 18


 234 0174 F44E1383 		.ascii	"\364N\023\203\363\0165\247\177\346\351C2\324$t\275}"
 234      F30E35A7 
 234      7FE6E943 
 234      32D42474 
 234      BD7D
 235 0186 7DAD4AC7 		.ascii	"}\255J\307a\212\222\302\350f\030\3464\366\020WO\334"
 235      618A92C2 
 235      E86618E6 
 235      34F61057 
 235      4FDC
 236 0198 6E62F81C 		.ascii	"nb\370\034\234\355\344|\271\211K\216\302\017\336'\244"
 236      9CEDE47C 
 236      B9894B8E 
 236      C20FDE27 
 236      A4
 237 01a9 88E55212 		.ascii	"\210\345R\022\021\".\322!\261\324\3616\341\220\214\276"
 237      11222ED2 
 237      21B1D4F1 
 237      36E1908C 
 237      BE
 238 01ba 0C40D5C9 		.ascii	"\014@\325\311\005e\004\035oR\376(\216\214|\372\372\306"
 238      0565041D 
 238      6F52FE28 
 238      8E8C7CFA 
 238      FAC6
 239 01cc 62E4D866 		.ascii	"b\344\330f\330db\324\217\024##\001\016\0368+\001\234"
 239      D86462D4 
 239      8F142323 
 239      010E1E38 
 239      2B019C
 240 01df 84EEBEEE 		.ascii	"\204\356\276\356\346\242g\234\234\205e\024\345yj\245"
 240      E6A2679C 
 240      9C856514 
 240      E5796AA5 
 241 01ef C2A31FFD 		.ascii	"\302\243\037\375?P\202q\211\226\264\321\247\374\302"
 241      3F508271 
 241      8996B4D1 
 241      A7FCC2
 242 01fe 36D2F1AA 		.ascii	"6\322\361\252[\200E\373\010\376\325G\237/\210>z4\277"
 242      5B8045FB 
 242      08FED547 
 242      9F2F883E 
 242      7A34BF
 243 0211 8FB2F10A 		.ascii	"\217\262\361\012\277w\374\355c/\\\202\303n\003\250\262"
 243      BF77FCED 
 243      632F5C82 
 243      C36E03A8 
 243      B2
 244 0222 01827F28 		.ascii	"\001\202\177(\276\216wH\360#\027\213\255\343=\254\220"
 244      BE8E7748 
 244      F023178B 
 244      ADE33DAC 
 244      90
 245 0233 ACE86453 		.ascii	"\254\350dS\263\037Q6S\361K\222\243\201\\\351\263\367"
 245      B31F5136 
 245      53F14B92 
 245      A3815CE9 
ARM GAS  /tmp/ccB0KeDD.s 			page 19


 245      B3F7
 246 0245 BE21A94B 		.ascii	"\276!\251K\211\372Q*\037\366\316d\313ErB\224B\202WH"
 246      89FA512A 
 246      1FF6CE64 
 246      CB457242 
 246      94428257 
 247 025a E1E6AF6C 		.ascii	"\341\346\257l\016\266\357\3062\011k!s\375\346e\361A"
 247      0EB6EFC6 
 247      32096B21 
 247      73FDE665 
 247      F141
 248 026c 7EE23E9E 		.ascii	"~\342>\236,\315\"\205\270\265h\026-Q\232Qx\366\361]"
 248      2CCD2285 
 248      B8B56816 
 248      2D519A51 
 248      78F6F15D 
 249 0280 EFA5A71E 		.ascii	"\357\245\247\036mb\221\302p\321\342\015 \025\223M\027"
 249      6D6291C2 
 249      70D1E20D 
 249      2015934D 
 249      17
 250 0291 CA521809 		.ascii	"\312R\030\011>\036H\212\223\004\200\3565\345\005\004"
 250      3E1E488A 
 250      930480EE 
 250      35E50504 
 251 02a1 8A1E11BF 		.ascii	"\212\036\021\277_\343\206\327\362)qs-\0254Yi:R\242\215"
 251      5FE386D7 
 251      F2297173 
 251      2D153459 
 251      693A52A2 
 252 02b6 47A1677A 		.ascii	"G\241gz\344\314+?`d\256Y\274\261\217\0120\364\034\260"
 252      E4CC2B3F 
 252      6064AE59 
 252      BCB18F0A 
 252      30F41CB0 
 253 02ca 81F474F1 		.ascii	"\201\364t\361\274\244\313U@2II$@9?P\356\271\005\246"
 253      BCA4CB55 
 253      40324949 
 253      2440393F 
 253      50EEB905 
 254 02df 07E2C205 		.ascii	"\007\342\302\005\311TX$*+5\371O;\232\235\321\034\333"
 254      C9545824 
 254      2A2B35F9 
 254      4F3B9A9D 
 254      D11CDB
 255 02f2 D08C263B 		.ascii	"\320\214&;\2312\235\214\335^i\200bdZ\266\226\032\031"
 255      99329D8C 
 255      DD5E6980 
 255      62645AB6 
 255      961A19
 256 0305 69CB4A37 		.ascii	"i\313J7k-i;\343h\325{\353j\352\332\310\303H\333\311"
 256      6B2D693B 
 256      E368D57B 
 256      EB6AEADA 
 256      C8C348DB 
 257 031a 83AD3BAC 		.ascii	"\203\255;\254\312&P[\365\303G\222U\177\360I\266e\264"
 257      CA26505B 
ARM GAS  /tmp/ccB0KeDD.s 			page 20


 257      F5C34792 
 257      557FF049 
 257      B665B4
 258 032d 9ABAFADA 		.ascii	"\232\272\372\332z\315l6\016\037iLj\206\345\230\316\301"
 258      7ACD6C36 
 258      0E1F694C 
 258      6A86E598 
 258      CEC1
 259 033f 946190DF 		.ascii	"\224a\220\337\232\005T|\233&\247\335!=\313\264,\257"
 259      9A05547C 
 259      9B26A7DD 
 259      213DCBB4 
 259      2CAF
 260 0351 ABDF9B38 		.ascii	"\253\337\2338\244;\311\026\333\334\222X\277\015\230"
 260      A43BC916 
 260      DBDC9258 
 260      BF0D98
 261 0360 0D212B69 		.ascii	"\015!+i\245\355vX\367W\367\014\235Go\024\020\277\001"
 261      A5ED7658 
 261      F757F70C 
 261      9D476F14 
 261      10BF01
 262 0373 4F708554 		.ascii	"Op\205T"
 263              		.text
 264              		.section	.gnu.lto_.symbol_nodes.d8b6922a5c869a71,"",%progbits
 265 0000 789C4D8C 		.ascii	"x\234M\214=\016Aa\024Dg\346\276\213]X\352\274(\020\225"
 265      3D0E4161 
 265      144467E6 
 265      BE8B5D58 
 265      EABC2810 
 266 0015 1568ECC2 		.ascii	"\025h\354\302\177\220\350\364ZB\"\261\010\357\205\360"
 266      7F90E8F4 
 266      5A4222B1 
 266      08EF85F0 
 267 0025 4D75CE29 		.ascii	"Mu\316)F\020\346\370NK\032\230\236\001{6f\356\330\020"
 267      4610E6F8 
 267      4E4B1A98 
 267      9E017B36 
 267      66EED810 
 268 0039 B4A2F9AF 		.ascii	"\264\242\371\257Z\323*tCG\241[\272*.\026d\032\334\323"
 268      5AD32A74 
 268      4347A15B 
 268      BA2A2E16 
 268      641ADCD3 
 269 004d F9A9754D 		.ascii	"\371\251uM\036\351\316\317B]\334\206\257~D\017\207\323"
 269      1EE9CECF 
 269      425DDC86 
 269      AF7E440F 
 269      87D3
 270 005f FD9911C2 		.ascii	"\375\231\021\302`\362\270dT\015\214ZH\341\332\002\336"
 270      60F2B864 
 270      540D8C5A 
 270      48E1DA02 
 270      DE
 271 0070 C8AD3225 		.ascii	"\310\2552%"
 272              		.text
 273              		.section	.gnu.lto_.refs.d8b6922a5c869a71,"",%progbits
ARM GAS  /tmp/ccB0KeDD.s 			page 21


 274 0000 789C6362 		.ascii	"x\234cb`b\020e\200\000F bdbbdd\006\322,@\314\012\024"
 274      60621065 
 274      80004620 
 274      62646262 
 274      646406D2 
 275 0019 0200040B 		.ascii	"\002\000\004\013\0004"
 275      0034
 276              		.text
 277              		.section	.gnu.lto_.decls.d8b6922a5c869a71,"",%progbits
 278 0000 789CC55B 		.ascii	"x\234\305[{t\024U\232\257\252\356\244\273I\010\031g"
 278      7B741455 
 278      9AAFAAEE 
 278      A4BB4908 
 278      1967
 279 0012 E464CE7A 		.ascii	"\344d\316z$\316:3\214g%8\353\"\273\347\254\240\314\254"
 279      24CE3A33 
 279      8C672538 
 279      EB22BBE7 
 279      ACA0CCAC 
 280 0026 78CEE851 		.ascii	"x\316\350Q\030\317\316\037\273\266E\247Hz\354\327VW"
 280      18CFCE1F 
 280      BBB645A7 
 280      487AECD7 
 280      5657
 281 0038 0871FF98 		.ascii	"\010q\377\230Jx\212 \021\022\010\022!\020p\000G\005"
 281      4A788A20 
 281      11120812 
 281      21107000 
 281      4705
 282 004a 1C061C5E 		.ascii	"\034\006\034^=\216@\000\005\002\030\304\360\210\010"
 282      3D8E4000 
 282      050218C4 
 282      F08808
 283 0059 3882BC44 		.ascii	"8\202\274DQ$K\366\273_\335\352\256[]\325]\025\334\263"
 283      51244BF6 
 283      BB5FDDEA 
 283      AE5B5DD5 
 283      5D15DCB3 
 284 006d 7552B7EB 		.ascii	"uR\267\353\336\272\367\367\275\357\263\"p\002W\354\341"
 284      DEBAF7F7 
 284      BDEFB322 
 284      700257EC 
 284      E1
 285 007e B83EB8E6 		.ascii	"\270>\270\346\216\342\270\026\037\307\025r\034\367 "
 285      8EE2B816 
 285      1FC71572 
 285      1CF720
 286 008d 97B9A088 		.ascii	"\227\271\240\210[\006\367\223<\307\375\006\356\247\341"
 286      5B06F793 
 286      3CC7FD06 
 286      EEA7E1
 287 009c 9E007718 		.ascii	"\236\000w\030\356(\334\002\274{\016~\017\362\034s\221"
 287      EE28DC02 
 287      BC7B0E7E 
 287      0FF21C73 
 287      91
 288 00ad 36C570B7 		.ascii	"6\305p\267\303]B\237I\225\315p{\240Q\001\334\015P\360"
ARM GAS  /tmp/ccB0KeDD.s 			page 22


 288      C35D429F 
 288      4995CD70 
 288      7BA05101 
 288      DC0D50F0 
 289 00c1 DF70FBE0 		.ascii	"\337p\373\340\231\207\337\025\344\035\334\365\360\374"
 289      9987DF15 
 289      E41DDCF5 
 289      F0FC
 290 00cf 02AF3528 		.ascii	"\002\2575(\244X~\250S\014\367 \270\313\340\376;A\303"
 290      A4587EA8 
 290      530CF720 
 290      B8CBE0FE 
 290      3B41C3
 291 00e2 7BCE4497 		.ascii	"{\316D\227\36090\017]B\347NJ\237\320\035\002\317\277"
 291      F039300F 
 291      5D42E74E 
 291      4A9FD01D 
 291      02CFBF
 292 00f5 E535DA27 		.ascii	"\3455\332')}\322\310G\361\254h\207i\375\247\340\267"
 292      297DD2C8 
 292      47F1AC68 
 292      8769FDA7 
 292      E0B7
 293 0107 5CC8E683 		.ascii	"\\\310\346\203\350\3526\023\037\247\341\366:\324\303"
 293      E8EA3613 
 293      1FA7E1F6 
 293      3AD4C3
 294 0116 4FE03906 		.ascii	"O\3409\006\317?\205\337q|\266^\002\224\206\235n\210"
 294      CF3F85DF 
 294      717CB65E 
 294      0294869D 
 294      6E88
 295 0128 6D9EA4ED 		.ascii	"m\236\244\355\376\203\327\370\033*\260<\022[\226\364"
 295      FE83D7F8 
 295      1B2AB03C 
 295      125B96F4 
 296 0138 C346763C 		.ascii	"\303Fv<\371)\246\035OOR\177y\206\317\326\027\361\251"
 296      F929A61D 
 296      4F4F527F 
 296      7986CFD6 
 296      17F1A9
 297 014b 41265ECE 		.ascii	"A&^\316\177\007\374L\310\303\017i3\221\362\3633\223"
 297      7F07FC4C 
 297      C8C30F69 
 297      3391F2F3 
 297      3393
 298 015d 7E86704B 		.ascii	"~\206pK\324\236\313=;\332\217\362\213\324\324T\265\257"
 298      D49ECB3D 
 298      3BDA8FF2 
 298      8BD4D454 
 298      B5AF
 299 016f EF77FC60 		.ascii	"\357w\374`\256Y\205\253m\272\252\362J\0217KU\033Hfl"
 299      AE5985AB 
 299      6DBAAAF2 
 299      4A11374B 
 299      551B4866 
 300 0184 47C96DDC 		.ascii	"G\311m\334K\344MyG\011\261\214\310\227\004\2706/>\025"
ARM GAS  /tmp/ccB0KeDD.s 			page 23


 300      4BE44D79 
 300      4709B18C 
 300      C89704B8 
 300      362F3E15 
 301 0198 07B85F00 		.ascii	"\007\270_\000\334\217\271\025\252\332\330\263\360\177"
 301      DC8FB915 
 301      AADAD8B3 
 301      F07F
 302 01a6 0E7954D5 		.ascii	"\016yT\325/\362+\370\333@\035cy\356\036n54lT\325\345"
 302      2FF22BF8 
 302      DB401D63 
 302      79EE1E6E 
 302      35346C54 
 303 01bc F798B482 		.ascii	"\367\230\264\202W^`\201x\202\310\257\002<\221\377=\177"
 303      575E6081 
 303      7882C8AF 
 303      023C91FF 
 303      3D7F
 304 01ce 8F4649ED 		.ascii	"\217FI\355i\236q\274\201\257\007F\265w\034}kq\335\305"
 304      699E71BC 
 304      81AF0746 
 304      B5771C7D 
 304      6B71DDC5 
 305 01e2 B54183D4 		.ascii	"\265A\203\324\327{Zy\265\355\035\336\202\342h\235\240"
 305      D77B5A79 
 305      B5ED1DDE 
 305      82E2689D 
 305      A0
 306 01f3 DF20C9B2 		.ascii	"\337 \311\2629\217\242$\177@I\246\360<C\201\242\264"
 306      398FA224 
 306      7F4049A6 
 306      F03C4381 
 306      A2B4
 307 0205 8DB68311 		.ascii	"\215\266\203\021\270\371\330\344\315,\306w\355\327\031"
 307      B8F9D8E4 
 307      CD2CC677 
 307      EDD719
 308 0214 7FD301E3 		.ascii	"\177\323\001\343\015\251\316Y\257\374\2200.\362\355"
 308      0DA9CE59 
 308      AFFC9030 
 308      2EF2ED
 309 0223 7C11E0AE 		.ascii	"|\021\340\256H\343R\272\345:]/\307\351\217\332E+\260"
 309      48E352BA 
 309      E53A5D2F 
 309      C7E98FDA 
 309      452BB0
 310 0236 7807F714 		.ascii	"x\007\367\0247\212:\330j\327`\345V\254j\227QZ\221_\307"
 310      378A3AD8 
 310      6AD760E5 
 310      56AC6A97 
 310      515A915F 
 311 024b FF18D2F5 		.ascii	"\377\030\322\365\374]\220\376\021\322\364%po\360\272"
 311      FC5D90FE 
 311      11D2F425 
 311      706FF0BA 
 312 025b 4DAD5497 		.ascii	"M\255T\227_\204\353{ZQ%\001nf\306G9K\021\2509\217\276"
 312      5F84EB7B 
ARM GAS  /tmp/ccB0KeDD.s 			page 24


 312      5A512501 
 312      6E66C647 
 312      394B11A8 
 313 0272 F06E273F 		.ascii	"\360n'?\005\265\276\011\232\011\334\005\223A\235Cu\317"
 313      05B5BE09 
 313      9A09DC05 
 313      93419D43 
 313      75CF
 314 0284 3D7C856F 		.ascii	"=|\205o@\250\315\010uX`\241D\336\027\340\014\027\346"
 314      40A8CD08 
 314      755860A1 
 314      44DE17E0 
 314      0C17E6
 315 0297 F50A04CF 		.ascii	"\365\012\004\317\027\310<\220\361i\020\347\266\272\300"
 315      17C83C90 
 315      F16910E7 
 315      B6BAC0
 316 02a6 1D174C2A 		.ascii	"\035\027L*\2642\234\337N\205\304\015O\314\343\347OQ"
 316      B4329CDF 
 316      4E85C40D 
 316      4FCCE3E7 
 316      4F51
 317 02b8 3B86EBAE 		.ascii	";\206\353\256\\h'\267\300\235Bb)\263+o?\362\236\356"
 317      5C6827B7 
 317      C09D4262 
 317      29B32B6F 
 317      3FF29EEE 
 318 02cc CA2947AE 		.ascii	"\312)G\256\274a\317B\264[\336\276E\320\351\337\215\364"
 318      BC61CF42 
 318      B45BDEBE 
 318      45D0E9DF 
 318      8DF4
 319 02de 177908FD 		.ascii	"\027y\010\375\035f\372\213\273\217M\243\364w8\242\377"
 319      1D66FA8B 
 319      BB8F4DA3 
 319      F47738A2 
 319      FF
 320 02ef F691A66C 		.ascii	"\366\221\246l\372\"\377\340\355\271\354\275\375\310"
 320      FA22FFE0 
 320      EDB9ECBD 
 320      FDC8
 321 02fd D92B94CA 		.ascii	"\331+\224\312n\214\231C\036\263\275G\025\261\006\204"
 321      6E8C9943 
 321      1EB3BD47 
 321      15B10684 
 322 030d BCA182C0 		.ascii	"\274\241\202\300\035K\363\337\257\220\005A/6\363\363"
 322      1D4BF3DF 
 322      AF900541 
 322      2F36F3F3 
 323 031d 88B1741E 		.ascii	"\210\261t\036N\272F,g4\261\345\010v\002\032\330)'`\266"
 323      4EBA462C 
 323      6734B1E5 
 323      0876021A 
 323      D8292760 
 324 0332 BED490DA 		.ascii	"\276\324\220\332f\004;\343\032\214\345\354\200\021\354"
 324      66043BE3 
 324      1A8CE5EC 
ARM GAS  /tmp/ccB0KeDD.s 			page 25


 324      8011EC
 325 0341 6F4EC04A 		.ascii	"oN\300J\3559;h\004;\357\032\214\345\354\260\021\354"
 325      ED393B68 
 325      043BEF1A 
 325      8CE5ECB0 
 325      11EC
 326 0353 A213B032 		.ascii	"\242\023\2602{\316\272\214`_\270\006c9\373\320\010v"
 326      7BCEBA8C 
 326      605FB806 
 326      6339FBD0 
 326      0876
 327 0365 CD0958B9 		.ascii	"\315\011X\271\005g\351\313\252\035q\353w\371\264\237"
 327      0567E9CB 
 327      AA1D71EB 
 327      77F9B49F 
 328 0375 0BDC758F 		.ascii	"\013\334u\217\336'\270\364i.\203\321\353q\333\2111r"
 328      DE27B8F4 
 328      692E83D1 
 328      EB71DB89 
 328      3172
 329 0387 43277672 		.ascii	"C'vr\271\326\211\351\343\231\352u\200\230\303a\032\367"
 329      B9D689E9 
 329      E399EA75 
 329      8098C361 
 329      1AF7
 330 0399 1A06C7E9 		.ascii	"\032\006\307\351\256\301X\263,!`L_CG\231\236\225\251"
 330      AEC158B3 
 330      2C21604C 
 330      5F434799 
 330      9E95A9
 331 03ac B2964C77 		.ascii	"\262\226Lw\347\327\261\310\014I\353\333`\302$\244+\253"
 331      E7D7B1C8 
 331      0C49EBDB 
 331      60C224A4 
 331      2BAB
 332 03be 6565D675 		.ascii	"ee\326uE\376,\016\262\237\362\2014\027\332\263\376\324"
 332      45FE2C0E 
 332      B29FF281 
 332      3417DAB3 
 332      FED4
 333 03d0 87D3D2D9 		.ascii	"\207\323\322\331^\253\271\027\002\344nj\347\011\247"
 333      5EABB917 
 333      02E46E6A 
 333      E709A7
 334 03df 8D9EF092 		.ascii	"\215\236\360\222\0235\345\010\205\003vjJMWg\362\365"
 334      1335E508 
 334      8503766A 
 334      4A4D5767 
 334      F2F5
 335 03f1 EBEEC839 		.ascii	"\353\356\3109Q\333~\344\3422:\034\177\216\303\361\002"
 335      51DB7EE4 
 335      E2323A1C 
 335      7F8EC3F1 
 335      02
 336 0402 AFE5C8EE 		.ascii	"\257\345\310\356\010\254{n\357_\3504\341\022\202-\363"
 336      08AC7B6E 
 336      EF5FE834 
ARM GAS  /tmp/ccB0KeDD.s 			page 26


 336      E112822D 
 336      F3
 337 0413 9AFBFA80 		.ascii	"\232\373\372\200il\017\260\203u \220y\350\323/V\373"
 337      696C0FB0 
 337      83752090 
 337      79E8D32F 
 337      56FB
 338 0425 8EDBD869 		.ascii	"\216\333\330i\377\274Q\373k\\k\337\034C\327\346\361"
 338      FFBC51FB 
 338      6B5C6BDF 
 338      1C43D7E6 
 338      F1
 339 0436 571BD496 		.ascii	"W\033\324\226\341\006\177\313\351\2340\233\332\273\355"
 339      E1067FCB 
 339      E99C309B 
 339      DABBED
 340 0445 5F7172FC 		.ascii	"_qr\374%*i\235\265\306\035\000u\317}\275\002\201\276"
 340      252A699D 
 340      B5C61D00 
 340      75CF7DBD 
 340      0281BE
 341 0458 46A03F67 		.ascii	"F\240?gi\2337i\233g5\227vX\352\257n\352\012\334;f\325"
 341      699B3769 
 341      9B673597 
 341      7658EAAF 
 341      6EEA0ADC 
 342 046f 312CE6E8 		.ascii	"1,\346\350)\323\252\353u\257\272\027\250\352zQ\342\216"
 342      29D3AAEB 
 342      75AFBA17 
 342      A8EA7A51 
 342      E28E
 343 0481 2C89BF76 		.ascii	",\211\277v)\262\300\035p-\206\237\025cF_?\304\330\256"
 343      29B2C01D 
 343      702D869F 
 343      1563465F 
 343      3FC4D8AE 
 344 0495 89512F10 		.ascii	"\211Q/\0201\272\276\0031N\270\026\243\324 \006.\254"
 344      31BABE03 
 344      314EB816 
 344      A3D42006 
 344      2EAC
 345 04a7 9AB4C1E0 		.ascii	"\232\264\301\340\373\334\274\3343Z\302\317t\341\373"
 345      FBDCBCDC 
 345      335AC2CF 
 345      74E1FB
 346 04b6 CC6C32F5 		.ascii	"\314l2\365\301>\276\\+\316\277\230\274\272\317\260\000"
 346      C13EBE5C 
 346      2BCEBF98 
 346      BCBACFB0 
 346      00
 347 04c7 511D2D40 		.ascii	"Q\035-@\366\246\027 \317\243\312>\261\012\032GP\335"
 347      F6A61720 
 347      CFA3CA3E 
 347      B10A1A47 
 347      50DD
 348 04d9 FBF777D2 		.ascii	"\373\367w\322\036o6B}\226\245\375B\223\362\013Y\345"
 348      1E6F3642 
ARM GAS  /tmp/ccB0KeDD.s 			page 27


 348      7D96A5FD 
 348      4293F20B 
 348      59E5
 349 04eb 4396D0FA 		.ascii	"C\226\320\372\006\373\231\337\321\022\222\361q\375n"
 349      06FB99DF 
 349      D11292F1 
 349      71FD6E
 350 04fa 27705790 		.ascii	"'pW\220\015\242\300\376\314r\311\222\376\364|}4\327"
 350      0DA2C0FE 
 350      CC72C992 
 350      FEF47C7D 
 350      34D7
 351 050c 74F4CD2D 		.ascii	"t\364\315-!6\244\226\316\325\227\316\243\310x^_pkp["
 351      2136A496 
 351      CED597CE 
 351      A3C8785E 
 351      5F706B70 
 352 0521 F69B072A 		.ascii	"\366\233\007*\323Bb\205M/\254\357)\254\233\375\017\030"
 352      D3426285 
 352      4D2FACEF 
 352      29AC9BFD 
 352      0F18
 353 0533 340B04C2 		.ascii	"4\013\004\302\316\314\002\263\331\332y\323B\202\024"
 353      CECC02B3 
 353      D9DA79D3 
 353      428214
 354 0542 18AAD8F9 		.ascii	"\030\252\330\371r\263`\030\020\026\337\222\224$\216"
 354      72B36018 
 354      1016DF92 
 354      94248E
 355 0551 BE329961 		.ascii	"\2762\231a\331-\352\355:5C\276e\3373:V1\012\262\032"
 355      D92DEAED 
 355      3A3543BE 
 355      65DF333A 
 355      56310AB2 
 356 0566 C92E114C 		.ascii	"\311.\021L\253\276\343\347{\246S\367'\357\362\007k\367"
 356      ABBEE3E7 
 356      7BA653F7 
 356      27EFF207 
 356      6BF7
 357 0578 99803AAF 		.ascii	"\231\200:\257X\333\311\021\371?\361\002E\265\232\007"
 357      58DBC911 
 357      F93FF102 
 357      45B59A07 
 358 0588 E4554FEA 		.ascii	"\344UO\352\204\3241\334M\330\357\324\303\276]\353)\263"
 358      84D431DC 
 358      4DD8EFD4 
 358      C3BE5DEB 
 358      29B3
 359 059a 8C4E6298 		.ascii	"\214Nb\2301\272\253\240;\226V\222\323)\264\371\262s"
 359      31BAABA0 
 359      3B965692 
 359      D329B4F9 
 359      B273
 360 05ac AA578C4E 		.ascii	"\252W\214N\325sk.\000N\265s\205\346T\371\234@\345\215"
 360      D5736B2E 
 360      004EB573 
ARM GAS  /tmp/ccB0KeDD.s 			page 28


 360      85E654F9 
 360      9C40E58D 
 361 05c0 336B81FB 		.ascii	"3k\201\373\024)\2571{A\347\245\216\031tU\276\306\221"
 361      1429AF31 
 361      7B41E7A5 
 361      8E197455 
 361      BEC691
 362 05d3 177C65E1 		.ascii	"\027|e\341\005k\372\351\005\340\322\237\355\346\021"
 362      056BFAE9 
 362      05E0D29F 
 362      EDE611
 363 05e2 4E5B2934 		.ascii	"N[)4\026\362,\234\313\025t\257\344V1\232\177\245\216"
 363      16F22C9C 
 363      CB1574AF 
 363      E456319A 
 363      7FA58E
 364 05f5 9E2183D6 		.ascii	"\236!\203\326z\201\354Q.(4\273\226\246\031\203ke\324"
 364      7A81EC51 
 364      2E2834BB 
 364      96A61983 
 364      6B65D4
 365 0608 088A10C8 		.ascii	"\010\212\020\310\322\341u\201\354\317\275\201\351Z\301"
 365      D2E17581 
 365      ECCFBD81 
 365      E95AC1
 366 0617 B04B67E7 		.ascii	"\260Kg\347\026\3532n!\362o\231\325\350t\001\227\227"
 366      16EB326E 
 366      21F26F99 
 366      D5E87401 
 366      9797
 367 0629 CC6AA3F7 		.ascii	"\314j\243\367-)\2745\357k\332\265\317Kv\271=.6\014\367"
 367      2D29BC35 
 367      EF6BDAB5 
 367      CF4B76B9 
 367      3D2E360C 
 368 063e EED00377 		.ascii	"\356\320\003w#\006\356\312,\355n6Oq\234\354\333\255"
 368      2306EECA 
 368      2CED6E36 
 368      4F719CEC 
 368      DBAD
 369 0650 EBAF28E9 		.ascii	"\353\257(\351K\3406\025:\230\362\227[h==\320v59\334"
 369      4BE03615 
 369      3A98F297 
 369      5B683D3D 
 369      D0763539 
 370 0665 FBD347AE 		.ascii	"\373\323G\2563\263\307\342\310\265\025=\355\317&]8\330"
 370      33B3C7E2 
 370      C8B5153D 
 370      EDCF265D 
 370      38D8
 371 0677 42DC8D4D 		.ascii	"B\334\215MR\3460n\236\221\331Bt\020\306\015\251\267"
 371      52E6306E 
 371      9E91D942 
 371      7410C60D 
 371      A9B7
 372 0689 98DD70DD 		.ascii	"\230\335p\335\003S\271=0\247>\031\023\246\014\001\362"
 372      0353B93D 
ARM GAS  /tmp/ccB0KeDD.s 			page 29


 372      30A73E19 
 372      13A60C01 
 372      F2
 373 069a 0E06C85F 		.ascii	"\016\006\310_\215A!pG\235\350~\250\235+B7tP;\206\320"
 373      8D412170 
 373      479DE87E 
 373      A89D2B42 
 373      3774503B 
 374 06b0 0F163E36 		.ascii	"\017\026>6\343YuD\014\236\321\226\015\251\306C\270a"
 374      E3597544 
 374      0C9ED196 
 374      0DA9C643 
 374      B861
 375 06c2 A1F9E839 		.ascii	"\241\371\3509'\314\015\267\007[:_W\356j\234\241\\u\202"
 375      27CC0DB7 
 375      075B3A5F 
 375      57EE6A9C 
 375      A15C7582 
 376 06d6 37D24ED8 		.ascii	"7\322N\330\206\324\306C\255\024O\333t\277\341\032\217"
 376      86D4C643 
 376      AD144FDB 
 376      74BFE11A 
 376      8F
 377 06e7 E5EF83F9 		.ascii	"\345\357\203\371\314|n\252\317\001\334h\307\266\317"
 377      CC7C6EAA 
 377      CF01DC68 
 377      C7B6CF
 378 06f6 9C314197 		.ascii	"\2341A\227\206\373*\257\341\341\305FL\267cz\022\323"
 378      86FB2AAF 
 378      E1E1C546 
 378      4CB7637A 
 378      12D3
 379 0708 8F31FD04 		.ascii	"\2171\375\004\323s\230^\305\364\006\246*v\246\3230\335"
 379      D373985E 
 379      C5F406A6 
 379      2A76A6D3 
 379      30DD
 380 071a 82E90E4C 		.ascii	"\202\351\016Lwa\272\033\323\275\230\276\357\244\303"
 380      7761BA1B 
 380      D3BD98BE 
 380      EFA4C3
 381 0729 7538075C 		.ascii	"u8\007\\\316\017\246OOytg\235\345c\343\224\343~\302"
 381      CE0FA64F 
 381      4F797467 
 381      9DE563E3 
 381      94E37EC2 
 382 073d AD241D22 		.ascii	"\255$\035\"\036\3735\245\274\372\224S\344\227\361Cl"
 382      1EFB35A5 
 382      BCFA9453 
 382      E497F143 
 382      6C
 383 074e A0F1F57E 		.ascii	"\240\361\365~\2019?\324N\017S\275{\212\033\353{\372"
 383      81393FD4 
 383      4E0F53BD 
 383      7B8A1BEB 
 383      7BFA
 384 0760 FA863027 		.ascii	"\372\2060'\207\032\250\035\237\007\005\215O\017\036"
ARM GAS  /tmp/ccB0KeDD.s 			page 30


 384      871AA81D 
 384      9F07058D 
 384      4F0F1E
 385 076f 97A6E5D3 		.ascii	"\227\246\345\323\231F\276\027\233\370\276\233kW\325"
 385      9946BE17 
 385      9BF8BE9B 
 385      6B57D5
 386 077e 79EA6269 		.ascii	"y\352bi\254>\340\276\2065:\005k\246\3233iM\\u\343\351"
 386      AC3EE0BE 
 386      86353A05 
 386      6BA6D333 
 386      694D5C75 
 387 0794 27C66644 		.ascii	"'\306fD\265kE\031<\234-j[O\252i\237{Q\217\232E=\235"
 387      B56B4519 
 387      3C9C2D6A 
 387      5B4FAA69 
 387      9F7B518F 
 388 07ac 2DEA1BD6 		.ascii	"-\352\033\326\242n&\242j\325?\303\036\356C[QO\347\020"
 388      A26E26A2 
 388      6AD53FC3 
 388      1EEE435B 
 388      514FE710 
 389 07c0 D5AE1565 		.ascii	"\325\256\025e\260\333R\324ouQ5c\011\334\273"
 389      B0DB52D4 
 389      6F755135 
 389      6309DCBB 
 390 07d0 D63C6ED5 		.ascii	"\326<n\325\315!\362]\002\341\361D\277\314a\327\212\362"
 390      CD21F25D 
 390      02E1F144 
 390      BFCC61D7 
 390      8AF2
 391 07e2 78D292C7 		.ascii	"x\322\222\307/\367\2737\307'fs\234\3176\307qkQ\217\022"
 391      2FF7BB37 
 391      C7276673 
 391      9CCF36C7 
 391      716B518F 
 392 07f7 51CFA3E7 		.ascii	"Q\317\243\347}\2135N\331\212z>\207\250v\255(\203g,\202"
 392      7D8B354E 
 392      D98A7A3E 
 392      87A876AD 
 392      2883672C 
 393 080c ACB1E746 		.ascii	"\254\261\347F_jT\313zu\352\363\352M\363\031\275\355"
 393      5F6A54CB 
 393      7A75EAF3 
 393      EA4DF319 
 393      BDED
 394 081e D115413B 		.ascii	"\321\025A;\347 \320\226\371\315\035\204V\365s\013N\326"
 394      E720D096 
 394      F9CD1D84 
 394      56F5730B 
 394      4ED6
 395 0830 F66C6DFF 		.ascii	"\366lm\3778\264H}\207|,\320W\246\036Xkf\306\033\260"
 395      38B4487D 
 395      877C2CD0 
 395      57A61E58 
 395      6B66C61B 
 396 0845 6006C90B 		.ascii	"`\006\311\013\334\234\000\237\201\277h\025\030L\206"
ARM GAS  /tmp/ccB0KeDD.s 			page 31


 396      DC9C009F 
 396      81BF6815 
 396      184C86
 397 0854 E3CCAC36 		.ascii	"\343\314\2546\007\214\254R\324VD\245\231\025:\011\232"
 397      078CAC52 
 397      D45644A5 
 397      99153A09 
 397      9A
 398 0865 5F9D2169 		.ascii	"_\235!iu\375\210[F\324\333<\343\203]\374<\265\255\003"
 398      75FD885B 
 398      46D4DB3C 
 398      E3835DFC 
 398      3CB5AD03 
 399 0879 06675860 		.ascii	"\006gX`\015\261:\216\364\351\342(\234\341\003\201\271"
 399      0DB13A8E 
 399      F4E9E228 
 399      9CE10381 
 399      B9
 400 088a FF8253A2 		.ascii	"\377\202S\242\0338%z#\300j2/\014\314\242\260\311\315"
 400      1B38257A 
 400      23C06A32 
 400      2F0CCCA2 
 400      B0C9CD
 401 089d EC29D189 		.ascii	"\354)\321\211\351tJt\323\321\312\346\245n\333/\033z"
 401      E9744A74 
 401      D3D1CAE6 
 401      A56EDB2F 
 401      1B7A
 402 08af D26B863B 		.ascii	"\322k\206;\014\234o\235\363 r\336\340!\234\277\233\237"
 402      0C9C6F9D 
 402      F32072DE 
 402      E0219CBF 
 402      9B9F
 403 08c1 731646E0 		.ascii	"s\026F\340:\261\3114O\026\347\027\364\363X\362.?\347"
 403      3AB1C934 
 403      4F16E717 
 403      F4F358F2 
 403      2E3FE7
 404 08d4 1B8F1827 		.ascii	"\033\217\030'C\372\252\214\264\355\337\252l\223v\016"
 404      43FAAA8C 
 404      B4EDDFAA 
 404      6C93760E 
 405 08e4 B609F71A 		.ascii	"\266\011\367\032\267\231\301\\\255\311T\375\210T;\365"
 405      B799C15C 
 405      ADC954FD 
 405      88543BF5 
 406 08f4 3EE11AAC 		.ascii	">\341\032\254\234\341\354\320Bv\332\332\343\004/\307"
 406      9CE1ECD0 
 406      4276DADA 
 406      E3042FC7 
 407 0904 39153D8B 		.ascii	"9\025=\213\324\300N\271\006c\231\373\350\210\341\320"
 407      D4C04EB9 
 407      066399FB 
 407      E888E1D0 
 408 0914 EB64DAB6 		.ascii	"\353d\332\2669\300\254Ns\254.\243\223\210\374\014\017"
 408      39C0AC4E 
 408      73AC2EA3 
ARM GAS  /tmp/ccB0KeDD.s 			page 32


 408      9388FC0C 
 408      0F
 409 0925 9954CDF4 		.ascii	"\231T\315\364\220\251\317\363\230\316\302\364\005Lg"
 409      90A9CFF3 
 409      98CEC2F4 
 409      054C67
 410 0934 633AC7C3 		.ascii	"c:\307\303L\267?M\307\210\245+\346s\0115\265\310>8\230"
 410      4CB73F4D 
 410      C788A52B 
 410      E6730935 
 410      B5C83E38 
 411 0949 ED263D36 		.ascii	"\355&=6\336~\3617\030\033/al\\\310\037\033\246M\253"
 411      DE7EF137 
 411      181B2F61 
 411      6C5CC81F 
 411      1BA64DAB 
 412 095d 2903488B 		.ascii	")\003H\213\246\254\320\330\325\245\207F\223\203\320"
 412      A6ACD0D8 
 412      D5A58746 
 412      9383D0
 413 096c 68481D5F 		.ascii	"hH\035_\340l\317\254-\255\217\037\030\244X\371\242\366"
 413      E06CCFAC 
 413      2DAD8F1F 
 413      18A458F9 
 413      A2F6
 414 097e F1D22294 		.ascii	"\361\322\"\224\342\345\001\371\373&\006F\340\326`\223"
 414      E2E501F9 
 414      FB260646 
 414      E0D66093 
 415 098e D66C3176 		.ascii	"\326l1v\352b\264:\022\343\225\005\272\337\267x2\313"
 415      EA62B43A 
 415      12E39505 
 415      BADFB778 
 415      32CB
 416 09a0 B5D6DCDE 		.ascii	"\265\326\334\336ek\316\206\324\222.tU\015l\203k0\326"
 416      656BCE86 
 416      D4922E74 
 416      550D6C83 
 416      6B30D6
 417 09b3 EFD775B5 		.ascii	"\357\327u\265\226\251m\177\321?#R\247\253CWeTR\252#"
 417      96A96D7F 
 417      D13F2352 
 417      A7AB4357 
 417      655452AA 
 418 09c8 0806C56E 		.ascii	"\010\006\305n8$\240b\227{H\371f\223b\235\003u\317\335"
 418      3824A062 
 418      977B48F9 
 418      6693629D 
 418      0375CFDD 
 419 09dc 38128156 		.ascii	"8\022\201V\"\320\016\023\220\310{L{\013\036vo\301\023"
 419      22D00E13 
 419      90C87B4C 
 419      7B0B1E76 
 419      6FC113
 420 09ef C83CF4F5 		.ascii	"\310<\364\365y8w\225\005n_\332\276VL\346\353\034\311"
 420      79387795 
 420      056E5FDA 
ARM GAS  /tmp/ccB0KeDD.s 			page 33


 420      BE564CE6 
 420      EB1CC9
 421 0a02 7EDE7BCD 		.ascii	"~\336{\315\026\373y\316g'\257yLS\200Q\246\311\211UC"
 421      16FB79CE 
 421      6727AF79 
 421      4C538051 
 421      A6C98955 
 422 0a17 DD0A57E6 		.ascii	"\335\012W\346\014E\345\255\361\220\036\353\260Iy\246"
 422      0C45E5AD 
 422      F1901EEB 
 422      B04979A6 
 423 0a27 4D7942C9 		.ascii	"MyB\311\216\2137=E6.\234\365\016\346\206f\235\271\033"
 423      8E8B373D 
 423      45362E9C 
 423      F50EE686 
 423      669DB91B 
 424 0a3b 034067EF 		.ascii	"\003@g\357\257\3247\326q\375z\312\011\240\325 `u\031"
 424      AFD437D6 
 424      71FD7ACA 
 424      09A0D520 
 424      607519
 425 0a4e A355E497 		.ascii	"\243U\344\227`W\273\024\273\3246L\227a\272\032\323u"
 425      6057BB14 
 425      BBD4364C 
 425      9761BA1A 
 425      D375
 426 0a60 C64ED64E 		.ascii	"\306N\326N7$\306\322\330Z\3346\365;n/g\307\255\0330"
 426      3724C6D2 
 426      D85ADC36 
 426      F53B6E2F 
 426      67C7AD1B 
 427 0a75 4691A9AF 		.ascii	"F\221\251\257h\334ja\010\013w\217\011\317\2353\247\232"
 427      68DC6A61 
 427      080B778F 
 427      09CF9D33 
 427      A79A
 428 0a87 16161F78 		.ascii	"\026\026\037xF\217\351\263\351\016\334)Xi.\2434\031"
 428      468FE9B3 
 428      E90EDC29 
 428      58692EA3 
 428      3419
 429 0a99 8CB2008D 		.ascii	"\214\262\000\215\262\020M\360\026\246\177\304t\003;"
 429      B2104DF0 
 429      16A67FC4 
 429      74033B
 430 0aa8 E65D1A60 		.ascii	"\346]\032`\032\363\230!\306j\0046\252GM\255\355\006"
 430      1AF39821 
 430      C66A0436 
 430      AA474DAD 
 430      ED06
 431 0aba 5D3BDED9 		.ascii	"];\336\331\273\360\242\266\263\3676\016\025\327\254"
 431      BBF0A2B6 
 431      B3F7360E 
 431      15D7AC
 432 0ac9 878A5C3B 		.ascii	"\207\212\\;{\323\212H\223-\331\223\301\233\372P\261"
 432      7BD38A48 
 432      932DD993 
ARM GAS  /tmp/ccB0KeDD.s 			page 34


 432      C19BFA50 
 432      B1
 433 0ada 25FF5031 		.ascii	"%\377P1uJj\321\313\257fF\274)\351\360=\303[\255*4\345"
 433      754A6AD1 
 433      CBAF6646 
 433      BC29E9F0 
 433      3DC35BAD 
 434 0af1 329FA134 		.ascii	"2\237\2414\247\371p\351\242\326\206\333b0\33464\334"
 434      A7F970E9 
 434      A2D686DB 
 434      6230DC36 
 434      34DC
 435 0b03 76D64C4B 		.ascii	"v\326LK\213Lfr\271\023\370v\267>\371\325>\226n7\343"
 435      8B4C6672 
 435      B913F876 
 435      B73EF9D5 
 435      3E966E37 
 436 0b18 B5311F42 		.ascii	"\2651\037B[\001\262v?\350\306\356[7\177\366\000\332"
 436      5B01B276 
 436      3FE8C6EE 
 436      5B377FF6 
 436      00DA
 437 0b2a 7D27DAFD 		.ascii	"}'\332\375\375\"\227v'*\332m\262y\352\212T\256\225\346"
 437      FD229776 
 437      272ADA6D 
 437      B279EA8A 
 437      54AE95E6 
 438 0b3e 9F185C3F 		.ascii	"\237\030\\?\203\007(n6\344\267h_\034\274\207az\242\310"
 438      8307286E 
 438      36E4B768 
 438      5F1CBC87 
 438      617AA2C8 
 439 0b52 3C62F66B 		.ascii	"<b\366k;\376,\302\354\376\256\234f\267\301i\366\240"
 439      3BFE2CC2 
 439      ECFEAE9C 
 439      66B7C169 
 439      F6A0
 440 0b64 D3EC659D 		.ascii	"\323\354e\235\346\202\023\247I8\246w\323\260]\255\""
 440      E68213A7 
 440      4938A677 
 440      D3B05DAD 
 440      22
 441 0b75 BD7AEC51 		.ascii	"\275z\354Q\0321\335\204\351_1\335\301\362q9\255>\335"
 441      1A31DD84 
 441      E95F31DD 
 441      C1F27139 
 441      AD3EDD
 442 0b88 D998C529 		.ascii	"\331\230\305)n\223y\322{\000d\251\2746\325s\346\\\217"
 442      6E9379D2 
 442      7B0064A9 
 442      BC36D573 
 442      E65C8F
 443 0b9b 504FFE59 		.ascii	"PO\376Y@\355\205\225\262>\245\006s\362\206\331\316\332"
 443      40ED8595 
 443      B23EA506 
 443      73F286D9 
 443      CEDA
ARM GAS  /tmp/ccB0KeDD.s 			page 35


 444 0bad F44C7270 		.ascii	"\364Lrp\306xG\266_/#\207)\372\314\323\266\276\310\037"
 444      C67847B6 
 444      5F2F2387 
 444      29FACCD3 
 444      B6BEC81F 
 445 0bc1 0631F256 		.ascii	"\0061\362V#\025\273\314\336w\224x_\227\243\205g\367"
 445      2315BBCC 
 445      DE779478 
 445      5F97A385 
 445      67F7
 446 0bd3 577E757A 		.ascii	"W~uz\361\367\270F\024`t\231\366\305\233\235\237\037"
 446      F1F7B846 
 446      14607499 
 446      F6C59B9D 
 446      9F1F
 447 0be5 F57C0F9F 		.ascii	"\365|\017\237\230c_\254a\327\342#O\346\253\272\342@"
 447      98635FAC 
 447      61D7E223 
 447      4FE6ABBA 
 447      E240
 448 0bf7 E6419FDE 		.ascii	"\346A\237\336\010\\K1Oe\350\337\200z\354?[\206\353\237"
 448      085C4B31 
 448      4F65E8DF 
 448      807AEC3F 
 448      5B86EB9F 
 449 0c0b 4DB59BB1 		.ascii	"M\265\233\261\254\276\234a\260\312\031\254\023\006\254"
 449      ACBE9C61 
 449      B0CA19AC 
 449      1306AC
 450 0c1a 55AEB186 		.ascii	"U\256\261\2062X\227\305U\303\365Y\355\353f,\253\241"
 450      325897C5 
 450      55C3F559 
 450      EDEB662C 
 450      ABA1
 451 0c2c 94C11ACE 		.ascii	"\224\301\032\316`}a\340k\203\023\276r\214\361_\032\260"
 451      607D61E0 
 451      6B8313BE 
 451      728CF15F 
 451      1AB0
 452 0c3e B6BAC662 		.ascii	"\266\272\306b>\230J]3`\355t\215U\312`}c\300\352t\215"
 452      3E984A5D 
 452      3360ED74 
 452      8D55CA60 
 452      7D63C0EA 
 453 0c54 55C6607D 		.ascii	"U\306`}k\300\372\3105\026\353\023\275\006\254S\256\261"
 453      6BC0FAC8 
 453      3516EB13 
 453      BD06AC53 
 453      AEB1
 454 0c66 589FB869 		.ascii	"X\237\270i\300\372\3345\026\353\023\215;\213\326>\243"
 454      C0FADC35 
 454      16EB138D 
 454      3B8BD63E 
 454      A3
 455 0c77 835D730D 		.ascii	"\203]s\0156\222\001\233g\004\353s\002\226cK\246\311"
 455      3692019B 
 455      6704EB73 
ARM GAS  /tmp/ccB0KeDD.s 			page 36


 455      0296634B 
 455      A6C9
 456 0c89 08367BA0 		.ascii	"\0106{\240[0\326\305\026\030\301\026\270\006c}\254\305"
 456      5B30D6C5 
 456      1618C116 
 456      B806637D 
 456      ACC5
 457 0c9b 08D6E61A 		.ascii	"\010\326\346\032\214u\262\227\215`\253]\203\261^\326"
 457      8C75B297 
 457      8D60AB5D 
 457      83B15ED6 
 458 0cab 6A04DBE0 		.ascii	"j\004\333\340\032l(\307^\372Px\004\207\302\017q\340"
 458      1A6C28C7 
 458      5EFA5078 
 458      0487C20F 
 458      71E0
 459 0cbd 3B86E909 		.ascii	";\206\351\011L{0=\205\351iL\317b\3727L\317a\3729\246"
 459      4C7B303D 
 459      85E9694C 
 459      CF62FA37 
 459      4CCF61FA 
 460 0cd3 1731BD8C 		.ascii	"\0271\275\214\351\027\230~\211\3515L\277\301\364[L{"
 460      E917987E 
 460      89E9354C 
 460      BFC1F45B 
 460      4C7B
 461 0ce5 D98175DB 		.ascii	"\331\201u\333@\363\274D\033\221\014<f\006.\356\377\213"
 461      40F3BC44 
 461      1B910C3C 
 461      66062EEE 
 461      FF8B
 462 0cf7 CB8E3497 		.ascii	"\313\2164\227\266\303k\037\014\377wr\235\003_Q5\317"
 462      B6C36B1F 
 462      0CFF7772 
 462      9D035F51 
 462      35CF
 463 0d09 BC9F7B4B 		.ascii	"\274\237{K\235\231j+\020\371C\310?\341[+\033\255\215"
 463      9D996A2B 
 463      10F943C8 
 463      3FE15B2B 
 463      1BAD8D
 464 0d1c 90E9A020 		.ascii	"\220\351\240 \017d8\215\352E|\272H\324\213\204tQX/\362"
 464      0F64388D 
 464      EA457CBA 
 464      48D48B84 
 464      7451582F 
 465 0d31 A48B621C 		.ascii	"\244\213b\034\325\010)\300Y\235\246\032\232\035LuD\262"
 465      D50829C0 
 465      599DA61A 
 465      9A1D4C75 
 465      44B2
 466 0d43 30CED48F 		.ascii	"0\316\324\217\246\332\242\257\275Tm4+P\375\321\354/"
 466      A6DAA2AF 
 466      BD546D34 
 466      2B50FDD1 
 466      EC2F
 467 0d55 A82269D6 		.ascii	"\250\"i\326O5J\263\305T\2654[JuL\263?\240\312\246\331"
ARM GAS  /tmp/ccB0KeDD.s 			page 37


 467      4F354AB3 
 467      C554B534 
 467      5B4A754C 
 467      B33FA0CA 
 468 0d6b 32AA759A 		.ascii	"2\252u\232\275\203\252\237f\313\251\035hV7\010\315\376"
 468      BD83AA9F 
 468      66CBA91D 
 468      68563708 
 468      CDFE
 469 0d7d 885AC620 		.ascii	"\210Z\306 a\2571\313q\351\311IK\0113;a\306P\322n\212"
 469      61AF31CB 
 469      71E9C949 
 469      4B09333B 
 469      61C650D2 
 470 0d93 D7EDEC64 		.ascii	"\327\355\354d\252\327zv\242\037\227P\322\345&\312#\365"
 470      AAD77A76 
 470      A21F9750 
 470      D2E526CA 
 470      23F5
 471 0da5 7A3E8A33 		.ascii	"z>\2123\3155\345\3516\224\013)e\323\326\315\015\233"
 471      CD35E5E9 
 471      36940B29 
 471      65D3D6CD 
 471      0D9B
 472 0db7 7932819A 		.ascii	"y2\201\232\341M\257\375\310\361T\352rO\363\245+O\377"
 472      E14DAFFD 
 472      C8F154EA 
 472      724FF3A5 
 472      2B4FFF
 473 0dca 61BDAAE2 		.ascii	"a\275\252\342AY\375T\027Ge\317{\263\317\316\033J,\317"
 473      4159FD54 
 473      174765CF 
 473      7BB3CFCE 
 473      1B4A2CCF 
 474 0dde CEE15AA5 		.ascii	"\316\341Z\245z\020\215\324\237\351\035\302\006\367,"
 474      7A108DD4 
 474      9FE91DC2 
 474      06F72C
 475 0ded 6FD6C919 		.ascii	"o\326\311\031\260\366\362\342\017~\250\377\233\355]"
 475      B0F6F2E2 
 475      0F7EA8FF 
 475      9BED5D
 476 0dfc 1A3D1823 		.ascii	"\032=\030#\034Q\230m\2460\307\222\302\361/\256\214\275"
 476      1C51986D 
 476      A630C792 
 476      C2F12FAE 
 476      8CBD
 477 0e0e 9E11FE2E 		.ascii	"\236\021\376.\347\3027zM;q\233\361\370\2049|\353`X\245"
 477      E7C2377A 
 477      4D3B719B 
 477      F1F88439 
 477      7CEB6058 
 478 0e23 E76B5D25 		.ascii	"\347k]%\324a\350!i\347\316\342F^\377\247\310\323\330"
 478      D461E821 
 478      69E7CEE2 
 478      465EFFA7 
 478      C8D3D8
ARM GAS  /tmp/ccB0KeDD.s 			page 38


 479 0e36 62AED7EE 		.ascii	"b\256\327\356\230\224\256\326\250\304W\353\237(KK<\327"
 479      9894AED6 
 479      A8C457EB 
 479      9F284B4B 
 479      3CD7
 480 0e48 2CF13C4B 		.ascii	",\361<K\211\233/uV\033\315\255\253\365\234#\265\266"
 480      899B2F75 
 480      561BCDAD 
 480      ABF59C23 
 480      B5B6
 481 0e5a 98892CB2 		.ascii	"\230\211,\2621\334\205l\303]sDa\261\231B+K\301\344\353"
 481      31DC856C 
 481      C35D7344 
 481      61B19942 
 481      2B4BC1E4 
 482 0e6f 0D364B01 		.ascii	"\0156K\001\322rI\306\327M\255\310!\257]\253\245\231"
 482      D27249C6 
 482      D74DADC8 
 482      21AF5DAB 
 482      A599
 483 0e81 56640177 		.ascii	"Vd\001w\340@\317\216?\255\346g\366\250\215\240\261>"
 483      E040CF8E 
 483      3FADE667 
 483      F6A88DA0 
 483      B13E
 484 0e93 DE18E586 		.ascii	"\336\030\345\206M\026\3663C\333\316\300\\M\344\227\273"
 484      4D16F633 
 484      43DBCEC0 
 484      5C4DE497 
 484      BB
 485 0ea4 EE0DDA6D 		.ascii	"\356\015\332mz\003\343\377\303fj\221\230\034d\372\352"
 485      7A03E3FF 
 485      C3666A91 
 485      981C64FA 
 485      EA
 486 0eb5 C3CC85C0 		.ascii	"\303\314\205\300\2750\210\247\355\006\360Y\332\272\230"
 486      BD3088A7 
 486      ED06F059 
 486      DABA98
 487 0ec4 435BAFDA 		.ascii	"C[\257\332\352\370`\216V\277\317\264\372)\367*YZ.=\330"
 487      EAF8608E 
 487      56BFCFB4 
 487      FA29F72A 
 487      595A2E3D 
 488 0ed9 514FBEC9 		.ascii	"QO\276\3114}\313\255\277W\327\267\225Z\274\344\312\207"
 488      347DCBAD 
 488      BF57D7B7 
 488      955ABCE4 
 488      CA87
 489 0eeb 0DABD0FE 		.ascii	"\015\253\320\376\342\311\012Y\251H\312\241\212P\265"
 489      E2C90A59 
 489      A948CAA1 
 489      8A50B5
 490 0efa 2C558593 		.ascii	",U\205\223\212\\7,\304\335m\252\020\216\205\"5\225\022"
 490      8A5C372C 
 490      C4DD6DAA 
 490      108E8522 
ARM GAS  /tmp/ccB0KeDD.s 			page 39


 490      359512
 491 0f0d 544AD625 		.ascii	"TJ\326%\225\272\204\224\034V\315\371\025h\"V\006\225"
 491      95BA8494 
 491      1C56CDF9 
 491      15682256 
 491      0695
 492 0f1f C2471E7F 		.ascii	"\302G\036\177\252|\014\027\010U\007\265\"3\276\241y"
 492      AA7C0C17 
 492      085507B5 
 492      2233BEA1 
 492      79
 493 0f30 A8BA129A 		.ascii	"\250\272\022\232\016\322\352%\203\377U#\325HA\2454\335"
 493      0ED2EA25 
 493      83FF5523 
 493      D54841A5 
 493      34DD
 494 0f42 94167963 		.ascii	"\224\026yc\322d\305\233\220\245I\005\230\037iD\014\305"
 494      D264C59B 
 494      90A54905 
 494      981F6944 
 494      0CC5
 495 0f54 A3D178AC 		.ascii	"\243\321x\254\"\021\227\225d\305C\343\036\033\363\330"
 495      22119795 
 495      64C543E3 
 495      1E1BF3D8 
 496 0f64 64529608 		.ascii	"dR\226\010G$9Y\361\310\2301@Hg\322\247$\344p<\250<]"
 496      47243959 
 496      F1C89831 
 496      404867D2 
 496      A724E470 
 497 0f7c 511D8F4A 		.ascii	"Q\035\217J\025bD\232\\\361\230\024S\342\362#\262\230"
 497      1562449A 
 497      5CF19814 
 497      53E2F223 
 497      B298
 498 0f8e A80E8792 		.ascii	"\250\016\207\222\025\343\3435rH\222\353\202c\342\225"
 498      15E3E335 
 498      724892EB 
 498      8263E295 
 499 0f9e D2C3     		.ascii	"\322\303"
 500 0fa0 520C78F9 		.ascii	"R\014x\371UX\221\202\023\343r\020\320\203\277|\350\341"
 500      55589182 
 500      13E37210 
 500      D083BF7C 
 500      E8E1
 501 0fb2 472B4439 		.ascii	"G+D9zo,\036\223\356\225\304\011\341\264@I\2452\034S"
 501      7A6F2C1E 
 501      93EE95C4 
 501      09E1B440 
 501      49A5321C 
 502 0fc7 882E6AE0 		.ascii	"\210.j\340\367\037\177\036$<\207\343\305\204\265`(\036"
 502      F71F7F1E 
 502      243C87E3 
 502      C584B560 
 502      281E
 503 0fd9 53408A9F 		.ascii	"S@\212\237\345e\275:\024\227%\000)\302f\000\024R&\337"
 503      E565BD3A 
ARM GAS  /tmp/ccB0KeDD.s 			page 40


 503      14972500 
 503      29C26600 
 503      145226DF 
 504 0fed EBAC5570 		.ascii	"\353\254Up\322\003QB\036l\007\034\006\025A\276_\220"
 504      D2035142 
 504      1E6C071C 
 504      061541BE 
 504      5F90
 505 0fff FF       		.ascii	"\377"
 506 1000 49904708 		.ascii	"I\220G\010\362\003\202<R\220\377\331#\3377\034\356\373"
 506      F203823C 
 506      5290FFD9 
 506      23DF371C 
 506      EEFB
 507 1012 84882C24 		.ascii	"\204\210,$\023\036\200.\210I\265\222\\\020\217TJ\262"
 507      131E802E 
 507      8849B592 
 507      5C108F54 
 507      4AB2
 508 1024 37542DCA 		.ascii	"7T-\312\336\230\030\225\006$\225g\305H\270*\026TP\230"
 508      DE981895 
 508      06249567 
 508      C548B82A 
 508      16545098 
 509 1038 11F78361 		.ascii	"\021\367\203ak\305\011bR\362+IE\004\205(>\362bdP)\300"
 509      6BC50962 
 509      52F22B49 
 509      45048528 
 509      3EF26264 
 510 104f BC4F8982 		.ascii	"\274O\211\202\302 71\"V%}\212,ML\202\002\310OA4Y\005"
 510      C2203731 
 510      2256257D 
 510      8A2C4D4C 
 510      8202C84F 
 511 1067 D5A94E0A 		.ascii	"\325\251N\012\345\312:(\360K\223\303J\010\232\024\326"
 511      E5CA3A28 
 511      F04B93C3 
 511      4A089A14 
 511      D6
 512 1078 2AF109BF 		.ascii	"*\361\011\277M\334F\375\007\032H2\250\235@\325*\212"
 512      4DDC46FD 
 512      071A4832 
 512      A89D40D5 
 512      2A8A
 513 108a 9CF025C1 		.ascii	"\234\360%\301@\320\240\030,\221\224\242`&\220t\210\275"
 513      40D0A018 
 513      2C9194A2 
 513      60269074 
 513      88BD
 514 109c 4F494405 		.ascii	"OID\005\005\241\230\022T<\220\002<\024%\374\320:Z\003"
 514      05A19812 
 514      543C9002 
 514      3C1425FC 
 514      D03A5A03 
 515 10b0 16B06F19 		.ascii	"\026\260o\031U&\223\226\361\332\230$\373\260.\221Y\201"
 515      55269396 
 515      F1DA9824 
ARM GAS  /tmp/ccB0KeDD.s 			page 41


 515      FBB02E91 
 515      5981
 516 10c2 E2449134 		.ascii	"\342D\2214\2110!&\237\205\"\251\226<\3605%\272\217F"
 516      89302126 
 516      9F8522A9 
 516      963CF035 
 516      25BA8F46 
 517 10d6 205082CA 		.ascii	" P\202\312 \203\327\222\022_\255\030V\302\261*?\360"
 517      2083D792 
 517      125FAD18 
 517      56C2B12A 
 517      3FF0
 518 10e8 8E5EEB97 		.ascii	"\216^\353\227\022R\014<\244\312\007\220\244\006\330"
 518      12520C3C 
 518      A4CA0790 
 518      A406D8
 519 10f7 498C100F 		.ascii	"I\214\020\017)\210&\342\361\010\270\3758\251\352\337"
 519      298826E2 
 519      F108B8FD 
 519      38A9EADF 
 520 1107 C27252F9 		.ascii	"\302rR\3715\342\014\302\202\307\301k\264\274\240$n\247"
 520      35E20CC2 
 520      82C7C16B 
 520      B4BCA024 
 520      6EA7
 521 1119 7562955A 		.ascii	"ub\225Z\321\303u\217\203\265\312\262J\237\210\203\266"
 521      D1C3758F 
 521      83B5CAB2 
 521      4A9F8883 
 521      B6
 522 112a 25F98EAC 		.ascii	"%\371\216\254\027\377\036\227\237\005\026\036\202\234"
 522      17FF1E97 
 522      9F05161E 
 522      829C
 523 1138 502BFEBD 		.ascii	"P+\376\275\2552\250$\240\020\320\373\257\253+\307I\021"
 523      AD32A824 
 523      A010D0FB 
 523      AFAB2BC7 
 523      4911
 524 114a 098CFF7F 		.ascii	"\011\214\377\177\02582\360D\342\023\336\305j\"\221B"
 524      153832F0 
 524      44E213DE 
 524      C56A2291 
 524      42
 525 115b 28094513 		.ascii	"(\011E\023\220\005>\342\265^\240=\321\233\250\221\245"
 525      90053EE2 
 525      B55EA03D 
 525      D19BA891 
 525      A5
 526 116c 22E204D0 		.ascii	"\"\342\004\320\351H\340\335\201\364s1\341\265\216\332"
 526      E948E0DD 
 526      81F47331 
 526      E1B58EDA 
 527 117c 61201467 		.ascii	"a \024g\362\276P\215\014\356\244\024\310$w\373\244\260"
 527      F2BE508D 
 527      0CEEA414 
 527      C82477FB 
ARM GAS  /tmp/ccB0KeDD.s 			page 42


 527      A4B0
 528 118e ACD48891 		.ascii	"\254\324\210\221\240\022\216B\357@[\014\206\026\026"
 528      A0128E42 
 528      EF405B0C 
 528      861616
 529 119d 2F063165 		.ascii	"/\0061eZ\267\304\024\005\010ux\2401r\337\010p\331J)"
 529      5AB7C414 
 529      05087578 
 529      A03172DF 
 529      0870D94A 
 530 11b2 A288FE49 		.ascii	"\242\210\376I\312\304\232X\010\334\237\374x\022\242"
 530      CAC49A58 
 530      08DC9FFC 
 530      7812A2
 531 11c1 EC8F8849 		.ascii	"\354\217\210I\205\324-\234\244\020\354\022*D\2454\241"
 531      85D42D9C 
 531      A410EC12 
 531      2A44A534 
 531      A1
 532 11d2 A64AF31D 		.ascii	"\246J\363\035cI !\306\302\241 x\216\247rB\325\200\250"
 532      63492021 
 532      C6C2A120 
 532      788EA772 
 532      42D580A8 
 533 11e6 08F06890 		.ascii	"\010\360h\220;\355\015F\334\276T\211\006C\020\267\023"
 533      3BED0D46 
 533      DCBE5489 
 533      064310B7 
 533      13
 534 11f7 645109C7 		.ascii	"dQ\011\307!x}\262\202\221P\030\23781))\202\022\025B"
 534      21787DB2 
 534      82915018 
 534      9F383129 
 534      29821215 
 535 120c D5F6FD79 		.ascii	"\325\366\375y\272\323\257\346\006\204+Am\341\211a\350"
 535      BAD3AFE6 
 535      06842B41 
 535      6DE18961 
 535      E8
 536 121d 169E93E4 		.ascii	"\026\236\223\344\2707\031~N\362M\002\345\000\260/\241"
 536      B837197E 
 536      4EF24D02 
 536      E500B02F 
 536      A1
 537 122e C824EF27 		.ascii	"\310$\357'\"\221\207\001\324_H\031\220\012\022\257\366"
 537      22918701 
 537      D45F4819 
 537      900A12AF 
 537      F6
 538 123f 9107E861 		.ascii	"\221\007\350a\002\344\027{\031|\302\236\006+\221\216"
 538      02E4177B 
 538      197CC29E 
 538      062B918E 
 539 124f A6983C40 		.ascii	"\246\230<@g\023\011G\303J@\313@o\202O\330\223`M\322"
 539      67130947 
 539      C34A40CB 
 539      406F824F 
ARM GAS  /tmp/ccB0KeDD.s 			page 43


 539      D893604D 
 540 1264 8B1469B8 		.ascii	"\213\024i\270\022\004\263\202\205\2046\370\000U!\011"
 540      1204B382 
 540      858436F8 
 540      00552109 
 541 1274 707C2C1D 		.ascii	"p|,\035&\307+EE\034\246\027\344\350+\352\210\203\003"
 541      26C72B45 
 541      451CA617 
 541      E4E82BEA 
 541      888303
 542 1287 C6F8BAE4 		.ascii	"\306\370\272\344\257\342\241g\003\330\345F\340\351>"
 542      AFE2A167 
 542      03D8E546 
 542      E0E93E
 543 1296 8B0E17E2 		.ascii	"\213\016\027\342\260b\314c\343\037\035\237A\210&\303"
 543      B062CC63 
 543      E31F1D9F 
 543      418826C3 
 544 12a6 C9605528 		.ascii	"\311`U(\004(\003\203\320;)\301\207\037\032\377\313'"
 544      04280383 
 544      D03B29C1 
 544      871F1AFF 
 544      CB27
 545 12b8 C63D3A50 		.ascii	"\306=:P\214\324\212uI\350\276#\341\230T0I\214\324\020"
 545      8CD48A75 
 545      49E8BE23 
 545      E1985430 
 545      498CD410 
 546 12cc DF053A4F 		.ascii	"\337\005:O\305\010\276\326\271\327\340\263?\030Do\011"
 546      C508BED6 
 546      B9D7E0B3 
 546      3F18446F 
 546      09
 547 12dd 0ED41F86 		.ascii	"\016\324\037\206\215\370\371\210\021\377\013l\003Kp"
 547      8DF8F988 
 547      11FF0B6C 
 547      034B70
 548              		.text
 549              		.section	.gnu.lto_.symtab.d8b6922a5c869a71,"",%progbits
 550 0000 63685265 		.ascii	"chRegFirstThread\000\000\000\000\000\000\000\000\000"
 550      67466972 
 550      73745468 
 550      72656164 
 550      00000000 
 551 0019 000000A1 		.ascii	"\000\000\000\241\000\000\000chRegNextThread\000\000"
 551      00000063 
 551      68526567 
 551      4E657874 
 551      54687265 
 552 0031 00000000 		.ascii	"\000\000\000\000\000\000\000\000\000\000Q\001\000\000"
 552      00000000 
 552      00005101 
 552      0000
 553 003f 63685265 		.ascii	"chRegFindThreadByName\000\000\000\000\000\000\000\000"
 553      6746696E 
 553      64546872 
 553      65616442 
ARM GAS  /tmp/ccB0KeDD.s 			page 44


 553      794E616D 
 554 005c 00000000 		.ascii	"\000\000\000\000X\001\000\000chRegFindThreadByPoint"
 554      58010000 
 554      63685265 
 554      6746696E 
 554      64546872 
 555 007a 65720000 		.ascii	"er\000\000\000\000\000\000\000\000\000\000\000\000^"
 555      00000000 
 555      00000000 
 555      00005E
 556 0089 01000063 		.ascii	"\001\000\000chRegFindThreadByWorkingArea\000\000\000"
 556      68526567 
 556      46696E64 
 556      54687265 
 556      61644279 
 557 00ab 00000000 		.ascii	"\000\000\000\000\000\000\000\000\000b\001\000\000ch"
 557      00000000 
 557      00620100 
 557      006368
 558 00ba 5F646562 		.ascii	"_debug\000\000\000\000\000\000\000\000\000\000\000\000"
 558      75670000 
 558      00000000 
 558      00000000 
 558      0000
 559 00cc D2010000 		.ascii	"\322\001\000\000ch\000\000\002\000\000\000\000\000\000"
 559      63680000 
 559      02000000 
 559      000000
 560 00db 0000007A 		.ascii	"\000\000\000z\001\000\000chThdRelease\000\000\002\000"
 560      01000063 
 560      68546864 
 560      52656C65 
 560      61736500 
 561 00f2 00000000 		.ascii	"\000\000\000\000\000\000\000\000i\001\000\000"
 561      00000000 
 561      69010000 
 562              		.text
 563              		.section	.gnu.lto_.opts,"",%progbits
 564 0000 272D6D63 		.ascii	"'-mcpu=cortex-m3' '-mno-thumb-interwork' '-mthumb' "
 564      70753D63 
 564      6F727465 
 564      782D6D33 
 564      2720272D 
 565 0033 272D6767 		.ascii	"'-ggdb' '-O2' '-fomit-frame-pointer' '-falign-funct"
 565      64622720 
 565      272D4F32 
 565      2720272D 
 565      666F6D69 
 566 0066 696F6E73 		.ascii	"ions=16' '-ffunction-sections' '-fdata-sections' '-"
 566      3D313627 
 566      20272D66 
 566      66756E63 
 566      74696F6E 
 567 0099 666E6F2D 		.ascii	"fno-common' '-flto'\000"
 567      636F6D6D 
 567      6F6E2720 
 567      272D666C 
ARM GAS  /tmp/ccB0KeDD.s 			page 45


 567      746F2700 
 568              		.text
 569              		.cfi_sections	.debug_frame
 570              		.section	.text.chRegFirstThread,"ax",%progbits
 571              		.align	2
 572              		.p2align 4,,15
 573              		.global	chRegFirstThread
 574              		.thumb
 575              		.thumb_func
 576              		.type	chRegFirstThread, %function
 577              	chRegFirstThread:
 578              	.LFB186:
 579              		.file 1 "../../../os/rt/src/chregistry.c"
 580              		.loc 1 134 0
 581              		.cfi_startproc
 582              		@ args = 0, pretend = 0, frame = 0
 583              		@ frame_needed = 0, uses_anonymous_args = 0
 584              		@ link register save eliminated.
 585              	.LVL0:
 586              	.LBB71:
 587              	.LBB72:
 588              	.LBB73:
 589              	.LBB74:
 590              		.file 2 "../../../os/common/ext/CMSIS/include/cmsis_gcc.h"
 591              		.loc 2 264 0
 592 0000 2023     		movs	r3, #32
 593              	@ 264 "../../../os/common/ext/CMSIS/include/cmsis_gcc.h" 1
 594 0002 83F31188 		MSR basepri, r3
 595              	@ 0 "" 2
 596              		.thumb
 597              	.LBE74:
 598              	.LBE73:
 599              	.LBE72:
 600              	.LBE71:
 601              		.loc 1 138 0
 602 0006 40F20003 		movw	r3, #:lower16:ch
 603 000a C0F20003 		movt	r3, #:upper16:ch
 604 000e 1869     		ldr	r0, [r3, #16]
 605              	.LVL1:
 606              	.LBB75:
 607              	.LBB76:
 608              	.LBB77:
 609              	.LBB78:
 610              	.LBB79:
 611              		.loc 2 264 0
 612 0010 0023     		movs	r3, #0
 613              	.LBE79:
 614              	.LBE78:
 615              	.LBE77:
 616              	.LBE76:
 617              	.LBE75:
 618              		.loc 1 140 0
 619 0012 90F82220 		ldrb	r2, [r0, #34]	@ zero_extendqisi2
 620 0016 0132     		adds	r2, r2, #1
 621 0018 80F82220 		strb	r2, [r0, #34]
 622              	.LVL2:
 623              	.LBB84:
ARM GAS  /tmp/ccB0KeDD.s 			page 46


 624              	.LBB83:
 625              	.LBB82:
 626              	.LBB81:
 627              	.LBB80:
 628              		.loc 2 264 0
 629              	@ 264 "../../../os/common/ext/CMSIS/include/cmsis_gcc.h" 1
 630 001c 83F31188 		MSR basepri, r3
 631              	@ 0 "" 2
 632              		.thumb
 633              	.LBE80:
 634              	.LBE81:
 635              	.LBE82:
 636              	.LBE83:
 637              	.LBE84:
 638              		.loc 1 145 0
 639 0020 7047     		bx	lr
 640              		.cfi_endproc
 641              	.LFE186:
 642              		.size	chRegFirstThread, .-chRegFirstThread
 643 0022 00BFAFF3 		.section	.text.chRegNextThread,"ax",%progbits
 643      0080AFF3 
 643      0080AFF3 
 643      0080
 644              		.align	2
 645              		.p2align 4,,15
 646              		.global	chRegNextThread
 647              		.thumb
 648              		.thumb_func
 649              		.type	chRegNextThread, %function
 650              	chRegNextThread:
 651              	.LFB187:
 652              		.loc 1 158 0
 653              		.cfi_startproc
 654              		@ args = 0, pretend = 0, frame = 0
 655              		@ frame_needed = 0, uses_anonymous_args = 0
 656              	.LVL3:
 657 0000 10B5     		push	{r4, lr}
 658              		.cfi_def_cfa_offset 8
 659              		.cfi_offset 4, -8
 660              		.cfi_offset 14, -4
 661              	.LBB85:
 662              	.LBB86:
 663              	.LBB87:
 664              	.LBB88:
 665              		.loc 2 264 0
 666 0002 2023     		movs	r3, #32
 667              	@ 264 "../../../os/common/ext/CMSIS/include/cmsis_gcc.h" 1
 668 0004 83F31188 		MSR basepri, r3
 669              	@ 0 "" 2
 670              		.thumb
 671              	.LBE88:
 672              	.LBE87:
 673              	.LBE86:
 674              	.LBE85:
 675              		.loc 1 164 0
 676 0008 40F20003 		movw	r3, #:lower16:ch
 677              		.loc 1 162 0
ARM GAS  /tmp/ccB0KeDD.s 			page 47


 678 000c 0469     		ldr	r4, [r0, #16]
 679              	.LVL4:
 680              		.loc 1 164 0
 681 000e C0F20003 		movt	r3, #:upper16:ch
 682 0012 9C42     		cmp	r4, r3
 683              		.loc 1 171 0
 684 0014 17BF     		itett	ne
 685 0016 94F82230 		ldrbne	r3, [r4, #34]	@ zero_extendqisi2
 686              		.loc 1 166 0
 687 001a 0024     		moveq	r4, #0
 688              	.LVL5:
 689              		.loc 1 171 0
 690 001c 0133     		addne	r3, r3, #1
 691 001e 84F82230 		strbne	r3, [r4, #34]
 692              	.LBB89:
 693              	.LBB90:
 694              	.LBB91:
 695              	.LBB92:
 696              	.LBB93:
 697              		.loc 2 264 0
 698 0022 0023     		movs	r3, #0
 699              	@ 264 "../../../os/common/ext/CMSIS/include/cmsis_gcc.h" 1
 700 0024 83F31188 		MSR basepri, r3
 701              	@ 0 "" 2
 702              		.thumb
 703              	.LBE93:
 704              	.LBE92:
 705              	.LBE91:
 706              	.LBE90:
 707              	.LBE89:
 708              		.loc 1 176 0
 709 0028 FFF7FEFF 		bl	chThdRelease
 710              	.LVL6:
 711              		.loc 1 180 0
 712 002c 2046     		mov	r0, r4
 713 002e 10BD     		pop	{r4, pc}
 714              		.cfi_endproc
 715              	.LFE187:
 716              		.size	chRegNextThread, .-chRegNextThread
 717              		.section	.text.chRegFindThreadByName,"ax",%progbits
 718              		.align	2
 719              		.p2align 4,,15
 720              		.global	chRegFindThreadByName
 721              		.thumb
 722              		.thumb_func
 723              		.type	chRegFindThreadByName, %function
 724              	chRegFindThreadByName:
 725              	.LFB188:
 726              		.loc 1 194 0
 727              		.cfi_startproc
 728              		@ args = 0, pretend = 0, frame = 0
 729              		@ frame_needed = 0, uses_anonymous_args = 0
 730              	.LVL7:
 731 0000 38B5     		push	{r3, r4, r5, lr}
 732              		.cfi_def_cfa_offset 16
 733              		.cfi_offset 3, -16
 734              		.cfi_offset 4, -12
ARM GAS  /tmp/ccB0KeDD.s 			page 48


 735              		.cfi_offset 5, -8
 736              		.cfi_offset 14, -4
 737              		.loc 1 194 0
 738 0002 0546     		mov	r5, r0
 739              	.LBB94:
 740              	.LBB95:
 741              	.LBB96:
 742              	.LBB97:
 743              	.LBB98:
 744              	.LBB99:
 745              		.loc 2 264 0
 746 0004 2023     		movs	r3, #32
 747              	@ 264 "../../../os/common/ext/CMSIS/include/cmsis_gcc.h" 1
 748 0006 83F31188 		MSR basepri, r3
 749              	@ 0 "" 2
 750              		.thumb
 751              	.LBE99:
 752              	.LBE98:
 753              	.LBE97:
 754              	.LBE96:
 755              		.loc 1 138 0
 756 000a 40F20003 		movw	r3, #:lower16:ch
 757 000e C0F20003 		movt	r3, #:upper16:ch
 758 0012 1C69     		ldr	r4, [r3, #16]
 759              	.LVL8:
 760              	.LBB100:
 761              	.LBB101:
 762              	.LBB102:
 763              	.LBB103:
 764              	.LBB104:
 765              		.loc 2 264 0
 766 0014 0023     		movs	r3, #0
 767              	.LBE104:
 768              	.LBE103:
 769              	.LBE102:
 770              	.LBE101:
 771              	.LBE100:
 772              		.loc 1 140 0
 773 0016 94F82220 		ldrb	r2, [r4, #34]	@ zero_extendqisi2
 774 001a 0132     		adds	r2, r2, #1
 775 001c 84F82220 		strb	r2, [r4, #34]
 776              	.LVL9:
 777              	.LBB109:
 778              	.LBB108:
 779              	.LBB107:
 780              	.LBB106:
 781              	.LBB105:
 782              		.loc 2 264 0
 783              	@ 264 "../../../os/common/ext/CMSIS/include/cmsis_gcc.h" 1
 784 0020 83F31188 		MSR basepri, r3
 785              	@ 0 "" 2
 786              		.thumb
 787 0024 04E0     		b	.L7
 788              	.LVL10:
 789              	.L13:
 790              	.LBE105:
 791              	.LBE106:
ARM GAS  /tmp/ccB0KeDD.s 			page 49


 792              	.LBE107:
 793              	.LBE108:
 794              	.LBE109:
 795              	.LBE95:
 796              	.LBE94:
 797              		.loc 1 203 0
 798 0026 2046     		mov	r0, r4
 799 0028 FFF7FEFF 		bl	chRegNextThread
 800              	.LVL11:
 801              		.loc 1 204 0
 802 002c 0446     		mov	r4, r0
 803              	.LVL12:
 804 002e 28B1     		cbz	r0, .L6
 805              	.LVL13:
 806              	.L7:
 807              		.loc 1 200 0
 808 0030 A069     		ldr	r0, [r4, #24]
 809 0032 2946     		mov	r1, r5
 810 0034 FFF7FEFF 		bl	strcmp
 811              	.LVL14:
 812 0038 0028     		cmp	r0, #0
 813 003a F4D1     		bne	.L13
 814              	.LVL15:
 815              	.L6:
 816              		.loc 1 207 0
 817 003c 2046     		mov	r0, r4
 818 003e 38BD     		pop	{r3, r4, r5, pc}
 819              		.cfi_endproc
 820              	.LFE188:
 821              		.size	chRegFindThreadByName, .-chRegFindThreadByName
 822              		.section	.text.chRegFindThreadByPointer,"ax",%progbits
 823              		.align	2
 824              		.p2align 4,,15
 825              		.global	chRegFindThreadByPointer
 826              		.thumb
 827              		.thumb_func
 828              		.type	chRegFindThreadByPointer, %function
 829              	chRegFindThreadByPointer:
 830              	.LFB189:
 831              		.loc 1 221 0
 832              		.cfi_startproc
 833              		@ args = 0, pretend = 0, frame = 0
 834              		@ frame_needed = 0, uses_anonymous_args = 0
 835              	.LVL16:
 836 0000 10B5     		push	{r4, lr}
 837              		.cfi_def_cfa_offset 8
 838              		.cfi_offset 4, -8
 839              		.cfi_offset 14, -4
 840              	.LBB110:
 841              	.LBB111:
 842              	.LBB112:
 843              	.LBB113:
 844              	.LBB114:
 845              	.LBB115:
 846              		.loc 2 264 0
 847 0002 2023     		movs	r3, #32
 848              	.LBE115:
ARM GAS  /tmp/ccB0KeDD.s 			page 50


 849              	.LBE114:
 850              	.LBE113:
 851              	.LBE112:
 852              	.LBE111:
 853              	.LBE110:
 854              		.loc 1 221 0
 855 0004 0446     		mov	r4, r0
 856              	.LBB131:
 857              	.LBB130:
 858              	.LBB119:
 859              	.LBB118:
 860              	.LBB117:
 861              	.LBB116:
 862              		.loc 2 264 0
 863              	@ 264 "../../../os/common/ext/CMSIS/include/cmsis_gcc.h" 1
 864 0006 83F31188 		MSR basepri, r3
 865              	@ 0 "" 2
 866              		.thumb
 867              	.LBE116:
 868              	.LBE117:
 869              	.LBE118:
 870              	.LBE119:
 871              		.loc 1 138 0
 872 000a 40F20003 		movw	r3, #:lower16:ch
 873 000e C0F20003 		movt	r3, #:upper16:ch
 874 0012 1869     		ldr	r0, [r3, #16]
 875              	.LVL17:
 876              	.LBB120:
 877              	.LBB121:
 878              	.LBB122:
 879              	.LBB123:
 880              	.LBB124:
 881              		.loc 2 264 0
 882 0014 0023     		movs	r3, #0
 883              	.LBE124:
 884              	.LBE123:
 885              	.LBE122:
 886              	.LBE121:
 887              	.LBE120:
 888              		.loc 1 140 0
 889 0016 90F82220 		ldrb	r2, [r0, #34]	@ zero_extendqisi2
 890 001a 0132     		adds	r2, r2, #1
 891 001c 80F82220 		strb	r2, [r0, #34]
 892              	.LVL18:
 893              	.LBB129:
 894              	.LBB128:
 895              	.LBB127:
 896              	.LBB126:
 897              	.LBB125:
 898              		.loc 2 264 0
 899              	@ 264 "../../../os/common/ext/CMSIS/include/cmsis_gcc.h" 1
 900 0020 83F31188 		MSR basepri, r3
 901              	@ 0 "" 2
 902              	.LVL19:
 903              		.thumb
 904              	.LBE125:
 905              	.LBE126:
ARM GAS  /tmp/ccB0KeDD.s 			page 51


 906              	.LBE127:
 907              	.LBE128:
 908              	.LBE129:
 909              	.LBE130:
 910              	.LBE131:
 911              		.loc 1 227 0
 912 0024 8442     		cmp	r4, r0
 913 0026 02D1     		bne	.L16
 914 0028 06E0     		b	.L19
 915              	.LVL20:
 916              	.L17:
 917 002a 8442     		cmp	r4, r0
 918 002c 04D0     		beq	.L19
 919              	.L16:
 920              		.loc 1 230 0
 921 002e FFF7FEFF 		bl	chRegNextThread
 922              	.LVL21:
 923              		.loc 1 231 0
 924 0032 0028     		cmp	r0, #0
 925 0034 F9D1     		bne	.L17
 926 0036 10BD     		pop	{r4, pc}
 927              	.LVL22:
 928              	.L19:
 929              		.loc 1 230 0
 930 0038 2046     		mov	r0, r4
 931              	.LVL23:
 932              		.loc 1 234 0
 933 003a 10BD     		pop	{r4, pc}
 934              		.cfi_endproc
 935              	.LFE189:
 936              		.size	chRegFindThreadByPointer, .-chRegFindThreadByPointer
 937 003c AFF30080 		.section	.text.chRegFindThreadByWorkingArea,"ax",%progbits
 938              		.align	2
 939              		.p2align 4,,15
 940              		.global	chRegFindThreadByWorkingArea
 941              		.thumb
 942              		.thumb_func
 943              		.type	chRegFindThreadByWorkingArea, %function
 944              	chRegFindThreadByWorkingArea:
 945              	.LFB190:
 946              		.loc 1 250 0
 947              		.cfi_startproc
 948              		@ args = 0, pretend = 0, frame = 0
 949              		@ frame_needed = 0, uses_anonymous_args = 0
 950              	.LVL24:
 951 0000 10B5     		push	{r4, lr}
 952              		.cfi_def_cfa_offset 8
 953              		.cfi_offset 4, -8
 954              		.cfi_offset 14, -4
 955              	.LBB132:
 956              	.LBB133:
 957              	.LBB134:
 958              	.LBB135:
 959              	.LBB136:
 960              	.LBB137:
 961              		.loc 2 264 0
 962 0002 2023     		movs	r3, #32
ARM GAS  /tmp/ccB0KeDD.s 			page 52


 963              	.LBE137:
 964              	.LBE136:
 965              	.LBE135:
 966              	.LBE134:
 967              	.LBE133:
 968              	.LBE132:
 969              		.loc 1 250 0
 970 0004 0446     		mov	r4, r0
 971              	.LBB153:
 972              	.LBB152:
 973              	.LBB141:
 974              	.LBB140:
 975              	.LBB139:
 976              	.LBB138:
 977              		.loc 2 264 0
 978              	@ 264 "../../../os/common/ext/CMSIS/include/cmsis_gcc.h" 1
 979 0006 83F31188 		MSR basepri, r3
 980              	@ 0 "" 2
 981              		.thumb
 982              	.LBE138:
 983              	.LBE139:
 984              	.LBE140:
 985              	.LBE141:
 986              		.loc 1 138 0
 987 000a 40F20003 		movw	r3, #:lower16:ch
 988 000e C0F20003 		movt	r3, #:upper16:ch
 989 0012 1B69     		ldr	r3, [r3, #16]
 990              	.LVL25:
 991              	.LBB142:
 992              	.LBB143:
 993              	.LBB144:
 994              	.LBB145:
 995              	.LBB146:
 996              		.loc 2 264 0
 997 0014 0022     		movs	r2, #0
 998              	.LBE146:
 999              	.LBE145:
 1000              	.LBE144:
 1001              	.LBE143:
 1002              	.LBE142:
 1003              		.loc 1 140 0
 1004 0016 93F82210 		ldrb	r1, [r3, #34]	@ zero_extendqisi2
 1005 001a 0131     		adds	r1, r1, #1
 1006 001c 83F82210 		strb	r1, [r3, #34]
 1007              	.LVL26:
 1008              	.LBB151:
 1009              	.LBB150:
 1010              	.LBB149:
 1011              	.LBB148:
 1012              	.LBB147:
 1013              		.loc 2 264 0
 1014              	@ 264 "../../../os/common/ext/CMSIS/include/cmsis_gcc.h" 1
 1015 0020 82F31188 		MSR basepri, r2
 1016              	@ 0 "" 2
 1017              		.thumb
 1018 0024 03E0     		b	.L22
 1019              	.LVL27:
ARM GAS  /tmp/ccB0KeDD.s 			page 53


 1020              	.L26:
 1021              	.LBE147:
 1022              	.LBE148:
 1023              	.LBE149:
 1024              	.LBE150:
 1025              	.LBE151:
 1026              	.LBE152:
 1027              	.LBE153:
 1028              		.loc 1 259 0
 1029 0026 FFF7FEFF 		bl	chRegNextThread
 1030              	.LVL28:
 1031              		.loc 1 260 0
 1032 002a 0346     		mov	r3, r0
 1033 002c 18B1     		cbz	r0, .L21
 1034              	.LVL29:
 1035              	.L22:
 1036              		.loc 1 256 0
 1037 002e DA69     		ldr	r2, [r3, #28]
 1038              		.loc 1 259 0
 1039 0030 1846     		mov	r0, r3
 1040              		.loc 1 256 0
 1041 0032 A242     		cmp	r2, r4
 1042 0034 F7D1     		bne	.L26
 1043              	.LVL30:
 1044              	.L21:
 1045              		.loc 1 263 0
 1046 0036 1846     		mov	r0, r3
 1047              	.LVL31:
 1048 0038 10BD     		pop	{r4, pc}
 1049              		.cfi_endproc
 1050              	.LFE190:
 1051              		.size	chRegFindThreadByWorkingArea, .-chRegFindThreadByWorkingArea
 1052              		.global	ch_debug
 1053 003a 00BFAFF3 		.section	.rodata.ch_debug,"a",%progbits
 1053      0080
 1054              		.align	2
 1055              		.type	ch_debug, %object
 1056              		.size	ch_debug, 22
 1057              	ch_debug:
 1058 0000 6D       		.byte	109
 1059 0001 61       		.byte	97
 1060 0002 69       		.byte	105
 1061 0003 6E       		.byte	110
 1062 0004 00       		.byte	0
 1063 0005 16       		.byte	22
 1064 0006 0120     		.short	8193
 1065 0008 04       		.byte	4
 1066 0009 02       		.byte	2
 1067 000a 44       		.byte	68
 1068 000b 08       		.byte	8
 1069 000c 0C       		.byte	12
 1070 000d 10       		.byte	16
 1071 000e 14       		.byte	20
 1072 000f 18       		.byte	24
 1073 0010 1C       		.byte	28
 1074 0011 20       		.byte	32
 1075 0012 21       		.byte	33
ARM GAS  /tmp/ccB0KeDD.s 			page 54


 1076 0013 22       		.byte	34
 1077 0014 00       		.byte	0
 1078 0015 00       		.byte	0
 1079 0016 0000     		.text
 1080              	.Letext0:
 1081              		.file 3 "/home/alex/MentorGraphics/Sourcery_CodeBench_Lite_for_ARM_EABI/lib/gcc/arm-none-eabi/4.8.
 1082              		.file 4 "/home/alex/MentorGraphics/Sourcery_CodeBench_Lite_for_ARM_EABI/arm-none-eabi/include/stdi
 1083              		.file 5 "../../../os/common/ports/ARMCMx/compilers/GCC/chtypes.h"
 1084              		.file 6 "../../../os/rt/include/chsystypes.h"
 1085              		.file 7 "../../../os/rt/include/chschd.h"
 1086              		.file 8 "../../../os/common/ports/ARMCMx/chcore.h"
 1087              		.file 9 "../../../os/common/ports/ARMCMx/chcore_v7m.h"
 1088              		.file 10 "../../../os/rt/include/chtm.h"
 1089              		.file 11 "../../../os/rt/include/chsem.h"
 1090              		.file 12 "../../../os/rt/include/chmtx.h"
 1091              		.file 13 "../../../os/rt/include/chregistry.h"
 1092              		.file 14 "../../../os/rt/include/chthreads.h"
 1093              		.file 15 "../../../os/rt/include/chsys.h"
 1094              		.file 16 "../../../os/common/ext/CMSIS/include/core_cm3.h"
 1095              		.file 17 "/home/alex/MentorGraphics/Sourcery_CodeBench_Lite_for_ARM_EABI/arm-none-eabi/include/str