ARM GAS  /tmp/ccdGRgqs.s 			page 1


   1              		.syntax unified
   2              		.cpu cortex-m3
   3              		.fpu softvfp
   4              		.eabi_attribute 20, 1
   5              		.eabi_attribute 21, 1
   6              		.eabi_attribute 23, 3
   7              		.eabi_attribute 24, 1
   8              		.eabi_attribute 25, 1
   9              		.eabi_attribute 26, 1
  10              		.eabi_attribute 30, 2
  11              		.eabi_attribute 34, 1
  12              		.eabi_attribute 18, 4
  13              		.thumb
  14              		.file	"chtm.c"
  15              		.text
  16              	.Ltext0:
  17              		.section	.gnu.lto_.jmpfuncs.f279d5eaf59034f7,"",%progbits
  18 0000 789C6362 		.ascii	"x\234cb`b\300\006\034\2404+\003###\023#\013\003#\003"
  18      6062C006 
  18      1CA0342B 
  18      03232323 
  18      13230B03 
  19 0016 10B13232 		.ascii	"\020\26122D0f22\374\007\002~\006\0050\033\250\026J'"
  19      44306632 
  19      32FC0702 
  19      7E060530 
  19      1BA8164A 
  20 002b 40E90646 		.ascii	"@\351\006F\020\003\310bef\000\000:\272\011\200"
  20      1003C862 
  20      65660000 
  20      3ABA0980 
  21              		.text
  22              		.section	.gnu.lto_.inline.f279d5eaf59034f7,"",%progbits
  23 0000 789C6D8E 		.ascii	"x\234m\216!\022\3020\020E\377n\3236\320\016d\020mP\004"
  23      2112C230 
  23      1045FF6E 
  23      D336D00E 
  23      64106D50 
  24 0015 85E30C75 		.ascii	"\205\343\014u8$\232\243T\"\020(4\202# 8\001\272\247"
  24      38249AA3 
  24      54221028 
  24      34822320 
  24      3801BAA7 
  25 0029 60902834 		.ascii	"`\220(4\331\255\2413\254x\273\371\331\344\177\006\343"
  25      D9ADA133 
  25      AC78BBF9 
  25      D9E47F06 
  25      E3
  26 003a 5F15D4F7 		.ascii	"_\025\324\367\024\030Y\002g\3575\312\323V\227\011\251"
  26      14185902 
  26      67EF35CA 
  26      D3569709 
  26      A9
  27 004b 0138B9D7 		.ascii	"\0018\271\327\310\017+\225\030\363:\356\306G\311^\331"
  27      C80F2B95 
  27      18F33AEE 
  27      C647C95E 
ARM GAS  /tmp/ccdGRgqs.s 			page 2


  27      D9
  28 005c 285BD216 		.ascii	"([\322\026\224(\375\343F(\317\033\006\275r\303\210?"
  28      9428FDE3 
  28      4628CF1B 
  28      06BD72C3 
  28      883F
  29 006e 1819AD0A 		.ascii	"\030\031\255\012\026\334M\035+\345\034T\015\202F\307"
  29      16DC4D1D 
  29      2BE51C54 
  29      0D8246C7 
  30 007e 469C8C77 		.ascii	"F\234\214w\313\230g\326\035\011\331e\321\273\027\022"
  30      CB9867D6 
  30      1D09D965 
  30      D1BB1712 
  31 008e AA670A5F 		.ascii	"\252g\012_\301\374$\031f\030W\237+a\362\334\0152DK\253"
  31      C1FC2419 
  31      6618579F 
  31      2B61F2DC 
  31      0D32444B 
  32 00a3 C65654A7 		.ascii	"\306VT\247w\203\014R_\335\333 \301"
  32      77830C52 
  32      5FDDDB20 
  32      C1
  33              		.text
  34              		.section	.gnu.lto_.pureconst.f279d5eaf59034f7,"",%progbits
  35 0000 789C6362 		.ascii	"x\234cb`b\340f\200\000V\006)F)&)\026\011V)\000\004)"
  35      6062E066 
  35      80005606 
  35      29462926 
  35      29160956 
  36 0018 00A1     		.ascii	"\000\241"
  37              		.text
  38              		.section	.gnu.lto_chTMObjectInit.f279d5eaf59034f7,"",%progbits
  39 0000 789C6362 		.ascii	"x\234cb`b@\007\222@<\225\221\201A\006H32302M8\307\300"
  39      60624007 
  39      92403C95 
  39      91814106 
  39      48333233 
  40 001a D0C8C1C4 		.ascii	"\320\310\301\304\310\010b002\32431\326G2\202\325\256"
  40      C8086230 
  40      3032D433 
  40      31D64732 
  40      82D5AE
  41 002d 673AF0E0 		.ascii	"g:\360\340\377\377u\223\332\327\3670\316e\002\252\311"
  41      FFFF7593 
  41      DAD7F730 
  41      CE6502AA 
  41      C9
  42 003e 058BB332 		.ascii	"\005\213\2632\26444LP``H\006sC\200$Ho(#\023\210f>\313"
  42      B434344C 
  42      50606048 
  42      06734380 
  42      24486F28 
  43 0058 D0B4E3C7 		.ascii	"\320\264\343\307\247\033L\211\214\013\031Y\031\264\031"
  43      A71B4C89 
  43      8C0B1959 
  43      19B419
ARM GAS  /tmp/ccdGRgqs.s 			page 3


  44 0067 56350001 		.ascii	"V5\000\001o&#\303l\206Y\214\231\214\214\351\214L\021"
  44      6F2623C3 
  44      6C86598C 
  44      998C8CE9 
  44      8C4C11
  45 007a 401AE2B4 		.ascii	"@\032\342\264$\210M\014 \021\346\377@\300\017\344\200"
  45      24884D0C 
  45      2011E6FF 
  45      40C00FE4 
  45      80
  46 008b 4C98F199 		.ascii	"L\230\361\231h\023\030\021&0@u\357 ^7\023\246\356\033"
  46      68131811 
  46      26304075 
  46      EF205E37 
  46      13A6EE1B 
  47 009f 5874B360 		.ascii	"Xt\263`\327\315\214\251\373\007\026\335\254\330u\263"
  47      D7CD8CA9 
  47      FB0716DD 
  47      ACD875B3 
  48 00af C075B381 		.ascii	"\300u\263\201\030\027\031\032\037\334P\206\350\205\201"
  48      1817191A 
  48      1FDC5086 
  48      E88581
  49 00be 10A0F780 		.ascii	"\020\240\367\200\241\012\322!\245\247\247\017A\371\305"
  49      A10AD221 
  49      A5A7A70F 
  49      41F9C5
  50 00cd FA4525FA 		.ascii	"\372E%\372\305E\311\372\311\031%\271z\311\014\000eH"
  50      C545C9FA 
  50      C91925B9 
  50      7AC90C00 
  50      6548
  51 00df 6652     		.ascii	"fR"
  52              		.text
  53              		.section	.gnu.lto_chTMStartMeasurementX.f279d5eaf59034f7,"",%progbits
  54 0000 789C6362 		.ascii	"x\234cb`b@\007\222@\314\312\310\300\340\005\244\031"
  54      60624007 
  54      9240CCCA 
  54      C8C0E005 
  54      A419
  55 0012 99191899 		.ascii	"\231\031\030\231&\234c`h\344`bd\0041\030\030\031\352"
  55      269C6360 
  55      68E46062 
  55      64043118 
  55      1819EA
  56 0025 9918EB23 		.ascii	"\231\030\353#\031\301j\3273\035x\360\377\377\272+\355"
  56      19C16AD7 
  56      331D78F0 
  56      FFFFBA2B 
  56      ED
  57 0036 FBEF30CE 		.ascii	"\373\3570\316cbcf\314ed`e\310\004K\2622\26444LP``H\006"
  57      63626366 
  57      CC656460 
  57      65C8044B 
  57      B232B434 
  58 0051 73438024 		.ascii	"sC\200$\310\200PF&\020\315|\226\341\320\255=\375\307"
  58      C8805046 
ARM GAS  /tmp/ccdGRgqs.s 			page 4


  58      2610CD7C 
  58      96E1D0AD 
  58      3DFDC7
  59 0064 66B3C1D5 		.ascii	"f\263\301\325A\030\007\272\277}df`Hd\\\310\310\012\324"
  59      411807BA 
  59      BF7D6466 
  59      6048645C 
  59      C8C80AD4 
  60 0078 0AD69BCE 		.ascii	"\012\326\233\316\310\252\315\260\252\241\245\361\301"
  60      C8AACDB0 
  60      AAA1A5F1 
  60      C1
  61 0085 EF0D772E 		.ascii	"\357\015w.22f22\316f\230\3258\241A \223\221)\002\310"
  61      32326632 
  61      32CE6698 
  61      D538A141 
  61      20939129 
  62 009b 656E58D0 		.ascii	"enX\320\320\300\307\000f\202\035\226\004\322\227\310"
  62      D0C0C700 
  62      66821D96 
  62      04D297C8 
  63 00ab B8186806 		.ascii	"\270\030h\006\020\234eh:yf\003?\304L\220I@\300\013t"
  63      109C6568 
  63      3A796603 
  63      3FC44C90 
  63      4940C00B 
  64 00c0 25D010A0 		.ascii	"%\320\020\240\016\226tFf\220NV\250N\210\327\322A\374"
  64      0E967446 
  64      66904E56 
  64      A84E88D7 
  64      D241FC
  65 00d3 8B0C8D0F 		.ascii	"\213\014\215\017\336*C\364\301@\010P\001\320\003\240"
  65      DE2A43F4 
  65      C1400850 
  65      01D003A0 
  66 00e3 8093D2D3 		.ascii	"\200\223\322\323\323\207\240\374b\375\242\022\375\342"
  66      D387A0FC 
  66      62FDA212 
  66      FDE2
  67 00f1 A264FDE4 		.ascii	"\242d\375\344\214\222\\\275d\006]d\251\344\374\334\334"
  67      8C925CBD 
  67      64065D64 
  67      A9E4FCDC 
  67      DC
  68 0102 FC3CFD82 		.ascii	"\374<\375\202\374\242\222b}\307 _g\337\012\240\272\344"
  68      FCA29262 
  68      7DC7205F 
  68      67DF0AA0 
  68      BAE4
  69 0114 FCA2D4F8 		.ascii	"\374\242\324\3702\363\\\275\014\006\000\303\035ZR"
  69      32F35CBD 
  69      0C0600C3 
  69      1D5A52
  70              		.text
  71              		.section	.gnu.lto_chTMStopMeasurementX.f279d5eaf59034f7,"",%progbits
  72 0000 789C8D54 		.ascii	"x\234\215TOHTA\030\377\276y\177\366\217\273\353\036"
  72      4F485441 
ARM GAS  /tmp/ccdGRgqs.s 			page 5


  72      18FFBE79 
  72      7FF68FBB 
  72      EB1E
  73 0012 8A522244 		.ascii	"\212R\"D\010!i\037\235:G\247\020\011J!Oa\213\256{x\256"
  73      0821691F 
  73      9D3A47A7 
  73      10094A21 
  73      4F618BAE 
  74 0029 EC2E1574 		.ascii	"\354.\025tpv\327\303\332\305%:HBjE\205\210Y'\011\213"
  74      7076D7C3 
  74      DAC5253A 
  74      48426A45 
  74      85885927 
  75 003f 252C9330 		.ascii	"%,\2230\020<\204\210,A\035\273x\221\002\267of\336[w"
  75      103C8488 
  75      2C411DBB 
  75      789102B7 
  75      6F66DE5B 
  76 0054 2DDB1D76 		.ascii	"-\333\035v\1773\363\315|\277\371\315\357{\3571`p\270"
  76      7F33F3CD 
  76      7CBFF9CD 
  76      EF7BEF31 
  76      6070B8
  77 0067 75D17FDE 		.ascii	"u\321\177\336\000\350\243\036=\200\254\360\005 \343"
  77      00E8A31E 
  77      3D80ACF0 
  77      0520E3
  78 0076 654CCB77 		.ascii	"eL\313w\000\367\353\002\003\032\352*\2543c\323\242\260"
  78      00F7EB02 
  78      031AEA2A 
  78      AC3363D3 
  78      A2B0
  79 0088 B97C9AC2 		.ascii	"\271|\232\302\006\232*l\"\212\001 \2142M7L\034\355C"
  79      069A2A6C 
  79      228A0120 
  79      8C324D37 
  79      4C1CED43 
  80 009c C9FE9215 		.ascii	"\311\376\222\025K\345\362\302\376\352\273y|\301Nj\020"
  80      4BE5F2C2 
  80      FEEABB79 
  80      7CC14E6A 
  80      10
  81 00ad 47D0D146 		.ascii	"G\320\321F0iD\307\321\324+\300'\300/\240I@\200\200\005"
  81      306944C7 
  81      D1D42BC0 
  81      27C02FA0 
  81      49408080 
  82 00c2 05840434 		.ascii	"\005\204\0044\213XX\0005\003\3068/\264\001D\345\264"
  82      8B585800 
  82      3503C638 
  82      2FB40144 
  82      E5B4
  83 00d4 87509CDD 		.ascii	"\207P\234\335\213L\364\332:\274\337Z\236\3708eV\366"
  83      8B4CF4DA 
  83      3ABCDF5A 
  83      9EF83865 
  83      56F6
ARM GAS  /tmp/ccdGRgqs.s 			page 6


  84 00e6 A941F1F3 		.ascii	"\251A\361\363\312c\015\240\037g\321\240T\231\033C\263"
  84      CA630DA0 
  84      1F67D1A0 
  84      54991B43 
  84      B3
  85 00f7 13E6F858 		.ascii	"\023\346\370X\246\364{q{\0031\216\332\024<\314\024x"
  85      A6F47B71 
  85      7B03318E 
  85      DA143CCC 
  85      1478
  86 0109 388EFA75 		.ascii	"8\216\372u\232\032|\206\363\020\310\241\274\317M\221"
  86      9A1A7C86 
  86      F310C8A1 
  86      BCCF4D91 
  87 0119 D78F4FD4 		.ascii	"\327\217O\324t\035\262[\333O\037\264*\322\030j\235p"
  87      741DB25B 
  87      DB4F1FB4 
  87      2AD2186A 
  87      9D70
  88 012b 96AE2538 		.ascii	"\226\256%8\251\275\245,S\360q\301\347\271\013\277x^"
  88      A9BDA52C 
  88      53F071C1 
  88      E7B90BBF 
  88      785E
  89 013d 8CBCB63C 		.ascii	"\214\274\266<]\220z\035Rtz\267<k\220-:\254\3550\313"
  89      5D907A1D 
  89      52747AB7 
  89      3C6B902D 
  89      3AACED30 
  90 0152 F9FD6279 		.ascii	"\371\375byu\242\205\317d\013|\277\\\246D\037\203.\024"
  90      75A285CF 
  90      640B7CBF 
  90      5CA6441F 
  90      832E14
  91 0165 0E08167F 		.ascii	"\016\010\026\177\233\354\232\364\332\312\306P\227L\245"
  91      9BEC9AF4 
  91      DACAC650 
  91      974CA5
  92 0174 F10FE6FF 		.ascii	"\361\017\346\377\270\350\324+\365\271\314F\271\256\325"
  92      B8E8D42B 
  92      F5B9CC46 
  92      B9AED5
  93 0183 E7D29475 		.ascii	"\347\322\224uK\217\264CE\342\317\205\231\013\330N\036"
  93      4B8FB443 
  93      45E2CF85 
  93      990BD84E 
  93      1E
  94 0194 CF4B9C23 		.ascii	"\317K\234#<\250\032S\371\036\345pq\267%\216\201\212"
  94      3CA81A53 
  94      F91EE570 
  94      71B7258E 
  94      818A
  95 01a6 C3C1982A 		.ascii	"\303\301\230*\232\3171SV\373\225[\251\\>7\330\217\213"
  95      9ACF3153 
  95      56FB955B 
  95      A95C3E37 
  95      D88F8B
ARM GAS  /tmp/ccdGRgqs.s 			page 7


  96 01b9 B24E5EA2 		.ascii	"\262N^\242\020;\003\250\212xY-8u\0136F\032\023\325\023"
  96      103B03A8 
  96      8A78592D 
  96      38750B36 
  96      461A13D5 
  97 01ce D7F8BA73 		.ascii	"\327\370\272s\312%\366\251\007\340\310l\275V\322x\356"
  97      CA25F6A9 
  97      07E0C86C 
  97      BD56D278 
  97      EE
  98 01df 35BAA97E 		.ascii	"5\272\251~\2628&6\312\3703\346\306\233\344\222rlm\321"
  98      B2382636 
  98      CAF833E6 
  98      C69BE492 
  98      726C6DD1 
  99 01f3 73586923 		.ascii	"sXi#g\021\211R\272\267s\334\245\015(\012\312\013\035"
  99      67118952 
  99      BAB773DC 
  99      A50D280A 
  99      CA0B1D
 100 0206 C960D4A8 		.ascii	"\311`\324\250\315\376\314\275\251\250\015:\234\344\352"
 100      CDFECCBD 
 100      A9A80D3A 
 100      9CE4EA
 101 0215 42251822 		.ascii	"B%\030\"ZZ\372\333\322\006O!\006\245sr\372\204\313\331"
 101      5A5AFADB 
 101      D2064F21 
 101      06A57372 
 101      FA84CBD9 
 102 0229 5CC751B3 		.ascii	"\\\307Q\263J\343'X\371\221\011V\031\327|\360\320\365"
 102      4AE32758 
 102      F9910956 
 102      19D77CF0 
 102      D0F5
 103 023b 9285F90E 		.ascii	"\222\205\371\016M\230\2704}\254\306\305\363\215\361"
 103      4D98B834 
 103      7DACC6C5 
 103      F38DF1
 104 024a CB1B2B2A 		.ascii	"\313\033+*\335\371\322\220\243\007J\303u\224zj\225~"
 104      DDF9D290 
 104      A3074AC3 
 104      75947A6A 
 104      957E
 105 025c AF511AAE 		.ascii	"\257Q\032\256Vj\300\246%\225N~\333\303\306\245z\376"
 105      566AC0A6 
 105      25954E7E 
 105      DBC3C6A5 
 105      7AFE
 106 026e 25D59452 		.ascii	"%\325\224R7 S\272wF\275En\353\241\257\016\255\211W\252"
 106      372053BA 
 106      7746BD45 
 106      6EEBA1AF 
 106      0EAD8957 
 107 0283 3512B1D4 		.ascii	"5\022\261\324/\221\262\222i+\225\214Z\321\241\264\035"
 107      2F91B292 
 107      692B958C 
 107      5AD1A1B4 
ARM GAS  /tmp/ccdGRgqs.s 			page 8


 107      1D
 108 0294 89C2B9EA 		.ascii	"\211\302\271\352\245h\302\266\023\303\326H\"\231NY\027"
 108      A568C2B6 
 108      13C3D648 
 108      22994E59 
 108      17
 109 02a5 AF765FEA 		.ascii	"\257v_\352\276C\373\242\211\344\300\215[\027\354\310"
 109      BE43FBA2 
 109      89E4C08D 
 109      5B17ECC8 
 110 02b5 1068697B 		.ascii	"\020hi{D\033N\3346\023\203\203\251\201\364\037\200\361"
 110      441B4EDC 
 110      36138383 
 110      A981F41F 
 110      80F1
 111 02c7 69A8     		.ascii	"i\250"
 112              		.text
 113              		.section	.gnu.lto__tm_init.f279d5eaf59034f7,"",%progbits
 114 0000 789CAD53 		.ascii	"x\234\255S1K\034Q\020\376\346\355\335i\274\250\011\244"
 114      314B1C51 
 114      10FEE6ED 
 114      DD69BCA8 
 114      09A4
 115 0012 3081E0A1 		.ascii	"0\201\340\241M\022\341\016!?%\001S\236[\230-\216\210"
 115      4D12E10E 
 115      213F2501 
 115      539E5B98 
 115      2D8E88
 116 0025 5E650ADF 		.ascii	"^e\012\337\352\221\330\004\016\033E+I\023\222\250\305"
 116      EA91D804 
 116      0E1B452B 
 116      491392A8 
 116      C5
 117 0036 A53848F3 		.ascii	"\2458H\363\020\022\220`B\272K\260\330\220B\320F\264"
 117      10129060 
 117      42BA4BB0 
 117      D89042D0 
 117      46B4
 118 0048 39D2AC33 		.ascii	"9\322\2543\373v\325\225\305*\303\356\316\300\316\367"
 118      FB76D595 
 118      C52AC3EE 
 118      CEC0CEF7 
 119 0058 CD7CDFBE 		.ascii	"\315|\337\276UP\270\032w\371^w\200Q\316\344\200T\363"
 119      5550B81A 
 119      77F95E77 
 119      8051CEE4 
 119      8054F3
 120 006b 3BE0F72A 		.ascii	";\340\367*\")@\230W4\377\214\244\225F\260\241M3\370"
 120      22294098 
 120      5734FF8C 
 120      A49546B0 
 120      A14D33F8 
 121 007f 7270AC7C 		.ascii	"rp\254|mVu\303\204!\015{\304\264\367\011.a\202<\"c\263"
 121      6D5675C3 
 121      84210D7B 
 121      C4B4F709 
 121      2E61823C 
ARM GAS  /tmp/ccdGRgqs.s 			page 9


 122 0096 1A4A0FDA 		.ascii	"\032J\017\332V&\010\303\375\326\247?m\272=P\200\307"
 122      562608C3 
 122      FDD6A73F 
 122      6DBA3D50 
 122      80C7
 123 00a8 D3803C1A 		.ascii	"\323\200<\032Z7KU\332`v\010\007\307\023~\312\364\247"
 123      5A374B55 
 123      DA607608 
 123      07C7137E 
 123      CAF4A7
 124 00bb A4243B7B 		.ascii	"\244$;{Xhw\017\215\252\322[\312c\014\3575\307\270G\271"
 124      5868770F 
 124      8DAAD25B 
 124      CA630CEF 
 124      35C7B847 
 125 00d0 B82C7A94 		.ascii	"\270,z\224_\307\232\257\365-\217\012/\361O/I\325S\213"
 125      5FC79AAF 
 125      F52D8F0A 
 125      2FF14F2F 
 125      49D5538B 
 126 00e4 D864999E 		.ascii	"\330d\231\236h\205IB\234m!od\011\354b\301<\260\354\242"
 126      68854942 
 126      9C6D216F 
 126      6409EC62 
 126      C13CB0EC 
 127 00f9 512F9BCF 		.ascii	"Q/\233\317\257\276\221^\326\376q\030\016z\324\253P\272"
 127      AFBE915E 
 127      D6FE7118 
 127      0E7AD4AB 
 127      50BA
 128 010b 1058B2FA 		.ascii	"\020X\262\372ri}2Vk\363\353\353\035\356\267z,#G$\340"
 128      72697D32 
 128      566BF3EB 
 128      EB1DEEB7 
 128      7A2C2347 
 129 0121 A4A362B5 		.ascii	"\244\243b\265\211l\335z\363\260J\357\"\345\266\327\265"
 129      896CDD7A 
 129      F3B04AEF 
 129      22E5B6D7 
 129      B5
 130 0132 9B595D66 		.ascii	"\233Y]f\345\265\303\"-\327${\301M\037\2050\332;\344"
 130      E5B5C322 
 130      2DD7247B 
 130      C14D1F85 
 130      30DA3BE4 
 131 0146 188CB957 		.ascii	"\030\214\271WO;l\316\207\013s\372/\341\2344.\331\247"
 131      4F3B6CCE 
 131      870B73FA 
 131      2FE19C34 
 131      2ED9A7
 132 0159 7D1D2697 		.ascii	"}\035&\227\215\351d`n$\230|6\246\233\201\351K0\205\024"
 132      8DE96460 
 132      6E24987C 
 132      36A69B81 
 132      E94B3085 
 133 016e A628981F 		.ascii	"\246(\230\037h\004\233\213\003\211w\347_\363\246K*6"
 133      68049B8B 
ARM GAS  /tmp/ccdGRgqs.s 			page 10


 133      038977E7 
 133      5FF3A64B 
 133      2A36
 134 0180 7AEEAAC3 		.ascii	"z\356\252\303\036\365[\340\326\337b\026\320\271\026"
 134      1EF55BE0 
 134      D6DF6216 
 134      D0B916
 135 018f C85BFEEE 		.ascii	"\310[\376\356\036\005\361\361\232\242\302\030\036\245"
 135      1E05F1F1 
 135      9AA2C218 
 135      1EA5
 136 019d BD402C66 		.ascii	"\275@,f\267\331\367\277\317\340\224x\260\207\235\243"
 136      B7D9F7BF 
 136      CFE09478 
 136      B0879DA3 
 137 01ad 78BC9DFA 		.ascii	"x\274\235\372\030-\275\304\030\351\370\011?h\217\236"
 137      182DBDC4 
 137      18E9F809 
 137      3F688F9E 
 138 01bd 9F25D83F 		.ascii	"\237%\330?\204\344\317\020C\356\225\313\025{\275\230"
 138      84E4CF10 
 138      43EE95CB 
 138      157BBD98 
 139 01cd ADCCD42B 		.ascii	"\255\314\324+\2633n\305}^\257\225]\250z\315\251\327"
 139      B3336EC5 
 139      7D5EAF95 
 139      5DA87ACD 
 139      A9D7
 140 01df A6CF0074 		.ascii	"\246\317\000t0\352\314"
 140      30EACC
 141              		.text
 142              		.section	.gnu.lto_chTMChainMeasurementToX.f279d5eaf59034f7,"",%progbits
 143 0000 789C8D94 		.ascii	"x\234\215\224_HSq\024\307\317\371\335?\373\243s{(J\011"
 143      5F485371 
 143      14C7CFF9 
 143      DD3FFBA3 
 143      737B284A 
 144 0015 114184A4 		.ascii	"\021A\204\244]z\3529z\012\221\240\024\362)\326\320\271"
 144      5D7AEA39 
 144      7A0A91A0 
 144      14F229D6 
 144      D0B9
 145 0027 8779651B 		.ascii	"\207ye\033\326\233\277m>\030=8\002A\022R\351%$\246\364"
 145      D69BBF6D 
 145      3E183D38 
 145      02411252 
 145      E92524A6 
 146 003c 34426885 		.ascii	"4Bh\205E\012\006\206D\210\310\010\352\261\227^\204\240"
 146      450A0686 
 146      4488C808 
 146      EAB1975E 
 146      84A0
 147 004e 75CEFD6D 		.ascii	"u\316\375mn3c\367\262\235{\177\347w\317\347\367\375"
 147      6E3363F7 
 147      B29D7B7F 
 147      E777CFE7 
 147      F7FD
ARM GAS  /tmp/ccdGRgqs.s 			page 11


 148 0060 7DCFBD57 		.ascii	"}\317\275W\200\200\323\307 \375\247\015\200Q:\243\007"
 148      8080D3C7 
 148      20FDA70D 
 148      80513AA3 
 148      07
 149 0071 50E43F01 		.ascii	"P\344?\001d\274Bhs\375 \375:\307v\015u\225\326\205\261"
 149      64BC4268 
 149      73FD20FD 
 149      3AC7760D 
 149      7595D685 
 150 0086 6F51DADC 		.ascii	"oQ\332\334\354\246\264\201\246J\233\210|\001\0103B\323"
 150      ECA6B481 
 150      A64A9B88 
 150      7C010833 
 150      42D3
 151 0098 0D136746 		.ascii	"\015\023gF\321\241\257\213R\271R)|\336\331z\213\305"
 151      D1A1AF8B 
 151      52B95229 
 151      7CDED97A 
 151      8BC5
 152 00aa BE8B1A26 		.ascii	"\276\213\032&\020\014\012\264R\034\301K\001}\034\374"
 152      100C0AB4 
 152      521CC14B 
 152      017D1CFC 
 153 00ba 1CDA38B4 		.ascii	"\034\3328\264S\020\001\016\035\034\202\234\013q \232"
 153      5310010E 
 153      1D1C829C 
 153      0B71209A 
 154 00ca 01B352E6 		.ascii	"\001\263R\346{\000\242\016}\230\"/;\202\202\317\332"
 154      7B00A20E 
 154      7D98222F 
 154      3B8282CF 
 154      DA
 155 00db 2EBC3BD8 		.ascii	".\274;\330\234\377\260d\236\334\247.J\217\277di\207"
 155      9CFFB064 
 155      9EDCA72E 
 155      4A8FBF64 
 155      6987
 156 00ed 115C4583 		.ascii	"\021\\E\203J\235\332\030z\006`M\316f\312\2777\016\367"
 156      4A9DDA18 
 156      7A06604D 
 156      CE66CABF 
 156      370EF7
 157 0100 10E3A82D 		.ascii	"\020\343\250-\301\323L^\206\342\250\337\245\241!W\244"
 157      C1D34C5E 
 157      86E2A8DF 
 157      A5A12157 
 157      A4
 158 0111 EC00E7D2 		.ascii	"\354\000\347\322\331\312}\256\213\340s5\334\205\354"
 158      D9CA7DAE 
 158      8BE07335 
 158      DC85EC
 159 0120 F6E1C642 		.ascii	"\366\341\306B\267\2022\212\216 \355\211(Tb\306P\343"
 159      B782328A 
 159      8E20ED89 
 159      285462C6 
 159      50E3
ARM GAS  /tmp/ccdGRgqs.s 			page 12


 160 0132 524FB554 		.ascii	"RO\265T\271\021\343\3616d\313\353\357MU\330\013\253"
 160      B911E3F1 
 160      3664CBEB 
 160      EF4D55D8 
 160      0BAB
 161 0144 523E29ED 		.ascii	"R>)\355\355\314w\312\225l^\376\251T\270J\300 \362&\031"
 161      EDCC77CA 
 161      956C5EFE 
 161      A954B84A 
 161      C020F226 
 162 0159 E1ED714E 		.ascii	"\341\355qN>\275\271o1\326\341\202E-\277\325\232\345"
 162      3EBDB96F 
 162      31D6E182 
 162      452DBFD5 
 162      9AE5
 163 016b 4E17B1EE 		.ascii	"N\027\261\356\264bq\016\253\016\035\024\237i\247z!\337"
 163      B462710E 
 163      AB0E1D14 
 163      9F69A77A 
 163      21DF
 164 017d 2C7445F0 		.ascii	",tE\360%\366\222\225kN|A\261\336\034\241\364x\225\243"
 164      25F69295 
 164      6B4E7C41 
 164      B1DE1CA1 
 164      F47895A3 
 165 0191 A55F9D71 		.ascii	"\245_\235q\364sc$7\206\\5\032]\025\\\267^kHn.7\036\301"
 165      F4736324 
 165      37865C35 
 165      1A5D155C 
 165      B75E6B48 
 166 01aa 020D63E8 		.ascii	"\002\015c\350#\004\337\351G\245\344\246\232\250\366"
 166      2304DFE9 
 166      47A5E4A6 
 166      9AA8F6
 167 01b9 29E00E4A 		.ascii	")\340\016J\030\265\215\257G\227j`\377\000\\V]>\273\032"
 167      18B58DAF 
 167      47976A60 
 167      FF005C56 
 167      5D3EBB1A 
 168 01cd 9B253DCA 		.ascii	"\233%=\312\275\302Zi\033\331L\000\365\354lxN+r\303$"
 168      BDC25A69 
 168      1BD94C00 
 168      F5EC6C78 
 168      4E2B72C3 
 169 01e2 8852747C 		.ascii	"\210Rt|t\276\206mW\010\252k\373/AkR\225\375\231{}\242"
 169      74BE866D 
 169      5708AA6B 
 169      FB2F416B 
 169      5295FD99 
 170 01f9 2A506592 		.ascii	"*Pe\222{\205\223d\007ai\352_\353\\\256B\004\245sq\371"
 170      7B859364 
 170      076169EA 
 170      5FEB5CAE 
 170      4204A573 
 171 020f 428D196C 		.ascii	"B\215\031l\341\234\336\240\361#l\375\310\004\032\214"
 171      E19CDEA0 
 171      F1236CFD 
ARM GAS  /tmp/ccdGRgqs.s 			page 13


 171      C8041A8C 
 172 021f 0BD61FB0 		.ascii	"\013\326\037\260\021Zg\256_c\023\213\313\347\232\\\274"
 172      115A67AE 
 172      5F63138B 
 172      CBE79A5C 
 172      BC
 173 0230 EA8EEFEC 		.ascii	"\352\216\357\354X\241\364\352\207\203\034\255+\015\265"
 173      58A1F4EA 
 173      87831CAD 
 173      2B0DB5
 174 023f 506A342B 		.ascii	"Pj4+\375\336\2444\324\250\324\200}\313Q\272\370\355"
 174      FDDEA434 
 174      D4A8D480 
 174      7DCB51BA 
 174      F8ED
 175 0251 18DD4B35 		.ascii	"\030\335K5\316\222j:R\367 S.\366\251\267\245v\014\323"
 175      CE926A3A 
 175      52F72053 
 175      2EF6A9B7 
 175      A5760CD3 
 176 0265 134273FC 		.ascii	"\023Bs\374\352t\205\303\226\372\331)+\231\266R\311\250"
 176      EA7485C3 
 176      96FAD929 
 176      2B99B652 
 176      C9A8
 177 0277 159D4827 		.ascii	"\025\235H'\302Q\270\3228\025\265\023\011{\322\232\262"
 177      C251B8D2 
 177      3815B513 
 177      097BD29A 
 177      B2
 178 0288 93E99475 		.ascii	"\223\351\224u\375\366\320\215\241\207t_\324N\216\335"
 178      FDF6D08D 
 178      A187745F 
 178      D44E8EDD 
 179 0298 9BBE9608 		.ascii	"\233\276\226\010O\200\226NLi\223\366\003\323\036\037"
 179      4F80964E 
 179      4C6993F6 
 179      03D31E1F 
 180 02a8 4F8DA5FF 		.ascii	"O\215\245\377\002\357a]\310"
 180      02EF615D 
 180      C8
 181              		.text
 182              		.section	.gnu.lto_.symbol_nodes.f279d5eaf59034f7,"",%progbits
 183 0000 789C6362 		.ascii	"x\234cb`bHa\200\002\246=\214\365\014\014\023\31610\324"
 183      60624861 
 183      8002A63D 
 183      8CF50C0C 
 183      13CE3130 
 184 0015 D7CFEB60 		.ascii	"\327\317\353`d\332\313X\317\210\304\335\307X\317\204"
 184      64DACB58 
 184      CF88C4DD 
 184      C758CF84 
 185 0025 E0B21E60 		.ascii	"\340\262\036`\004\262\030\230v3\3263#)\332\317X\317"
 185      04B21898 
 185      7633D633 
 185      2329DACF 
 185      58CF
ARM GAS  /tmp/ccdGRgqs.s 			page 14


 186 0037 82E032B3 		.ascii	"\202\3402\26302<z\370\017H314\265\275\221g\000\000\013"
 186      30323C7A 
 186      F80F4833 
 186      3134B5BD 
 186      91670000 
 187 004c AA1E68   		.ascii	"\252\036h"
 188              		.text
 189              		.section	.gnu.lto_.refs.f279d5eaf59034f7,"",%progbits
 190 0000 789C6362 		.ascii	"x\234cb`b\340f\200\000F&\006f&\026FfFf\006\000\001\267"
 190      6062E066 
 190      80004626 
 190      06662616 
 190      46664666 
 191 0018 0024     		.ascii	"\000$"
 192              		.text
 193              		.section	.gnu.lto_.decls.f279d5eaf59034f7,"",%progbits
 194 0000 789CAD5B 		.ascii	"x\234\255[\015t\024\325\275\237;\273\233\354B\012)~"
 194      0D7414D5 
 194      BD9F3BBB 
 194      9BEC420A 
 194      297E
 195 0012 14FB7CCF 		.ascii	"\024\373|\317\370\216}\257\365\034M\200\326\3429}-6"
 195      F88E7DAF 
 195      F51C4D80 
 195      D6E2397D 
 195      2D36
 196 0024 52E53C50 		.ascii	"R\345<P\016\301Wz\372\261\016\233!\3316\273\233\316"
 196      0EC1577A 
 196      FAB10E9B 
 196      21D936BB 
 196      9BCE
 197 0036 4E089CF3 		.ascii	"N\010\234\363\316\351$\221\240)-\341SP\010\011\022\037"
 197      CEE92491 
 197      A0292DE1 
 197      53500809 
 197      121F
 198 0048 48B404C4 		.ascii	"H\264\004\304`EY<\030C\244\020\002$hL\262\202\010jC"
 198      6045593C 
 198      1843A410 
 198      0224684C 
 198      B282086A 
 199 005d 01032492 		.ascii	"\001\003$\222\232w\357\177>v\356\354\314\356Lp\316\316"
 199      9A77EF7F 
 199      3E76EEEC 
 199      CCEE4C70 
 199      CECE
 200 006f 7F67E6CE 		.ascii	"\177g\346\316\375\375?\357\275\377{g\206eX\346\177Y"
 200      FDFD3FEF 
 200      BDFF7B67 
 200      866558E6 
 200      7F59
 201 0081 8619C5DB 		.ascii	"\206\031\305\333+?f\230\345\031\014\203\177\014>\304"
 201      2B3F6698 
 201      E5190C83 
 201      7F0C3EC4 
 202 0091 250C9389 		.ascii	"%\014\223\211w\037#o\036\2747\340\275\015\357G\361~"
 202      771F236F 
ARM GAS  /tmp/ccdGRgqs.s 			page 15


 202      1EBC37E0 
 202      BD0DEF47 
 202      F17E
 203 00a3 02EFDD78 		.ascii	"\002\357\335xGx?\303\320[\203R\267\011\357\215x\337"
 203      47783FC3 
 203      D05B8352 
 203      B709EF8D 
 203      78DF
 204 00b5 A69CEFC3 		.ascii	"\246\234\357\303\373\233\012&\301\333\211\367=x\337"
 204      FB9B0A26 
 204      C1DB89F7 
 204      3D78DF
 205 00c4 8BF716BC 		.ascii	"\213\367\026\274\357W\360\032\224\377w\014\270\204w"
 205      EF57F01A 
 205      94FF770C 
 205      B88477
 206 00d3 8682FB21 		.ascii	"\206\202\373!\276\241\027\357\267\260\011\036D\346\217"
 206      BEA117EF 
 206      B7B0091E 
 206      44E68F
 207 00e2 918CC72A 		.ascii	"\221\214\307*\367\337\312\312XG\014XD\207\211:9}\006"
 207      F7DFCACA 
 207      58470C58 
 207      4487893A 
 207      397D06
 208 00f5 CC13F8FF 		.ascii	"\314\023\370\377,\2766\231\225\261'\340=K\321\241Q\321"
 208      2CBE3699 
 208      95B127E0 
 208      3D4BD1A1 
 208      51D1
 209 0107 C3ABF0EB 		.ascii	"\303\253\360\353\304\373i$\353\260W\321c\217\242\237"
 209      C4FB6924 
 209      EBB057D1 
 209      638FA29F 
 210 0117 4BE145E4 		.ascii	"K\341E\344\270\203\225\345:nb\263\023\012\217F\035/"
 210      B88395E5 
 210      3A6E62B3 
 210      130A8F46 
 210      1D2F
 211 0129 5536A32C 		.ascii	"U6\243,z;\336\203\257mU\356U\3450\263\253[\341\241\367"
 211      7A3BDE83 
 211      AF6D55EE 
 211      55E530B3 
 211      AB5BE1A1 
 212 013e A199EFBA 		.ascii	"\241\231\357\272\025\336ML\302\377f\266\326\333\343"
 212      15DE4D4C 
 212      C2FF66B6 
 212      D6DBE3
 213 014d 4DC52FAA 		.ascii	"M\305/\252\355U\236z\033t\033l\320\217\367^\003\357"
 213      ED559E7A 
 213      1B741B6C 
 213      D08FF75E 
 213      03EF
 214 015f BB983A29 		.ascii	"\273\230:)~)\336xe\327\035R}elt\364\200\204\230\333"
 214      7E29DE78 
 214      65D71D52 
 214      7D656C74 
ARM GAS  /tmp/ccdGRgqs.s 			page 16


 214      F4808498 
 215 0174 997512DE 		.ascii	"\231u\022\336\352\253%\011\211\034\372\361m\314\002"
 215      EAAB2509 
 215      891CFAF1 
 215      6DCC02
 216 0183 C4A1093E 		.ascii	"\304\241\011>&\007\016\262|\240\032\303ph+\272\035\216"
 216      26070EB2 
 216      7CA01AC3 
 216      70682BBA 
 216      1D8E
 217 0195 5CC08019 		.ascii	"\\\300\200\031\317\324HR%\251\370h\333\204I\314*\202"
 217      CFD44852 
 217      25A9F868 
 217      DB8449CC 
 217      2A82
 218 01a7 92F3F459 		.ascii	"\222\363\364Y,\243\002\020C*\302d|\373w\230m\222T\033"
 218      2CA30210 
 218      432AC264 
 218      7CFB7798 
 218      6D92541B 
 219 01bb BF31B4C2 		.ascii	"\2771\264\302%I^\0165\242I\030\347G\210\271\227\331"
 219      25495E0E 
 219      35A24918 
 219      E74788B9 
 219      97D9
 220 01cd 816BD64A 		.ascii	"\201k\326J\322\231\377DL\362\226\036\231\310\266\003"
 220      D299FF44 
 220      4CF2961E 
 220      99C8B603 
 221 01dd A371683B 		.ascii	"\243qh;\272W\346#\305\232[\263$\267|\235QJL\266\273"
 221      BA57E623 
 221      C59A5BB3 
 221      24B77C9D 
 221      514A4CB6 
 222 01f2 997AAC43 		.ascii	"\231z\254ClO\353&l\221\267\221\217y:\241\022cj\010E"
 222      6C4FEB26 
 222      6C91B791 
 222      8F793AA1 
 222      12636A08 
 223 0207 8DDED6FD 		.ascii	"\215\336\326\375\377\005j4\341J,\263\022!\212\211}\240"
 223      FF056A34 
 223      E14A2CB3 
 223      12218A89 
 223      7DA0
 224 0219 FE9A9397 		.ascii	"\376\232\223\227Q%\266=\207\376\002P\327\014P\034\312"
 224      5125B63D 
 224      87FE0250 
 224      D70C501C 
 224      CA
 225 022a F4E94586 		.ascii	"\364\351E\206s\365\006\202\007\305\312\001\351i&2No"
 225      73F50682 
 225      07C5CA01 
 225      E9692632 
 225      4E6F
 226 023c 67995160 		.ascii	"g\231Q`J\214e&\252r(o\312\015\224\001\3437.\254xp\243"
 226      4A8C6526 
 226      AA72286F 
ARM GAS  /tmp/ccdGRgqs.s 			page 17


 226      CA0D9401 
 226      E3372EAC 
 227 0253 147BCAA5 		.ascii	"\024{\312\245\032\344)\326)`\016\345\221\327Z\263j9"
 227      1AE429D6 
 227      29600EE5 
 227      91D75AB3 
 227      6A39
 228 0265 15ACC60E 		.ascii	"\025\254\306\016\230\327R\272\330>\002\346\300\267\325"
 228      98D752BA 
 228      D83E02E6 
 228      C0B7D5
 229 0274 EF1E4755 		.ascii	"\357\036GU\340\222}\262wY\243K\210\253\034\033y\275"
 229      E0927DB2 
 229      7759A34B 
 229      88AB1C1B 
 229      79BD
 230 0286 6335289B 		.ascii	"c5(\233\304o\014\256x\3609)\266!OQ%V-=\215*\232\357"
 230      C46F0CAE 
 230      78F03929 
 230      B6214F51 
 230      25562D3D 
 231 029e D46E9FA1 		.ascii	"\324n\237\241\007\321\224yS\016\3247A\225\015\254i\240"
 231      07D19479 
 231      530ED437 
 231      41950DAC 
 231      69A0
 232 02b0 DA82EAAF 		.ascii	"\332\202\352\257\0319\250\330%\006`\015Iv\361\031\314"
 232      1939A8D8 
 232      2506600D 
 232      4976F119 
 232      CC
 233 02c1 E2A3CDE2 		.ascii	"\342\243\315\342\363%\016F\325\215n\364\266\353\260"
 233      F3250E46 
 233      D58D6EF4 
 233      B6EBB0
 234 02d0 CC4B467B 		.ascii	"\314KF{RB+\207\331&aa\266\351\273\020\016\275\204\276"
 234      52422B87 
 234      D9266161 
 234      B6E9BB10 
 234      0EBD84BE 
 235 02e4 83E94E74 		.ascii	"\203\351Nt7\246{\200\356\005\332\002t?\246\332f\325"
 235      37A67B80 
 235      EE05DA02 
 235      743FA6DA 
 235      66D5
 236 02f6 5B6E43E3 		.ascii	"[nC\343\023\330O\270\264\373Yf\257\301l\3670/H\322j"
 236      13D84FB8 
 236      B4FB5966 
 236      AFC16CF7 
 236      302F48D2 
 237 030b DC2DB779 		.ascii	"\334-\267yp\033r\313UY\346\020\334\326\200\3562e\241"
 237      701B72CB 
 237      5559E610 
 237      DCD680EE 
 237      3265A1
 238 031e 31F80FA6 		.ascii	"1\370\017\246\221\364\217\177\222\226e#\350\276\031"
 238      91F48F7F 
ARM GAS  /tmp/ccdGRgqs.s 			page 18


 238      92966523 
 238      E8BE19
 239 032d A516A5DC 		.ascii	"\245\026\245\334!\304\352/\310#A\354\324\273+\325\221"
 239      21C4EA2F 
 239      C82341EC 
 239      D4BB2BD5 
 239      91
 240 033e 6086D2C1 		.ascii	"`\206\322\301\263L\033%\036t\366,\323\307\"\275\260"
 240      B34C1B25 
 240      1E74F62C 
 240      D3C722BD 
 240      B0
 241 034f D217FCA3 		.ascii	"\322\027\374\243\262\004\034j\305\320\034j\263)\347"
 241      B2041C6A 
 241      C5D01C6A 
 241      B329E7
 242 035e 0169EE64 		.ascii	"\001i\356dM\3146\243\230\207M\305\374\352\335\254\332"
 242      4DCC36A3 
 242      98874DC5 
 242      FCEADDAC 
 242      DA
 243 036f 8AF8E8E8 		.ascii	"\212\370\350\350\226\034U\306\363\3112r\350=\265\262"
 243      961C55C6 
 243      F3C93272 
 243      E83DB5B2 
 244 037f 22E365A3 		.ascii	"\"\343e\243\214G\307\"\343Q\243\214\307\222e\254\217"
 244      8C47C722 
 244      E351A38C 
 244      C79265AC 
 244      8F
 245 0390 C7DEA87E 		.ascii	"\307\336\250~\017a\236#\243\243.\007C\352IeHMD\010\313"
 245      0F619E23 
 245      A3A32E07 
 245      43EA4965 
 245      484D4408 
 246 03a5 8C18C243 		.ascii	"\214\030\302C\023K\332.\2714\261N\030\305:e*\326\361"
 246      134BDA2E 
 246      B934B14E 
 246      18C53A65 
 246      2AD6F1
 247 03b8 769D87ED 		.ascii	"v\235\207\355\313u\232\036\352e\003Q'LRX/s\331\360\311"
 247      CB759A1E 
 247      EA650351 
 247      274C5258 
 247      2F73D9F0 
 248 03cd 75D5272C 		.ascii	"u\325',\263\031\356\357N\355\023\271Z\254\263=\253\026"
 248      B319EEEF 
 248      4EED13B9 
 248      5AACB33D 
 248      AB16
 249 03df A915B7DA 		.ascii	"\251\025\267\332\251\250Z\015[`b\315\223\232\331\272"
 249      A9A85A0D 
 249      5B6062CD 
 249      939AD9BA 
 250 03ef 8D66EBA1 		.ascii	"\215f\353\241\315\366\357L\203\024\257\215oy\376\324"
 250      CDF6EF4C 
 250      8314AF8D 
ARM GAS  /tmp/ccdGRgqs.s 			page 19


 250      6F79FED4 
 251 03ff BB68B554 		.ascii	"\273h\265T\337\206\001pos\227\232\204\350F\216\372L"
 251      DF860170 
 251      6F73979A 
 251      84E8468E 
 251      FA4C
 252 0411 95ABC868 		.ascii	"\225\253\310h]ds\335`\203\322E\236\205\374f\300E;3-"
 252      5D6473DD 
 252      6083D245 
 252      9E85FC66 
 252      C0453B33 
 253 0426 10CB0C43 		.ascii	"\020\313\014C\225O\014\011\015\026\251\257\032U\000"
 253      954F0C09 
 253      0D16A9AF 
 253      1A5500
 254 0435 F4273692 		.ascii	"\364'6\222\032)\266\252g\023\"I\215\011\313\270\226"
 254      1A29B6AA 
 254      67132249 
 254      8D09CBB8 
 254      96
 255 0446 3FDDA993 		.ascii	"?\335\251\223\275\257\373#E\366\317@\366*wZ\331i \226"
 255      BDAFFB23 
 255      45F6CF40 
 255      F62A775A 
 255      D9692096 
 256 045a A9852A03 		.ascii	"\251\205*\003\311\262\017,Sd\037\260%{K\267\245\354"
 256      C9B20F2C 
 256      53641FB0 
 256      257B4BB7 
 256      A5EC
 257 046c 66235373 		.ascii	"f#Ss\335\311U\350)\300\277\014\242\327\231\213^?\303"
 257      DDC955E8 
 257      29C0BF0C 
 257      A2D7998B 
 257      5E3FC3
 258 047f 0A88655E 		.ascii	"\012\210e^\201*\203I\242\367\034\253TD\037\264\225K"
 258      812A8349 
 258      A2F71CAB 
 258      54441FB4 
 258      954B
 259 0491 1EAFD90C 		.ascii	"\036\257\331\014\271\244iz\254w\273[\345\377pB\221]"
 259      B9A4697A 
 259      AC77BB5B 
 259      E5FF7042 
 259      915D
 260 04a3 7D3F2159 		.ascii	"}?!Y\3530(q \275\375i\020\334wC\225\221d\373\367\252"
 260      EB302871 
 260      20BDFD69 
 260      10DC7743 
 260      959164FB 
 261 04b9 4A8CD8B2 		.ascii	"J\214\330\262\377\365v\331\376\252=;5\334\024C\255\274"
 261      FFF576D9 
 261      FEAA3D3B 
 261      35DC1443 
 261      ADBC
 262 04cb 99666043 		.ascii	"\231f`C\355\0163\260Cj\006V\311\222L\343\264\373k\311"
 262      ED0E33B0 
ARM GAS  /tmp/ccdGRgqs.s 			page 20


 262      436A0656 
 262      C9924CE3 
 262      B4FB6BC9 
 263 04df C0E24635 		.ascii	"\300\342F5\034%\222$\030\372V\2435UR[\236\032P\031V"
 263      1C259224 
 263      18FA56A3 
 263      3555525B 
 263      9E1A5019 
 264 04f4 9AB0CC39 		.ascii	"\232\260\3149`\266\2345\370\342\324\371\266\357m\220"
 264      60B69C35 
 264      F8E2D4F9 
 264      B6EF6D90 
 265 0504 A46CB928 		.ascii	"\244l\271(}<\355m\177\326^<\261*\373{\200\375&\017a"
 265      7D3CED6D 
 265      7FD65E3C 
 265      B12AFB7B 
 265      80FD260F 
 266 0519 BFC2C8BE 		.ascii	"\277\302\310\276\371\363\266_\312\354W\330b\377z\367"
 266      F9F3B65F 
 266      CAEC57D8 
 266      62FF7AF7 
 267 0529 DA64F696 		.ascii	"\332d\366\226c\207\342\277S\347/\334\271\005\230\324"
 267      6387E2BF 
 267      53E72FDC 
 267      B90598D4 
 268 0539 B2A4C7EE 		.ascii	"\262\244\307\356\362\030\335\367\223\361z^p\256\273"
 268      F218DDF7 
 268      93F17A5E 
 268      70AEBB
 269 0548 8165FA35 		.ascii	"\201e\3725\351\3076!i\376\374\302\257w\354\226\244g"
 269      E9C73621 
 269      69FEFCC2 
 269      AF77EC96 
 269      A467
 270 055a 325419CE 		.ascii	"2T\031\3168F\314\241\014\261\277\033f$2\3309;`)f$o\351"
 270      3846CCA1 
 270      0CB1BF1B 
 270      662432D8 
 270      393B6029 
 271 0572 C12E3806 		.ascii	"\301.8\006\243%\353\320\203}n\007\314,)V\300:\365`\027"
 271      A325EBD0 
 271      837D6E07 
 271      CC2C2956 
 271      C03AF560 
 272 0587 1D83D192 		.ascii	"\035\203\321\222\235\324\203]\266\0036\331Z\262.=\330"
 272      9DD4835D 
 272      B60336D9 
 272      5AB22E3D 
 272      D8
 273 0598 55C760B4 		.ascii	"U\307`\264d\247\365`\303v\300rL$\3236\253<\352\217\254"
 273      64A7F560 
 273      C376C072 
 273      4C24D336 
 273      AB3CEA8F 
 274 05ad 16E738B1 		.ascii	"\026\3478\261\363\250\035\202\303\230f\022\030\243\036"
 274      F3A81D82 
 274      C3986612 
ARM GAS  /tmp/ccdGRgqs.s 			page 21


 274      18A31E
 275 05bc A73D18A5 		.ascii	"\247=\030\2457\356\301\372\267\312=\030\207\206 \233"
 275      37EEC1FA 
 275      B7CA3D18 
 275      8786209B 
 276 05cc AACAB081 		.ascii	"\252\312\260\201\230\"`j\337\003K\312`\3178\006\243"
 276      9822606A 
 276      DF034BCA 
 276      60CF3806 
 276      A3
 277 05dd DD5247C0 		.ascii	"\335RG\300\250\256F\0314\342\215\261\311\033\022\235"
 277      A8AE4619 
 277      34E28DB1 
 277      C91B129D 
 278 05ed 9D57C522 		.ascii	"\235W\305\"\263\022\271g\253\225$V\273Y\232<\331\374"
 278      B312B967 
 278      AB952456 
 278      BB599A3C 
 278      D9FC
 279 05ff 5E0EBDCC 		.ascii	"^\016\275\314\222\251\335+\254O\223B>V\217\344\271\345"
 279      92A9DD2B 
 279      AC4F9342 
 279      3E568FE4 
 279      B9E5
 280 0611 CA0CB3B5 		.ascii	"\312\014\263\265(\000H]\325*\022v\352#a\255\0353\245"
 280      2800485D 
 280      D52A1276 
 280      EA2361AD 
 280      1D33A5
 281 0624 680A1D56 		.ascii	"h\012\035Vf\2625\217\307\275\363\277\276\004\275\363"
 281      66B2358F 
 281      C7BDF3BF 
 281      BE04BDF3 
 282 0634 1E185C37 		.ascii	"\036\030\\7f\030{\347\230qp\2659'\267R~\267^\371m\216"
 282      66187BE7 
 282      987170B5 
 282      3927B752 
 282      7EB75EF9 
 283 064a 953786F0 		.ascii	"\2257\206\360\265\325\350\213JI[\007!\356N\031\033d"
 283      B5D5E88B 
 283      4A495B07 
 283      21EE4E19 
 283      1B64
 284 065c B9EE2D79 		.ascii	"\271\356-y\025d\037h\274\323\240\261}\240\376\232\227"
 284      15641F68 
 284      BCD3A0B1 
 284      7DA0FE9A 
 284      97
 285 066d 7301E80D 		.ascii	"s\001\350\015\000z5\311tF\313!\332r\310\2278HZ\371H"
 285      007A35C9 
 285      7446CB21 
 285      DA72C897 
 285      38485AF9 
 286 0682 732FCBEC 		.ascii	"s/\313\3547\232\216\0221EG\245\231n\304\271\351\252"
 286      379A8E12 
 286      314547A5 
 286      996EC4B9 
ARM GAS  /tmp/ccdGRgqs.s 			page 22


 286      E9AA
 287 0694 15D3C540 		.ascii	"\025\323\305@\343\267\2234~\203u\2462\313\264;V\303"
 287      E3B79334 
 287      7E8375A6 
 287      32CBB43B 
 287      56C3
 288 06a6 4BABF1FC 		.ascii	"K\253\361\374\350\030\3248 \253\361\016\250\321\361"
 288      E818D438 
 288      20ABF10E 
 288      A8D1F1
 289 06b5 35A871DA 		.ascii	"5\250q\332\261\032\331:5`j\261V\356\213oaV\247\316&"
 289      B11AD93A 
 289      35606AB1 
 289      56EE8B6F 
 289      6156A7CE 
 290 06ca 893CEDEC 		.ascii	"\211<\355\354-T*\027;u\024\345\310\227\323'\364_\034"
 290      2D542A17 
 290      3B7514E5 
 290      C897D327 
 290      F45F1C
 291 06dd D5AD704B 		.ascii	"\325\255pK\366V\270\265\034\374o`\262^\263Fc\013\252"
 291      F656B8B5 
 291      1CFC6F60 
 291      B25EB346 
 291      630BAA
 292 06f0 BFFDD871 		.ascii	"\277\375\330qe\215\273\003\240\316&Y?\303`\374\014\332"
 292      658DBB03 
 292      A0CE2659 
 292      3FC360FC 
 292      0CDA
 293 0702 F8F894F0 		.ascii	"\370\370\224\360\032\202~\346\017\312\025r\222\311\214"
 293      1A827EE6 
 293      0FCA1572 
 293      92C98C
 294 0711 B91ECE95 		.ascii	"\271\036\316\225@\014b\300\261$\231dZ\365\361\032u0"
 294      400C62C0 
 294      B1249964 
 294      5AF5F11A 
 294      7530
 295 0723 956D74E5 		.ascii	"\225mt\345\246\020+c[V\312\223GH\210Y\346\306M\302\355"
 295      A6102B63 
 295      5B56CA93 
 295      47488859 
 295      E6C64DC2 
 296 0738 3F661C27 		.ascii	"?f\034'\014i\374\260E/\254\315\253[\017*\216\373\000"
 296      0C69FCB0 
 296      452FACCD 
 296      AB5B0F2A 
 296      8EFB00
 297 074b 32A5CA4C 		.ascii	"2\245\312L\243\343\206\220!\223\037BT*o\025\315\357"
 297      A3E38690 
 297      21931F42 
 297      542A6F15 
 297      CDEF
 298 075d EB878475 		.ascii	"\353\207\204u\2317\351\210\236\253\006G<\177S\210\225"
 298      9937E988 
 298      9EAB0647 
ARM GAS  /tmp/ccdGRgqs.s 			page 23


 298      3C7F5388 
 298      95
 299 076e B1E195F6 		.ascii	"\261\341\225\366f\361O\252XY\240\310\013\300\366\214"
 299      66F14FAA 
 299      5859A0C8 
 299      0BC0F68C 
 300 077e 71D275FC 		.ascii	"q\322u\374F\274Z\261\343\031\033\263.)\326s\316'\255"
 300      46BC5AB1 
 300      E3191BB3 
 300      2E29D673 
 300      CE27AD
 301 0791 CE9267DF 		.ascii	"\316\222g\337\034\222XVA5\033\325\323\232'\326\307\267"
 301      1C925856 
 301      41351BD5 
 301      D39A27D6 
 301      C7B7
 302 07a3 E53969F8 		.ascii	"\3459i\370\255j\303?/\367\225IN\3570\366\225\216\232"
 302      AD6AC33F 
 302      2FF79549 
 302      4EEF30F6 
 302      958E9A
 303 07b6 5D976624 		.ascii	"]\227f$\2739\254q\263\012\252\217\364A\365\301\315\205"
 303      BB39AC71 
 303      B30AAA8F 
 303      F441F5C1 
 303      CD85
 304 07c8 000EAAD6 		.ascii	"\000\016\252\326mrP\245"
 304      6D7250A5 
 305 07d0 0B02495B 		.ascii	"\013\002I[\005\313\006\316\037\001\347\213\306(\330"
 305      05CB06CE 
 305      1F01E78B 
 305      C628D8
 306 07df 3BDAB65C 		.ascii	";\332\266\\Y\205\271h+\012\256\232D\301\3051F\001\016"
 306      5985B968 
 306      2B0AAE9A 
 306      44C1C531 
 306      46010E
 307 07f2 E94F0F23 		.ascii	"\351O\017#\200\223S\365\032/\242\341\034NaGx\247\206"
 307      809353F5 
 307      1A2FA2E1 
 307      1C4E6147 
 307      78A786
 308 0805 91E32BF6 		.ascii	"\221\343+\366\37692l]c\311\272R\255\327\030Z\262et\241"
 308      FE39326C 
 308      5D63C9BA 
 308      52ADD718 
 308      5AB26574 
 309 081a 95302387 		.ascii	"\2250#\207.A\356~\231%\017a\256\000\035dm<\212\271\252"
 309      2E41EE7E 
 309      99250F61 
 309      AE001D64 
 309      6D3C8AB9 
 310 082f 0F8B0D8E 		.ascii	"\017\213\015\216\365\316\261\031}\003z6\233\2757\027"
 310      F5CEB119 
 310      7D037A36 
 310      9BBD3717 
 311 083f 7D753D47 		.ascii	"}u=G\335\360D\325\3113\351w\324\206;\002\015w[\222u"
ARM GAS  /tmp/ccdGRgqs.s 			page 24


 311      DDF044D5 
 311      C933E977 
 311      D4863B02 
 311      0D775B92 
 312 0854 C7B46AB6 		.ascii	"\307\264j\266k\254\252h\033\313\264xm$\3759&V\327\206"
 312      6BACAA68 
 312      1BCBB478 
 312      6D24FD39 
 312      2656D786 
 313 0868 DAAEB536 		.ascii	"\332\256\2656W\336\264\345\354#\025\312\232p\245\213"
 313      57DEB4E5 
 313      EC2315CA 
 313      9A70A58B 
 314 0878 C4DAEB06 		.ascii	"\304\332\353\006k\330X\302k\203*\313\\I\313\251G\324"
 314      6BD858C2 
 314      6B832ACB 
 314      5C49CBA9 
 314      47D4
 315 088a E5545266 		.ascii	"\345TRf\343\375\202\032uX\227G\307ah\312\244\356X-J"
 315      E3FD821A 
 315      75589747 
 315      C76168CA 
 315      A4EE582D 
 316 089f 39312120 		.ascii	"91! \207\226\273H\023y\332\245k\0268S\265c\375\357Z"
 316      8796BB48 
 316      1379DAA5 
 316      6B163853 
 316      B563FDEF 
 317 08b4 0523EE88 		.ascii	"\005#\356\210:\351\345\340\270\021\317\254+\242\360"
 317      3AE9E5E0 
 317      B811CFAC 
 317      2BA2F0
 318 08c3 F4DEAC8C 		.ascii	"\364\336\254\214\325\236\2005\0039J?\265#\\\2365\330"
 318      D59E8035 
 318      03394A3F 
 318      B5235C9E 
 318      35D8
 319 08d5 9635AA71 		.ascii	"\2265\252q\007 G\271b\007o\272\225\262\225\261\226\023"
 319      072047B9 
 319      62076FBA 
 319      95B295B1 
 319      9613
 320 08e7 9B143C79 		.ascii	"\233\024<y\355\371K\307x\264|\247\326P9]\225\317\006"
 320      EDF94BC7 
 320      78B47CA7 
 320      D650395D 
 320      95CF06
 321 08fa DC0CDBBE 		.ascii	"\334\014\333\276O\254\365s\350+xj=\012\317\250+\240"
 321      4FACF573 
 321      E82B786A 
 321      3D0ACFA8 
 321      2BA0
 322 090c 7BAC06FA 		.ascii	"{\254\006\372\"\320\355@_\002\332\014\264\005\350\001"
 322      22D0ED40 
 322      5F02DA0C 
 322      B405E801 
 323 091c A087801E 		.ascii	"\240\207\200\036\006Z\341\"\264\006\350\012\240\177"
ARM GAS  /tmp/ccdGRgqs.s 			page 25


 323      065AE122 
 323      B406E80A 
 323      A07F
 324 092a 065A0B74 		.ascii	"\006Z\013t\265\313F\227k\310\002\325\220\037\034\353"
 324      B5CB4697 
 324      6BC802D5 
 324      901F1CEB 
 325 093a 1B26F004 		.ascii	"\033&\360\004\220\323\226\231|\310!XN*\033\016\352l"
 325      90D39699 
 325      7CC82158 
 325      4E2A1B0E 
 325      EA6C
 326 094c 780D6C78 		.ascii	"x\015lx\035l\270V\257\251:\000\017\214\371!\310\353"
 326      1D6CB856 
 326      AFA93A00 
 326      0F8CF921 
 326      C8EB
 327 095e DDFAC0C2 		.ascii	"\335\372\300\302\315\326\210\347h\004\226\324\025i\371"
 327      CDD688E7 
 327      680496D4 
 327      1569F9
 328 096d 0943A363 		.ascii	"\011C\243c0:JO<KwQ\377g\007/\305\262\240\262\364+\203"
 328      303A4A4F 
 328      3C4B7751 
 328      FF67072F 
 328      C5B2A0B2 
 329 0984 ED700C46 		.ascii	"\355p\014F\013\367A\267\316\371\177\366\241\364`f\213"
 329      0BF741B7 
 329      CEF97FF6 
 329      A1F46066 
 329      8B
 330 0995 67E6CE1F 		.ascii	"g\346\316\037\3209\377\037\340\374K\340\374\365\020"
 330      D039FF1F 
 330      E0FC4BE0 
 330      FCF510
 331 09a4 ECCF02DD 		.ascii	"\354\317\002\335\000t#\320\347\350\256u\275O}Z\2530"
 331      007423D0 
 331      E7E8AE75 
 331      BD4F7D5A 
 331      AB30
 332 09b6 A31F89A6 		.ascii	"\243\037\211\246O\3167Z?\246\245&\027\332\224\354|\005"
 332      4FCE375A 
 332      3FA6A526 
 332      17DA94EC 
 332      7C05
 333 09c8 5A06634F 		.ascii	"Z\006cO\035\014k\233|i\237\022\032&)\273\241FC\322\250"
 333      1D0C6B9B 
 333      7C699F12 
 333      1A2629BB 
 333      A14643D2 
 334 09dd D6D3A53E 		.ascii	"\326\323\245>\244m\2605\252\365\256\267\371\244S\263"
 334      A46DB035 
 334      AAF5AEB7 
 334      F9A453B3 
 335 09ed C8AD3A3D 		.ascii	"\310\255:=\372>V\037\331\276\010z\034N\257\007\015\304"
 335      FA3E561F 
 335      D9BE087A 
ARM GAS  /tmp/ccdGRgqs.s 			page 26


 335      1C4EAF07 
 335      0DC4
 336 09ff 32EF4395 		.ascii	"2\357C\225\035\311\212\264\252\212\354\260\245\310\346"
 336      1DC98AB4 
 336      AA8AECB0 
 336      A5C8E6
 337 0a0e F56AEC37 		.ascii	"\365j\3547\272\022\303\363\016\347\303\263\272\212\335"
 337      BA12C3F3 
 337      0EE7C3B3 
 337      BA8ADD
 338 0a1d 05E12A83 		.ascii	"\005\341*\203\255s9\005\243c\277\271k\323d\251\376\240"
 338      AD733905 
 338      A363BFB9 
 338      6BD364A9 
 338      FEA0
 339 0a2f FA6EA254 		.ascii	"\372n\242T-}w{\302$\331*\002\2537\355k\367\302R\327"
 339      2D7D777B 
 339      C224D92A 
 339      02AB37ED 
 339      6BF7C252 
 340 0a44 5F5CE4FA 		.ascii	"_\\\344\372g\006\303\332\007\352\257i\231\016@\273\001"
 340      6706C3DA 
 340      07EAAF69 
 340      990E40BB 
 340      01
 341 0a55 68D000C4 		.ascii	"h\320\000\304!\227!\233t\321\331\244\313\2278 \357\305"
 341      2197219B 
 341      74D1D9A4 
 341      CB973820 
 341      EFC5
 342 0a67 38BB9965 		.ascii	"8\273\231e\376\251\371\327L\310\264S\024\034\010G\326"
 342      FEA9F9D7 
 342      4CC8B453 
 342      141C0847 
 342      D6
 343 0a78 99CCE0EC 		.ascii	"\231\314\340\354\277\006\263\317ex\015\006\036S\352"
 343      BF06B3CF 
 343      65780D06 
 343      1E53EA
 344 0a87 DE7A4995 		.ascii	"\336zI\225\177\326\365U(s\376\026\027\014\374\343h\363"
 344      7FD6F555 
 344      2873FE16 
 344      170CFCE3 
 344      68F3
 345 0a99 19966208 		.ascii	"\031\226b\010/+9\366\273\306[\004qR\031\313\254\030"
 345      2F2B39F6 
 345      BBC65B04 
 345      715219CB 
 345      AC18
 346 0aab 87D2075C 		.ascii	"\207\322\007\\\312GD\177kT\027S cYe\007\320\301{v\272"
 346      CA47447F 
 346      6B541753 
 346      20635965 
 346      07D0C17B 
 347 0ac1 6C752764 		.ascii	"lu'd\253M\320\261\276\014\364\025\240\257\001}\313N"
 347      AB4DD0B1 
 347      BE0CF415 
ARM GAS  /tmp/ccdGRgqs.s 			page 27


 347      A0AF017D 
 347      CB4E
 348 0ad3 A6415A99 		.ascii	"\246AZ\231\206-\267\334\2061\267\334K\311-\327\011\030"
 348      862DB7DC 
 348      8631B7DC 
 348      4BC92DD7 
 348      0918
 349 0ae5 65C8D855 		.ascii	"e\310\330U\245\345\312\015\221C{\215x\316\3029\266\366"
 349      A5E5CA0D 
 349      91437B8D 
 349      78CEC239 
 349      B6F6
 350 0af7 D9AC8E27 		.ascii	"\331\254\216'\325V\275n\034r\010\226\235\312)\015:\247"
 350      D556BD6E 
 350      1C720896 
 350      9DCA290D 
 350      3AA7
 351 0b09 BC004ED9 		.ascii	"\274\000N\331\006.\210\001=\010\364mz\344\253\033g\030"
 351      062E8801 
 351      3D08F46D 
 351      7AE4AB1B 
 351      6718
 352 0b1b F9A861C6 		.ascii	"\371\250a\306l\034\326\233G\212\355\352\301\266\266"
 352      6C1CD69B 
 352      478AEDEA 
 352      C1B6B6
 353 0b2a 3F9B1B50 		.ascii	"?\233\033Pgs\2550\\4\2163\035.R\315\346^\205*\207\223"
 353      6773AD30 
 353      5C348E33 
 353      1D2E52CD 
 353      E65E852A 
 354 0b40 67735FA9 		.ascii	"gs_\251\303\305\341\364\303\305SU\261\215\317\275\230"
 354      C3C5E1F4 
 354      C3C55355 
 354      B18DCFBD 
 354      98
 355 0b51 18F7AAB4 		.ascii	"\030\367\252\264\006\334\204\223:\253 \245\236\376\035"
 355      06DC8493 
 355      3AAB20A5 
 355      9EFE1D
 356 0b60 D2E47018 		.ascii	"\322\344p\030\244\346\256;\254s\335{\340\272#\264\243"
 356      A4E6AE3B 
 356      AC73DD7B 
 356      E0BA23B4 
 356      A3
 357 0b71 8E1A1DE5 		.ascii	"\216\032\035\345p\366\367z\217:\373\223\337K\3524\342"
 357      70F6F77A 
 357      8F3AFB93 
 357      DF4BEA34 
 357      E2
 358 0b82 D16F2199 		.ascii	"\321o!\231\001\322\236\357t\342\371\033\203\377B^\211"
 358      01D29EEF 
 358      74E2F91B 
 358      83FF425E 
 358      89
 359 0b93 3A015EEF 		.ascii	":\001^\357u\352ub\240.\203\307c\227\371\034\371j\372"
 359      75EA7562 
ARM GAS  /tmp/ccdGRgqs.s 			page 28


 359      A02E83C7 
 359      6397F91C 
 359      F96AFA
 360 0ba6 D460F89C 		.ascii	"\324`\370\234\262h&\277\211~\021\370w}]\256\353\322"
 360      B26826BF 
 360      897E11F8 
 360      777D5DAE 
 360      EBD2
 361 0bb8 B9AE1B5C 		.ascii	"\271\256\033\\w\232v\335U;\256+\265\315\357\023]\256"
 361      779A76DD 
 361      553BAE2B 
 361      B5CDEF13 
 361      5DAE
 362 0bca 7B0172DD 		.ascii	"{\001r\335O!\327\335\014\355\373\035\240\035@;i9\206"
 362      4F21D7DD 
 362      0CEDFB1D 
 362      A01D403B 
 362      693986
 363 0bdd 34BBAB2E 		.ascii	"4\273\253.\247^Z\204\027)]\332\213\224\220aT\245\\\262"
 363      A75E5A84 
 363      17295DDA 
 363      8B949061 
 363      54A55CB2 
 364 0bf1 E2D02EE0 		.ascii	"\342\320.\340\237~\375\311\354\255C\217\012\365\253"
 364      9F7EFDC9 
 364      ECAD438F 
 364      0AF5AB
 365 0c00 449C5C6F 		.ascii	"D\234\\o\031\356A\315\360X\273\027b\245i|\372\327\027"
 365      19EE41CD 
 365      F058BB17 
 365      62A5697C 
 365      FAD717
 366 0c13 29202255 		.ascii	") \"U\334\030+\233\257\265!\310\201\342\266\372\206"
 366      DC182B9B 
 366      AFB521C8 
 366      81E2B6FA 
 366      86
 367 0c24 E66B1DAC 		.ascii	"\346k\035\254\362!\304\207\320O\357\005)\342c\033\221"
 367      F221C487 
 367      D04FEF05 
 367      29E2631B 
 367      91
 368 0c35 30E06EC2 		.ascii	"0\340n\302\237\004\240\014\367W\307p9\024\334\2534\334"
 368      9F04A00C 
 368      F757C770 
 368      3914DCAB 
 368      34DC
 369 0c47 413B7056 		.ascii	"A;pVC\022\206{\215\206ks\014GK\267\217\206;f\007\316"
 369      4312867B 
 369      8D866B73 
 369      0C474BB7 
 369      8F863B66 
 370 0c5d 6A0E8AE1 		.ascii	"j\016\212\341\376J\303\235v\014GK\267\237\206\353\267"
 370      FE4AC39D 
 370      760C474B 
 370      B79F86EB 
 370      B7
ARM GAS  /tmp/ccdGRgqs.s 			page 29


 371 0c6e 0367F512 		.ascii	"\003g\365\022\307\332\252\330[2\234\326Xb_Cca\231\363"
 371      C7DAAAD8 
 371      5B329CD6 
 371      58625F43 
 371      636199F3 
 372 0c82 8EA5A295 		.ascii	"\216\245\242\225\354\240\225\374\273\035\270\034k\027"
 372      ECA095FC 
 372      BB1DB81C 
 372      6B17
 373 0c90 74D27057 		.ascii	"t\322pW\034\303\321\322\235\244\341\206\354\300\245"
 373      1CC3D1D2 
 373      9DA4E186 
 373      ECC0A5
 374 0c9f 18D9BA64 		.ascii	"\030\331\272d\270o2\265\352(\"/\221[\215$_\272\276\011"
 374      B86F32B5 
 374      EA28222F 
 374      915B8D24 
 374      5FBABE09 
 375 0cb3 47D4C334 		.ascii	"G\324\3034\270\303\252\306\015W\342e\241,\237\376@\336"
 375      B8C3AAC6 
 375      0D57E265 
 375      A12C9FFE 
 375      40DE
 376 0cc5 58A632CB 		.ascii	"X\2462\313\251\016\264IN\323&Ya\007\216ZM\245\035\366"
 376      A90EB449 
 376      4ED32659 
 376      61078E5A 
 376      4DA51DF6 
 377 0cd9 010DB7DA 		.ascii	"\001\015\267\3321\034-\335\2074\334\006;p\226k\263R"
 377      311C2DDD 
 377      8734DC06 
 377      3B70966B 
 377      B352
 378 0ceb AC4F8523 		.ascii	"\254O\205#\236`\231\255\216\341h\351.\321\3225\331\201"
 378      9E6099AD 
 378      8EE168E9 
 378      2ED1D235 
 378      D981
 379 0cfd 9B616DBB 		.ascii	"\233am\273+4\334n\307p\264t\2034\334>;p\217Z\333\356"
 379      2B34DC6E 
 379      C770B474 
 379      8334DC3E 
 379      3B708F5A 
 380 0d13 1A6DBBB7 		.ascii	"\032m\273\267\035\303\321\322\015\321\322\035\261\003"
 380      1DC3D1D2 
 380      0DD1D21D 
 380      B103
 381 0d21 37D7DA76 		.ascii	"7\327\332v_\322p\235\216\341h\351F\014]\277\035\270"
 381      5FD2709D 
 381      8EE168E9 
 381      460C5DBF 
 381      1DB8
 382 0d33 0526D299 		.ascii	"\005&\322\231m\372,\201C\037A\336v\006\262\246\217\201"
 382      6DFA2C81 
 382      431F41DE 
 382      7606B2A6 
 382      8F81
ARM GAS  /tmp/ccdGRgqs.s 			page 30


 383 0d45 7E02F402 		.ascii	"~\002\364\002\320\317\200\376\035\350E\240\227\200~"
 383      D0CF80FE 
 383      1DE845A0 
 383      97807E
 384 0d54 01F42AD0 		.ascii	"\001\364*\320\353@\207\201\376\023\350(\320\0127\241"
 384      EB408781 
 384      FE13E828 
 384      D00A37A1 
 385 0d64 55409701 		.ascii	"U@\227\001]\016\364\031\240\177\004\372'\240+\201\256"
 385      5D0EF419 
 385      A07F04FA 
 385      27A02B81 
 385      AE
 386 0d75 72EB7236 		.ascii	"r\353r6\303\352B\257\205\352D\2335nmrB\276\032\212]"
 386      C3EA42AF 
 386      85EA449B 
 386      356E6D72 
 386      42BE1A8A 
 387 0d8a 8A377FDE 		.ascii	"\2127\177\336\261\017]n\254\226\310gW\177\330\022\313"
 387      B10F5D6E 
 387      AC96C867 
 387      577FD812 
 387      CB
 388 0d9b 362C9934 		.ascii	"6,\2314\245\350#\327\271\223?i:\223E\247b\312\3079\225"
 388      A5E823D7 
 388      B9933F69 
 388      3A9345A7 
 388      62CAC739 
 389 0db0 D2EEED92 		.ascii	"\322\356\355\222O\206#\025\326\272\315?\351Q\360\326"
 389      4F862315 
 389      D6BACD3F 
 389      E951F0D6 
 390 0dc0 BBA94F75 		.ascii	"\273\251Ou\014\032\236\265H\222I\315\015I\0326>\277"
 390      0C1A9EB5 
 390      489249CD 
 390      0D491A36 
 390      3EBF
 391 0dd2 5EFB06FA 		.ascii	"^\373\006\372n\007\037F=\347N\365a\224\254H\322\271"
 391      6E071F46 
 391      3DE74EF5 
 391      6194AC48 
 391      D2B9
 392 0de4 E143A911 		.ascii	"\341C\251\021\2035\224O\243\216\033?W\333ha\016\372"
 392      8335944F 
 392      A38E1B3F 
 392      57DB6861 
 392      0EFA
 393 0df6 D3A8DEE6 		.ascii	"\323\250\336\346v$M\322\276\273\375\006JY\023$Rj\366"
 393      76244DD2 
 393      BEBBFD06 
 393      4A591324 
 393      526AF6
 394 0e09 11864DF0 		.ascii	"\021\206M\360\232\333\373\256\324\014\025E\224O\252"
 394      9ADBFBAE 
 394      D40C1545 
 394      944FAA
 395 0e18 7A9A2BEA 		.ascii	"z\232+\352\221\224\241}TE\352Q\355\243.\245\247\310"
ARM GAS  /tmp/ccdGRgqs.s 			page 31


 395      9194A17D 
 395      5445EA51 
 395      EDA32EA5 
 395      A7C8
 396 0e2a 277C56F6 		.ascii	"'|V\366\335\226\360\024\363\355\373\357\317\225\177"
 396      DD96F014 
 396      F3EDFBEF 
 396      CF957F
 397 0e39 9168AE20 		.ascii	"\221h\256 \346F\205@n\240X\014\335\037`\376\315P\024"
 397      E6468540 
 397      6EA0580C 
 397      DD1F60FE 
 397      CD5014
 398 0e4c 0C074ACA 		.ascii	"\014\007J\312\012y\271\270\230\231$\006C\274?\304s\321"
 398      0A79B9B8 
 398      98992406 
 398      43BC3FC4 
 398      73D1
 399 0e5e 32810FF1 		.ascii	"2\201\017\361a\321/f<\362\330\0239\371\314t}\305@$\024"
 399      61D12F66 
 399      3CF2D813 
 399      39F9CC74 
 399      7DC54024 
 400 0e73 8A84734B 		.ascii	"\212\204sK#\202\030\315}h\336\234\3749K\310\265\322"
 400      238218CD 
 400      7D68DE9C 
 400      FC394BC8 
 400      B5D2
 401 0e85 60092F44 		.ascii	"`\011/Ds\037\311\317'xKK\371(\206\314\024\304\000\301"
 401      731FC9CF 
 401      27784B4B 
 401      F92886CC 
 401      14C400C1 
 402 0e99 F94D6E71 		.ascii	"\371Mnq$\304\347r%\374\222\3349\0309\"<\"p\245\305\301"
 402      24C4E772 
 402      25FC92DC 
 402      39183922 
 402      3C2270A5 
 403 0eaf 4034B720 		.ascii	"@4\267 R&\004xa\251??R\310\377\224\017\007\212\375\263"
 403      52260478 
 403      61A93F3F 
 403      52C8FF94 
 403      0F078AFD 
 404 0ec4 8322EF5F 		.ascii	"\203\"\357_\024\021\374\030\335?\363\241\237\316\312"
 404      1411FC18 
 404      DD3FF3A1 
 404      9FCECA
 405 0ed3 E584D07D 		.ascii	"\345\204\320}\341H\230\277\217\347\026\0065\271\243"
 405      E14898BF 
 405      8FE71606 
 405      35B9A3
 406 0ee2 6261302C 		.ascii	"ba0,b6\3362\374?m\252_t/\344\243\242\247<\"DEw\011\027"
 406      6236DE32 
 406      FC3F6DAA 
 406      5F742FE4 
 406      A3A2A73C 
 407 0efc 1533CA80 		.ascii	"\0253\312\200=\012{\005\021\264\023\341\326\007\276"
ARM GAS  /tmp/ccdGRgqs.s 			page 32


 407      3D0A7B05 
 407      11B413E1 
 407      D607BE
 408 0f0b EF17C705 		.ascii	"\357\027\307\005\312Be%\234\030\\\314O\010\024\317\237"
 408      CA426525 
 408      9C185CCC 
 408      4F0814CF 
 408      9F
 409 0f1c F3F8C2DF 		.ascii	"\363\370\302\337\362\001qV8(\272\304P\351m\344R\201"
 409      F2017156 
 409      3828BAC4 
 409      50E96DE4 
 409      5281
 410 0f2e C809E29C 		.ascii	"\310\011\342\234\204=\026x\303\221`\270$\030\346o\225"
 410      843D1678 
 410      C39160B8 
 410      2418E66F 
 410      95
 411 0f3f 8B23A554 		.ascii	"\213#\245T\251_\014\371\203\030\340[\2444\277\230\013"
 411      A95F0CF9 
 411      8318E05B 
 411      A434BF98 
 411      0B
 412 0f50 8675C5F3 		.ascii	"\206u\305\363#\013\334\030x\012!Ss,=\021\015\024\027"
 412      230BDC18 
 412      780A2153 
 412      732C3D11 
 412      0D1417
 413 0f63 628DEEB1 		.ascii	"b\215\356\261\276aiT\265\356xl+r\312\207\374\242O;\316"
 413      BE616954 
 413      B5EE786C 
 413      2B72CA87 
 413      FCA24F3B 
 414 0f78 1278AE70 		.ascii	"\022x\256p\251\277$\030\305\232\177\003_N\234O\024\213"
 414      A9BF2418 
 414      C59A7F03 
 414      5F4E9C4F 
 414      148B
 415 0f8a C949D4FF 		.ascii	"\311I\324\377\3732\276\014\033#\033\227R\227\274\362"
 415      FB32BE0C 
 415      1B231B97 
 415      5297BCF2 
 416 0f9a 990C271F 		.ascii	"\231\014'\037{\240"
 416      7BA0
 417 0fa0 20532C15 		.ascii	" S,\025\202\021l`\362\227E|\357\017D\302\"\277D\374"
 417      82116C60 
 417      F297457C 
 417      EF0F44C2 
 417      22BF44FC 
 418 0fb4 5EDAD828 		.ascii	"^\332\330(\016D\004\236\210\013\325\260\371\003\342"
 418      0E44049E 
 418      880BD5B0 
 418      F903E2
 419 0fc3 92FBECD5 		.ascii	"\222\373\354\325\362/\376!\211L\257\300\027\341\020"
 419      F22FFE21 
 419      894CAFC0 
 419      17E110
ARM GAS  /tmp/ccdGRgqs.s 			page 33


 420 0fd2 F08BACF0 		.ascii	"\360\213\254\360}V\370\001+<\300\012?d\205\351\254\360"
 420      7D56F801 
 420      2B3CC00A 
 420      3F6485E9 
 420      ACF0
 421 0fe4 A04B9892 		.ascii	"\240K\230\222\207\367)l\211\300FK]\030\332\023\346\313"
 421      87F7296C 
 421      89C0464B 
 421      5D18DA13 
 421      E6CB
 422 0ff6 79C11329 		.ascii	"y\301\023))\344\005w\240\230"
 422      29E40577 
 422      A098
 423 1000 13DC612E 		.ascii	"\023\334a.\304\217\213\212\277\343J\202Ea\034\324\345"
 423      C48F8B8A 
 423      BFE34A82 
 423      45611CD4 
 423      E5
 424 1011 DC422E8A 		.ascii	"\334B.\212u\215\212\034\01641\223\204\304t\277\350\201"
 424      758D8A1C 
 424      0E343193 
 424      84C474BF 
 424      E881
 425 1023 F34C3184 		.ascii	"\363L1\204\003\021\237-*\341\212\242\231\242\300/\212"
 425      03119F2D 
 425      2AE18AA2 
 425      99A2C02F 
 425      8A
 426 1034 62BDC99F 		.ascii	"b\275\311\237'\024-\302\267+\261\226!\024.\305\027\274"
 426      27142DC2 
 426      B72BB196 
 426      21142EC5 
 426      17BC
 427 1046 FC92A018 		.ascii	"\374\222\240\030\300U2\312\305\310\302\337\226NRL\210"
 427      C05532CA 
 427      C5C8C2DF 
 427      964E524C 
 427      88
 428 1057 2BF0020E 		.ascii	"+\360\002\016g\002U.\212Bif\024G\001\256\220E<\305\207"
 428      6702552E 
 428      8A426966 
 428      144701AE 
 428      90453CC5 
 429 106c 70F86305 		.ascii	"p\370c\005\357\262\3663O4\367@\374\2720\305\360\370"
 429      EFB2F633 
 429      4F34F740 
 429      FCBA30C5 
 429      F0F8
 430 107e 52A917D7 		.ascii	"R\251\027\327\016\225a\303[\327\014\211KH\315Hy\230"
 430      0E9561C3 
 430      5BD70C89 
 430      4B48CD48 
 430      7998
 431 1090 1732E15E 		.ascii	"\0272\341^,\177\030\273\012C\340\262\322\361\374b\""
 431      2C7F18BB 
 431      0A43E0B2 
 431      D2F1FC62 
ARM GAS  /tmp/ccdGRgqs.s 			page 34


 431      22
 432 10a1 0917FD1D 		.ascii	"\011\027\375\035V\202/'\007\250l\202\032\007r\334L\324"
 432      56822F27 
 432      07A86C82 
 432      1A0772DC 
 432      4CD4
 433 10b3 4506B992 		.ascii	"E\006\271\222Y\316\005\305`\270\310\213\025\220#\205"
 433      59CE05C5 
 433      60B8C88B 
 433      15902385 
 434 10c3 2FE5C3B8 		.ascii	"/\345\303\270\371\025ebHr\007\366\021WB\242\303\023"
 434      F9156562 
 434      487207F6 
 434      115742A2 
 434      C313
 435 10d5 2A8D444A 		.ascii	"*\215DJp\240\360\2133\003e\002\266\201\350\021\310\035"
 435      70A0F08B 
 435      33036502 
 435      B681E811 
 435      C81D
 436 10e7 B72D0E0A 		.ascii	"\267-\016\012b\031W\342'-QP9\335\2169\231\024L\244\256"
 436      621957E2 
 436      272D5150 
 436      39DD8E39 
 436      99144CA4 
 437 10fc C9A14A5D 		.ascii	"\311\241J]\362\221hO4\351)\017`;\027\362%\"\347],.*"
 437      F291684F 
 437      34E9290F 
 437      603B17F2 
 437      2522E75D 
 438 1113 0B07B0CE 		.ascii	"\013\007\260\316\344\317U\312\011^\322\025\220{3\026"
 438      E4CF55CA 
 438      095ED215 
 438      907B3316 
 439 1123 8B047B82 		.ascii	"\213\004{\202\322h\012\371\205eE\262\256\372+\276R."
 439      D2680AF9 
 439      856545B2 
 439      AEFA2BBE 
 439      522E
 440 1135 1C0CF8B1 		.ascii	"\034\014\370\261\246\256\302\205E\343B\270\035\313\246"
 440      A6AEC285 
 440      45E342B8 
 440      1DCBA6
 441 1144 C8C6ED3B 		.ascii	"\310\306\355;\200\203h\241\200\273\215\010\211\244\310"
 441      808368A1 
 441      80BB8D08 
 441      89A4C8
 442 1153 A245515E 		.ascii	"\242EQ^d\305\020\033(\3163\011il\364\334\3749\005\263"
 442      64C5101B 
 442      28CE3309 
 442      696CF4DC 
 442      FC3905B3 
 443 1167 0A12EE21 		.ascii	"\012\022\356!Q\035\010M#Q\375\360\317\347\373\347\343"
 443      511D084D 
 443      2351FDF0 
 443      CFE7FBE7 
 443      E3
ARM GAS  /tmp/ccdGRgqs.s 			page 35


 444 1178 B6ECCE9F 		.ascii	"\266\354\316\237?ovF\376/\362\363\037\233\237\221?w"
 444      3F6F7646 
 444      FE2FF2F3 
 444      1F9B9F91 
 444      3F77
 445 118a 16F99BB9 		.ascii	"\026\371\233\271\200\234y\013f\317\2349\227\234\317"
 445      809C790B 
 445      66CF9C39 
 445      979CCF
 446 1199 2E7802FF 		.ascii	".x\002\377e\376\354\361\331\017\343\177\367\334\374"
 446      65FEECF1 
 446      D90FE37F 
 446      F7DCFC
 447 11a8 82799EFC 		.ascii	"\202y\236\374\307\347\314\315\363\314y\250\340\277\363"
 447      C7E7CCCD 
 447      F3CC79A8 
 447      E0BFF3
 448 11b7 7C3F7BE2 		.ascii	"|?{\342\261\374\371\263\036\177,\3177of\301\314y\377"
 448      B1FCF9B3 
 448      1E7F2CCF 
 448      376F66C1 
 448      CC79FF
 449 11ca 33F3E13C 		.ascii	"3\363\341<(\237\002\345S\264\362)Z\371\024(\237\012"
 449      289F02E5 
 449      53B4F229 
 449      5AF91428 
 449      9F0A
 450 11dc E553B5F2 		.ascii	"\345S\265\362\251Z\371T(\237\006\345\323\264\362iw@"
 450      A95AF954 
 450      289F06E5 
 450      D3B4F269 
 450      7740
 451 11ee 2BC6BF22 		.ascii	"+\306\277\"\236\364\001e\270\023\020\374\213\271\022"
 451      9EF40165 
 451      B81310FC 
 451      8BB912
 452 11fd D24784FC 		.ascii	"\322G\204\374Q\334'\272\302\221\362\377\007\264L\373"
 452      51DC27BA 
 452      C291F2FF 
 452      07B44CFB 
 453 120d C4       		.ascii	"\304"
 454              		.text
 455              		.section	.gnu.lto_.symtab.f279d5eaf59034f7,"",%progbits
 456 0000 6368544D 		.ascii	"chTMObjectInit\000\000\000\000\000\000\000\000\000\000"
 456      4F626A65 
 456      6374496E 
 456      69740000 
 456      00000000 
 457 0018 0000A100 		.ascii	"\000\000\241\000\000\000chTMStartMeasurementX\000\000"
 457      00006368 
 457      544D5374 
 457      6172744D 
 457      65617375 
 458 0035 00000000 		.ascii	"\000\000\000\000\000\000\000\000\000\000\310\000\000"
 458      00000000 
 458      0000C800 
 458      00
ARM GAS  /tmp/ccdGRgqs.s 			page 36


 459 0042 00636854 		.ascii	"\000chTMStopMeasurementX\000\000\000\000\000\000\000"
 459      4D53746F 
 459      704D6561 
 459      73757265 
 459      6D656E74 
 460 005e 00000000 		.ascii	"\000\000\000\000\000\316\000\000\000_tm_init\000\000"
 460      00CE0000 
 460      005F746D 
 460      5F696E69 
 460      740000
 461 0071 00000000 		.ascii	"\000\000\000\000\000\000\000\000\000\000\323\000\000"
 461      00000000 
 461      0000D300 
 461      00
 462 007e 00636854 		.ascii	"\000chTMChainMeasurementToX\000\000\000\000\000\000"
 462      4D436861 
 462      696E4D65 
 462      61737572 
 462      656D656E 
 463 009c 00000000 		.ascii	"\000\000\000\000\000\000\327\000\000\000ch\000\000\002"
 463      0000D700 
 463      00006368 
 463      000002
 464 00ab 00000000 		.ascii	"\000\000\000\000\000\000\000\000\000\342\000\000\000"
 464      00000000 
 464      00E20000 
 464      00
 465              		.text
 466              		.section	.gnu.lto_.opts,"",%progbits
 467 0000 272D6D63 		.ascii	"'-mcpu=cortex-m3' '-mno-thumb-interwork' '-mthumb' "
 467      70753D63 
 467      6F727465 
 467      782D6D33 
 467      2720272D 
 468 0033 272D6767 		.ascii	"'-ggdb' '-O2' '-fomit-frame-pointer' '-falign-funct"
 468      64622720 
 468      272D4F32 
 468      2720272D 
 468      666F6D69 
 469 0066 696F6E73 		.ascii	"ions=16' '-ffunction-sections' '-fdata-sections' '-"
 469      3D313627 
 469      20272D66 
 469      66756E63 
 469      74696F6E 
 470 0099 666E6F2D 		.ascii	"fno-common' '-flto'\000"
 470      636F6D6D 
 470      6F6E2720 
 470      272D666C 
 470      746F2700 
 471              		.text
 472              		.cfi_sections	.debug_frame
 473              		.section	.text.chTMObjectInit,"ax",%progbits
 474              		.align	2
 475              		.p2align 4,,15
 476              		.global	chTMObjectInit
 477              		.thumb
 478              		.thumb_func
ARM GAS  /tmp/ccdGRgqs.s 			page 37


 479              		.type	chTMObjectInit, %function
 480              	chTMObjectInit:
 481              	.LFB188:
 482              		.file 1 "../../../os/rt/src/chtm.c"
 483              		.loc 1 97 0
 484              		.cfi_startproc
 485              		@ args = 0, pretend = 0, frame = 0
 486              		@ frame_needed = 0, uses_anonymous_args = 0
 487              		@ link register save eliminated.
 488              	.LVL0:
 489              		.loc 1 103 0
 490 0000 0022     		movs	r2, #0
 491 0002 0023     		movs	r3, #0
 492 0004 C0E90423 		strd	r2, [r0, #16]
 493              		.loc 1 100 0
 494 0008 0023     		movs	r3, #0
 495 000a 4FF0FF32 		mov	r2, #-1
 496 000e 80E80C00 		stmia	r0, {r2, r3}
 497              		.loc 1 101 0
 498 0012 8360     		str	r3, [r0, #8]
 499              		.loc 1 102 0
 500 0014 C360     		str	r3, [r0, #12]
 501 0016 7047     		bx	lr
 502              		.cfi_endproc
 503              	.LFE188:
 504              		.size	chTMObjectInit, .-chTMObjectInit
 505 0018 AFF30080 		.section	.text.chTMStartMeasurementX,"ax",%progbits
 505      AFF30080 
 506              		.align	2
 507              		.p2align 4,,15
 508              		.global	chTMStartMeasurementX
 509              		.thumb
 510              		.thumb_func
 511              		.type	chTMStartMeasurementX, %function
 512              	chTMStartMeasurementX:
 513              	.LFB189:
 514              		.loc 1 114 0
 515              		.cfi_startproc
 516              		@ args = 0, pretend = 0, frame = 0
 517              		@ frame_needed = 0, uses_anonymous_args = 0
 518              		@ link register save eliminated.
 519              	.LVL1:
 520              	.LBB14:
 521              	.LBB15:
 522              		.file 2 "../../../os/common/ports/ARMCMx/chcore_v7m.h"
 523              		.loc 2 708 0
 524 0000 4FF48053 		mov	r3, #4096
 525 0004 CEF20003 		movt	r3, 57344
 526 0008 5B68     		ldr	r3, [r3, #4]
 527              	.LBE15:
 528              	.LBE14:
 529              		.loc 1 116 0
 530 000a 8360     		str	r3, [r0, #8]
 531 000c 7047     		bx	lr
 532              		.cfi_endproc
 533              	.LFE189:
 534              		.size	chTMStartMeasurementX, .-chTMStartMeasurementX
ARM GAS  /tmp/ccdGRgqs.s 			page 38


 535 000e 00BF     		.section	.text.chTMStopMeasurementX,"ax",%progbits
 536              		.align	2
 537              		.p2align 4,,15
 538              		.global	chTMStopMeasurementX
 539              		.thumb
 540              		.thumb_func
 541              		.type	chTMStopMeasurementX, %function
 542              	chTMStopMeasurementX:
 543              	.LFB190:
 544              		.loc 1 127 0
 545              		.cfi_startproc
 546              		@ args = 0, pretend = 0, frame = 0
 547              		@ frame_needed = 0, uses_anonymous_args = 0
 548              		@ link register save eliminated.
 549              	.LVL2:
 550              	.LBB16:
 551              	.LBB17:
 552              		.loc 2 708 0
 553 0000 4FF48052 		mov	r2, #4096
 554 0004 CEF20002 		movt	r2, 57344
 555              	.LBE17:
 556              	.LBE16:
 557              		.loc 1 129 0
 558 0008 40F20003 		movw	r3, #:lower16:ch
 559              	.LBB19:
 560              	.LBB18:
 561              		.loc 2 708 0
 562 000c 5168     		ldr	r1, [r2, #4]
 563              	.LBE18:
 564              	.LBE19:
 565              		.loc 1 129 0
 566 000e C0F20003 		movt	r3, #:upper16:ch
 567              	.LBB20:
 568              	.LBB21:
 569              		.loc 1 58 0
 570 0012 8268     		ldr	r2, [r0, #8]
 571              	.LBE21:
 572              	.LBE20:
 573              		.loc 1 127 0
 574 0014 30B4     		push	{r4, r5}
 575              		.cfi_def_cfa_offset 8
 576              		.cfi_offset 4, -8
 577              		.cfi_offset 5, -4
 578              		.loc 1 129 0
 579 0016 1C6F     		ldr	r4, [r3, #112]
 580              	.LVL3:
 581              	.LBB23:
 582              	.LBB22:
 583              		.loc 1 58 0
 584 0018 891A     		subs	r1, r1, r2
 585              	.LVL4:
 586              		.loc 1 57 0
 587 001a C368     		ldr	r3, [r0, #12]
 588              		.loc 1 58 0
 589 001c 091B     		subs	r1, r1, r4
 590              		.loc 1 57 0
 591 001e 5D1C     		adds	r5, r3, #1
ARM GAS  /tmp/ccdGRgqs.s 			page 39


 592              		.loc 1 59 0
 593 0020 D0E90423 		ldrd	r2, [r0, #16]
 594 0024 5218     		adds	r2, r2, r1
 595              		.loc 1 60 0
 596 0026 4468     		ldr	r4, [r0, #4]
 597              	.LVL5:
 598              		.loc 1 59 0
 599 0028 43F10003 		adc	r3, r3, #0
 600 002c C0E90423 		strd	r2, [r0, #16]
 601              		.loc 1 63 0
 602 0030 0368     		ldr	r3, [r0]
 603              		.loc 1 60 0
 604 0032 A142     		cmp	r1, r4
 605              		.loc 1 61 0
 606 0034 88BF     		it	hi
 607 0036 4160     		strhi	r1, [r0, #4]
 608              		.loc 1 63 0
 609 0038 9942     		cmp	r1, r3
 610              		.loc 1 57 0
 611 003a C560     		str	r5, [r0, #12]
 612              		.loc 1 58 0
 613 003c 8160     		str	r1, [r0, #8]
 614              		.loc 1 64 0
 615 003e 38BF     		it	cc
 616 0040 0160     		strcc	r1, [r0]
 617              	.LBE22:
 618              	.LBE23:
 619              		.loc 1 130 0
 620 0042 30BC     		pop	{r4, r5}
 621 0044 7047     		bx	lr
 622              		.cfi_endproc
 623              	.LFE190:
 624              		.size	chTMStopMeasurementX, .-chTMStopMeasurementX
 625 0046 00BFAFF3 		.section	.text._tm_init,"ax",%progbits
 625      0080AFF3 
 625      0080
 626              		.align	2
 627              		.p2align 4,,15
 628              		.global	_tm_init
 629              		.thumb
 630              		.thumb_func
 631              		.type	_tm_init, %function
 632              	_tm_init:
 633              	.LFB187:
 634              		.loc 1 77 0
 635              		.cfi_startproc
 636              		@ args = 0, pretend = 0, frame = 24
 637              		@ frame_needed = 0, uses_anonymous_args = 0
 638 0000 30B5     		push	{r4, r5, lr}
 639              		.cfi_def_cfa_offset 12
 640              		.cfi_offset 4, -12
 641              		.cfi_offset 5, -8
 642              		.cfi_offset 14, -4
 643              		.loc 1 83 0
 644 0002 40F20004 		movw	r4, #:lower16:ch
 645              		.loc 1 77 0
 646 0006 87B0     		sub	sp, sp, #28
ARM GAS  /tmp/ccdGRgqs.s 			page 40


 647              		.cfi_def_cfa_offset 40
 648              		.loc 1 83 0
 649 0008 0021     		movs	r1, #0
 650              	.LBB24:
 651              	.LBB25:
 652              		.loc 1 103 0
 653 000a 0022     		movs	r2, #0
 654 000c 0023     		movs	r3, #0
 655              	.LBE25:
 656              	.LBE24:
 657              		.loc 1 83 0
 658 000e C0F20004 		movt	r4, #:upper16:ch
 659              		.loc 1 85 0
 660 0012 6846     		mov	r0, sp
 661              	.LBB28:
 662              	.LBB26:
 663              		.loc 1 99 0
 664 0014 4FF0FF35 		mov	r5, #-1
 665              		.loc 1 103 0
 666 0018 CDE90423 		strd	r2, [sp, #16]
 667              	.LBE26:
 668              	.LBE28:
 669              		.loc 1 83 0
 670 001c 2167     		str	r1, [r4, #112]
 671              	.LVL6:
 672              	.LBB29:
 673              	.LBB27:
 674              		.loc 1 100 0
 675 001e 0191     		str	r1, [sp, #4]
 676              		.loc 1 101 0
 677 0020 0291     		str	r1, [sp, #8]
 678              		.loc 1 102 0
 679 0022 0391     		str	r1, [sp, #12]
 680              		.loc 1 99 0
 681 0024 0095     		str	r5, [sp]
 682              	.LBE27:
 683              	.LBE29:
 684              		.loc 1 85 0
 685 0026 FFF7FEFF 		bl	chTMStartMeasurementX
 686              	.LVL7:
 687              		.loc 1 86 0
 688 002a 6846     		mov	r0, sp
 689 002c FFF7FEFF 		bl	chTMStopMeasurementX
 690              	.LVL8:
 691              		.loc 1 87 0
 692 0030 029B     		ldr	r3, [sp, #8]
 693 0032 2367     		str	r3, [r4, #112]
 694              		.loc 1 88 0
 695 0034 07B0     		add	sp, sp, #28
 696              	.LVL9:
 697              		@ sp needed
 698 0036 30BD     		pop	{r4, r5, pc}
 699              		.cfi_endproc
 700              	.LFE187:
 701              		.size	_tm_init, .-_tm_init
 702 0038 AFF30080 		.section	.text.chTMChainMeasurementToX,"ax",%progbits
 702      AFF30080 
ARM GAS  /tmp/ccdGRgqs.s 			page 41


 703              		.align	2
 704              		.p2align 4,,15
 705              		.global	chTMChainMeasurementToX
 706              		.thumb
 707              		.thumb_func
 708              		.type	chTMChainMeasurementToX, %function
 709              	chTMChainMeasurementToX:
 710              	.LFB191:
 711              		.loc 1 145 0
 712              		.cfi_startproc
 713              		@ args = 0, pretend = 0, frame = 0
 714              		@ frame_needed = 0, uses_anonymous_args = 0
 715              		@ link register save eliminated.
 716              	.LVL10:
 717              	.LBB30:
 718              	.LBB31:
 719              		.loc 2 708 0
 720 0000 4FF48053 		mov	r3, #4096
 721 0004 CEF20003 		movt	r3, 57344
 722 0008 5B68     		ldr	r3, [r3, #4]
 723              	.LBE31:
 724              	.LBE30:
 725              		.loc 1 145 0
 726 000a 30B4     		push	{r4, r5}
 727              		.cfi_def_cfa_offset 8
 728              		.cfi_offset 4, -8
 729              		.cfi_offset 5, -4
 730              		.loc 1 148 0
 731 000c 8B60     		str	r3, [r1, #8]
 732              	.LVL11:
 733              	.LBB32:
 734              	.LBB33:
 735              		.loc 1 58 0
 736 000e 8168     		ldr	r1, [r0, #8]
 737              	.LVL12:
 738              		.loc 1 57 0
 739 0010 C268     		ldr	r2, [r0, #12]
 740              		.loc 1 58 0
 741 0012 591A     		subs	r1, r3, r1
 742              		.loc 1 57 0
 743 0014 551C     		adds	r5, r2, #1
 744              		.loc 1 59 0
 745 0016 D0E90423 		ldrd	r2, [r0, #16]
 746 001a 5218     		adds	r2, r2, r1
 747              		.loc 1 60 0
 748 001c 4468     		ldr	r4, [r0, #4]
 749              		.loc 1 59 0
 750 001e 43F10003 		adc	r3, r3, #0
 751              	.LVL13:
 752 0022 C0E90423 		strd	r2, [r0, #16]
 753              		.loc 1 63 0
 754 0026 0368     		ldr	r3, [r0]
 755              		.loc 1 60 0
 756 0028 A142     		cmp	r1, r4
 757              		.loc 1 61 0
 758 002a 88BF     		it	hi
 759 002c 4160     		strhi	r1, [r0, #4]
ARM GAS  /tmp/ccdGRgqs.s 			page 42


 760              		.loc 1 63 0
 761 002e 9942     		cmp	r1, r3
 762              		.loc 1 57 0
 763 0030 C560     		str	r5, [r0, #12]
 764              		.loc 1 58 0
 765 0032 8160     		str	r1, [r0, #8]
 766              	.LVL14:
 767              		.loc 1 64 0
 768 0034 38BF     		it	cc
 769 0036 0160     		strcc	r1, [r0]
 770              	.LBE33:
 771              	.LBE32:
 772              		.loc 1 152 0
 773 0038 30BC     		pop	{r4, r5}
 774 003a 7047     		bx	lr
 775              		.cfi_endproc
 776              	.LFE191:
 777              		.size	chTMChainMeasurementToX, .-chTMChainMeasurementToX
 778 003c AFF30080 		.text
 779              	.Letext0:
 780              		.file 3 "/home/alex/MentorGraphics/Sourcery_CodeBench_Lite_for_ARM_EABI/arm-none-eabi/include/stdi
 781              		.file 4 "../../../os/common/ports/ARMCMx/compilers/GCC/chtypes.h"
 782              		.file 5 "../../../os/rt/include/chsystypes.h"
 783              		.file 6 "../../../os/rt/include/chschd.h"
 784              		.file 7 "../../../os/common/ext/CMSIS/include/core_cm3.h"
 785              		.file 8 "../../../os/common/ports/ARMCMx/chcore.h"
 786              		.file 9 "../../../os/rt/include/chtm.h"
 787              		.file 10 "../../../os/rt/include/chsem.h"
 788              		.file 11 "../../../os/rt/include/chmtx.h"
 789              		.section	.debug_info,"",%progbits
 790              	.Ldebug_info0:
 791 0000 7F090000 		.4byte	0x97f
 792 0004 0400     		.2byte	0x4
 793 0006 00000000 		.4byte	.Ldebug_abbrev0
 794 000a 04       		.byte	0x4
 795 000b 01       		.uleb128 0x1
 796 000c 28020000 		.4byte	.LASF125
 797 0010 01       		.byte	0x1
 798 0011 97030000 		.4byte	.LASF126
 799 0015 95050000 		.4byte	.LASF127
 800 0019 50000000 		.4byte	.Ldebug_ranges0+0x50
 801 001d 00000000 		.4byte	0
 802 0021 00000000 		.4byte	.Ldebug_line0
 803 0025 02       		.uleb128 0x2
 804 0026 04       		.byte	0x4
 805 0027 05       		.byte	0x5
 806 0028 696E7400 		.ascii	"int\000"
 807 002c 03       		.uleb128 0x3
 808 002d 04       		.byte	0x4
 809 002e 07       		.byte	0x7
 810 002f A3000000 		.4byte	.LASF0
 811 0033 03       		.uleb128 0x3
 812 0034 01       		.byte	0x1
 813 0035 06       		.byte	0x6
 814 0036 5D050000 		.4byte	.LASF1
 815 003a 04       		.uleb128 0x4
 816 003b 29030000 		.4byte	.LASF4
ARM GAS  /tmp/ccdGRgqs.s 			page 43


 817 003f 03       		.byte	0x3
 818 0040 2A       		.byte	0x2a
 819 0041 45000000 		.4byte	0x45
 820 0045 03       		.uleb128 0x3
 821 0046 01       		.byte	0x1
 822 0047 08       		.byte	0x8
 823 0048 FC040000 		.4byte	.LASF2
 824 004c 03       		.uleb128 0x3
 825 004d 02       		.byte	0x2
 826 004e 05       		.byte	0x5
 827 004f 48040000 		.4byte	.LASF3
 828 0053 04       		.uleb128 0x4
 829 0054 04040000 		.4byte	.LASF5
 830 0058 03       		.byte	0x3
 831 0059 36       		.byte	0x36
 832 005a 5E000000 		.4byte	0x5e
 833 005e 03       		.uleb128 0x3
 834 005f 02       		.byte	0x2
 835 0060 07       		.byte	0x7
 836 0061 6F050000 		.4byte	.LASF6
 837 0065 04       		.uleb128 0x4
 838 0066 DA040000 		.4byte	.LASF7
 839 006a 03       		.byte	0x3
 840 006b 4F       		.byte	0x4f
 841 006c 70000000 		.4byte	0x70
 842 0070 03       		.uleb128 0x3
 843 0071 04       		.byte	0x4
 844 0072 05       		.byte	0x5
 845 0073 52040000 		.4byte	.LASF8
 846 0077 04       		.uleb128 0x4
 847 0078 38010000 		.4byte	.LASF9
 848 007c 03       		.byte	0x3
 849 007d 50       		.byte	0x50
 850 007e 82000000 		.4byte	0x82
 851 0082 03       		.uleb128 0x3
 852 0083 04       		.byte	0x4
 853 0084 07       		.byte	0x7
 854 0085 B5040000 		.4byte	.LASF10
 855 0089 03       		.uleb128 0x3
 856 008a 08       		.byte	0x8
 857 008b 05       		.byte	0x5
 858 008c 6B030000 		.4byte	.LASF11
 859 0090 04       		.uleb128 0x4
 860 0091 87040000 		.4byte	.LASF12
 861 0095 03       		.byte	0x3
 862 0096 78       		.byte	0x78
 863 0097 9B000000 		.4byte	0x9b
 864 009b 03       		.uleb128 0x3
 865 009c 08       		.byte	0x8
 866 009d 07       		.byte	0x7
 867 009e 7B010000 		.4byte	.LASF13
 868 00a2 04       		.uleb128 0x4
 869 00a3 0D040000 		.4byte	.LASF14
 870 00a7 04       		.byte	0x4
 871 00a8 39       		.byte	0x39
 872 00a9 77000000 		.4byte	0x77
 873 00ad 04       		.uleb128 0x4
ARM GAS  /tmp/ccdGRgqs.s 			page 44


 874 00ae E8020000 		.4byte	.LASF15
 875 00b2 04       		.byte	0x4
 876 00b3 3A       		.byte	0x3a
 877 00b4 90000000 		.4byte	0x90
 878 00b8 04       		.uleb128 0x4
 879 00b9 E1030000 		.4byte	.LASF16
 880 00bd 04       		.byte	0x4
 881 00be 3C       		.byte	0x3c
 882 00bf 3A000000 		.4byte	0x3a
 883 00c3 04       		.uleb128 0x4
 884 00c4 F8020000 		.4byte	.LASF17
 885 00c8 04       		.byte	0x4
 886 00c9 3D       		.byte	0x3d
 887 00ca 3A000000 		.4byte	0x3a
 888 00ce 04       		.uleb128 0x4
 889 00cf AD040000 		.4byte	.LASF18
 890 00d3 04       		.byte	0x4
 891 00d4 3E       		.byte	0x3e
 892 00d5 3A000000 		.4byte	0x3a
 893 00d9 04       		.uleb128 0x4
 894 00da 62010000 		.4byte	.LASF19
 895 00de 04       		.byte	0x4
 896 00df 40       		.byte	0x40
 897 00e0 77000000 		.4byte	0x77
 898 00e4 04       		.uleb128 0x4
 899 00e5 79030000 		.4byte	.LASF20
 900 00e9 04       		.byte	0x4
 901 00ea 41       		.byte	0x41
 902 00eb 65000000 		.4byte	0x65
 903 00ef 04       		.uleb128 0x4
 904 00f0 49010000 		.4byte	.LASF21
 905 00f4 04       		.byte	0x4
 906 00f5 43       		.byte	0x43
 907 00f6 77000000 		.4byte	0x77
 908 00fa 04       		.uleb128 0x4
 909 00fb AC010000 		.4byte	.LASF22
 910 00ff 04       		.byte	0x4
 911 0100 45       		.byte	0x45
 912 0101 65000000 		.4byte	0x65
 913 0105 04       		.uleb128 0x4
 914 0106 E9030000 		.4byte	.LASF23
 915 010a 04       		.byte	0x4
 916 010b 46       		.byte	0x46
 917 010c 77000000 		.4byte	0x77
 918 0110 04       		.uleb128 0x4
 919 0111 6A000000 		.4byte	.LASF24
 920 0115 05       		.byte	0x5
 921 0116 35       		.byte	0x35
 922 0117 53000000 		.4byte	0x53
 923 011b 04       		.uleb128 0x4
 924 011c ED010000 		.4byte	.LASF25
 925 0120 05       		.byte	0x5
 926 0121 3F       		.byte	0x3f
 927 0122 26010000 		.4byte	0x126
 928 0126 05       		.uleb128 0x5
 929 0127 52030000 		.4byte	.LASF43
 930 012b 44       		.byte	0x44
ARM GAS  /tmp/ccdGRgqs.s 			page 45


 931 012c 06       		.byte	0x6
 932 012d 9A       		.byte	0x9a
 933 012e 04020000 		.4byte	0x204
 934 0132 06       		.uleb128 0x6
 935 0133 D4040000 		.4byte	.LASF26
 936 0137 06       		.byte	0x6
 937 0138 9B       		.byte	0x9b
 938 0139 39020000 		.4byte	0x239
 939 013d 00       		.byte	0
 940 013e 06       		.uleb128 0x6
 941 013f DE020000 		.4byte	.LASF27
 942 0143 06       		.byte	0x6
 943 0144 9C       		.byte	0x9c
 944 0145 D9000000 		.4byte	0xd9
 945 0149 08       		.byte	0x8
 946 014a 07       		.uleb128 0x7
 947 014b 63747800 		.ascii	"ctx\000"
 948 014f 06       		.byte	0x6
 949 0150 9D       		.byte	0x9d
 950 0151 8C050000 		.4byte	0x58c
 951 0155 0C       		.byte	0xc
 952 0156 06       		.uleb128 0x6
 953 0157 F1040000 		.4byte	.LASF28
 954 015b 06       		.byte	0x6
 955 015c 9F       		.byte	0x9f
 956 015d 0F020000 		.4byte	0x20f
 957 0161 10       		.byte	0x10
 958 0162 06       		.uleb128 0x6
 959 0163 30050000 		.4byte	.LASF29
 960 0167 06       		.byte	0x6
 961 0168 A0       		.byte	0xa0
 962 0169 0F020000 		.4byte	0x20f
 963 016d 14       		.byte	0x14
 964 016e 06       		.uleb128 0x6
 965 016f 96040000 		.4byte	.LASF30
 966 0173 06       		.byte	0x6
 967 0174 A7       		.byte	0xa7
 968 0175 5F070000 		.4byte	0x75f
 969 0179 18       		.byte	0x18
 970 017a 06       		.uleb128 0x6
 971 017b F1020000 		.4byte	.LASF31
 972 017f 06       		.byte	0x6
 973 0180 B0       		.byte	0xb0
 974 0181 71070000 		.4byte	0x771
 975 0185 1C       		.byte	0x1c
 976 0186 06       		.uleb128 0x6
 977 0187 36050000 		.4byte	.LASF32
 978 018b 06       		.byte	0x6
 979 018c B5       		.byte	0xb5
 980 018d C3000000 		.4byte	0xc3
 981 0191 20       		.byte	0x20
 982 0192 06       		.uleb128 0x6
 983 0193 64000000 		.4byte	.LASF33
 984 0197 06       		.byte	0x6
 985 0198 B9       		.byte	0xb9
 986 0199 B8000000 		.4byte	0xb8
 987 019d 21       		.byte	0x21
ARM GAS  /tmp/ccdGRgqs.s 			page 46


 988 019e 06       		.uleb128 0x6
 989 019f CF000000 		.4byte	.LASF34
 990 01a3 06       		.byte	0x6
 991 01a4 BE       		.byte	0xbe
 992 01a5 CE000000 		.4byte	0xce
 993 01a9 22       		.byte	0x22
 994 01aa 08       		.uleb128 0x8
 995 01ab 7500     		.ascii	"u\000"
 996 01ad 06       		.byte	0x6
 997 01ae 0F01     		.2byte	0x10f
 998 01b0 94060000 		.4byte	0x694
 999 01b4 24       		.byte	0x24
 1000 01b5 09       		.uleb128 0x9
 1001 01b6 0A050000 		.4byte	.LASF35
 1002 01ba 06       		.byte	0x6
 1003 01bb 1401     		.2byte	0x114
 1004 01bd 15020000 		.4byte	0x215
 1005 01c1 28       		.byte	0x28
 1006 01c2 09       		.uleb128 0x9
 1007 01c3 49030000 		.4byte	.LASF36
 1008 01c7 06       		.byte	0x6
 1009 01c8 1A01     		.2byte	0x11a
 1010 01ca 39020000 		.4byte	0x239
 1011 01ce 2C       		.byte	0x2c
 1012 01cf 09       		.uleb128 0x9
 1013 01d0 9A000000 		.4byte	.LASF37
 1014 01d4 06       		.byte	0x6
 1015 01d5 2001     		.2byte	0x120
 1016 01d7 EF000000 		.4byte	0xef
 1017 01db 34       		.byte	0x34
 1018 01dc 09       		.uleb128 0x9
 1019 01dd CE010000 		.4byte	.LASF38
 1020 01e1 06       		.byte	0x6
 1021 01e2 2701     		.2byte	0x127
 1022 01e4 59070000 		.4byte	0x759
 1023 01e8 38       		.byte	0x38
 1024 01e9 09       		.uleb128 0x9
 1025 01ea 74000000 		.4byte	.LASF39
 1026 01ee 06       		.byte	0x6
 1027 01ef 2B01     		.2byte	0x12b
 1028 01f1 D9000000 		.4byte	0xd9
 1029 01f5 3C       		.byte	0x3c
 1030 01f6 09       		.uleb128 0x9
 1031 01f7 F5050000 		.4byte	.LASF40
 1032 01fb 06       		.byte	0x6
 1033 01fc 3201     		.2byte	0x132
 1034 01fe EC020000 		.4byte	0x2ec
 1035 0202 40       		.byte	0x40
 1036 0203 00       		.byte	0
 1037 0204 04       		.uleb128 0x4
 1038 0205 39000000 		.4byte	.LASF41
 1039 0209 05       		.byte	0x5
 1040 020a 44       		.byte	0x44
 1041 020b 0F020000 		.4byte	0x20f
 1042 020f 0A       		.uleb128 0xa
 1043 0210 04       		.byte	0x4
 1044 0211 1B010000 		.4byte	0x11b
ARM GAS  /tmp/ccdGRgqs.s 			page 47


 1045 0215 04       		.uleb128 0x4
 1046 0216 B5000000 		.4byte	.LASF42
 1047 021a 05       		.byte	0x5
 1048 021b 49       		.byte	0x49
 1049 021c 20020000 		.4byte	0x220
 1050 0220 05       		.uleb128 0x5
 1051 0221 00000000 		.4byte	.LASF44
 1052 0225 04       		.byte	0x4
 1053 0226 06       		.byte	0x6
 1054 0227 88       		.byte	0x88
 1055 0228 39020000 		.4byte	0x239
 1056 022c 06       		.uleb128 0x6
 1057 022d B0000000 		.4byte	.LASF45
 1058 0231 06       		.byte	0x6
 1059 0232 89       		.byte	0x89
 1060 0233 0F020000 		.4byte	0x20f
 1061 0237 00       		.byte	0
 1062 0238 00       		.byte	0
 1063 0239 04       		.uleb128 0x4
 1064 023a BE010000 		.4byte	.LASF46
 1065 023e 05       		.byte	0x5
 1066 023f 50       		.byte	0x50
 1067 0240 44020000 		.4byte	0x244
 1068 0244 05       		.uleb128 0x5
 1069 0245 0E010000 		.4byte	.LASF47
 1070 0249 08       		.byte	0x8
 1071 024a 06       		.byte	0x6
 1072 024b 8F       		.byte	0x8f
 1073 024c 69020000 		.4byte	0x269
 1074 0250 06       		.uleb128 0x6
 1075 0251 B0000000 		.4byte	.LASF45
 1076 0255 06       		.byte	0x6
 1077 0256 90       		.byte	0x90
 1078 0257 0F020000 		.4byte	0x20f
 1079 025b 00       		.byte	0
 1080 025c 06       		.uleb128 0x6
 1081 025d 09010000 		.4byte	.LASF48
 1082 0261 06       		.byte	0x6
 1083 0262 91       		.byte	0x91
 1084 0263 0F020000 		.4byte	0x20f
 1085 0267 04       		.byte	0x4
 1086 0268 00       		.byte	0
 1087 0269 04       		.uleb128 0x4
 1088 026a C7040000 		.4byte	.LASF49
 1089 026e 05       		.byte	0x5
 1090 026f 57       		.byte	0x57
 1091 0270 74020000 		.4byte	0x274
 1092 0274 0B       		.uleb128 0xb
 1093 0275 EF000000 		.4byte	.LASF50
 1094 0279 1C       		.byte	0x1c
 1095 027a 06       		.byte	0x6
 1096 027b 6A01     		.2byte	0x16a
 1097 027d D0020000 		.4byte	0x2d0
 1098 0281 09       		.uleb128 0x9
 1099 0282 D4040000 		.4byte	.LASF26
 1100 0286 06       		.byte	0x6
 1101 0287 6B01     		.2byte	0x16b
ARM GAS  /tmp/ccdGRgqs.s 			page 48


 1102 0289 39020000 		.4byte	0x239
 1103 028d 00       		.byte	0
 1104 028e 09       		.uleb128 0x9
 1105 028f DE020000 		.4byte	.LASF27
 1106 0293 06       		.byte	0x6
 1107 0294 6C01     		.2byte	0x16c
 1108 0296 D9000000 		.4byte	0xd9
 1109 029a 08       		.byte	0x8
 1110 029b 08       		.uleb128 0x8
 1111 029c 63747800 		.ascii	"ctx\000"
 1112 02a0 06       		.byte	0x6
 1113 02a1 6E01     		.2byte	0x16e
 1114 02a3 8C050000 		.4byte	0x58c
 1115 02a7 0C       		.byte	0xc
 1116 02a8 09       		.uleb128 0x9
 1117 02a9 F1040000 		.4byte	.LASF28
 1118 02ad 06       		.byte	0x6
 1119 02ae 7101     		.2byte	0x171
 1120 02b0 0F020000 		.4byte	0x20f
 1121 02b4 10       		.byte	0x10
 1122 02b5 09       		.uleb128 0x9
 1123 02b6 30050000 		.4byte	.LASF29
 1124 02ba 06       		.byte	0x6
 1125 02bb 7201     		.2byte	0x172
 1126 02bd 0F020000 		.4byte	0x20f
 1127 02c1 14       		.byte	0x14
 1128 02c2 09       		.uleb128 0x9
 1129 02c3 8D050000 		.4byte	.LASF51
 1130 02c7 06       		.byte	0x6
 1131 02c8 7501     		.2byte	0x175
 1132 02ca 0F020000 		.4byte	0x20f
 1133 02ce 18       		.byte	0x18
 1134 02cf 00       		.byte	0
 1135 02d0 04       		.uleb128 0x4
 1136 02d1 1F010000 		.4byte	.LASF52
 1137 02d5 05       		.byte	0x5
 1138 02d6 5C       		.byte	0x5c
 1139 02d7 DB020000 		.4byte	0x2db
 1140 02db 0A       		.uleb128 0xa
 1141 02dc 04       		.byte	0x4
 1142 02dd E1020000 		.4byte	0x2e1
 1143 02e1 0C       		.uleb128 0xc
 1144 02e2 EC020000 		.4byte	0x2ec
 1145 02e6 0D       		.uleb128 0xd
 1146 02e7 EC020000 		.4byte	0x2ec
 1147 02eb 00       		.byte	0
 1148 02ec 0E       		.uleb128 0xe
 1149 02ed 04       		.byte	0x4
 1150 02ee 04       		.uleb128 0x4
 1151 02ef B1030000 		.4byte	.LASF53
 1152 02f3 05       		.byte	0x5
 1153 02f4 61       		.byte	0x61
 1154 02f5 F9020000 		.4byte	0x2f9
 1155 02f9 0B       		.uleb128 0xb
 1156 02fa 6A010000 		.4byte	.LASF54
 1157 02fe 14       		.byte	0x14
 1158 02ff 06       		.byte	0x6
ARM GAS  /tmp/ccdGRgqs.s 			page 49


 1159 0300 4501     		.2byte	0x145
 1160 0302 48030000 		.4byte	0x348
 1161 0306 09       		.uleb128 0x9
 1162 0307 B0000000 		.4byte	.LASF45
 1163 030b 06       		.byte	0x6
 1164 030c 4601     		.2byte	0x146
 1165 030e 77070000 		.4byte	0x777
 1166 0312 00       		.byte	0
 1167 0313 09       		.uleb128 0x9
 1168 0314 09010000 		.4byte	.LASF48
 1169 0318 06       		.byte	0x6
 1170 0319 4701     		.2byte	0x147
 1171 031b 77070000 		.4byte	0x777
 1172 031f 04       		.byte	0x4
 1173 0320 09       		.uleb128 0x9
 1174 0321 69050000 		.4byte	.LASF55
 1175 0325 06       		.byte	0x6
 1176 0326 4801     		.2byte	0x148
 1177 0328 10010000 		.4byte	0x110
 1178 032c 08       		.byte	0x8
 1179 032d 09       		.uleb128 0x9
 1180 032e FD000000 		.4byte	.LASF56
 1181 0332 06       		.byte	0x6
 1182 0333 4901     		.2byte	0x149
 1183 0335 D0020000 		.4byte	0x2d0
 1184 0339 0C       		.byte	0xc
 1185 033a 08       		.uleb128 0x8
 1186 033b 70617200 		.ascii	"par\000"
 1187 033f 06       		.byte	0x6
 1188 0340 4B01     		.2byte	0x14b
 1189 0342 EC020000 		.4byte	0x2ec
 1190 0346 10       		.byte	0x10
 1191 0347 00       		.byte	0
 1192 0348 04       		.uleb128 0x4
 1193 0349 1A050000 		.4byte	.LASF57
 1194 034d 05       		.byte	0x5
 1195 034e 66       		.byte	0x66
 1196 034f 53030000 		.4byte	0x353
 1197 0353 0B       		.uleb128 0xb
 1198 0354 D6010000 		.4byte	.LASF58
 1199 0358 0C       		.byte	0xc
 1200 0359 06       		.byte	0x6
 1201 035a 5501     		.2byte	0x155
 1202 035c 95030000 		.4byte	0x395
 1203 0360 09       		.uleb128 0x9
 1204 0361 B0000000 		.4byte	.LASF45
 1205 0365 06       		.byte	0x6
 1206 0366 5601     		.2byte	0x156
 1207 0368 77070000 		.4byte	0x777
 1208 036c 00       		.byte	0
 1209 036d 09       		.uleb128 0x9
 1210 036e 09010000 		.4byte	.LASF48
 1211 0372 06       		.byte	0x6
 1212 0373 5801     		.2byte	0x158
 1213 0375 77070000 		.4byte	0x777
 1214 0379 04       		.byte	0x4
 1215 037a 09       		.uleb128 0x9
ARM GAS  /tmp/ccdGRgqs.s 			page 50


 1216 037b 69050000 		.4byte	.LASF55
 1217 037f 06       		.byte	0x6
 1218 0380 5A01     		.2byte	0x15a
 1219 0382 10010000 		.4byte	0x110
 1220 0386 08       		.byte	0x8
 1221 0387 09       		.uleb128 0x9
 1222 0388 7E040000 		.4byte	.LASF59
 1223 038c 06       		.byte	0x6
 1224 038d 6201     		.2byte	0x162
 1225 038f 10010000 		.4byte	0x110
 1226 0393 0A       		.byte	0xa
 1227 0394 00       		.byte	0
 1228 0395 04       		.uleb128 0x4
 1229 0396 5C030000 		.4byte	.LASF60
 1230 039a 05       		.byte	0x5
 1231 039b 6B       		.byte	0x6b
 1232 039c A0030000 		.4byte	0x3a0
 1233 03a0 0B       		.uleb128 0xb
 1234 03a1 28010000 		.4byte	.LASF61
 1235 03a5 04       		.byte	0x4
 1236 03a6 06       		.byte	0x6
 1237 03a7 7C01     		.2byte	0x17c
 1238 03a9 BB030000 		.4byte	0x3bb
 1239 03ad 09       		.uleb128 0x9
 1240 03ae C6030000 		.4byte	.LASF62
 1241 03b2 06       		.byte	0x6
 1242 03b3 8401     		.2byte	0x184
 1243 03b5 7D070000 		.4byte	0x77d
 1244 03b9 00       		.byte	0
 1245 03ba 00       		.byte	0
 1246 03bb 04       		.uleb128 0x4
 1247 03bc 44050000 		.4byte	.LASF63
 1248 03c0 05       		.byte	0x5
 1249 03c1 70       		.byte	0x70
 1250 03c2 C6030000 		.4byte	0x3c6
 1251 03c6 0B       		.uleb128 0xb
 1252 03c7 74040000 		.4byte	.LASF64
 1253 03cb 74       		.byte	0x74
 1254 03cc 06       		.byte	0x6
 1255 03cd 9C01     		.2byte	0x19c
 1256 03cf 14040000 		.4byte	0x414
 1257 03d3 09       		.uleb128 0x9
 1258 03d4 90040000 		.4byte	.LASF65
 1259 03d8 06       		.byte	0x6
 1260 03d9 A001     		.2byte	0x1a0
 1261 03db 69020000 		.4byte	0x269
 1262 03df 00       		.byte	0
 1263 03e0 09       		.uleb128 0x9
 1264 03e1 DB000000 		.4byte	.LASF66
 1265 03e5 06       		.byte	0x6
 1266 03e6 A401     		.2byte	0x1a4
 1267 03e8 48030000 		.4byte	0x348
 1268 03ec 1C       		.byte	0x1c
 1269 03ed 08       		.uleb128 0x8
 1270 03ee 64626700 		.ascii	"dbg\000"
 1271 03f2 06       		.byte	0x6
 1272 03f3 A801     		.2byte	0x1a8
ARM GAS  /tmp/ccdGRgqs.s 			page 51


 1273 03f5 95030000 		.4byte	0x395
 1274 03f9 28       		.byte	0x28
 1275 03fa 09       		.uleb128 0x9
 1276 03fb F0030000 		.4byte	.LASF67
 1277 03ff 06       		.byte	0x6
 1278 0400 AC01     		.2byte	0x1ac
 1279 0402 1B010000 		.4byte	0x11b
 1280 0406 2C       		.byte	0x2c
 1281 0407 08       		.uleb128 0x8
 1282 0408 746D00   		.ascii	"tm\000"
 1283 040b 06       		.byte	0x6
 1284 040c B101     		.2byte	0x1b1
 1285 040e 3B060000 		.4byte	0x63b
 1286 0412 70       		.byte	0x70
 1287 0413 00       		.byte	0
 1288 0414 03       		.uleb128 0x3
 1289 0415 04       		.byte	0x4
 1290 0416 07       		.byte	0x7
 1291 0417 A4040000 		.4byte	.LASF68
 1292 041b 0F       		.uleb128 0xf
 1293 041c 77000000 		.4byte	0x77
 1294 0420 10       		.uleb128 0x10
 1295 0421 1B040000 		.4byte	0x41b
 1296 0425 11       		.uleb128 0x11
 1297 0426 77000000 		.4byte	0x77
 1298 042a 35040000 		.4byte	0x435
 1299 042e 12       		.uleb128 0x12
 1300 042f 14040000 		.4byte	0x414
 1301 0433 00       		.byte	0
 1302 0434 00       		.byte	0
 1303 0435 13       		.uleb128 0x13
 1304 0436 5C       		.byte	0x5c
 1305 0437 07       		.byte	0x7
 1306 0438 4603     		.2byte	0x346
 1307 043a 6A050000 		.4byte	0x56a
 1308 043e 09       		.uleb128 0x9
 1309 043f FB050000 		.4byte	.LASF69
 1310 0443 07       		.byte	0x7
 1311 0444 4803     		.2byte	0x348
 1312 0446 1B040000 		.4byte	0x41b
 1313 044a 00       		.byte	0
 1314 044b 09       		.uleb128 0x9
 1315 044c 56050000 		.4byte	.LASF70
 1316 0450 07       		.byte	0x7
 1317 0451 4903     		.2byte	0x349
 1318 0453 1B040000 		.4byte	0x41b
 1319 0457 04       		.byte	0x4
 1320 0458 09       		.uleb128 0x9
 1321 0459 93000000 		.4byte	.LASF71
 1322 045d 07       		.byte	0x7
 1323 045e 4A03     		.2byte	0x34a
 1324 0460 1B040000 		.4byte	0x41b
 1325 0464 08       		.byte	0x8
 1326 0465 09       		.uleb128 0x9
 1327 0466 EE050000 		.4byte	.LASF72
 1328 046a 07       		.byte	0x7
 1329 046b 4B03     		.2byte	0x34b
ARM GAS  /tmp/ccdGRgqs.s 			page 52


 1330 046d 1B040000 		.4byte	0x41b
 1331 0471 0C       		.byte	0xc
 1332 0472 09       		.uleb128 0x9
 1333 0473 FB030000 		.4byte	.LASF73
 1334 0477 07       		.byte	0x7
 1335 0478 4C03     		.2byte	0x34c
 1336 047a 1B040000 		.4byte	0x41b
 1337 047e 10       		.byte	0x10
 1338 047f 09       		.uleb128 0x9
 1339 0480 21020000 		.4byte	.LASF74
 1340 0484 07       		.byte	0x7
 1341 0485 4D03     		.2byte	0x34d
 1342 0487 1B040000 		.4byte	0x41b
 1343 048b 14       		.byte	0x14
 1344 048c 09       		.uleb128 0x9
 1345 048d 3C050000 		.4byte	.LASF75
 1346 0491 07       		.byte	0x7
 1347 0492 4E03     		.2byte	0x34e
 1348 0494 1B040000 		.4byte	0x41b
 1349 0498 18       		.byte	0x18
 1350 0499 09       		.uleb128 0x9
 1351 049a C1030000 		.4byte	.LASF76
 1352 049e 07       		.byte	0x7
 1353 049f 4F03     		.2byte	0x34f
 1354 04a1 20040000 		.4byte	0x420
 1355 04a5 1C       		.byte	0x1c
 1356 04a6 09       		.uleb128 0x9
 1357 04a7 21000000 		.4byte	.LASF77
 1358 04ab 07       		.byte	0x7
 1359 04ac 5003     		.2byte	0x350
 1360 04ae 1B040000 		.4byte	0x41b
 1361 04b2 20       		.byte	0x20
 1362 04b3 09       		.uleb128 0x9
 1363 04b4 7F030000 		.4byte	.LASF78
 1364 04b8 07       		.byte	0x7
 1365 04b9 5103     		.2byte	0x351
 1366 04bb 1B040000 		.4byte	0x41b
 1367 04bf 24       		.byte	0x24
 1368 04c0 09       		.uleb128 0x9
 1369 04c1 01030000 		.4byte	.LASF79
 1370 04c5 07       		.byte	0x7
 1371 04c6 5203     		.2byte	0x352
 1372 04c8 1B040000 		.4byte	0x41b
 1373 04cc 28       		.byte	0x28
 1374 04cd 09       		.uleb128 0x9
 1375 04ce 2A040000 		.4byte	.LASF80
 1376 04d2 07       		.byte	0x7
 1377 04d3 5303     		.2byte	0x353
 1378 04d5 25040000 		.4byte	0x425
 1379 04d9 2C       		.byte	0x2c
 1380 04da 09       		.uleb128 0x9
 1381 04db 27000000 		.4byte	.LASF81
 1382 04df 07       		.byte	0x7
 1383 04e0 5403     		.2byte	0x354
 1384 04e2 1B040000 		.4byte	0x41b
 1385 04e6 30       		.byte	0x30
 1386 04e7 09       		.uleb128 0x9
ARM GAS  /tmp/ccdGRgqs.s 			page 53


 1387 04e8 85030000 		.4byte	.LASF82
 1388 04ec 07       		.byte	0x7
 1389 04ed 5503     		.2byte	0x355
 1390 04ef 1B040000 		.4byte	0x41b
 1391 04f3 34       		.byte	0x34
 1392 04f4 09       		.uleb128 0x9
 1393 04f5 0B030000 		.4byte	.LASF83
 1394 04f9 07       		.byte	0x7
 1395 04fa 5603     		.2byte	0x356
 1396 04fc 1B040000 		.4byte	0x41b
 1397 0500 38       		.byte	0x38
 1398 0501 09       		.uleb128 0x9
 1399 0502 34040000 		.4byte	.LASF84
 1400 0506 07       		.byte	0x7
 1401 0507 5703     		.2byte	0x357
 1402 0509 25040000 		.4byte	0x425
 1403 050d 3C       		.byte	0x3c
 1404 050e 09       		.uleb128 0x9
 1405 050f 2D000000 		.4byte	.LASF85
 1406 0513 07       		.byte	0x7
 1407 0514 5803     		.2byte	0x358
 1408 0516 1B040000 		.4byte	0x41b
 1409 051a 40       		.byte	0x40
 1410 051b 09       		.uleb128 0x9
 1411 051c 8B030000 		.4byte	.LASF86
 1412 0520 07       		.byte	0x7
 1413 0521 5903     		.2byte	0x359
 1414 0523 1B040000 		.4byte	0x41b
 1415 0527 44       		.byte	0x44
 1416 0528 09       		.uleb128 0x9
 1417 0529 15030000 		.4byte	.LASF87
 1418 052d 07       		.byte	0x7
 1419 052e 5A03     		.2byte	0x35a
 1420 0530 1B040000 		.4byte	0x41b
 1421 0534 48       		.byte	0x48
 1422 0535 09       		.uleb128 0x9
 1423 0536 3E040000 		.4byte	.LASF88
 1424 053a 07       		.byte	0x7
 1425 053b 5B03     		.2byte	0x35b
 1426 053d 25040000 		.4byte	0x425
 1427 0541 4C       		.byte	0x4c
 1428 0542 09       		.uleb128 0x9
 1429 0543 33000000 		.4byte	.LASF89
 1430 0547 07       		.byte	0x7
 1431 0548 5C03     		.2byte	0x35c
 1432 054a 1B040000 		.4byte	0x41b
 1433 054e 50       		.byte	0x50
 1434 054f 09       		.uleb128 0x9
 1435 0550 91030000 		.4byte	.LASF90
 1436 0554 07       		.byte	0x7
 1437 0555 5D03     		.2byte	0x35d
 1438 0557 1B040000 		.4byte	0x41b
 1439 055b 54       		.byte	0x54
 1440 055c 09       		.uleb128 0x9
 1441 055d 1F030000 		.4byte	.LASF91
 1442 0561 07       		.byte	0x7
 1443 0562 5E03     		.2byte	0x35e
ARM GAS  /tmp/ccdGRgqs.s 			page 54


 1444 0564 1B040000 		.4byte	0x41b
 1445 0568 58       		.byte	0x58
 1446 0569 00       		.byte	0
 1447 056a 14       		.uleb128 0x14
 1448 056b 13020000 		.4byte	.LASF92
 1449 056f 07       		.byte	0x7
 1450 0570 5F03     		.2byte	0x35f
 1451 0572 35040000 		.4byte	0x435
 1452 0576 04       		.uleb128 0x4
 1453 0577 4C000000 		.4byte	.LASF93
 1454 057b 08       		.byte	0x8
 1455 057c 65       		.byte	0x65
 1456 057d EC020000 		.4byte	0x2ec
 1457 0581 04       		.uleb128 0x4
 1458 0582 82050000 		.4byte	.LASF94
 1459 0586 08       		.byte	0x8
 1460 0587 6D       		.byte	0x6d
 1461 0588 90000000 		.4byte	0x90
 1462 058c 05       		.uleb128 0x5
 1463 058d E2000000 		.4byte	.LASF95
 1464 0591 04       		.byte	0x4
 1465 0592 08       		.byte	0x8
 1466 0593 89       		.byte	0x89
 1467 0594 A4050000 		.4byte	0x5a4
 1468 0598 07       		.uleb128 0x7
 1469 0599 737000   		.ascii	"sp\000"
 1470 059c 08       		.byte	0x8
 1471 059d 8A       		.byte	0x8a
 1472 059e 20060000 		.4byte	0x620
 1473 05a2 00       		.byte	0
 1474 05a3 00       		.byte	0
 1475 05a4 0B       		.uleb128 0xb
 1476 05a5 5B040000 		.4byte	.LASF96
 1477 05a9 24       		.byte	0x24
 1478 05aa 02       		.byte	0x2
 1479 05ab 5901     		.2byte	0x159
 1480 05ad 20060000 		.4byte	0x620
 1481 05b1 08       		.uleb128 0x8
 1482 05b2 723400   		.ascii	"r4\000"
 1483 05b5 02       		.byte	0x2
 1484 05b6 6C01     		.2byte	0x16c
 1485 05b8 76050000 		.4byte	0x576
 1486 05bc 00       		.byte	0
 1487 05bd 08       		.uleb128 0x8
 1488 05be 723500   		.ascii	"r5\000"
 1489 05c1 02       		.byte	0x2
 1490 05c2 6D01     		.2byte	0x16d
 1491 05c4 76050000 		.4byte	0x576
 1492 05c8 04       		.byte	0x4
 1493 05c9 08       		.uleb128 0x8
 1494 05ca 723600   		.ascii	"r6\000"
 1495 05cd 02       		.byte	0x2
 1496 05ce 6E01     		.2byte	0x16e
 1497 05d0 76050000 		.4byte	0x576
 1498 05d4 08       		.byte	0x8
 1499 05d5 08       		.uleb128 0x8
 1500 05d6 723700   		.ascii	"r7\000"
ARM GAS  /tmp/ccdGRgqs.s 			page 55


 1501 05d9 02       		.byte	0x2
 1502 05da 6F01     		.2byte	0x16f
 1503 05dc 76050000 		.4byte	0x576
 1504 05e0 0C       		.byte	0xc
 1505 05e1 08       		.uleb128 0x8
 1506 05e2 723800   		.ascii	"r8\000"
 1507 05e5 02       		.byte	0x2
 1508 05e6 7001     		.2byte	0x170
 1509 05e8 76050000 		.4byte	0x576
 1510 05ec 10       		.byte	0x10
 1511 05ed 08       		.uleb128 0x8
 1512 05ee 723900   		.ascii	"r9\000"
 1513 05f1 02       		.byte	0x2
 1514 05f2 7101     		.2byte	0x171
 1515 05f4 76050000 		.4byte	0x576
 1516 05f8 14       		.byte	0x14
 1517 05f9 08       		.uleb128 0x8
 1518 05fa 72313000 		.ascii	"r10\000"
 1519 05fe 02       		.byte	0x2
 1520 05ff 7201     		.2byte	0x172
 1521 0601 76050000 		.4byte	0x576
 1522 0605 18       		.byte	0x18
 1523 0606 08       		.uleb128 0x8
 1524 0607 72313100 		.ascii	"r11\000"
 1525 060b 02       		.byte	0x2
 1526 060c 7301     		.2byte	0x173
 1527 060e 76050000 		.4byte	0x576
 1528 0612 1C       		.byte	0x1c
 1529 0613 08       		.uleb128 0x8
 1530 0614 6C7200   		.ascii	"lr\000"
 1531 0617 02       		.byte	0x2
 1532 0618 7401     		.2byte	0x174
 1533 061a 76050000 		.4byte	0x576
 1534 061e 20       		.byte	0x20
 1535 061f 00       		.byte	0
 1536 0620 0A       		.uleb128 0xa
 1537 0621 04       		.byte	0x4
 1538 0622 A4050000 		.4byte	0x5a4
 1539 0626 15       		.uleb128 0x15
 1540 0627 04       		.byte	0x4
 1541 0628 09       		.byte	0x9
 1542 0629 38       		.byte	0x38
 1543 062a 3B060000 		.4byte	0x63b
 1544 062e 06       		.uleb128 0x6
 1545 062f FD010000 		.4byte	.LASF97
 1546 0633 09       		.byte	0x9
 1547 0634 3C       		.byte	0x3c
 1548 0635 A2000000 		.4byte	0xa2
 1549 0639 00       		.byte	0
 1550 063a 00       		.byte	0
 1551 063b 04       		.uleb128 0x4
 1552 063c D0030000 		.4byte	.LASF98
 1553 0640 09       		.byte	0x9
 1554 0641 3D       		.byte	0x3d
 1555 0642 26060000 		.4byte	0x626
 1556 0646 15       		.uleb128 0x15
 1557 0647 18       		.byte	0x18
ARM GAS  /tmp/ccdGRgqs.s 			page 56


 1558 0648 09       		.byte	0x9
 1559 0649 48       		.byte	0x48
 1560 064a 89060000 		.4byte	0x689
 1561 064e 06       		.uleb128 0x6
 1562 064f F7040000 		.4byte	.LASF99
 1563 0653 09       		.byte	0x9
 1564 0654 49       		.byte	0x49
 1565 0655 A2000000 		.4byte	0xa2
 1566 0659 00       		.byte	0
 1567 065a 06       		.uleb128 0x6
 1568 065b B2010000 		.4byte	.LASF100
 1569 065f 09       		.byte	0x9
 1570 0660 4A       		.byte	0x4a
 1571 0661 A2000000 		.4byte	0xa2
 1572 0665 04       		.byte	0x4
 1573 0666 06       		.uleb128 0x6
 1574 0667 1C020000 		.4byte	.LASF101
 1575 066b 09       		.byte	0x9
 1576 066c 4B       		.byte	0x4b
 1577 066d A2000000 		.4byte	0xa2
 1578 0671 08       		.byte	0x8
 1579 0672 07       		.uleb128 0x7
 1580 0673 6E00     		.ascii	"n\000"
 1581 0675 09       		.byte	0x9
 1582 0676 4C       		.byte	0x4c
 1583 0677 05010000 		.4byte	0x105
 1584 067b 0C       		.byte	0xc
 1585 067c 06       		.uleb128 0x6
 1586 067d C4000000 		.4byte	.LASF102
 1587 0681 09       		.byte	0x9
 1588 0682 4D       		.byte	0x4d
 1589 0683 AD000000 		.4byte	0xad
 1590 0687 10       		.byte	0x10
 1591 0688 00       		.byte	0
 1592 0689 04       		.uleb128 0x4
 1593 068a CB020000 		.4byte	.LASF103
 1594 068e 09       		.byte	0x9
 1595 068f 4E       		.byte	0x4e
 1596 0690 46060000 		.4byte	0x646
 1597 0694 16       		.uleb128 0x16
 1598 0695 04       		.byte	0x4
 1599 0696 06       		.byte	0x6
 1600 0697 D2       		.byte	0xd2
 1601 0698 F7060000 		.4byte	0x6f7
 1602 069c 17       		.uleb128 0x17
 1603 069d F6010000 		.4byte	.LASF104
 1604 06a1 06       		.byte	0x6
 1605 06a2 D9       		.byte	0xd9
 1606 06a3 E4000000 		.4byte	0xe4
 1607 06a7 17       		.uleb128 0x17
 1608 06a8 E5050000 		.4byte	.LASF105
 1609 06ac 06       		.byte	0x6
 1610 06ad E0       		.byte	0xe0
 1611 06ae E4000000 		.4byte	0xe4
 1612 06b2 17       		.uleb128 0x17
 1613 06b3 D4000000 		.4byte	.LASF106
 1614 06b7 06       		.byte	0x6
ARM GAS  /tmp/ccdGRgqs.s 			page 57


 1615 06b8 E7       		.byte	0xe7
 1616 06b9 EC020000 		.4byte	0x2ec
 1617 06bd 17       		.uleb128 0x17
 1618 06be 50050000 		.4byte	.LASF107
 1619 06c2 06       		.byte	0x6
 1620 06c3 EE       		.byte	0xee
 1621 06c4 F7060000 		.4byte	0x6f7
 1622 06c8 17       		.uleb128 0x17
 1623 06c9 41010000 		.4byte	.LASF108
 1624 06cd 06       		.byte	0x6
 1625 06ce F3       		.byte	0xf3
 1626 06cf E4000000 		.4byte	0xe4
 1627 06d3 17       		.uleb128 0x17
 1628 06d4 E2040000 		.4byte	.LASF109
 1629 06d8 06       		.byte	0x6
 1630 06d9 FC       		.byte	0xfc
 1631 06da 22070000 		.4byte	0x722
 1632 06de 18       		.uleb128 0x18
 1633 06df 1A000000 		.4byte	.LASF110
 1634 06e3 06       		.byte	0x6
 1635 06e4 0501     		.2byte	0x105
 1636 06e6 59070000 		.4byte	0x759
 1637 06ea 18       		.uleb128 0x18
 1638 06eb 02010000 		.4byte	.LASF111
 1639 06ef 06       		.byte	0x6
 1640 06f0 0D01     		.2byte	0x10d
 1641 06f2 EF000000 		.4byte	0xef
 1642 06f6 00       		.byte	0
 1643 06f7 0A       		.uleb128 0xa
 1644 06f8 04       		.byte	0x4
 1645 06f9 04020000 		.4byte	0x204
 1646 06fd 05       		.uleb128 0x5
 1647 06fe 55010000 		.4byte	.LASF112
 1648 0702 0C       		.byte	0xc
 1649 0703 0A       		.byte	0xa
 1650 0704 34       		.byte	0x34
 1651 0705 22070000 		.4byte	0x722
 1652 0709 06       		.uleb128 0x6
 1653 070a D4040000 		.4byte	.LASF26
 1654 070e 0A       		.byte	0xa
 1655 070f 35       		.byte	0x35
 1656 0710 39020000 		.4byte	0x239
 1657 0714 00       		.byte	0
 1658 0715 07       		.uleb128 0x7
 1659 0716 636E7400 		.ascii	"cnt\000"
 1660 071a 0A       		.byte	0xa
 1661 071b 37       		.byte	0x37
 1662 071c FA000000 		.4byte	0xfa
 1663 0720 08       		.byte	0x8
 1664 0721 00       		.byte	0
 1665 0722 0A       		.uleb128 0xa
 1666 0723 04       		.byte	0x4
 1667 0724 FD060000 		.4byte	0x6fd
 1668 0728 05       		.uleb128 0x5
 1669 0729 0A020000 		.4byte	.LASF113
 1670 072d 10       		.byte	0x10
 1671 072e 0B       		.byte	0xb
ARM GAS  /tmp/ccdGRgqs.s 			page 58


 1672 072f 39       		.byte	0x39
 1673 0730 59070000 		.4byte	0x759
 1674 0734 06       		.uleb128 0x6
 1675 0735 D4040000 		.4byte	.LASF26
 1676 0739 0B       		.byte	0xb
 1677 073a 3A       		.byte	0x3a
 1678 073b 39020000 		.4byte	0x239
 1679 073f 00       		.byte	0
 1680 0740 06       		.uleb128 0x6
 1681 0741 B8010000 		.4byte	.LASF114
 1682 0745 0B       		.byte	0xb
 1683 0746 3C       		.byte	0x3c
 1684 0747 0F020000 		.4byte	0x20f
 1685 074b 08       		.byte	0x8
 1686 074c 06       		.uleb128 0x6
 1687 074d B0000000 		.4byte	.LASF45
 1688 0751 0B       		.byte	0xb
 1689 0752 3E       		.byte	0x3e
 1690 0753 8D070000 		.4byte	0x78d
 1691 0757 0C       		.byte	0xc
 1692 0758 00       		.byte	0
 1693 0759 0A       		.uleb128 0xa
 1694 075a 04       		.byte	0x4
 1695 075b 28070000 		.4byte	0x728
 1696 075f 0A       		.uleb128 0xa
 1697 0760 04       		.byte	0x4
 1698 0761 65070000 		.4byte	0x765
 1699 0765 10       		.uleb128 0x10
 1700 0766 6A070000 		.4byte	0x76a
 1701 076a 03       		.uleb128 0x3
 1702 076b 01       		.byte	0x1
 1703 076c 08       		.byte	0x8
 1704 076d E3020000 		.4byte	.LASF115
 1705 0771 0A       		.uleb128 0xa
 1706 0772 04       		.byte	0x4
 1707 0773 81050000 		.4byte	0x581
 1708 0777 0A       		.uleb128 0xa
 1709 0778 04       		.byte	0x4
 1710 0779 EE020000 		.4byte	0x2ee
 1711 077d 0F       		.uleb128 0xf
 1712 077e 5F070000 		.4byte	0x75f
 1713 0782 04       		.uleb128 0x4
 1714 0783 E9040000 		.4byte	.LASF116
 1715 0787 0B       		.byte	0xb
 1716 0788 34       		.byte	0x34
 1717 0789 28070000 		.4byte	0x728
 1718 078d 0A       		.uleb128 0xa
 1719 078e 04       		.byte	0x4
 1720 078f 82070000 		.4byte	0x782
 1721 0793 03       		.uleb128 0x3
 1722 0794 01       		.byte	0x1
 1723 0795 02       		.byte	0x2
 1724 0796 04020000 		.4byte	.LASF117
 1725 079a 19       		.uleb128 0x19
 1726 079b 92010000 		.4byte	.LASF128
 1727 079f 02       		.byte	0x2
 1728 07a0 C202     		.2byte	0x2c2
ARM GAS  /tmp/ccdGRgqs.s 			page 59


 1729 07a2 A2000000 		.4byte	0xa2
 1730 07a6 03       		.byte	0x3
 1731 07a7 1A       		.uleb128 0x1a
 1732 07a8 12050000 		.4byte	.LASF129
 1733 07ac 01       		.byte	0x1
 1734 07ad 35       		.byte	0x35
 1735 07ae 03       		.byte	0x3
 1736 07af D5070000 		.4byte	0x7d5
 1737 07b3 1B       		.uleb128 0x1b
 1738 07b4 746D7000 		.ascii	"tmp\000"
 1739 07b8 01       		.byte	0x1
 1740 07b9 35       		.byte	0x35
 1741 07ba D5070000 		.4byte	0x7d5
 1742 07be 1B       		.uleb128 0x1b
 1743 07bf 6E6F7700 		.ascii	"now\000"
 1744 07c3 01       		.byte	0x1
 1745 07c4 36       		.byte	0x36
 1746 07c5 A2000000 		.4byte	0xa2
 1747 07c9 1C       		.uleb128 0x1c
 1748 07ca FD010000 		.4byte	.LASF97
 1749 07ce 01       		.byte	0x1
 1750 07cf 37       		.byte	0x37
 1751 07d0 A2000000 		.4byte	0xa2
 1752 07d4 00       		.byte	0
 1753 07d5 0A       		.uleb128 0xa
 1754 07d6 04       		.byte	0x4
 1755 07d7 89060000 		.4byte	0x689
 1756 07db 1D       		.uleb128 0x1d
 1757 07dc 55000000 		.4byte	.LASF130
 1758 07e0 01       		.byte	0x1
 1759 07e1 61       		.byte	0x61
 1760 07e2 01       		.byte	0x1
 1761 07e3 F3070000 		.4byte	0x7f3
 1762 07e7 1B       		.uleb128 0x1b
 1763 07e8 746D7000 		.ascii	"tmp\000"
 1764 07ec 01       		.byte	0x1
 1765 07ed 61       		.byte	0x61
 1766 07ee D5070000 		.4byte	0x7d5
 1767 07f2 00       		.byte	0
 1768 07f3 1E       		.uleb128 0x1e
 1769 07f4 DB070000 		.4byte	0x7db
 1770 07f8 00000000 		.4byte	.LFB188
 1771 07fc 18000000 		.4byte	.LFE188-.LFB188
 1772 0800 01       		.uleb128 0x1
 1773 0801 9C       		.byte	0x9c
 1774 0802 0E080000 		.4byte	0x80e
 1775 0806 1F       		.uleb128 0x1f
 1776 0807 E7070000 		.4byte	0x7e7
 1777 080b 01       		.uleb128 0x1
 1778 080c 50       		.byte	0x50
 1779 080d 00       		.byte	0
 1780 080e 20       		.uleb128 0x20
 1781 080f 7D000000 		.4byte	.LASF118
 1782 0813 01       		.byte	0x1
 1783 0814 72       		.byte	0x72
 1784 0815 00000000 		.4byte	.LFB189
 1785 0819 0E000000 		.4byte	.LFE189-.LFB189
ARM GAS  /tmp/ccdGRgqs.s 			page 60


 1786 081d 01       		.uleb128 0x1
 1787 081e 9C       		.byte	0x9c
 1788 081f 40080000 		.4byte	0x840
 1789 0823 21       		.uleb128 0x21
 1790 0824 746D7000 		.ascii	"tmp\000"
 1791 0828 01       		.byte	0x1
 1792 0829 72       		.byte	0x72
 1793 082a D5070000 		.4byte	0x7d5
 1794 082e 01       		.uleb128 0x1
 1795 082f 50       		.byte	0x50
 1796 0830 22       		.uleb128 0x22
 1797 0831 9A070000 		.4byte	0x79a
 1798 0835 00000000 		.4byte	.LBB14
 1799 0839 0A000000 		.4byte	.LBE14-.LBB14
 1800 083d 01       		.byte	0x1
 1801 083e 74       		.byte	0x74
 1802 083f 00       		.byte	0
 1803 0840 20       		.uleb128 0x20
 1804 0841 15040000 		.4byte	.LASF119
 1805 0845 01       		.byte	0x1
 1806 0846 7F       		.byte	0x7f
 1807 0847 00000000 		.4byte	.LFB190
 1808 084b 46000000 		.4byte	.LFE190-.LFB190
 1809 084f 01       		.uleb128 0x1
 1810 0850 9C       		.byte	0x9c
 1811 0851 9B080000 		.4byte	0x89b
 1812 0855 21       		.uleb128 0x21
 1813 0856 746D7000 		.ascii	"tmp\000"
 1814 085a 01       		.byte	0x1
 1815 085b 7F       		.byte	0x7f
 1816 085c D5070000 		.4byte	0x7d5
 1817 0860 01       		.uleb128 0x1
 1818 0861 50       		.byte	0x50
 1819 0862 23       		.uleb128 0x23
 1820 0863 9A070000 		.4byte	0x79a
 1821 0867 00000000 		.4byte	.LBB16
 1822 086b 00000000 		.4byte	.Ldebug_ranges0+0
 1823 086f 01       		.byte	0x1
 1824 0870 81       		.byte	0x81
 1825 0871 24       		.uleb128 0x24
 1826 0872 A7070000 		.4byte	0x7a7
 1827 0876 12000000 		.4byte	.LBB20
 1828 087a 18000000 		.4byte	.Ldebug_ranges0+0x18
 1829 087e 01       		.byte	0x1
 1830 087f 81       		.byte	0x81
 1831 0880 25       		.uleb128 0x25
 1832 0881 C9070000 		.4byte	0x7c9
 1833 0885 00000000 		.4byte	.LLST0
 1834 0889 25       		.uleb128 0x25
 1835 088a BE070000 		.4byte	0x7be
 1836 088e 13000000 		.4byte	.LLST1
 1837 0892 1F       		.uleb128 0x1f
 1838 0893 B3070000 		.4byte	0x7b3
 1839 0897 01       		.uleb128 0x1
 1840 0898 50       		.byte	0x50
 1841 0899 00       		.byte	0
 1842 089a 00       		.byte	0
ARM GAS  /tmp/ccdGRgqs.s 			page 61


 1843 089b 20       		.uleb128 0x20
 1844 089c 9B040000 		.4byte	.LASF120
 1845 08a0 01       		.byte	0x1
 1846 08a1 4D       		.byte	0x4d
 1847 08a2 00000000 		.4byte	.LFB187
 1848 08a6 38000000 		.4byte	.LFE187-.LFB187
 1849 08aa 01       		.uleb128 0x1
 1850 08ab 9C       		.byte	0x9c
 1851 08ac FF080000 		.4byte	0x8ff
 1852 08b0 26       		.uleb128 0x26
 1853 08b1 746D00   		.ascii	"tm\000"
 1854 08b4 01       		.byte	0x1
 1855 08b5 4E       		.byte	0x4e
 1856 08b6 89060000 		.4byte	0x689
 1857 08ba 02       		.uleb128 0x2
 1858 08bb 91       		.byte	0x91
 1859 08bc 58       		.sleb128 -40
 1860 08bd 27       		.uleb128 0x27
 1861 08be DB070000 		.4byte	0x7db
 1862 08c2 0A000000 		.4byte	.LBB24
 1863 08c6 30000000 		.4byte	.Ldebug_ranges0+0x30
 1864 08ca 01       		.byte	0x1
 1865 08cb 54       		.byte	0x54
 1866 08cc DA080000 		.4byte	0x8da
 1867 08d0 25       		.uleb128 0x25
 1868 08d1 E7070000 		.4byte	0x7e7
 1869 08d5 26000000 		.4byte	.LLST2
 1870 08d9 00       		.byte	0
 1871 08da 28       		.uleb128 0x28
 1872 08db 2A000000 		.4byte	.LVL7
 1873 08df 0E080000 		.4byte	0x80e
 1874 08e3 EE080000 		.4byte	0x8ee
 1875 08e7 29       		.uleb128 0x29
 1876 08e8 01       		.uleb128 0x1
 1877 08e9 50       		.byte	0x50
 1878 08ea 02       		.uleb128 0x2
 1879 08eb 7D       		.byte	0x7d
 1880 08ec 00       		.sleb128 0
 1881 08ed 00       		.byte	0
 1882 08ee 2A       		.uleb128 0x2a
 1883 08ef 30000000 		.4byte	.LVL8
 1884 08f3 40080000 		.4byte	0x840
 1885 08f7 29       		.uleb128 0x29
 1886 08f8 01       		.uleb128 0x1
 1887 08f9 50       		.byte	0x50
 1888 08fa 02       		.uleb128 0x2
 1889 08fb 7D       		.byte	0x7d
 1890 08fc 00       		.sleb128 0
 1891 08fd 00       		.byte	0
 1892 08fe 00       		.byte	0
 1893 08ff 20       		.uleb128 0x20
 1894 0900 31030000 		.4byte	.LASF121
 1895 0904 01       		.byte	0x1
 1896 0905 90       		.byte	0x90
 1897 0906 00000000 		.4byte	.LFB191
 1898 090a 3C000000 		.4byte	.LFE191-.LFB191
 1899 090e 01       		.uleb128 0x1
ARM GAS  /tmp/ccdGRgqs.s 			page 62


 1900 090f 9C       		.byte	0x9c
 1901 0910 66090000 		.4byte	0x966
 1902 0914 2B       		.uleb128 0x2b
 1903 0915 10000000 		.4byte	.LASF122
 1904 0919 01       		.byte	0x1
 1905 091a 90       		.byte	0x90
 1906 091b D5070000 		.4byte	0x7d5
 1907 091f 01       		.uleb128 0x1
 1908 0920 50       		.byte	0x50
 1909 0921 2C       		.uleb128 0x2c
 1910 0922 15000000 		.4byte	.LASF123
 1911 0926 01       		.byte	0x1
 1912 0927 91       		.byte	0x91
 1913 0928 D5070000 		.4byte	0x7d5
 1914 092c 51000000 		.4byte	.LLST3
 1915 0930 22       		.uleb128 0x22
 1916 0931 9A070000 		.4byte	0x79a
 1917 0935 00000000 		.4byte	.LBB30
 1918 0939 0A000000 		.4byte	.LBE30-.LBB30
 1919 093d 01       		.byte	0x1
 1920 093e 94       		.byte	0x94
 1921 093f 2D       		.uleb128 0x2d
 1922 0940 A7070000 		.4byte	0x7a7
 1923 0944 0E000000 		.4byte	.LBB32
 1924 0948 2A000000 		.4byte	.LBE32-.LBB32
 1925 094c 01       		.byte	0x1
 1926 094d 97       		.byte	0x97
 1927 094e 2E       		.uleb128 0x2e
 1928 094f C9070000 		.4byte	0x7c9
 1929 0953 00       		.byte	0
 1930 0954 25       		.uleb128 0x25
 1931 0955 BE070000 		.4byte	0x7be
 1932 0959 72000000 		.4byte	.LLST4
 1933 095d 1F       		.uleb128 0x1f
 1934 095e B3070000 		.4byte	0x7b3
 1935 0962 01       		.uleb128 0x1
 1936 0963 50       		.byte	0x50
 1937 0964 00       		.byte	0
 1938 0965 00       		.byte	0
 1939 0966 2F       		.uleb128 0x2f
 1940 0967 67040000 		.4byte	.LASF124
 1941 096b 07       		.byte	0x7
 1942 096c 9606     		.2byte	0x696
 1943 096e 72090000 		.4byte	0x972
 1944 0972 0F       		.uleb128 0xf
 1945 0973 65000000 		.4byte	0x65
 1946 0977 30       		.uleb128 0x30
 1947 0978 636800   		.ascii	"ch\000"
 1948 097b 06       		.byte	0x6
 1949 097c D201     		.2byte	0x1d2
 1950 097e BB030000 		.4byte	0x3bb
 1951 0982 00       		.byte	0
 1952              		.section	.debug_abbrev,"",%progbits
 1953              	.Ldebug_abbrev0:
 1954 0000 01       		.uleb128 0x1
 1955 0001 11       		.uleb128 0x11
 1956 0002 01       		.byte	0x1
ARM GAS  /tmp/ccdGRgqs.s 			page 63


 1957 0003 25       		.uleb128 0x25
 1958 0004 0E       		.uleb128 0xe
 1959 0005 13       		.uleb128 0x13
 1960 0006 0B       		.uleb128 0xb
 1961 0007 03       		.uleb128 0x3
 1962 0008 0E       		.uleb128 0xe
 1963 0009 1B       		.uleb128 0x1b
 1964 000a 0E       		.uleb128 0xe
 1965 000b 55       		.uleb128 0x55
 1966 000c 17       		.uleb128 0x17
 1967 000d 11       		.uleb128 0x11
 1968 000e 01       		.uleb128 0x1
 1969 000f 10       		.uleb128 0x10
 1970 0010 17       		.uleb128 0x17
 1971 0011 00       		.byte	0
 1972 0012 00       		.byte	0
 1973 0013 02       		.uleb128 0x2
 1974 0014 24       		.uleb128 0x24
 1975 0015 00       		.byte	0
 1976 0016 0B       		.uleb128 0xb
 1977 0017 0B       		.uleb128 0xb
 1978 0018 3E       		.uleb128 0x3e
 1979 0019 0B       		.uleb128 0xb
 1980 001a 03       		.uleb128 0x3
 1981 001b 08       		.uleb128 0x8
 1982 001c 00       		.byte	0
 1983 001d 00       		.byte	0
 1984 001e 03       		.uleb128 0x3
 1985 001f 24       		.uleb128 0x24
 1986 0020 00       		.byte	0
 1987 0021 0B       		.uleb128 0xb
 1988 0022 0B       		.uleb128 0xb
 1989 0023 3E       		.uleb128 0x3e
 1990 0024 0B       		.uleb128 0xb
 1991 0025 03       		.uleb128 0x3
 1992 0026 0E       		.uleb128 0xe
 1993 0027 00       		.byte	0
 1994 0028 00       		.byte	0
 1995 0029 04       		.uleb128 0x4
 1996 002a 16       		.uleb128 0x16
 1997 002b 00       		.byte	0
 1998 002c 03       		.uleb128 0x3
 1999 002d 0E       		.uleb128 0xe
 2000 002e 3A       		.uleb128 0x3a
 2001 002f 0B       		.uleb128 0xb
 2002 0030 3B       		.uleb128 0x3b
 2003 0031 0B       		.uleb128 0xb
 2004 0032 49       		.uleb128 0x49
 2005 0033 13       		.uleb128 0x13
 2006 0034 00       		.byte	0
 2007 0035 00       		.byte	0
 2008 0036 05       		.uleb128 0x5
 2009 0037 13       		.uleb128 0x13
 2010 0038 01       		.byte	0x1
 2011 0039 03       		.uleb128 0x3
 2012 003a 0E       		.uleb128 0xe
 2013 003b 0B       		.uleb128 0xb
ARM GAS  /tmp/ccdGRgqs.s 			page 64


 2014 003c 0B       		.uleb128 0xb
 2015 003d 3A       		.uleb128 0x3a
 2016 003e 0B       		.uleb128 0xb
 2017 003f 3B       		.uleb128 0x3b
 2018 0040 0B       		.uleb128 0xb
 2019 0041 01       		.uleb128 0x1
 2020 0042 13       		.uleb128 0x13
 2021 0043 00       		.byte	0
 2022 0044 00       		.byte	0
 2023 0045 06       		.uleb128 0x6
 2024 0046 0D       		.uleb128 0xd
 2025 0047 00       		.byte	0
 2026 0048 03       		.uleb128 0x3
 2027 0049 0E       		.uleb128 0xe
 2028 004a 3A       		.uleb128 0x3a
 2029 004b 0B       		.uleb128 0xb
 2030 004c 3B       		.uleb128 0x3b
 2031 004d 0B       		.uleb128 0xb
 2032 004e 49       		.uleb128 0x49
 2033 004f 13       		.uleb128 0x13
 2034 0050 38       		.uleb128 0x38
 2035 0051 0B       		.uleb128 0xb
 2036 0052 00       		.byte	0
 2037 0053 00       		.byte	0
 2038 0054 07       		.uleb128 0x7
 2039 0055 0D       		.uleb128 0xd
 2040 0056 00       		.byte	0
 2041 0057 03       		.uleb128 0x3
 2042 0058 08       		.uleb128 0x8
 2043 0059 3A       		.uleb128 0x3a
 2044 005a 0B       		.uleb128 0xb
 2045 005b 3B       		.uleb128 0x3b
 2046 005c 0B       		.uleb128 0xb
 2047 005d 49       		.uleb128 0x49
 2048 005e 13       		.uleb128 0x13
 2049 005f 38       		.uleb128 0x38
 2050 0060 0B       		.uleb128 0xb
 2051 0061 00       		.byte	0
 2052 0062 00       		.byte	0
 2053 0063 08       		.uleb128 0x8
 2054 0064 0D       		.uleb128 0xd
 2055 0065 00       		.byte	0
 2056 0066 03       		.uleb128 0x3
 2057 0067 08       		.uleb128 0x8
 2058 0068 3A       		.uleb128 0x3a
 2059 0069 0B       		.uleb128 0xb
 2060 006a 3B       		.uleb128 0x3b
 2061 006b 05       		.uleb128 0x5
 2062 006c 49       		.uleb128 0x49
 2063 006d 13       		.uleb128 0x13
 2064 006e 38       		.uleb128 0x38
 2065 006f 0B       		.uleb128 0xb
 2066 0070 00       		.byte	0
 2067 0071 00       		.byte	0
 2068 0072 09       		.uleb128 0x9
 2069 0073 0D       		.uleb128 0xd
 2070 0074 00       		.byte	0
ARM GAS  /tmp/ccdGRgqs.s 			page 65


 2071 0075 03       		.uleb128 0x3
 2072 0076 0E       		.uleb128 0xe
 2073 0077 3A       		.uleb128 0x3a
 2074 0078 0B       		.uleb128 0xb
 2075 0079 3B       		.uleb128 0x3b
 2076 007a 05       		.uleb128 0x5
 2077 007b 49       		.uleb128 0x49
 2078 007c 13       		.uleb128 0x13
 2079 007d 38       		.uleb128 0x38
 2080 007e 0B       		.uleb128 0xb
 2081 007f 00       		.byte	0
 2082 0080 00       		.byte	0
 2083 0081 0A       		.uleb128 0xa
 2084 0082 0F       		.uleb128 0xf
 2085 0083 00       		.byte	0
 2086 0084 0B       		.uleb128 0xb
 2087 0085 0B       		.uleb128 0xb
 2088 0086 49       		.uleb128 0x49
 2089 0087 13       		.uleb128 0x13
 2090 0088 00       		.byte	0
 2091 0089 00       		.byte	0
 2092 008a 0B       		.uleb128 0xb
 2093 008b 13       		.uleb128 0x13
 2094 008c 01       		.byte	0x1
 2095 008d 03       		.uleb128 0x3
 2096 008e 0E       		.uleb128 0xe
 2097 008f 0B       		.uleb128 0xb
 2098 0090 0B       		.uleb128 0xb
 2099 0091 3A       		.uleb128 0x3a
 2100 0092 0B       		.uleb128 0xb
 2101 0093 3B       		.uleb128 0x3b
 2102 0094 05       		.uleb128 0x5
 2103 0095 01       		.uleb128 0x1
 2104 0096 13       		.uleb128 0x13
 2105 0097 00       		.byte	0
 2106 0098 00       		.byte	0
 2107 0099 0C       		.uleb128 0xc
 2108 009a 15       		.uleb128 0x15
 2109 009b 01       		.byte	0x1
 2110 009c 27       		.uleb128 0x27
 2111 009d 19       		.uleb128 0x19
 2112 009e 01       		.uleb128 0x1
 2113 009f 13       		.uleb128 0x13
 2114 00a0 00       		.byte	0
 2115 00a1 00       		.byte	0
 2116 00a2 0D       		.uleb128 0xd
 2117 00a3 05       		.uleb128 0x5
 2118 00a4 00       		.byte	0
 2119 00a5 49       		.uleb128 0x49
 2120 00a6 13       		.uleb128 0x13
 2121 00a7 00       		.byte	0
 2122 00a8 00       		.byte	0
 2123 00a9 0E       		.uleb128 0xe
 2124 00aa 0F       		.uleb128 0xf
 2125 00ab 00       		.byte	0
 2126 00ac 0B       		.uleb128 0xb
 2127 00ad 0B       		.uleb128 0xb
ARM GAS  /tmp/ccdGRgqs.s 			page 66


 2128 00ae 00       		.byte	0
 2129 00af 00       		.byte	0
 2130 00b0 0F       		.uleb128 0xf
 2131 00b1 35       		.uleb128 0x35
 2132 00b2 00       		.byte	0
 2133 00b3 49       		.uleb128 0x49
 2134 00b4 13       		.uleb128 0x13
 2135 00b5 00       		.byte	0
 2136 00b6 00       		.byte	0
 2137 00b7 10       		.uleb128 0x10
 2138 00b8 26       		.uleb128 0x26
 2139 00b9 00       		.byte	0
 2140 00ba 49       		.uleb128 0x49
 2141 00bb 13       		.uleb128 0x13
 2142 00bc 00       		.byte	0
 2143 00bd 00       		.byte	0
 2144 00be 11       		.uleb128 0x11
 2145 00bf 01       		.uleb128 0x1
 2146 00c0 01       		.byte	0x1
 2147 00c1 49       		.uleb128 0x49
 2148 00c2 13       		.uleb128 0x13
 2149 00c3 01       		.uleb128 0x1
 2150 00c4 13       		.uleb128 0x13
 2151 00c5 00       		.byte	0
 2152 00c6 00       		.byte	0
 2153 00c7 12       		.uleb128 0x12
 2154 00c8 21       		.uleb128 0x21
 2155 00c9 00       		.byte	0
 2156 00ca 49       		.uleb128 0x49
 2157 00cb 13       		.uleb128 0x13
 2158 00cc 2F       		.uleb128 0x2f
 2159 00cd 0B       		.uleb128 0xb
 2160 00ce 00       		.byte	0
 2161 00cf 00       		.byte	0
 2162 00d0 13       		.uleb128 0x13
 2163 00d1 13       		.uleb128 0x13
 2164 00d2 01       		.byte	0x1
 2165 00d3 0B       		.uleb128 0xb
 2166 00d4 0B       		.uleb128 0xb
 2167 00d5 3A       		.uleb128 0x3a
 2168 00d6 0B       		.uleb128 0xb
 2169 00d7 3B       		.uleb128 0x3b
 2170 00d8 05       		.uleb128 0x5
 2171 00d9 01       		.uleb128 0x1
 2172 00da 13       		.uleb128 0x13
 2173 00db 00       		.byte	0
 2174 00dc 00       		.byte	0
 2175 00dd 14       		.uleb128 0x14
 2176 00de 16       		.uleb128 0x16
 2177 00df 00       		.byte	0
 2178 00e0 03       		.uleb128 0x3
 2179 00e1 0E       		.uleb128 0xe
 2180 00e2 3A       		.uleb128 0x3a
 2181 00e3 0B       		.uleb128 0xb
 2182 00e4 3B       		.uleb128 0x3b
 2183 00e5 05       		.uleb128 0x5
 2184 00e6 49       		.uleb128 0x49
ARM GAS  /tmp/ccdGRgqs.s 			page 67


 2185 00e7 13       		.uleb128 0x13
 2186 00e8 00       		.byte	0
 2187 00e9 00       		.byte	0
 2188 00ea 15       		.uleb128 0x15
 2189 00eb 13       		.uleb128 0x13
 2190 00ec 01       		.byte	0x1
 2191 00ed 0B       		.uleb128 0xb
 2192 00ee 0B       		.uleb128 0xb
 2193 00ef 3A       		.uleb128 0x3a
 2194 00f0 0B       		.uleb128 0xb
 2195 00f1 3B       		.uleb128 0x3b
 2196 00f2 0B       		.uleb128 0xb
 2197 00f3 01       		.uleb128 0x1
 2198 00f4 13       		.uleb128 0x13
 2199 00f5 00       		.byte	0
 2200 00f6 00       		.byte	0
 2201 00f7 16       		.uleb128 0x16
 2202 00f8 17       		.uleb128 0x17
 2203 00f9 01       		.byte	0x1
 2204 00fa 0B       		.uleb128 0xb
 2205 00fb 0B       		.uleb128 0xb
 2206 00fc 3A       		.uleb128 0x3a
 2207 00fd 0B       		.uleb128 0xb
 2208 00fe 3B       		.uleb128 0x3b
 2209 00ff 0B       		.uleb128 0xb
 2210 0100 01       		.uleb128 0x1
 2211 0101 13       		.uleb128 0x13
 2212 0102 00       		.byte	0
 2213 0103 00       		.byte	0
 2214 0104 17       		.uleb128 0x17
 2215 0105 0D       		.uleb128 0xd
 2216 0106 00       		.byte	0
 2217 0107 03       		.uleb128 0x3
 2218 0108 0E       		.uleb128 0xe
 2219 0109 3A       		.uleb128 0x3a
 2220 010a 0B       		.uleb128 0xb
 2221 010b 3B       		.uleb128 0x3b
 2222 010c 0B       		.uleb128 0xb
 2223 010d 49       		.uleb128 0x49
 2224 010e 13       		.uleb128 0x13
 2225 010f 00       		.byte	0
 2226 0110 00       		.byte	0
 2227 0111 18       		.uleb128 0x18
 2228 0112 0D       		.uleb128 0xd
 2229 0113 00       		.byte	0
 2230 0114 03       		.uleb128 0x3
 2231 0115 0E       		.uleb128 0xe
 2232 0116 3A       		.uleb128 0x3a
 2233 0117 0B       		.uleb128 0xb
 2234 0118 3B       		.uleb128 0x3b
 2235 0119 05       		.uleb128 0x5
 2236 011a 49       		.uleb128 0x49
 2237 011b 13       		.uleb128 0x13
 2238 011c 00       		.byte	0
 2239 011d 00       		.byte	0
 2240 011e 19       		.uleb128 0x19
 2241 011f 2E       		.uleb128 0x2e
ARM GAS  /tmp/ccdGRgqs.s 			page 68


 2242 0120 00       		.byte	0
 2243 0121 03       		.uleb128 0x3
 2244 0122 0E       		.uleb128 0xe
 2245 0123 3A       		.uleb128 0x3a
 2246 0124 0B       		.uleb128 0xb
 2247 0125 3B       		.uleb128 0x3b
 2248 0126 05       		.uleb128 0x5
 2249 0127 27       		.uleb128 0x27
 2250 0128 19       		.uleb128 0x19
 2251 0129 49       		.uleb128 0x49
 2252 012a 13       		.uleb128 0x13
 2253 012b 20       		.uleb128 0x20
 2254 012c 0B       		.uleb128 0xb
 2255 012d 00       		.byte	0
 2256 012e 00       		.byte	0
 2257 012f 1A       		.uleb128 0x1a
 2258 0130 2E       		.uleb128 0x2e
 2259 0131 01       		.byte	0x1
 2260 0132 03       		.uleb128 0x3
 2261 0133 0E       		.uleb128 0xe
 2262 0134 3A       		.uleb128 0x3a
 2263 0135 0B       		.uleb128 0xb
 2264 0136 3B       		.uleb128 0x3b
 2265 0137 0B       		.uleb128 0xb
 2266 0138 27       		.uleb128 0x27
 2267 0139 19       		.uleb128 0x19
 2268 013a 20       		.uleb128 0x20
 2269 013b 0B       		.uleb128 0xb
 2270 013c 01       		.uleb128 0x1
 2271 013d 13       		.uleb128 0x13
 2272 013e 00       		.byte	0
 2273 013f 00       		.byte	0
 2274 0140 1B       		.uleb128 0x1b
 2275 0141 05       		.uleb128 0x5
 2276 0142 00       		.byte	0
 2277 0143 03       		.uleb128 0x3
 2278 0144 08       		.uleb128 0x8
 2279 0145 3A       		.uleb128 0x3a
 2280 0146 0B       		.uleb128 0xb
 2281 0147 3B       		.uleb128 0x3b
 2282 0148 0B       		.uleb128 0xb
 2283 0149 49       		.uleb128 0x49
 2284 014a 13       		.uleb128 0x13
 2285 014b 00       		.byte	0
 2286 014c 00       		.byte	0
 2287 014d 1C       		.uleb128 0x1c
 2288 014e 05       		.uleb128 0x5
 2289 014f 00       		.byte	0
 2290 0150 03       		.uleb128 0x3
 2291 0151 0E       		.uleb128 0xe
 2292 0152 3A       		.uleb128 0x3a
 2293 0153 0B       		.uleb128 0xb
 2294 0154 3B       		.uleb128 0x3b
 2295 0155 0B       		.uleb128 0xb
 2296 0156 49       		.uleb128 0x49
 2297 0157 13       		.uleb128 0x13
 2298 0158 00       		.byte	0
ARM GAS  /tmp/ccdGRgqs.s 			page 69


 2299 0159 00       		.byte	0
 2300 015a 1D       		.uleb128 0x1d
 2301 015b 2E       		.uleb128 0x2e
 2302 015c 01       		.byte	0x1
 2303 015d 3F       		.uleb128 0x3f
 2304 015e 19       		.uleb128 0x19
 2305 015f 03       		.uleb128 0x3
 2306 0160 0E       		.uleb128 0xe
 2307 0161 3A       		.uleb128 0x3a
 2308 0162 0B       		.uleb128 0xb
 2309 0163 3B       		.uleb128 0x3b
 2310 0164 0B       		.uleb128 0xb
 2311 0165 27       		.uleb128 0x27
 2312 0166 19       		.uleb128 0x19
 2313 0167 20       		.uleb128 0x20
 2314 0168 0B       		.uleb128 0xb
 2315 0169 01       		.uleb128 0x1
 2316 016a 13       		.uleb128 0x13
 2317 016b 00       		.byte	0
 2318 016c 00       		.byte	0
 2319 016d 1E       		.uleb128 0x1e
 2320 016e 2E       		.uleb128 0x2e
 2321 016f 01       		.byte	0x1
 2322 0170 31       		.uleb128 0x31
 2323 0171 13       		.uleb128 0x13
 2324 0172 11       		.uleb128 0x11
 2325 0173 01       		.uleb128 0x1
 2326 0174 12       		.uleb128 0x12
 2327 0175 06       		.uleb128 0x6
 2328 0176 40       		.uleb128 0x40
 2329 0177 18       		.uleb128 0x18
 2330 0178 9742     		.uleb128 0x2117
 2331 017a 19       		.uleb128 0x19
 2332 017b 01       		.uleb128 0x1
 2333 017c 13       		.uleb128 0x13
 2334 017d 00       		.byte	0
 2335 017e 00       		.byte	0
 2336 017f 1F       		.uleb128 0x1f
 2337 0180 05       		.uleb128 0x5
 2338 0181 00       		.byte	0
 2339 0182 31       		.uleb128 0x31
 2340 0183 13       		.uleb128 0x13
 2341 0184 02       		.uleb128 0x2
 2342 0185 18       		.uleb128 0x18
 2343 0186 00       		.byte	0
 2344 0187 00       		.byte	0
 2345 0188 20       		.uleb128 0x20
 2346 0189 2E       		.uleb128 0x2e
 2347 018a 01       		.byte	0x1
 2348 018b 3F       		.uleb128 0x3f
 2349 018c 19       		.uleb128 0x19
 2350 018d 03       		.uleb128 0x3
 2351 018e 0E       		.uleb128 0xe
 2352 018f 3A       		.uleb128 0x3a
 2353 0190 0B       		.uleb128 0xb
 2354 0191 3B       		.uleb128 0x3b
 2355 0192 0B       		.uleb128 0xb
ARM GAS  /tmp/ccdGRgqs.s 			page 70


 2356 0193 27       		.uleb128 0x27
 2357 0194 19       		.uleb128 0x19
 2358 0195 11       		.uleb128 0x11
 2359 0196 01       		.uleb128 0x1
 2360 0197 12       		.uleb128 0x12
 2361 0198 06       		.uleb128 0x6
 2362 0199 40       		.uleb128 0x40
 2363 019a 18       		.uleb128 0x18
 2364 019b 9742     		.uleb128 0x2117
 2365 019d 19       		.uleb128 0x19
 2366 019e 01       		.uleb128 0x1
 2367 019f 13       		.uleb128 0x13
 2368 01a0 00       		.byte	0
 2369 01a1 00       		.byte	0
 2370 01a2 21       		.uleb128 0x21
 2371 01a3 05       		.uleb128 0x5
 2372 01a4 00       		.byte	0
 2373 01a5 03       		.uleb128 0x3
 2374 01a6 08       		.uleb128 0x8
 2375 01a7 3A       		.uleb128 0x3a
 2376 01a8 0B       		.uleb128 0xb
 2377 01a9 3B       		.uleb128 0x3b
 2378 01aa 0B       		.uleb128 0xb
 2379 01ab 49       		.uleb128 0x49
 2380 01ac 13       		.uleb128 0x13
 2381 01ad 02       		.uleb128 0x2
 2382 01ae 18       		.uleb128 0x18
 2383 01af 00       		.byte	0
 2384 01b0 00       		.byte	0
 2385 01b1 22       		.uleb128 0x22
 2386 01b2 1D       		.uleb128 0x1d
 2387 01b3 00       		.byte	0
 2388 01b4 31       		.uleb128 0x31
 2389 01b5 13       		.uleb128 0x13
 2390 01b6 11       		.uleb128 0x11
 2391 01b7 01       		.uleb128 0x1
 2392 01b8 12       		.uleb128 0x12
 2393 01b9 06       		.uleb128 0x6
 2394 01ba 58       		.uleb128 0x58
 2395 01bb 0B       		.uleb128 0xb
 2396 01bc 59       		.uleb128 0x59
 2397 01bd 0B       		.uleb128 0xb
 2398 01be 00       		.byte	0
 2399 01bf 00       		.byte	0
 2400 01c0 23       		.uleb128 0x23
 2401 01c1 1D       		.uleb128 0x1d
 2402 01c2 00       		.byte	0
 2403 01c3 31       		.uleb128 0x31
 2404 01c4 13       		.uleb128 0x13
 2405 01c5 52       		.uleb128 0x52
 2406 01c6 01       		.uleb128 0x1
 2407 01c7 55       		.uleb128 0x55
 2408 01c8 17       		.uleb128 0x17
 2409 01c9 58       		.uleb128 0x58
 2410 01ca 0B       		.uleb128 0xb
 2411 01cb 59       		.uleb128 0x59
 2412 01cc 0B       		.uleb128 0xb
ARM GAS  /tmp/ccdGRgqs.s 			page 71


 2413 01cd 00       		.byte	0
 2414 01ce 00       		.byte	0
 2415 01cf 24       		.uleb128 0x24
 2416 01d0 1D       		.uleb128 0x1d
 2417 01d1 01       		.byte	0x1
 2418 01d2 31       		.uleb128 0x31
 2419 01d3 13       		.uleb128 0x13
 2420 01d4 52       		.uleb128 0x52
 2421 01d5 01       		.uleb128 0x1
 2422 01d6 55       		.uleb128 0x55
 2423 01d7 17       		.uleb128 0x17
 2424 01d8 58       		.uleb128 0x58
 2425 01d9 0B       		.uleb128 0xb
 2426 01da 59       		.uleb128 0x59
 2427 01db 0B       		.uleb128 0xb
 2428 01dc 00       		.byte	0
 2429 01dd 00       		.byte	0
 2430 01de 25       		.uleb128 0x25
 2431 01df 05       		.uleb128 0x5
 2432 01e0 00       		.byte	0
 2433 01e1 31       		.uleb128 0x31
 2434 01e2 13       		.uleb128 0x13
 2435 01e3 02       		.uleb128 0x2
 2436 01e4 17       		.uleb128 0x17
 2437 01e5 00       		.byte	0
 2438 01e6 00       		.byte	0
 2439 01e7 26       		.uleb128 0x26
 2440 01e8 34       		.uleb128 0x34
 2441 01e9 00       		.byte	0
 2442 01ea 03       		.uleb128 0x3
 2443 01eb 08       		.uleb128 0x8
 2444 01ec 3A       		.uleb128 0x3a
 2445 01ed 0B       		.uleb128 0xb
 2446 01ee 3B       		.uleb128 0x3b
 2447 01ef 0B       		.uleb128 0xb
 2448 01f0 49       		.uleb128 0x49
 2449 01f1 13       		.uleb128 0x13
 2450 01f2 02       		.uleb128 0x2
 2451 01f3 18       		.uleb128 0x18
 2452 01f4 00       		.byte	0
 2453 01f5 00       		.byte	0
 2454 01f6 27       		.uleb128 0x27
 2455 01f7 1D       		.uleb128 0x1d
 2456 01f8 01       		.byte	0x1
 2457 01f9 31       		.uleb128 0x31
 2458 01fa 13       		.uleb128 0x13
 2459 01fb 52       		.uleb128 0x52
 2460 01fc 01       		.uleb128 0x1
 2461 01fd 55       		.uleb128 0x55
 2462 01fe 17       		.uleb128 0x17
 2463 01ff 58       		.uleb128 0x58
 2464 0200 0B       		.uleb128 0xb
 2465 0201 59       		.uleb128 0x59
 2466 0202 0B       		.uleb128 0xb
 2467 0203 01       		.uleb128 0x1
 2468 0204 13       		.uleb128 0x13
 2469 0205 00       		.byte	0
ARM GAS  /tmp/ccdGRgqs.s 			page 72


 2470 0206 00       		.byte	0
 2471 0207 28       		.uleb128 0x28
 2472 0208 898201   		.uleb128 0x4109
 2473 020b 01       		.byte	0x1
 2474 020c 11       		.uleb128 0x11
 2475 020d 01       		.uleb128 0x1
 2476 020e 31       		.uleb128 0x31
 2477 020f 13       		.uleb128 0x13
 2478 0210 01       		.uleb128 0x1
 2479 0211 13       		.uleb128 0x13
 2480 0212 00       		.byte	0
 2481 0213 00       		.byte	0
 2482 0214 29       		.uleb128 0x29
 2483 0215 8A8201   		.uleb128 0x410a
 2484 0218 00       		.byte	0
 2485 0219 02       		.uleb128 0x2
 2486 021a 18       		.uleb128 0x18
 2487 021b 9142     		.uleb128 0x2111
 2488 021d 18       		.uleb128 0x18
 2489 021e 00       		.byte	0
 2490 021f 00       		.byte	0
 2491 0220 2A       		.uleb128 0x2a
 2492 0221 898201   		.uleb128 0x4109
 2493 0224 01       		.byte	0x1
 2494 0225 11       		.uleb128 0x11
 2495 0226 01       		.uleb128 0x1
 2496 0227 31       		.uleb128 0x31
 2497 0228 13       		.uleb128 0x13
 2498 0229 00       		.byte	0
 2499 022a 00       		.byte	0
 2500 022b 2B       		.uleb128 0x2b
 2501 022c 05       		.uleb128 0x5
 2502 022d 00       		.byte	0
 2503 022e 03       		.uleb128 0x3
 2504 022f 0E       		.uleb128 0xe
 2505 0230 3A       		.uleb128 0x3a
 2506 0231 0B       		.uleb128 0xb
 2507 0232 3B       		.uleb128 0x3b
 2508 0233 0B       		.uleb128 0xb
 2509 0234 49       		.uleb128 0x49
 2510 0235 13       		.uleb128 0x13
 2511 0236 02       		.uleb128 0x2
 2512 0237 18       		.uleb128 0x18
 2513 0238 00       		.byte	0
 2514 0239 00       		.byte	0
 2515 023a 2C       		.uleb128 0x2c
 2516 023b 05       		.uleb128 0x5
 2517 023c 00       		.byte	0
 2518 023d 03       		.uleb128 0x3
 2519 023e 0E       		.uleb128 0xe
 2520 023f 3A       		.uleb128 0x3a
 2521 0240 0B       		.uleb128 0xb
 2522 0241 3B       		.uleb128 0x3b
 2523 0242 0B       		.uleb128 0xb
 2524 0243 49       		.uleb128 0x49
 2525 0244 13       		.uleb128 0x13
 2526 0245 02       		.uleb128 0x2
ARM GAS  /tmp/ccdGRgqs.s 			page 73


 2527 0246 17       		.uleb128 0x17
 2528 0247 00       		.byte	0
 2529 0248 00       		.byte	0
 2530 0249 2D       		.uleb128 0x2d
 2531 024a 1D       		.uleb128 0x1d
 2532 024b 01       		.byte	0x1
 2533 024c 31       		.uleb128 0x31
 2534 024d 13       		.uleb128 0x13
 2535 024e 11       		.uleb128 0x11
 2536 024f 01       		.uleb128 0x1
 2537 0250 12       		.uleb128 0x12
 2538 0251 06       		.uleb128 0x6
 2539 0252 58       		.uleb128 0x58
 2540 0253 0B       		.uleb128 0xb
 2541 0254 59       		.uleb128 0x59
 2542 0255 0B       		.uleb128 0xb
 2543 0256 00       		.byte	0
 2544 0257 00       		.byte	0
 2545 0258 2E       		.uleb128 0x2e
 2546 0259 05       		.uleb128 0x5
 2547 025a 00       		.byte	0
 2548 025b 31       		.uleb128 0x31
 2549 025c 13       		.uleb128 0x13
 2550 025d 1C       		.uleb128 0x1c
 2551 025e 0B       		.uleb128 0xb
 2552 025f 00       		.byte	0
 2553 0260 00       		.byte	0
 2554 0261 2F       		.uleb128 0x2f
 2555 0262 34       		.uleb128 0x34
 2556 0263 00       		.byte	0
 2557 0264 03       		.uleb128 0x3
 2558 0265 0E       		.uleb128 0xe
 2559 0266 3A       		.uleb128 0x3a
 2560 0267 0B       		.uleb128 0xb
 2561 0268 3B       		.uleb128 0x3b
 2562 0269 05       		.uleb128 0x5
 2563 026a 49       		.uleb128 0x49
 2564 026b 13       		.uleb128 0x13
 2565 026c 3F       		.uleb128 0x3f
 2566 026d 19       		.uleb128 0x19
 2567 026e 3C       		.uleb128 0x3c
 2568 026f 19       		.uleb128 0x19
 2569 0270 00       		.byte	0
 2570 0271 00       		.byte	0
 2571 0272 30       		.uleb128 0x30
 2572 0273 34       		.uleb128 0x34
 2573 0274 00       		.byte	0
 2574 0275 03       		.uleb128 0x3
 2575 0276 08       		.uleb128 0x8
 2576 0277 3A       		.uleb128 0x3a
 2577 0278 0B       		.uleb128 0xb
 2578 0279 3B       		.uleb128 0x3b
 2579 027a 05       		.uleb128 0x5
 2580 027b 49       		.uleb128 0x49
 2581 027c 13       		.uleb128 0x13
 2582 027d 3F       		.uleb128 0x3f
 2583 027e 19       		.uleb128 0x19
ARM GAS  /tmp/ccdGRgqs.s 			page 74


 2584 027f 3C       		.uleb128 0x3c
 2585 0280 19       		.uleb128 0x19
 2586 0281 00       		.byte	0
 2587 0282 00       		.byte	0
 2588 0283 00       		.byte	0
 2589              		.section	.debug_loc,"",%progbits
 2590              	.Ldebug_loc0:
 2591              	.LLST0:
 2592 0000 18000000 		.4byte	.LVL3
 2593 0004 28000000 		.4byte	.LVL5
 2594 0008 0100     		.2byte	0x1
 2595 000a 54       		.byte	0x54
 2596 000b 00000000 		.4byte	0
 2597 000f 00000000 		.4byte	0
 2598              	.LLST1:
 2599 0013 18000000 		.4byte	.LVL3
 2600 0017 1A000000 		.4byte	.LVL4
 2601 001b 0100     		.2byte	0x1
 2602 001d 51       		.byte	0x51
 2603 001e 00000000 		.4byte	0
 2604 0022 00000000 		.4byte	0
 2605              	.LLST2:
 2606 0026 1E000000 		.4byte	.LVL6
 2607 002a 29000000 		.4byte	.LVL7-1
 2608 002e 0100     		.2byte	0x1
 2609 0030 50       		.byte	0x50
 2610 0031 29000000 		.4byte	.LVL7-1
 2611 0035 36000000 		.4byte	.LVL9
 2612 0039 0100     		.2byte	0x1
 2613 003b 5D       		.byte	0x5d
 2614 003c 36000000 		.4byte	.LVL9
 2615 0040 38000000 		.4byte	.LFE187
 2616 0044 0300     		.2byte	0x3
 2617 0046 91       		.byte	0x91
 2618 0047 58       		.sleb128 -40
 2619 0048 9F       		.byte	0x9f
 2620 0049 00000000 		.4byte	0
 2621 004d 00000000 		.4byte	0
 2622              	.LLST3:
 2623 0051 00000000 		.4byte	.LVL10
 2624 0055 10000000 		.4byte	.LVL12
 2625 0059 0100     		.2byte	0x1
 2626 005b 51       		.byte	0x51
 2627 005c 10000000 		.4byte	.LVL12
 2628 0060 3C000000 		.4byte	.LFE191
 2629 0064 0400     		.2byte	0x4
 2630 0066 F3       		.byte	0xf3
 2631 0067 01       		.uleb128 0x1
 2632 0068 51       		.byte	0x51
 2633 0069 9F       		.byte	0x9f
 2634 006a 00000000 		.4byte	0
 2635 006e 00000000 		.4byte	0
 2636              	.LLST4:
 2637 0072 0E000000 		.4byte	.LVL11
 2638 0076 22000000 		.4byte	.LVL13
 2639 007a 0100     		.2byte	0x1
 2640 007c 53       		.byte	0x53
ARM GAS  /tmp/ccdGRgqs.s 			page 75


 2641 007d 22000000 		.4byte	.LVL13
 2642 0081 34000000 		.4byte	.LVL14
 2643 0085 0500     		.2byte	0x5
 2644 0087 F3       		.byte	0xf3
 2645 0088 01       		.uleb128 0x1
 2646 0089 51       		.byte	0x51
 2647 008a 23       		.byte	0x23
 2648 008b 08       		.uleb128 0x8
 2649 008c 00000000 		.4byte	0
 2650 0090 00000000 		.4byte	0
 2651              		.section	.debug_aranges,"",%progbits
 2652 0000 3C000000 		.4byte	0x3c
 2653 0004 0200     		.2byte	0x2
 2654 0006 00000000 		.4byte	.Ldebug_info0
 2655 000a 04       		.byte	0x4
 2656 000b 00       		.byte	0
 2657 000c 0000     		.2byte	0
 2658 000e 0000     		.2byte	0
 2659 0010 00000000 		.4byte	.LFB188
 2660 0014 18000000 		.4byte	.LFE188-.LFB188
 2661 0018 00000000 		.4byte	.LFB189
 2662 001c 0E000000 		.4byte	.LFE189-.LFB189
 2663 0020 00000000 		.4byte	.LFB190
 2664 0024 46000000 		.4byte	.LFE190-.LFB190
 2665 0028 00000000 		.4byte	.LFB187
 2666 002c 38000000 		.4byte	.LFE187-.LFB187
 2667 0030 00000000 		.4byte	.LFB191
 2668 0034 3C000000 		.4byte	.LFE191-.LFB191
 2669 0038 00000000 		.4byte	0
 2670 003c 00000000 		.4byte	0
 2671              		.section	.debug_ranges,"",%progbits
 2672              	.Ldebug_ranges0:
 2673 0000 00000000 		.4byte	.LBB16
 2674 0004 08000000 		.4byte	.LBE16
 2675 0008 0C000000 		.4byte	.LBB19
 2676 000c 0E000000 		.4byte	.LBE19
 2677 0010 00000000 		.4byte	0
 2678 0014 00000000 		.4byte	0
 2679 0018 12000000 		.4byte	.LBB20
 2680 001c 14000000 		.4byte	.LBE20
 2681 0020 18000000 		.4byte	.LBB23
 2682 0024 42000000 		.4byte	.LBE23
 2683 0028 00000000 		.4byte	0
 2684 002c 00000000 		.4byte	0
 2685 0030 0A000000 		.4byte	.LBB24
 2686 0034 0E000000 		.4byte	.LBE24
 2687 0038 14000000 		.4byte	.LBB28
 2688 003c 1C000000 		.4byte	.LBE28
 2689 0040 1E000000 		.4byte	.LBB29
 2690 0044 26000000 		.4byte	.LBE29
 2691 0048 00000000 		.4byte	0
 2692 004c 00000000 		.4byte	0
 2693 0050 00000000 		.4byte	.LFB188
 2694 0054 18000000 		.4byte	.LFE188
 2695 0058 00000000 		.4byte	.LFB189
 2696 005c 0E000000 		.4byte	.LFE189
 2697 0060 00000000 		.4byte	.LFB190
ARM GAS  /tmp/ccdGRgqs.s 			page 76


 2698 0064 46000000 		.4byte	.LFE190
 2699 0068 00000000 		.4byte	.LFB187
 2700 006c 38000000 		.4byte	.LFE187
 2701 0070 00000000 		.4byte	.LFB191
 2702 0074 3C000000 		.4byte	.LFE191
 2703 0078 00000000 		.4byte	0
 2704 007c 00000000 		.4byte	0
 2705              		.section	.debug_line,"",%progbits
 2706              	.Ldebug_line0:
 2707 0000 6F020000 		.section	.debug_str,"MS",%progbits,1
 2707      02008E01 
 2707      00000201 
 2707      FB0E0D00 
 2707      01010101 
 2708              	.LASF44:
 2709 0000 63685F74 		.ascii	"ch_threads_list\000"
 2709      68726561 
 2709      64735F6C 
 2709      69737400 
 2710              	.LASF122:
 2711 0010 746D7031 		.ascii	"tmp1\000"
 2711      00
 2712              	.LASF123:
 2713 0015 746D7032 		.ascii	"tmp2\000"
 2713      00
 2714              	.LASF110:
 2715 001a 77746D74 		.ascii	"wtmtxp\000"
 2715      787000
 2716              	.LASF77:
 2717 0021 434F4D50 		.ascii	"COMP0\000"
 2717      3000
 2718              	.LASF81:
 2719 0027 434F4D50 		.ascii	"COMP1\000"
 2719      3100
 2720              	.LASF85:
 2721 002d 434F4D50 		.ascii	"COMP2\000"
 2721      3200
 2722              	.LASF89:
 2723 0033 434F4D50 		.ascii	"COMP3\000"
 2723      3300
 2724              	.LASF41:
 2725 0039 74687265 		.ascii	"thread_reference_t\000"
 2725      61645F72 
 2725      65666572 
 2725      656E6365 
 2725      5F7400
 2726              	.LASF93:
 2727 004c 72656761 		.ascii	"regarm_t\000"
 2727      726D5F74 
 2727      00
 2728              	.LASF130:
 2729 0055 6368544D 		.ascii	"chTMObjectInit\000"
 2729      4F626A65 
 2729      6374496E 
 2729      697400
 2730              	.LASF33:
 2731 0064 666C6167 		.ascii	"flags\000"
ARM GAS  /tmp/ccdGRgqs.s 			page 77


 2731      7300
 2732              	.LASF24:
 2733 006a 73797374 		.ascii	"systime_t\000"
 2733      696D655F 
 2733      7400
 2734              	.LASF39:
 2735 0074 7265616C 		.ascii	"realprio\000"
 2735      7072696F 
 2735      00
 2736              	.LASF118:
 2737 007d 6368544D 		.ascii	"chTMStartMeasurementX\000"
 2737      53746172 
 2737      744D6561 
 2737      73757265 
 2737      6D656E74 
 2738              	.LASF71:
 2739 0093 43504943 		.ascii	"CPICNT\000"
 2739      4E5400
 2740              	.LASF37:
 2741 009a 6570656E 		.ascii	"epending\000"
 2741      64696E67 
 2741      00
 2742              	.LASF0:
 2743 00a3 756E7369 		.ascii	"unsigned int\000"
 2743      676E6564 
 2743      20696E74 
 2743      00
 2744              	.LASF45:
 2745 00b0 6E657874 		.ascii	"next\000"
 2745      00
 2746              	.LASF42:
 2747 00b5 74687265 		.ascii	"threads_list_t\000"
 2747      6164735F 
 2747      6C697374 
 2747      5F7400
 2748              	.LASF102:
 2749 00c4 63756D75 		.ascii	"cumulative\000"
 2749      6C617469 
 2749      766500
 2750              	.LASF34:
 2751 00cf 72656673 		.ascii	"refs\000"
 2751      00
 2752              	.LASF106:
 2753 00d4 77746F62 		.ascii	"wtobjp\000"
 2753      6A7000
 2754              	.LASF66:
 2755 00db 76746C69 		.ascii	"vtlist\000"
 2755      737400
 2756              	.LASF95:
 2757 00e2 706F7274 		.ascii	"port_context\000"
 2757      5F636F6E 
 2757      74657874 
 2757      00
 2758              	.LASF50:
 2759 00ef 63685F72 		.ascii	"ch_ready_list\000"
 2759      65616479 
 2759      5F6C6973 
ARM GAS  /tmp/ccdGRgqs.s 			page 78


 2759      7400
 2760              	.LASF56:
 2761 00fd 66756E63 		.ascii	"func\000"
 2761      00
 2762              	.LASF111:
 2763 0102 65776D61 		.ascii	"ewmask\000"
 2763      736B00
 2764              	.LASF48:
 2765 0109 70726576 		.ascii	"prev\000"
 2765      00
 2766              	.LASF47:
 2767 010e 63685F74 		.ascii	"ch_threads_queue\000"
 2767      68726561 
 2767      64735F71 
 2767      75657565 
 2767      00
 2768              	.LASF52:
 2769 011f 76746675 		.ascii	"vtfunc_t\000"
 2769      6E635F74 
 2769      00
 2770              	.LASF61:
 2771 0128 63685F73 		.ascii	"ch_system_debug\000"
 2771      79737465 
 2771      6D5F6465 
 2771      62756700 
 2772              	.LASF9:
 2773 0138 75696E74 		.ascii	"uint32_t\000"
 2773      33325F74 
 2773      00
 2774              	.LASF108:
 2775 0141 73656E74 		.ascii	"sentmsg\000"
 2775      6D736700 
 2776              	.LASF21:
 2777 0149 6576656E 		.ascii	"eventmask_t\000"
 2777      746D6173 
 2777      6B5F7400 
 2778              	.LASF112:
 2779 0155 63685F73 		.ascii	"ch_semaphore\000"
 2779      656D6170 
 2779      686F7265 
 2779      00
 2780              	.LASF19:
 2781 0162 74707269 		.ascii	"tprio_t\000"
 2781      6F5F7400 
 2782              	.LASF54:
 2783 016a 63685F76 		.ascii	"ch_virtual_timer\000"
 2783      69727475 
 2783      616C5F74 
 2783      696D6572 
 2783      00
 2784              	.LASF13:
 2785 017b 6C6F6E67 		.ascii	"long long unsigned int\000"
 2785      206C6F6E 
 2785      6720756E 
 2785      7369676E 
 2785      65642069 
 2786              	.LASF128:
ARM GAS  /tmp/ccdGRgqs.s 			page 79


 2787 0192 706F7274 		.ascii	"port_rt_get_counter_value\000"
 2787      5F72745F 
 2787      6765745F 
 2787      636F756E 
 2787      7465725F 
 2788              	.LASF22:
 2789 01ac 636E745F 		.ascii	"cnt_t\000"
 2789      7400
 2790              	.LASF100:
 2791 01b2 776F7273 		.ascii	"worst\000"
 2791      7400
 2792              	.LASF114:
 2793 01b8 6F776E65 		.ascii	"owner\000"
 2793      7200
 2794              	.LASF46:
 2795 01be 74687265 		.ascii	"threads_queue_t\000"
 2795      6164735F 
 2795      71756575 
 2795      655F7400 
 2796              	.LASF38:
 2797 01ce 6D74786C 		.ascii	"mtxlist\000"
 2797      69737400 
 2798              	.LASF58:
 2799 01d6 63685F76 		.ascii	"ch_virtual_timers_list\000"
 2799      69727475 
 2799      616C5F74 
 2799      696D6572 
 2799      735F6C69 
 2800              	.LASF25:
 2801 01ed 74687265 		.ascii	"thread_t\000"
 2801      61645F74 
 2801      00
 2802              	.LASF104:
 2803 01f6 7264796D 		.ascii	"rdymsg\000"
 2803      736700
 2804              	.LASF97:
 2805 01fd 6F666673 		.ascii	"offset\000"
 2805      657400
 2806              	.LASF117:
 2807 0204 5F426F6F 		.ascii	"_Bool\000"
 2807      6C00
 2808              	.LASF113:
 2809 020a 63685F6D 		.ascii	"ch_mutex\000"
 2809      75746578 
 2809      00
 2810              	.LASF92:
 2811 0213 4457545F 		.ascii	"DWT_Type\000"
 2811      54797065 
 2811      00
 2812              	.LASF101:
 2813 021c 6C617374 		.ascii	"last\000"
 2813      00
 2814              	.LASF74:
 2815 0221 4C535543 		.ascii	"LSUCNT\000"
 2815      4E5400
 2816              	.LASF125:
 2817 0228 474E5520 		.ascii	"GNU C 4.8.1 -mcpu=cortex-m3 -mno-thumb-interwork -m"
ARM GAS  /tmp/ccdGRgqs.s 			page 80


 2817      4320342E 
 2817      382E3120 
 2817      2D6D6370 
 2817      753D636F 
 2818 025b 7468756D 		.ascii	"thumb -ggdb -O2 -fomit-frame-pointer -falign-functi"
 2818      62202D67 
 2818      67646220 
 2818      2D4F3220 
 2818      2D666F6D 
 2819 028e 6F6E733D 		.ascii	"ons=16 -ffunction-sections -fdata-sections -fno-com"
 2819      3136202D 
 2819      6666756E 
 2819      6374696F 
 2819      6E2D7365 
 2820 02c1 6D6F6E20 		.ascii	"mon -flto\000"
 2820      2D666C74 
 2820      6F00
 2821              	.LASF103:
 2822 02cb 74696D65 		.ascii	"time_measurement_t\000"
 2822      5F6D6561 
 2822      73757265 
 2822      6D656E74 
 2822      5F7400
 2823              	.LASF27:
 2824 02de 7072696F 		.ascii	"prio\000"
 2824      00
 2825              	.LASF115:
 2826 02e3 63686172 		.ascii	"char\000"
 2826      00
 2827              	.LASF15:
 2828 02e8 72747469 		.ascii	"rttime_t\000"
 2828      6D655F74 
 2828      00
 2829              	.LASF31:
 2830 02f1 77616261 		.ascii	"wabase\000"
 2830      736500
 2831              	.LASF17:
 2832 02f8 74737461 		.ascii	"tstate_t\000"
 2832      74655F74 
 2832      00
 2833              	.LASF79:
 2834 0301 46554E43 		.ascii	"FUNCTION0\000"
 2834      54494F4E 
 2834      3000
 2835              	.LASF83:
 2836 030b 46554E43 		.ascii	"FUNCTION1\000"
 2836      54494F4E 
 2836      3100
 2837              	.LASF87:
 2838 0315 46554E43 		.ascii	"FUNCTION2\000"
 2838      54494F4E 
 2838      3200
 2839              	.LASF91:
 2840 031f 46554E43 		.ascii	"FUNCTION3\000"
 2840      54494F4E 
 2840      3300
 2841              	.LASF4:
ARM GAS  /tmp/ccdGRgqs.s 			page 81


 2842 0329 75696E74 		.ascii	"uint8_t\000"
 2842      385F7400 
 2843              	.LASF121:
 2844 0331 6368544D 		.ascii	"chTMChainMeasurementToX\000"
 2844      43686169 
 2844      6E4D6561 
 2844      73757265 
 2844      6D656E74 
 2845              	.LASF36:
 2846 0349 6D736771 		.ascii	"msgqueue\000"
 2846      75657565 
 2846      00
 2847              	.LASF43:
 2848 0352 63685F74 		.ascii	"ch_thread\000"
 2848      68726561 
 2848      6400
 2849              	.LASF60:
 2850 035c 73797374 		.ascii	"system_debug_t\000"
 2850      656D5F64 
 2850      65627567 
 2850      5F7400
 2851              	.LASF11:
 2852 036b 6C6F6E67 		.ascii	"long long int\000"
 2852      206C6F6E 
 2852      6720696E 
 2852      7400
 2853              	.LASF20:
 2854 0379 6D73675F 		.ascii	"msg_t\000"
 2854      7400
 2855              	.LASF78:
 2856 037f 4D41534B 		.ascii	"MASK0\000"
 2856      3000
 2857              	.LASF82:
 2858 0385 4D41534B 		.ascii	"MASK1\000"
 2858      3100
 2859              	.LASF86:
 2860 038b 4D41534B 		.ascii	"MASK2\000"
 2860      3200
 2861              	.LASF90:
 2862 0391 4D41534B 		.ascii	"MASK3\000"
 2862      3300
 2863              	.LASF126:
 2864 0397 2E2E2F2E 		.ascii	"../../../os/rt/src/chtm.c\000"
 2864      2E2F2E2E 
 2864      2F6F732F 
 2864      72742F73 
 2864      72632F63 
 2865              	.LASF53:
 2866 03b1 76697274 		.ascii	"virtual_timer_t\000"
 2866      75616C5F 
 2866      74696D65 
 2866      725F7400 
 2867              	.LASF76:
 2868 03c1 50435352 		.ascii	"PCSR\000"
 2868      00
 2869              	.LASF62:
 2870 03c6 70616E69 		.ascii	"panic_msg\000"
ARM GAS  /tmp/ccdGRgqs.s 			page 82


 2870      635F6D73 
 2870      6700
 2871              	.LASF98:
 2872 03d0 746D5F63 		.ascii	"tm_calibration_t\000"
 2872      616C6962 
 2872      72617469 
 2872      6F6E5F74 
 2872      00
 2873              	.LASF16:
 2874 03e1 746D6F64 		.ascii	"tmode_t\000"
 2874      655F7400 
 2875              	.LASF23:
 2876 03e9 75636E74 		.ascii	"ucnt_t\000"
 2876      5F7400
 2877              	.LASF67:
 2878 03f0 6D61696E 		.ascii	"mainthread\000"
 2878      74687265 
 2878      616400
 2879              	.LASF73:
 2880 03fb 534C4545 		.ascii	"SLEEPCNT\000"
 2880      50434E54 
 2880      00
 2881              	.LASF5:
 2882 0404 75696E74 		.ascii	"uint16_t\000"
 2882      31365F74 
 2882      00
 2883              	.LASF14:
 2884 040d 7274636E 		.ascii	"rtcnt_t\000"
 2884      745F7400 
 2885              	.LASF119:
 2886 0415 6368544D 		.ascii	"chTMStopMeasurementX\000"
 2886      53746F70 
 2886      4D656173 
 2886      7572656D 
 2886      656E7458 
 2887              	.LASF80:
 2888 042a 52455345 		.ascii	"RESERVED0\000"
 2888      52564544 
 2888      3000
 2889              	.LASF84:
 2890 0434 52455345 		.ascii	"RESERVED1\000"
 2890      52564544 
 2890      3100
 2891              	.LASF88:
 2892 043e 52455345 		.ascii	"RESERVED2\000"
 2892      52564544 
 2892      3200
 2893              	.LASF3:
 2894 0448 73686F72 		.ascii	"short int\000"
 2894      7420696E 
 2894      7400
 2895              	.LASF8:
 2896 0452 6C6F6E67 		.ascii	"long int\000"
 2896      20696E74 
 2896      00
 2897              	.LASF96:
 2898 045b 706F7274 		.ascii	"port_intctx\000"
ARM GAS  /tmp/ccdGRgqs.s 			page 83


 2898      5F696E74 
 2898      63747800 
 2899              	.LASF124:
 2900 0467 49544D5F 		.ascii	"ITM_RxBuffer\000"
 2900      52784275 
 2900      66666572 
 2900      00
 2901              	.LASF64:
 2902 0474 63685F73 		.ascii	"ch_system\000"
 2902      79737465 
 2902      6D00
 2903              	.LASF59:
 2904 047e 6C617374 		.ascii	"lasttime\000"
 2904      74696D65 
 2904      00
 2905              	.LASF12:
 2906 0487 75696E74 		.ascii	"uint64_t\000"
 2906      36345F74 
 2906      00
 2907              	.LASF65:
 2908 0490 726C6973 		.ascii	"rlist\000"
 2908      7400
 2909              	.LASF30:
 2910 0496 6E616D65 		.ascii	"name\000"
 2910      00
 2911              	.LASF120:
 2912 049b 5F746D5F 		.ascii	"_tm_init\000"
 2912      696E6974 
 2912      00
 2913              	.LASF68:
 2914 04a4 73697A65 		.ascii	"sizetype\000"
 2914      74797065 
 2914      00
 2915              	.LASF18:
 2916 04ad 74726566 		.ascii	"trefs_t\000"
 2916      735F7400 
 2917              	.LASF10:
 2918 04b5 6C6F6E67 		.ascii	"long unsigned int\000"
 2918      20756E73 
 2918      69676E65 
 2918      6420696E 
 2918      7400
 2919              	.LASF49:
 2920 04c7 72656164 		.ascii	"ready_list_t\000"
 2920      795F6C69 
 2920      73745F74 
 2920      00
 2921              	.LASF26:
 2922 04d4 71756575 		.ascii	"queue\000"
 2922      6500
 2923              	.LASF7:
 2924 04da 696E7433 		.ascii	"int32_t\000"
 2924      325F7400 
 2925              	.LASF109:
 2926 04e2 77747365 		.ascii	"wtsemp\000"
 2926      6D7000
 2927              	.LASF116:
ARM GAS  /tmp/ccdGRgqs.s 			page 84


 2928 04e9 6D757465 		.ascii	"mutex_t\000"
 2928      785F7400 
 2929              	.LASF28:
 2930 04f1 6E657765 		.ascii	"newer\000"
 2930      7200
 2931              	.LASF99:
 2932 04f7 62657374 		.ascii	"best\000"
 2932      00
 2933              	.LASF2:
 2934 04fc 756E7369 		.ascii	"unsigned char\000"
 2934      676E6564 
 2934      20636861 
 2934      7200
 2935              	.LASF35:
 2936 050a 77616974 		.ascii	"waiting\000"
 2936      696E6700 
 2937              	.LASF129:
 2938 0512 746D5F73 		.ascii	"tm_stop\000"
 2938      746F7000 
 2939              	.LASF57:
 2940 051a 76697274 		.ascii	"virtual_timers_list_t\000"
 2940      75616C5F 
 2940      74696D65 
 2940      72735F6C 
 2940      6973745F 
 2941              	.LASF29:
 2942 0530 6F6C6465 		.ascii	"older\000"
 2942      7200
 2943              	.LASF32:
 2944 0536 73746174 		.ascii	"state\000"
 2944      6500
 2945              	.LASF75:
 2946 053c 464F4C44 		.ascii	"FOLDCNT\000"
 2946      434E5400 
 2947              	.LASF63:
 2948 0544 63685F73 		.ascii	"ch_system_t\000"
 2948      79737465 
 2948      6D5F7400 
 2949              	.LASF107:
 2950 0550 77747472 		.ascii	"wttrp\000"
 2950      7000
 2951              	.LASF70:
 2952 0556 43594343 		.ascii	"CYCCNT\000"
 2952      4E5400
 2953              	.LASF1:
 2954 055d 7369676E 		.ascii	"signed char\000"
 2954      65642063 
 2954      68617200 
 2955              	.LASF55:
 2956 0569 64656C74 		.ascii	"delta\000"
 2956      6100
 2957              	.LASF6:
 2958 056f 73686F72 		.ascii	"short unsigned int\000"
 2958      7420756E 
 2958      7369676E 
 2958      65642069 
 2958      6E7400
ARM GAS  /tmp/ccdGRgqs.s 			page 85


 2959              	.LASF94:
 2960 0582 73746B61 		.ascii	"stkalign_t\000"
 2960      6C69676E 
 2960      5F7400
 2961              	.LASF51:
 2962 058d 63757272 		.ascii	"current\000"
 2962      656E7400 
 2963              	.LASF127:
 2964 0595 2F686F6D 		.ascii	"/home/alex/Embebidos Proyecto/ChibiOS_17.6.1/demos/"
 2964      652F616C 
 2964      65782F45 
 2964      6D626562 
 2964      69646F73 
 2965 05c8 53544D33 		.ascii	"STM32/RT-STM32F100-DISCOVERY\000"
 2965      322F5254 
 2965      2D53544D 
 2965      33324631 
 2965      30302D44 
 2966              	.LASF105:
 2967 05e5 65786974 		.ascii	"exitcode\000"
 2967      636F6465 
 2967      00
 2968              	.LASF72:
 2969 05ee 45584343 		.ascii	"EXCCNT\000"
 2969      4E5400
 2970              	.LASF40:
 2971 05f5 6D706F6F 		.ascii	"mpool\000"
 2971      6C00
 2972              	.LASF69:
 2973 05fb 4354524C 		.ascii	"CTRL\000"
 2973      00
 2974              		.comm	__gnu_lto_v1,1,1
 2975              		.ident	"GCC: (Sourcery CodeBench Lite 2013.11-24) 4.8.1"
ARM GAS  /tmp/ccdGRgqs.s 			page 86


DEFINED SYMBOLS
                            *ABS*:00000000 chtm.c
     /tmp/ccdGRgqs.s:474    .text.chTMObjectInit:00000000 $t
     /tmp/ccdGRgqs.s:480    .text.chTMObjectInit:00000000 chTMObjectInit
     /tmp/ccdGRgqs.s:506    .text.chTMStartMeasurementX:00000000 $t
     /tmp/ccdGRgqs.s:512    .text.chTMStartMeasurementX:00000000 chTMStartMeasurementX
     /tmp/ccdGRgqs.s:536    .text.chTMStopMeasurementX:00000000 $t
     /tmp/ccdGRgqs.s:542    .text.chTMStopMeasurementX:00000000 chTMStopMeasurementX
     /tmp/ccdGRgqs.s:626    .text._tm_init:00000000 $t
     /tmp/ccdGRgqs.s:632    .text._tm_init:00000000 _tm_init
     /tmp/ccdGRgqs.s:703    .text.chTMChainMeasurementToX:00000000 $t
     /tmp/ccdGRgqs.s:709    .text.chTMChainMeasurementToX:00000000 chTMChainMeasurementToX
                            *COM*:00000001 __gnu_lto_v1
                     .debug_frame:00000010 $d

UNDEFINED SYMBOLS
ch
