ARM GAS  /tmp/ccGV0H6c.s 			page 1


   1              		.syntax unified
   2              		.cpu cortex-m3
   3              		.fpu softvfp
   4              		.eabi_attribute 20, 1
   5              		.eabi_attribute 21, 1
   6              		.eabi_attribute 23, 3
   7              		.eabi_attribute 24, 1
   8              		.eabi_attribute 25, 1
   9              		.eabi_attribute 26, 1
  10              		.eabi_attribute 30, 2
  11              		.eabi_attribute 34, 1
  12              		.eabi_attribute 18, 4
  13              		.thumb
  14              		.file	"chvt.c"
  15              		.text
  16              	.Ltext0:
  17              		.section	.gnu.lto_.jmpfuncs.63e854f24c46fca0,"",%progbits
  18 0000 789C6362 		.ascii	"x\234cb`b\300\006d\2404\013\003#\020\002\0251\363\003"
  18      6062C006 
  18      64A0340B 
  18      03231002 
  18      1531F303 
  19 0014 29206261 		.ascii	") badd\006\212\227\001\231\000\011|\000\275"
  19      6464068A 
  19      97019900 
  19      097C00BD 
  20              		.text
  21              		.section	.gnu.lto_.inline.63e854f24c46fca0,"",%progbits
  22 0000 789C6362 		.ascii	"x\234cb`b\300\006\224\031\031\030\244\2014\013\003\203"
  22      6062C006 
  22      94191918 
  22      A481340B 
  22      0383
  23 0012 9414230B 		.ascii	"\224\024#\013Cz5\303\257\206\216\206\007\213\277Yf2"
  23      437A35C3 
  23      AF868E86 
  23      078BBF59 
  23      6632
  24 0024 326833AC 		.ascii	"2h3\254j\000\002\323LF\306\\F\206$F\2706f\006\206\214"
  24      6A0002D3 
  24      4C46C65C 
  24      46862446 
  24      B8366606 
  25 003a 44C6858C 		.ascii	"D\306\205\214\325 \026#\003\214t`g\355Pg`\357Pgb`|\301"
  25      D5201623 
  25      038C7460 
  25      67ED5067 
  25      60EF5067 
  26 0052 2EC0C400 		.ascii	".\300\304\000\344\0120H}[\302\310\301\300\270\233]\201"
  26      E40A3048 
  26      7D5BC2C8 
  26      C1C0B89B 
  26      5D81
  27 0064 83094281 		.ascii	"\203\011B\201\214`\344\002Y\312\304\315\000\224\232"
  27      8C60E402 
  27      59CAC4CD 
  27      00949A
ARM GAS  /tmp/ccGV0H6c.s 			page 2


  28 0073 E0C7C4C0 		.ascii	"\340\307\304\300\316\306\310\300\304q\300\216\201m\201"
  28      CEC6C8C0 
  28      C471C08E 
  28      816D81
  29 0082 3C13C40E 		.ascii	"<\023\304\016\243K\014\214\314\214)\021\214\231\214"
  29      A34B0C8C 
  29      CC8C2911 
  29      8C998C
  30 0091 4C40E319 		.ascii	"L@\343\031S\341,\220K\230\275\316\377\340`\340[\352"
  30      53E12C90 
  30      4B98BDCE 
  30      FFE060E0 
  30      5BEA
  31 00a3 C6C4C0B2 		.ascii	"\306\304\300\262@^\000\244\005h\032\3300\010\305\302"
  31      405E00A4 
  31      05681AD8 
  31      3008C5C2 
  32 00b3 2022C0C8 		.ascii	" \"\300\310\014v\230\002\262#9\304&Lfd\3408\242\003"
  32      0C769802 
  32      B22339C4 
  32      264C6664 
  32      E038A203 
  33 00c7 74CD2536 		.ascii	"t\315%6\026\010\011\"8\300L\240{.\261\0120\201I$C\031"
  33      16080922 
  33      38C04CA0 
  33      7B2EB10A 
  33      30814924 
  34 00dd A4F4F4F4 		.ascii	"\244\364\364\364!(\277X\277\250D\277\270(Y?9\243\254"
  34      2128BF58 
  34      BFA844BF 
  34      B828593F 
  34      39A3AC
  35 00f0 442F9901 		.ascii	"D/\231\001\000\033\3201\002"
  35      001BD031 
  35      02
  36              		.text
  37              		.section	.gnu.lto_.pureconst.63e854f24c46fca0,"",%progbits
  38 0000 789C6362 		.ascii	"x\234cb`b\340d\200\000\026\006)&\011f)\026)\000\002"
  38      6062E064 
  38      80001606 
  38      29260966 
  38      29162900 
  39 0015 D80081   		.ascii	"\330\000\201"
  40              		.text
  41              		.section	.gnu.lto_chVTDoResetI.part.0.63e854f24c46fca0,"",%progbits
  42 0000 789C9555 		.ascii	"x\234\225U]lTU\020\236\271\377\367\356n\267\232h\320"
  42      5D6C5455 
  42      109EB9FF 
  42      F7EE6EB7 
  42      9A68D0
  43 0013 4462F04D 		.ascii	"Db\360Mbo\224\230\310\2231\372BB_d\233\350\213u\275"
  43      626F9498 
  43      C89331FA 
  43      42425F64 
  43      9BE88B75 
  44 0028 DD6C6FB2 		.ascii	"\335lo\262\333%\333\025M|\340,\273!\010&\224&FE+\202"
  44      DB25DB15 
ARM GAS  /tmp/ccGV0H6c.s 			page 3


  44      4D7CE02C 
  44      BB210826 
  44      94264645 
  45 003e 15154C88 		.ascii	"\025\025L\210\232\250\004\002\305\037l!-\222\370\003"
  45      9AA80402 
  45      C51F6C21 
  45      2D92F803 
  46 004e 4D1FFA60 		.ascii	"M\037\372`\370\011A\233\324\027*\260\316\234\373\263"
  46      F809419B 
  46      D4172AB0 
  46      CE9CFBB3 
  47 005e 97D5063C 		.ascii	"\227\325\006<\331{f\31693\337|3\347g\025P\240\263\225"
  47      D97B66CE 
  47      3933DF7C 
  47      33E76715 
  47      50A0B395 
  48 0072 E9FBC800 		.ascii	"\351\373\310\000\370\222$:\200\366\310\014)6*R*\212"
  48      F892243A 
  48      80F6C80C 
  48      29362A52 
  48      2A8A
  49 0084 7A5805E1 		.ascii	"zX\005\341h\277\235\002\020i\025-\236\256[\232b\035"
  49      68BF9D02 
  49      1069152D 
  49      9EAE5B9A 
  49      621D
  50 0096 5D49F3FA 		.ascii	"]I\363\372\317.M\353\212\361\306=42\233kid\240\031\030"
  50      CF2E4DEB 
  50      8AF1C63D 
  50      34329B6B 
  50      6964A019 
  51 00ab 9991B585 		.ascii	"\231\221\265\205\310\012 l\266\025U\323\015\323\302"
  51      C80A206C 
  51      B61555D3 
  51      0DD3C2
  52 00ba CDCF2387 		.ascii	"\315\317#\207\327\312\010\253`\257\020\273\347\1778"
  52      D7CA08AB 
  52      60AF10BB 
  52      E77F38
  53 00c9 FEF98AED 		.ascii	"\376\371\212\355\037\324G\304\315V\013}^\365\020\236"
  53      1FD447C4 
  53      CD560B7D 
  53      5EF5109E 
  54 00d9 230DBBA5 		.ascii	"#\015\273\245P:\310K\267\321\211_f\336Z!\022n\012<\200"
  54      503AC84B 
  54      B7D1895F 
  54      66DE5A21 
  54      126E0A3C 
  55 00ee 77E4298E 		.ascii	"w\344)\216\274\370\211hN\264ZOJ\257\207n\347uH\021\363"
  55      BCF88968 
  55      4EB45A4F 
  55      4AAF876E 
  55      E7754811 
  56 0103 ADD63B1F 		.ascii	"\255\326;\037;\367\"\226\021\025\360QU\251\3234\356"
  56      3BF72296 
  56      1115F051 
  56      55A9D334 
ARM GAS  /tmp/ccGV0H6c.s 			page 4


  56      EE
  57 0114 74EE0CEA 		.ascii	"t\356\014\352t\223:\260xhC\036\307q\0258$\367\221L\361"
  57      74933AB0 
  57      7868431E 
  57      C7711538 
  57      24F7914C 
  58 0129 643A1C64 		.ascii	"d:\034dx@\260:4\205\030y0\260\014\226d\346\324r\324"
  58      7840B03A 
  58      34851879 
  58      30B00C96 
  58      64E6D472 
  59 013e 73E17268 		.ascii	"s\341rh\263T\373((\313i\3302\373\366\3425%\217\373Q"
  59      B354FB28 
  59      28CB69D8 
  59      32FBF6E2 
  59      35258FFB 
  60 0153 87222AAB 		.ascii	"\207\"*\253\341a\"\363.\354\256\013\321\355\243QD\344"
  60      E16122F3 
  60      2EECAE0B 
  60      D1EDA351 
  60      44E4
  61 0165 0C54C9FB 		.ascii	"\014T\311\373%\2142 \277\251\237\234\300k5\034\020\324"
  61      258C3220 
  61      BFA99F9C 
  61      C06B351C 
  61      10D4
  62 0177 D69255A8 		.ascii	"\326\222U\250\246|4c\010\3535X\022\333X\263\313\310"
  62      A67C3463 
  62      08EB3558 
  62      12DB58B3 
  62      CBC8
  63 0189 85603C3B 		.ascii	"\205`<;\304\303P\006\005*\262$\350\245\306\327\357?"
  63      C4C35006 
  63      052AB224 
  63      E8A5C6D7 
  63      EF3F
  64 019b 710BF886 		.ascii	"q\013\370\206\016RJ\222T \2030\342\010-8\241\327Y\322"
  64      0E524A92 
  64      54208330 
  64      E2082D38 
  64      A1D759D2 
  65 01af 4D0A1AC5 		.ascii	"M\012\032\305\211\250\177sn\3612\336\202\237\3611\265"
  65      89A87F73 
  65      6EF132DE 
  65      829FF131 
  65      B5
  66 01c0 6CD29A94 		.ascii	"l\322\232\224<\223be\022\276\277x\342\213l\\\2620p\266"
  66      3C936265 
  66      12BEBF78 
  66      E28B6C5C 
  66      B23070B6 
  67 01d4 1DF7F1FF 		.ascii	"\035\367\361\377\010\033\265>\202=\254\252g\240\261"
  67      081BB53E 
  67      823DACAA 
  67      67A0B1
  68 01e3 30F7EBD6 		.ascii	"0\367\353\326l\270g\321\346M\354\270\372\241\011\020"
  68      6CB867D1 
ARM GAS  /tmp/ccGV0H6c.s 			page 5


  68      E64DECB8 
  68      FAA10910 
  69 01f3 607B917F 		.ascii	"`{\221\177\\\301\264\207\264U_\321\0325\0373\021\244"
  69      5CC1B487 
  69      B4555FD1 
  69      1A351F33 
  69      11A4
  70 0205 0674AB82 		.ascii	"\006t\253\202\315\\\232R#f\341v\220\037,[;\275]\225"
  70      CD5C9A52 
  70      2366E176 
  70      901F2C5B 
  70      3BBD5D95 
  71 0219 D9853827 		.ascii	"\331\2058'M\036\003X\266\"m\257\306\266\306\005\214"
  71      4D1E0358 
  71      B6226DAF 
  71      C6B6C605 
  71      8C
  72 022a DC748A59 		.ascii	"\334t\212Y\344r\021\332\272d}\357\200B\221\3454|;\373"
  72      E47211DA 
  72      BA647DEF 
  72      804291E5 
  72      347C3BFB 
  73 023e DE9F973E 		.ascii	"\336\237\227>\035\305\316\272,\316\216\031\361`\357"
  73      1DC5CEBA 
  73      2CCE8E19 
  73      F160EF
  74 024d 9B639978 		.ascii	"\233c\231xp\372z\303nWL\245O\243O\0170\015\216\337\254"
  74      70FA7AC3 
  74      6E574CA5 
  74      4FA34F0F 
  74      300D8EDF 
  75 0262 CF5F3B39 		.ascii	"\317_;93\212\232\217]\314b\204Yd\231B7\357\226&\267"
  75      338A9A8F 
  75      5DCC6284 
  75      59649942 
  75      37EF9626 
  76 0277 B63B6463 		.ascii	"\266;dc0\326\361\300\237\322\370\243\321\225\307c2;"
  76      30D6F1C0 
  76      9FD2F8A3 
  76      D195C763 
  76      323B
  77 0289 B3C88B5C 		.ascii	"\263\310\213\\\250\271\337\367\274\020\345l\005\245"
  77      A8B9DFF7 
  77      BC10E56C 
  77      05A5
  78 0297 0A777E0F 		.ascii	"\012w~\017\376\357\243o\266k\371z\243\032\301\3322\236"
  78      FEEFA36F 
  78      B66BF97A 
  78      A31AC1DA 
  78      329E
  79 02a9 053005E1 		.ascii	"\0050\005\341\345\014\256u\221\375'\241y\341\304\337"
  79      E50CAE75 
  79      91FD27A1 
  79      79E1C4DF 
  80 02b9 3BD544DD 		.ascii	";\325D\335\355\344\011\323\341\307GT\211wp\374\276\310"
  80      EDE409D3 
  80      E1C74754 
ARM GAS  /tmp/ccGV0H6c.s 			page 6


  80      897770FC 
  80      BEC8
  81 02cb C889EC12 		.ascii	"\310\211\354\022\210\373$\242\023\"\216\215\306\210"
  81      88FB24A2 
  81      13228E8D 
  81      C688
  82 02d9 0E3385E4 		.ascii	"\0163\205\344\361\355\243\344\367\247\325)\3302\277"
  82      F1EDA3E4 
  82      F7A7D529 
  82      D832BF
  83 02e8 F3B29104 		.ascii	"\363\262\221\004`SM\211\315L\016Nf\026\304\001\322\341"
  83      60534D89 
  83      CD4C0E4E 
  83      6616C401 
  83      D2E1
  84 02fa 49B932EE 		.ascii	"I\2712\356F\001R\224\234d\303\013q\330\214\\H'8\206"
  84      46015294 
  84      9C64C30B 
  84      71D88C5C 
  84      48273886 
  85 030e 4FF38D1D 		.ascii	"O\363\215\035\337\241\330.\352\013\255VV\276\261\207"
  85      DFA1D82E 
  85      EA0BAD56 
  85      56BEB187 
  86 031e F0768F6C 		.ascii	"\360v\217l\221\257\307\031h.\314\335<\331\365\257k6"
  86      91AFC719 
  86      682ECCDD 
  86      3CD9F5AF 
  86      6B36
  87 0330 FD979EC7 		.ascii	"\375\227\236\307I\371BFG\307\350\270lwyh\346\361tt\224"
  87      49F94246 
  87      47C7E8B8 
  87      6C777968 
  87      E6F17474 
  88 0345 E889B89B 		.ascii	"\350\211\270\233\265\363\220\246\372\350\237\355*\204"
  88      B5F390A6 
  88      FAE89FED 
  88      2A84
  89 0353 891BD777 		.ascii	"\211\033\327w\2259qK\276\250g\351_\252M\"G4i\226\251"
  89      9539714B 
  89      BEA867E9 
  89      5FAA4D22 
  89      47346996 
  90 0368 DDDFD3E3 		.ascii	"\335\337\323\343\006\277\312\260[\255\271\303U\317\365"
  90      06BFCAB0 
  90      5BADB9C3 
  90      55CFF5
  91 0377 0637D57A 		.ascii	"\0067\325z<\320\007\012\245Z\336\032\252\274\"\0257"
  91      3CD0070A 
  91      A55ADE1A 
  91      AABC2215 
  91      37
  92 0388 69E955CA 		.ascii	"i\351U\312\345\312\220\273\261R\255\015\273O=\333\373"
  92      E5CA90BB 
  92      B152AD0D 
  92      BB4F3DDB 
  92      FB
ARM GAS  /tmp/ccGV0H6c.s 			page 7


  93 0399 74EFABE4 		.ascii	"t\357\253\344\346U\252\205\376\232_.T{\006aM\322~0_"
  93      E655AA85 
  93      FE9A5F2E 
  93      547B0661 
  93      4DD27E30 
  94 03ae 0A8D37E4 		.ascii	"\012\2157\344z\327<\346\256_\377\214\233[\327\273\351"
  94      7AD73CE6 
  94      AE5FFF8C 
  94      9B5BD7BB 
  94      E9
  95 03bf 515EE91F 		.ascii	"Q^\351\037\256\365\227J\003\344\263\262\203\215?\344"
  95      AEF5974A 
  95      03E4B3B2 
  95      838D3FE4 
  96 03cf 955E1E28 		.ascii	"\225^\036(\004\214\006Ac\354\177\000f\340\306\240"
  96      048C0641 
  96      63EC7F00 
  96      66E0C6A0 
  97              		.text
  98              		.section	.gnu.lto__vt_init.63e854f24c46fca0,"",%progbits
  99 0000 789C6362 		.ascii	"x\234cb`b@\007\222 \014\024\226\001\322\214\314\014"
  99      60624007 
  99      92200C14 
  99      9601D28C 
  99      CC0C
 100 0012 8C4C13CE 		.ascii	"\214L\023\316104r012\202\030\014\214\014\365L\214\365"
 100      31303472 
 100      30313282 
 100      180C8C0C 
 100      F54C8CF5 
 101 0026 918C60B5 		.ascii	"\221\214`\265\353\231\016<\370\377\177\335\257\255\017"
 101      EB990E3C 
 101      F8FF7FDD 
 101      AFAD0F
 102 0035 FB1905D9 		.ascii	"\373\031\005\331\200\002\254\014-\015\015\023\024\030"
 102      8002AC0C 
 102      2D0D0D13 
 102      1418
 103 0043 1892C10A 		.ascii	"\030\222\301\012B\200$HW(#\023\210f>\313\320\364\253"
 103      42802448 
 103      57282313 
 103      88663ECB 
 103      D0F4AB
 104 0056 F9FF65A6 		.ascii	"\371\377e\246D\306\205\214\254\014\332\014\253\032\200"
 104      44C6858C 
 104      AC0CDA0C 
 104      AB1A80
 105 0065 C0329311 		.ascii	"\3002\223\021\306\344\316dd\234\3150\253\261\241A \223"
 105      C6E4CE64 
 105      649CCD30 
 105      ABB1A141 
 105      2093
 106 0077 91A99AE1 		.ascii	"\221\251\232\341WC\007\210\305\234\0136-\202\021\310"
 106      57430788 
 106      C59C0B36 
 106      2D8211C8 
 107 0087 04DB9B04 		.ascii	"\004\333\233\004\261\036HC\030\020\225\015\363\201\012"
ARM GAS  /tmp/ccGV0H6c.s 			page 8


 107      B11E4843 
 107      1810950D 
 107      F3810A
 108 0096 58A0466D 		.ascii	"X\240Fm\005\262\031\201\372`J\301\000l\377\342\036-"
 108      05B21981 
 108      FA604AC1 
 108      006CFFE2 
 108      1E2D
 109 00a8 EAD9CF44 		.ascii	"\352\331\317D\252\375;v<\272\201\341\177V\262\355\207"
 109      AAFD3B76 
 109      3CBA81E1 
 109      7F56B2ED 
 109      87
 110 00b9 F041326C 		.ascii	"\360A2l\377\3773\303\254x\374\201\212V\260 \254\000"
 110      FFFF33C3 
 110      AC78FC81 
 110      8A56B020 
 110      AC00
 111 00cb 312E3234 		.ascii	"1.24>\350W\206\030\017\003!\300x\000\306/(0\244\364"
 111      3EE85786 
 111      180F0321 
 111      C07800C6 
 111      2F2830A4 
 112 00e0 F4F42128 		.ascii	"\364\364!(\277X\277\250D\277\270(Y?9\243\254D/\231\001"
 112      BF58BFA8 
 112      44BFB828 
 112      593F39A3 
 112      AC442F99 
 113 00f5 00BBF58A 		.ascii	"\000\273\365\212f"
 113      66
 114              		.text
 115              		.section	.gnu.lto_chVTDoSetI.63e854f24c46fca0,"",%progbits
 116 0000 789CAD56 		.ascii	"x\234\255V}h\225U\030?\3179\367\356\275\337[\202\371"
 116      7D689555 
 116      183FCF39 
 116      F7EEBDDF 
 116      5B82F9
 117 0013 B52F876C 		.ascii	"\265/\207ll\312\256k\216\222\350\217\250\177\004\367"
 117      6CCAAE6B 
 117      8E92E88F 
 117      A87F04F7 
 118 0023 4735A1E8 		.ascii	"G5\241\350\017\271\335\215\273\013\273\233l\313\202"
 118      0FB9DD8D 
 118      BB0BBB9B 
 118      6CCB82
 119 0032 02DFEB2E 		.ascii	"\002\337\353.\245i)2\303RA\031VL\231\222\34063\232&"
 119      A5692932 
 119      C3524119 
 119      564C9992 
 119      E036339A 
 120 0047 E892746A 		.ascii	"\350\222tj\342\256E\\\203i\202\310\314\312e\262\333"
 120      E2AE455C 
 120      836982C8 
 120      CCCA65B2 
 120      DB
 121 0058 73BEDEFB 		.ascii	"s\276\336\373\251S\351\345\336\347\274\357s\236\347"
 121      A953E9E5 
ARM GAS  /tmp/ccGV0H6c.s 			page 9


 121      DEE7BCEF 
 121      739EE7
 122 0067 779EAFF3 		.ascii	"w\236\257\363\234C\011%\331\317~\374\207\274\204\034"
 122      9C430925 
 122      D9CF7EFC 
 122      87BC841C 
 123 0077 C2110A09 		.ascii	"\302\021\012\011\320\255g\011\211:(e\233g\023\323e\213"
 123      D0AD6709 
 123      893A2865 
 123      9B6713D3 
 123      658B
 124 0089 2D27A687 		.ascii	"-'\246\207\201M\262m\324>\314\220]p\371\007\202|;\370"
 124      814DB26D 
 124      D43ECC90 
 124      5D70F907 
 124      827C3BF8 
 125 009d 24BF801A 		.ascii	"$\277\200\032\033\252\220\357\340\324c\200K\262\035"
 125      1BAA90EF 
 125      E0D46380 
 125      4BB21D
 126 00ac D4F9D3D3 		.ascii	"\324\371\323\323\310v\035{\026\331N\315v\201\207\277"
 126      C8761D7B 
 126      16D94ECD 
 126      768187BF 
 127 00bc 805B8EC7 		.ascii	"\200[\216\307\035\036\352\336|\012\001]\336\230\201"
 127      1D1EEADE 
 127      7C0A015D 
 127      DE9881
 128 00cb 825E0DEB 		.ascii	"\202^\015\353\003\340/\004\310:\312l\366\002\303\341"
 128      03E02F04 
 128      C83ACA6C 
 128      F602C3E1 
 129 00db 74B93D5E 		.ascii	"t\271=^\037\254{\003\270\361\264\202\3545\315m\211}"
 129      1FAC7B03 
 129      B8F1B482 
 129      EC35CD6D 
 129      897D
 130 00ed 7F24E867 		.ascii	"\177$\350g\346Hl\217y?\231\004\010\003:Z\002$\010\344"
 130      E6486C8F 
 130      793F9904 
 130      08033A5A 
 130      022408E4 
 131 0101 75FC8072 		.ascii	"u\374\200r1P[\246\347Rwd\373\251O\346\232{\242[\315"
 131      31505BA6 
 131      E7527764 
 131      FBA94FE6 
 131      9A7BA25B 
 132 0116 69540D03 		.ascii	"iT\015\003\243\244,\245Y$5\263\302v\220\216$\222\311"
 132      A3A42CA5 
 132      592435B3 
 132      C276908E 
 132      2492C9
 133 0129 CDC37FFE 		.ascii	"\315\303\177\376v\023f=\007$\302\327\013\300^\250 \014"
 133      7613663D 
 133      0724C2D7 
 133      0BC05EA8 
 133      200C
ARM GAS  /tmp/ccGV0H6c.s 			page 10


 134 013b C73E1C0D 		.ascii	"\307>\034\015\210\0008\220P\027\022\346EB|\004\015\233"
 134      88003890 
 134      501712E6 
 134      45427C04 
 134      0D9B
 135 014d 8DC43687 		.ascii	"\215\3046\207\223\271\234\314S\362\363\361\303\276\200"
 135      93B99CCC 
 135      53F2F3F1 
 135      C3BE80
 136 015c 93624E4A 		.ascii	"\223bNJ8)\345\002eJ\240\\-\260\2203+8Y\304I\245\232"
 136      3829E502 
 136      654AA05C 
 136      2DB09033 
 136      2B3859C4 
 137 0173 AE52D3D5 		.ascii	"\256R\323\325j\254\341k-Q\223K\271d\035'\313\220\024"
 137      6AACE16B 
 137      2D51934B 
 137      B9641D27 
 137      CB9014
 138 0186 342061E8 		.ascii	"4 a\350\206\235\304Lsk\271T\220\222\021\300 \005El\233"
 138      869DC44C 
 138      736BB954 
 138      909211C0 
 138      2005456C 
 139 019b 900E1864 		.ascii	"\220\016\030d\025P\034\330\217d\375\231\251;\011\010"
 139      15501CD8 
 139      8F64FD99 
 139      A93B0908 
 140 01ab C03EB093 		.ascii	"\300>\260\223\305\244\337\304\307\033\006c'\371\034"
 140      C5A4DFC4 
 140      C71B0663 
 140      27F91C
 141 01ba 23E40881 		.ascii	"#\344\010\201\301#%\343\363\226\032C\340 \204k\356\370"
 141      C12325E3 
 141      F3961A43 
 141      E020846B 
 141      EEF8
 142 01cc FBF71C4D 		.ascii	"\373\367\034Mg~MP\232.\256y\342\312\261\213g\2679\225"
 142      677E4D50 
 142      9A2EAE79 
 142      E2CAB18B 
 142      67B73995 
 143 01e0 A1DAE291 		.ascii	"\241\332\342\221\353\037\377\314\230\3655\321\273\333"
 143      EB1FFFCC 
 143      98F535D1 
 143      BBDB
 144 01ee 6B7D6CBA 		.ascii	"k}l\272u\333\232)\227\0316\017\231\246]T\006\023\351"
 144      75DB9A29 
 144      9719360F 
 144      99A65D54 
 144      0613E9
 145 0201 FD0A66CA 		.ascii	"\375\012f\312/!\322X\302c\301\205)\376\231\264k\031"
 145      2F21D258 
 145      C263C185 
 145      29FE99B4 
 145      6B19
 146 0213 F720164D 		.ascii	"\367 \026M\354\374\253wE\030\\\350\004\226NQ\030\334"
ARM GAS  /tmp/ccGV0H6c.s 			page 11


 146      ECFCAB77 
 146      45185CE8 
 146      04964E51 
 146      18DC
 147 0225 1CC8C37D 		.ascii	"\034\310\303}\263\011L\217\362\207r\260\375\022\014"
 147      B3094C8F 
 147      F28772B0 
 147      FD120C
 148 0234 4371ABC7 		.ascii	"Cq\253\307\027\200~\374\014A\003\202\0212J\326O\236"
 148      17807EFC 
 148      0C410382 
 148      11324AD6 
 148      4F9E
 149 0246 F8E6FD00 		.ascii	"\370\346\375\000\014 3\000\0071\011\3749Mb\327\216\237"
 149      0C203300 
 149      073109FC 
 149      394D62D7 
 149      8E9F
 150 0258 FFD023F9 		.ascii	"\377\320#\371!\360rL\006i&\256B\213\246\201\241~\342"
 150      21F0724C 
 150      066926AE 
 150      428BA681 
 150      A17EE2
 151 026b 469F21E5 		.ascii	"F\237!\345\"\322-\033\265dl<y(\203\211\300\311\020\017"
 151      22D22D1B 
 151      B5646C3C 
 151      79288389 
 151      C0C9100F 
 152 027f 2F5A7165 		.ascii	"/Zqe\350\337\323\206\206\366-&5\030\177\225\231K\250"
 152      E8DFD386 
 152      86F62D26 
 152      35187F95 
 152      994BA8
 153 0292 EFE55E99 		.ascii	"\357\345^\231\334+\337{\344\236\271\201\277\025F\204"
 153      DC2BDF7B 
 153      E49EB981 
 153      BF154684 
 154 02a2 0F1CBE50 		.ascii	"\017\034\276P\271\306\324\250\367\325ir\362z\264\316"
 154      B9C6D4A8 
 154      F7D56972 
 154      F27AB4CE 
 155 02b2 8295AA66 		.ascii	"\202\225\252f}\030\212\024\366r\204F\030\255\231\366"
 155      7D188A14 
 155      F6728446 
 155      18AD99F6 
 156 02c2 C409A08F 		.ascii	"\304\011\240\217\024\224\365l\327\267\335\334z;\251"
 156      1494F56C 
 156      D7B7DDDC 
 156      7A3BA9
 157 02d1 E195373A 		.ascii	"\341\2257:4=\306$\256Bz\005\203\241^\353\037\333^\273"
 157      343DC624 
 157      AE427A05 
 157      83A15EEB 
 157      1FDB5EBB 
 158 02e5 2AB10659 		.ascii	"*\261\006Y\234\343\323\2234\033\234<1\270M\201\033\022"
 158      9CE3D393 
 158      341B9C3C 
ARM GAS  /tmp/ccGV0H6c.s 			page 12


 158      31B84D81 
 158      1B12
 159 02f7 7CEA7F05 		.ascii	"|\352\177\005/\310\000\277\327sgKu\006x\003\202\347"
 159      2FC800BF 
 159      D773674B 
 159      75067803 
 159      82E7
 160 0309 DF568618 		.ascii	"\337V\206\030UJvC*'\207!OR\004\370\335G\006w<.\370\231"
 160      554A7643 
 160      2A278721 
 160      4F5204F8 
 160      DD470677 
 161 0321 F1E418CD 		.ascii	"\361\344\030\315\006g\371\301\235\312gQ\271=\033z\276"
 161      0667F9C1 
 161      9DCA6751 
 161      B93D1B7A 
 161      BE
 162 0332 EC7D4197 		.ascii	"\354}A\227\330l\344\2124\216\022\205\246zz\362\203\357"
 162      D86CE48A 
 162      348E1285 
 162      A67A7AF2 
 162      83EF
 163 0344 C1FCC88C 		.ascii	"\301\374\310\214N&\223\205b\317\037\230q\317#\032!\347"
 163      4E269385 
 163      62CF1F98 
 163      71CF231A 
 163      21E7
 164 0356 486C72B8 		.ascii	"Hlr\270\357\332\024dw\2343'/\340~9'6\247\\)\250\313"
 164      EFDA1464 
 164      779C3327 
 164      2FE07E39 
 164      2736A75C 
 165 036d DECADB53 		.ascii	"\336\312\333SA\260\007\340\202,/\204\013\303,\275\013"
 165      41B007E0 
 165      822C2F84 
 165      0BC32CBD 
 165      0B
 166 037e 0B484CEC 		.ascii	"\013HL\354\302\304\226\011\320;\2357]\334%r?N}q\225"
 166      C2C49609 
 166      D03B9D37 
 166      5DDC2572 
 166      3F4E7D71 
 167 0393 69AFE688 		.ascii	"i\257\346\210\375\250\313\373\315',o\021\255\215=\355"
 167      FDA8CBFB 
 167      CD272C6F 
 167      11AD8D3D 
 167      ED
 168 03a4 1A75AE68 		.ascii	"\032u\256h8sd\020\255\265\346\211\011H\213\240<\007"
 168      38736410 
 168      ADB5E689 
 168      09488BA0 
 168      3C07
 169 03b6 7046B5AB 		.ascii	"pF\265\253\273\275eZx~\212{\0044s\201\336G\267,\320"
 169      BBBD655A 
 169      787E8A7B 
 169      04347381 
 169      DE47B72C 
ARM GAS  /tmp/ccGV0H6c.s 			page 13


 170 03cb 62BDCE46 		.ascii	"b\275\316F\213U\"\004\213E\217\230H\365\010D,I\245`"
 170      8B552204 
 170      8B458F98 
 170      48F50844 
 170      2C49A560 
 171 03df 1556E909 		.ascii	"\025V\351\011\306D\177\352\037\245Z\250T\306\303\252"
 171      C6447FEA 
 171      1FA55AA8 
 171      54C6C3AA 
 172 03ef 0E5F6E75 		.ascii	"\016_nu(g\327j\2252\341Yi\036\267\312d\274\307\373G"
 172      2867D76A 
 172      9532E159 
 172      691EB7CA 
 172      64BCC7FB 
 173 0404 2D0FCA53 		.ascii	"-\017\312S\335\211\344_\304P\213`\006G\346e\346\257"
 173      DD89E45F 
 173      C4508B60 
 173      0647E665 
 173      E6AF
 174 0416 5C9BEED0 		.ascii	"\\\233\356\320\246\357\330\377\217e\372\302G1\035Cr"
 174      A6EFD8FF 
 174      8F65FAC2 
 174      47311D43 
 174      72
 175 0427 2DFABCA5 		.ascii	"-\372\274\245\"\202\234\012\211\223\364\000\023\205"
 175      22829C0A 
 175      8993F400 
 175      1385
 176 0435 FFDD764B 		.ascii	"\377\335vK\250\002#,\344f(\374\000\214\211\263\353\341"
 176      A802232C 
 176      E46628FC 
 176      008C89B3 
 176      EBE1
 177 0447 855F210A 		.ascii	"\205_!\012\177l\270\317\310)\373\313_c\331\377\232Q"
 177      7F6CB8CF 
 177      C829FBCB 
 177      5F63D9FF 
 177      9A51
 178 0459 F605B965 		.ascii	"\366\005\271e\2172\011]\366\025ie\357\342e\317\233{"
 178      8F32095D 
 178      F6156965 
 178      EFE265CF 
 178      9B7B
 179 046b 35BAEEB8 		.ascii	"5\272\356\270\177\036\013\303\347\344A3\016\\j\216\223"
 179      7F1E0BC3 
 179      E7E44133 
 179      0E5C6A8E 
 179      93
 180 047c 25E882E3 		.ascii	"%\350\202\343\330\3056\0348\267\314\330uIt}7\301\313"
 180      D8C5361C 
 180      38B7CCD8 
 180      7549747D 
 180      37C1CB
 181 048f 2013191D 		.ascii	" \023\031\035\374t\201<\212CP\031\002\026\202E\312\347"
 181      FC74813C 
 181      8A435019 
 181      02168245 
ARM GAS  /tmp/ccGV0H6c.s 			page 14


 181      CAE7
 182 04a1 7D6939AD 		.ascii	"}i9\255T9=\274\\\313V\345kY\364A)54\234Li\2256\337C"
 182      54393DBC 
 182      5CCB56E5 
 182      6B59F441 
 182      2935349C 
 183 04bb F0F209F2 		.ascii	"\360\362\011\362\360\324k1\241\"\030R\232\312\305w\034"
 183      F0D46B31 
 183      A1221852 
 183      9ACAC577 
 183      1C
 184 04cc 8E835E7D 		.ascii	"\216\203^}QV\326\351\003\262>\021\255\267TB\251\016"
 184      5156D6E9 
 184      03B23E11 
 184      ADB75442 
 184      A90E
 185 04de 19273404 		.ascii	"\031'4\004\325.\354lU\356\233\361\3428A\267\227\360"
 185      D52EEC6C 
 185      55EE9BF1 
 185      E23841B7 
 185      97F0
 186 04f0 CF4AF72F 		.ascii	"\317J\367/\3616n\230\227\307\225\237\213\343Gn\344\334"
 186      F1366E98 
 186      97C7959F 
 186      8BE3476E 
 186      E4DC
 187 0502 AB1E7A00 		.ascii	"\253\036z\000X\366N\0359\316\364\3425\362\002\220\337"
 187      58F64E1D 
 187      39CEF4E2 
 187      35F20290 
 187      DF
 188 0513 5E87B5C1 		.ascii	"^\207\265\301\326\217\0362\036q1\207Z\254F]\377\006"
 188      D68F1E32 
 188      1E713187 
 188      5AAC465D 
 188      FF06
 189 0525 E3344333 		.ascii	"\3434C3c\253\325\3443S\035\237C\203\361L\007\2353\030"
 189      63ABD5E4 
 189      33531D9F 
 189      4383F14C 
 189      079D3318 
 190 0539 AA3547C7 		.ascii	"\2525G\307\007o\347\204f\206\023\206\251::z\325J\345"
 190      076FE784 
 190      66861386 
 190      A93A3A7A 
 190      D54AE5
 191 054c 52A95C34 		.ascii	"R\251\\4c:U\267\223Zu\250\250\341V\244\0331\023\016"
 191      633A55B7 
 191      935A75A8 
 191      A8E156A4 
 191      1B31130E 
 192 0560 AA0AA5A1 		.ascii	"\252\012\245\241\251\243\271\021\323'\202\373\261O\004"
 192      A9A3B911 
 192      D32782FB 
 192      B14F04
 193 056f 9718C5DD 		.ascii	"\227\030\305\335\012/\301Vk\361\361\273\341y\022Ml\322"
 193      0A2FC156 
ARM GAS  /tmp/ccGV0H6c.s 			page 15


 193      6BF1F1BB 
 193      E179124D 
 193      6CD2
 194 0581 A7927E9A 		.ascii	"\247\222~\232\360H\0300x\243\230_[\353\227\277\216."
 194      F0481830 
 194      78A3985F 
 194      5BEB97BF 
 194      8E2E
 195 0593 7F67B7BF 		.ascii	"\177g\267\277\2533\350\017\266\256\355\256\015\022X"
 195      AB33E80F 
 195      B6AEEDAE 
 195      0D1258
 196 05a2 636F6E69 		.ascii	"coni\353\016\324\247\213\264\006\332\374k::\273\273"
 196      EB0ED4A7 
 196      8BB406DA 
 196      FC6B3A3A 
 196      BBBB
 197 05b4 FCAF3535 		.ascii	"\374\25755\326?\343_\271\362e\177\323\212\306\265u|"
 197      D63FE35F 
 197      B9F2657F 
 197      D38AC6B5 
 197      757C
 198 05c6 667557F7 		.ascii	"fuW\367\352\266\266\346\332V\342O\327\011vD\"\035\355"
 198      EAB6B6E6 
 198      DA56E24F 
 198      D7097644 
 198      221DED
 199 05d9 4AEDC557 		.ascii	"J\355\305W\033_j|\027\327\010vt\266\254\356\016GZ:Q"
 199      1B5F6A7C 
 199      17D70876 
 199      74B6ACEE 
 199      0E475A3A 
 200 05ee BE34CB8C 		.ascii	"\2764\313\214p{\260\355\355\346\026iJ+a\355\035\357"
 200      707BB0ED 
 200      EDE61669 
 200      4A2B61ED 
 200      1DEF
 201 0600 D8B8EC7F 		.ascii	"\330\270\354\177\035\252FF"
 201      1DAA4646 
 202              		.text
 203              		.section	.gnu.lto_chVTDoResetI.63e854f24c46fca0,"",%progbits
 204 0000 789CAD93 		.ascii	"x\234\255\2231h\024A\024\206\337{\263\263{\271=5`#\202"
 204      31681441 
 204      1486DF7B 
 204      B3B37BB9 
 204      3D356023 
 205 0015 2016161E 		.ascii	" \026\026\036\334!6Z\210\265`\231\003\355\214\253\304"
 205      DC21365A 
 205      88B56099 
 205      03ED8CAB 
 205      C4
 206 0026 05CF4072 		.ascii	"\005\317@rha\2219sE*9\254D\033\323\211\210ZX\304\356"
 206      68619139 
 206      73452A39 
 206      AC441BD3 
 206      89885A58 
 207 003c CECAA046 		.ascii	"\316\312\240F-\204 \001\305V\215\265A\\\337\233\331"
ARM GAS  /tmp/ccGV0H6c.s 			page 16


 207      2D842001 
 207      C5568DB5 
 207      415CDF9B 
 207      D9
 208 004d B9BD2487 		.ascii	"\271\275$\207i2\334\2757\263;\337\377\336\2747K@\260"
 208      6932DCBD 
 208      37B33BDF 
 208      FFDEBC37 
 208      4B40B0
 209 0060 759CE3FF 		.ascii	"u\234\343\377O\005Pe\217\021 uW\000\332%\"\365\342\025"
 209      4F055065 
 209      8F112075 
 209      5700DA25 
 209      22F5E215 
 210 0074 8029EBB5 		.ascii	"\200)\353\265\030LEQ\340\226\241]\006\030\272m\332M"
 210      184C4551 
 210      E096A15D 
 210      0618BA6D 
 210      DA4D
 211 0086 3044140F 		.ascii	"0D\024\017\010s\244\002\035\342\334\005\264\362\317"
 211      0873A402 
 211      1DE2DC05 
 211      B4F2CF
 212 0095 A8F735CB 		.ascii	"\250\3675\313\236\376y\363\344-.\323~\202\024Aa\023"
 212      9EFE79F3 
 212      E42D2ED3 
 212      7E821441 
 212      6113
 213 00a7 21909916 		.ascii	"!\220\231\026\023\211)\263\301XLE\014\223\032:\306t"
 213      138929B3 
 213      C1584C45 
 213      0C931A3A 
 213      C674
 214 00b9 0F37118F 		.ascii	"\0177\021\217\300\2421w{\237V\356\0340\017\333]\363"
 214      C0A23177 
 214      7B9F56EE 
 214      1C300FDB 
 214      5DF3
 215 00cb 37CB3045 		.ascii	"7\3130E\"8\204\220 \234\347\205\032\267.\330r>G\232"
 215      22388490 
 215      209CE785 
 215      1AB72ED8 
 215      723E479A 
 216 00df 2F171F99 		.ascii	"/\027\037\231N/\313\316X\352\350N\024\310{\036\023l"
 216      4E2FCBCE 
 216      58EAE84E 
 216      14C87B1E 
 216      136C
 217 00f1 E5540D24 		.ascii	"\345T\015$\361\352\035\334\376\274\372\275O\223\270"
 217      F1EA1DDC 
 217      FEBCFABD 
 217      4F93B8
 218 0100 881AA690 		.ascii	"\210\032\246\220\252p\214S\257\302c\303\343D\212\372"
 218      AA708C53 
 218      AFC263C3 
 218      E3448AFA 
 219 0110 01DC6F1B 		.ascii	"\001\334o\0333\236bx\0136\314\202\314\242&\212\274\304"
ARM GAS  /tmp/ccGV0H6c.s 			page 17


 219      339E6278 
 219      0B36CC82 
 219      CCA2268A 
 219      BCC4
 220 0122 89ACF625 		.ascii	"\211\254\366%W\030\366\371\004^C\347G{\317@u\012U\221"
 220      5718F6F9 
 220      045E43E7 
 220      477BCF40 
 220      750A5591 
 221 0136 4983175C 		.ascii	"I\203\027\\y\033\373\336z\037\375\256\300\305\346\200"
 221      791BFBDE 
 221      7A1FFDAE 
 221      C0C5E680 
 222 0146 2C5C6244 		.ascii	",\\bD\002xa\177\036\201>\354\365\210\376\037\242\012"
 222      0278617F 
 222      1E813EEC 
 222      F588FE1F 
 222      A20A
 223 0158 64F979EC 		.ascii	"d\371y\354\220\374`\247\207\241`;\304\312.\324\322P"
 223      90FC60A7 
 223      87A1603B 
 223      C4CA2ED4 
 223      D250
 224 016a 7ED16E04 		.ascii	"~\321n\004\213\266\037\2123\260\334\322\352\372o\334"
 224      8BB61F8A 
 224      33B0DCD2 
 224      EAFA6FDC 
 225 017a 441E4F71 		.ascii	"D\036Oqlt\270\300zy2\346\313\335\337\030\224%r\255\222"
 225      6C74B8C0 
 225      7A7932E6 
 225      CBDDDF18 
 225      942572AD 
 226 018f FE9573A9 		.ascii	"\376\225s\251S\334Jn\233\357\324\246\321`\271\227'\335"
 226      53DC4A6E 
 226      9BEFD4A6 
 226      D160B997 
 226      27DD
 227 01a1 5DF8D557 		.ascii	"]\370\325W^%G\271\3414:}=\334\223}\036\213m\231ht\336"
 227      5E2547B9 
 227      E1343A7D 
 227      3DDC937D 
 227      1E8B6D99 
 228 01b8 0532BF30 		.ascii	"\0052\2770\377mP\332\012Gc\322J\235\035.\301N\301\031"
 228      FF6D50DA 
 228      0A4763D2 
 228      4A9D1D2E 
 228      C14EC119 
 229 01cc F567D0B0 		.ascii	"\365g\320\260\026\253\367\320)9\036`p_\343$\277\227"
 229      16ABF7D0 
 229      29391E60 
 229      705FE324 
 229      BF97
 230 01de 9C4C5A00 		.ascii	"\234LZ\000\241\375\002>\362'_\224b\202w\362Si\314\301"
 230      A1FD023E 
 230      F2275F94 
 230      628277F2 
 230      5369CCC1 
ARM GAS  /tmp/ccGV0H6c.s 			page 18


 231 01f2 5AADEE7E 		.ascii	"Z\255\356~\323\263\365\231V}v&\251'Wo\264j\011\224\256"
 231      D3B3F599 
 231      567D7626 
 231      A927576F 
 231      B46A0994 
 232 0207 4FDFBC7C 		.ascii	"O\337\274|\345ZkR[\373\017#\334\342\360"
 232      E55A6B52 
 232      5BFB0F23 
 232      DCE2F0
 233              		.text
 234              		.section	.gnu.lto_.symbol_nodes.63e854f24c46fca0,"",%progbits
 235 0000 789C4DC8 		.ascii	"x\234M\310\275\015\302P\030CQ\333_\336c\006\226`EGJ"
 235      BD0DC250 
 235      184351DB 
 235      5FDE6306 
 235      96604547 
 236 0015 41444543 		.ascii	"ADEC\011\005l\301\217\210\022!*\322P0\007\033\200D\224"
 236      09056CC1 
 236      8F881221 
 236      2AD25030 
 236      071B8044 
 237 002a E0EA1E0B 		.ascii	"\340\352\036\013\302\006\303t\243\201u\017\330\333\232"
 237      C206C374 
 237      A381750F 
 237      D8DB9A
 238 0039 E9C26F41 		.ascii	"\351\302oAG\232\303\273\253\251\023\255?\236\351\230"
 238      479AC3BB 
 238      ABA913AD 
 238      3F9EE998 
 239 0049 C8962E7E 		.ascii	"\310\226.~,K\262\241\323\244+\235G\0052\252\376>\017"
 239      2C4BB2A1 
 239      D3A42B9D 
 239      470532AA 
 239      FE3E0F
 240 005c 241CDE8A 		.ascii	"$\034\336\212\230\241[-\"2\272\347CQ\000\373\345K\370"
 240      98A15B2D 
 240      2232BAE7 
 240      435100FB 
 240      E54BF8
 241 006f 000E052B 		.ascii	"\000\016\005+2"
 241      32
 242              		.text
 243              		.section	.gnu.lto_.refs.63e854f24c46fca0,"",%progbits
 244 0000 789C6362 		.ascii	"x\234cb`b0f\200\000\026\006FF& d`dc\002\261 \230\221"
 244      60623066 
 244      80001606 
 244      46462620 
 244      64606463 
 245 0019 91939901 		.ascii	"\221\223\231\001\312\202\311\003i\026\220\030\003\000"
 245      CA82C903 
 245      69169018 
 245      0300
 246 0027 152A0084 		.ascii	"\025*\000\204"
 247              		.text
 248              		.section	.gnu.lto_.decls.63e854f24c46fca0,"",%progbits
 249 0000 789CAD5B 		.ascii	"x\234\255[{p\024\307\231\237\236]iWH<\0021\307%\316"
 249      7B7014C7 
ARM GAS  /tmp/ccGV0H6c.s 			page 19


 249      999F9E5D 
 249      6957483C 
 249      0231C725 
 250 0015 21AE9C9C 		.ascii	"!\256\234\234\223*#\300\216M\376\270\000\026.\354*\223"
 250      932A23C0 
 250      8E4DFEB8 
 250      00162EEC 
 250      2A93
 251 0027 B804B9A2 		.ascii	"\270\004\271\242\312u\267\036V\003\322E\322\352vG\002"
 251      CA75B71E 
 251      5603D245 
 251      D2EA7647 
 251      02
 252 0038 AAAECA83 		.ascii	"\252\256\312\203\0042\370\021\004\342!\336\002\003'"
 252      0432F811 
 252      04E221DE 
 252      020327
 253 0047 30501660 		.ascii	"0P\026`\0218\020\213\035\204\004\006d\304\303x\013\220"
 253      1138108B 
 253      1D840406 
 253      64C4C378 
 253      0B90
 254 0059 0F834DFC 		.ascii	"\017\203M\374\000\201y\232B\367\365\3273\273=\2633\273"
 254      0081799A 
 254      42F7F5D7 
 254      33BB3DB3 
 254      33BB
 255 006b 33C25B74 		.ascii	"3\302[t\253g\246\373\327\337\367\373\276\356\257\273"
 255      AB67A6FB 
 255      D7DFF7FB 
 255      BEEEAFBB 
 256 007b 67100551 		.ascii	"g\020\005Q\330%\012B\017\374\006\217\021\204\301>A\310"
 256      D8250A42 
 256      0FFC068F 
 256      1184C13E 
 256      41C8
 257 008d 1004E1F7 		.ascii	"\020\004\341\367\220<\220\326AZ\017\251\031\022\201"
 257      903C90D6 
 257      415A0FA9 
 257      191281
 258 009c 7414928F 		.ascii	"t\024\222\217\336\207\213FH[!\355\205\024\205\364!\244"
 258      DE878B46 
 258      485B21ED 
 258      851485F4 
 258      21A4
 259 00ae 56C2EAB5 		.ascii	"V\302\352\265\321\214\373\321\372\2034\234~\220r m\321"
 259      D18CFBD1 
 259      FA83349C 
 259      7E907220 
 259      6DD1
 260 00c0 FAA078EF 		.ascii	"\372\240x\357i\375\264C\275c\204\365\333\002\3518\224"
 260      69FDB443 
 260      BD6384F5 
 260      DB02E938 
 260      94
 261 00d1 37433A01 		.ascii	"7C:\001\251\003\222\007d\365B\372\010\312~x\336\244"
 261      A9039207 
ARM GAS  /tmp/ccGV0H6c.s 			page 20


 261      64F542FA 
 261      08CA7E78 
 261      DEA4
 262 00e3 C9B419D2 		.ascii	"\311\264\031\322NH\373!}\000\351Kx\336.\260:\264\357"
 262      4E48FB21 
 262      7D00E94B 
 262      78DE2EB0 
 262      3AB4EF
 263 00f6 0C91C9E8 		.ascii	"\014\221\311\350\207\2779\220\372C\032(2\231\251\014"
 263      87BF3990 
 263      FA431A28 
 263      3299A90C 
 264 0106 FF00E58D 		.ascii	"\377\000\345\215$Yn\252\243O\223\325,_\263&\177\006"
 264      24596EAA 
 264      A34F93D5 
 264      2C5FB326 
 264      7F06
 265 0118 27C361AA 		.ascii	"'\303a\252\273\300\372&Z{+>\266j|l\341\370\320\361\274"
 265      BBC0FA26 
 265      5A7B2B3E 
 265      B66A7C6C 
 265      E1F8D0F1 
 266 012d 1A276334 		.ascii	"\032'c4^(\017\274\376f9t>\262\241|H\343\200\352\257"
 266      5E280FBC 
 266      FE663974 
 266      3EB2A17C 
 266      48E380EA 
 267 0142 CBD4AEC9 		.ascii	"\313\324\256\311\325\244q\364\201&\243_\223\203\347"
 267      D5A471F4 
 267      8126A35F 
 267      9383E7
 268 0151 E41722B3 		.ascii	"\344\027\"\263\241\316M&\324\331\005\177wB\372+\244"
 268      A1CE4D26 
 268      D4D9057F 
 268      7742FA2B 
 268      A4
 269 0162 6648C3C4 		.ascii	"fH\303\304d}\250\017\364\345l\312\333\231\227W\327\207"
 269      647DA80F 
 269      F4E56CCA 
 269      DB999757 
 269      D787
 270 0174 CAFD2BAA 		.ascii	"\312\375+\252\213\326\007o\303&\316\216\242\206\275"
 270      8BD6076F 
 270      C326CE8E 
 270      A286BD
 271 0183 4EB3530B 		.ascii	"N\263S\013a\2662\367\237-\274\251\252UjC\215\372b[\277"
 271      61B632F7 
 271      9F2DBCA9 
 271      AA556A43 
 271      8DFA625B 
 272 0198 81C24215 		.ascii	"\201\302B\025~\271m \301\024\"\221~Y\302kX\310\311B"
 272      7EB96D20 
 272      C1142291 
 272      7E59C26B 
 272      58C8C942 
 273 01ac 817E296C 		.ascii	"\201~)lP\325\332\256C7\243\031\252\352\227\310z2\020"
 273      50D5DAAE 
ARM GAS  /tmp/ccGV0H6c.s 			page 21


 273      4337A319 
 273      AAEA97C8 
 273      7A3210
 274 01bf 3AFA1722 		.ascii	":\372\027\"\374F\330\014\355jUu\375P!\371\227\016V\024"
 274      FC46D80C 
 274      ED6A5575 
 274      FD5021F9 
 274      970E5614 
 275 01d3 C6134122 		.ascii	"\306\023A\"\233\000M\"\033\311oX?j\327\235\3263s\311"
 275      9B004D22 
 275      1BC96F58 
 275      3F6AD79D 
 275      D63373C9 
 276 01e7 6C5525EC 		.ascii	"lU%\354\231\240=\265\370\015\023\032@\213\350\371\245"
 276      99A03DB5 
 276      F80D131A 
 276      408BE8F9 
 276      A5
 277 01f8 ABFF516D 		.ascii	"\253\377Qm\370\220\244S\252\201\350\335\3774\241\325"
 277      F890A453 
 277      AA81E8DD 
 277      FF34A1D5 
 278 0208 C61B6D5E 		.ascii	"\306\033m^\324\352=\324\352\277\211\241\273\264(\242"
 278      D4EA3DD4 
 278      EABF89A1 
 278      BBB428A2 
 279 0218 F036A14D 		.ascii	"\3606\241M\266'k\321\252k\261\335\221\026\2535-$\262"
 279      B6276BD1 
 279      AA6BB1DD 
 279      9116AB35 
 279      2D24B2
 280 022b 05341185 		.ascii	"\0054\021\205\325q\\\255\343\\\275_\352\360Z\221\375"
 280      D5715CAD 
 280      E35CBD5F 
 280      EAF05A91 
 280      FD
 281 023c B40A46BC 		.ascii	"\264\012F\2745grj%\035l\275k\260\\\003X\323\231UC\324"
 281      3567726A 
 281      251D6CBD 
 281      6BB05C03 
 281      58D39955 
 282 0252 8683244B 		.ascii	"\206\203$K\230G)Vk\324'\033\023\224\014\320\021D\216"
 282      98472956 
 282      6BD4271B 
 282      13940CD0 
 282      11448E
 283 0265 D7958FA9 		.ascii	"\327\225\217\251^\2114\023z\367\177\210\221V\3470\235"
 283      5E893413 
 283      7AF77F88 
 283      9156E730 
 283      9D
 284 0276 6FED1E8D 		.ascii	"o\355\036\215\346\331\203@\265\242\021H\"\236\270\336"
 284      E6D98340 
 284      B5A21148 
 284      229EB8DE 
 285 0286 F16BBD02 		.ascii	"\361k\275\002E\303\307Z\241\247\307#\270\253,\012\313"
 285      45C3C75A 
ARM GAS  /tmp/ccGV0H6c.s 			page 22


 285      A1A7C723 
 285      B8AB2C0A 
 285      CB
 286 0297 45137106 		.ascii	"E\023q\006!\265\242\337\326\012\340\006\037/!u\325j"
 286      21B5A2DF 
 286      D60AE006 
 286      1F2F2175 
 286      D56A
 287 02a9 DB088377 		.ascii	"\333\010\203w\016\026\226P\277\202\013\225(\022\371"
 287      0E169650 
 287      BF820B95 
 287      2812F9
 288 02b8 FD639676 		.ascii	"\375c\226v\241\"\036 \203\261\344\301\016\341\306\230"
 288      A1221E20 
 288      83B1E4C1 
 288      0EE1C698 
 289 02c8 6CC8FE94 		.ascii	"l\310\376\224\320\304\252\241F\336\334kQ\021\311kA'"
 289      D0C4AAA1 
 289      46DEDC6B 
 289      5111C96B 
 289      4127
 290 02da 586B22CF 		.ascii	"Xk\"\317 \021\353\311N\212\217H\266\215\003'=\023\205"
 290      2011EBC9 
 290      4E8A8F48 
 290      B68D0327 
 290      3D1385
 291 02ed 46336756 		.ascii	"F3gV\316\3467\012o\344\354\330F\306\031j+\012\333\234"
 291      CEE6370A 
 291      6FE4ECD8 
 291      46C6196A 
 291      2B0ADB9C 
 292 0301 000EB030 		.ascii	"\000\016\2600\202\325\217\037\253\022y\237\374\022\362"
 292      82D58F1F 
 292      AB12799F 
 292      FC12F2
 293 0310 26320CF2 		.ascii	"&2\014\362\235\230\177\200\371~\314\017A\236\222h\012"
 293      9D987F80 
 293      F97ECC0F 
 293      419E9268 
 293      0A
 294 0321 4747581C 		.ascii	"GGX\034{\007\021\2659\255w\243\366zb\324Jd\227k0\003"
 294      7B0711B5 
 294      39AD77A3 
 294      F67A62D4 
 294      4A64976B 
 295 0337 91D15BDA 		.ascii	"\221\321[\332\250e\303P\"\373\314x\356\2349\272xYN\307"
 295      A865C350 
 295      22FBCC78 
 295      EE9C39BA 
 295      78594EC7 
 296 034b 6BFA986E 		.ascii	"k\372\230n\022\211K\260\001\251\214\262\2113J#\032e"
 296      12894BB0 
 296      01A98CB2 
 296      89334A23 
 296      1A65
 297 035d 339AE030 		.ascii	"3\232\3400\346m\230\267;1\307\272\2049Pl5Z\377*\245"
 297      E66D98B7 
ARM GAS  /tmp/ccGV0H6c.s 			page 23


 297      3B31C7BA 
 297      8439506C 
 297      355AFF2A 
 298 0372 9445ADBD 		.ascii	"\224E\255\275 \265\325\244\356\323a\024\201\272\360"
 298      20B5D5A4 
 298      EED36114 
 298      81BAF0
 299 0381 4154EE98 		.ascii	"AT\356\230iR\217\336[\221C'\265c\016&t5\2720\266\212"
 299      69528FDE 
 299      5B914327 
 299      B5630E26 
 299      7435BA30 
 300 0397 D009DDA2 		.ascii	"\320\011\335\242\273\256x\014y\\\210\217\326\313__\367"
 300      BBAE780C 
 300      795C888F 
 300      D6CB5F5F 
 300      F7
 301 03a8 E068FD04 		.ascii	"\340h\375\004%=*\246\015EF\030Q\370\024\233\234J\012"
 301      253D2AA6 
 301      0D454618 
 301      51F8149B 
 301      9C4A0A
 302 03bb 4535DFEA 		.ascii	"E5\337\352\241\350\224#\311w\237\265\225|,oY}\232\371"
 302      A1E89423 
 302      C9779FB5 
 302      957C2C6F 
 302      597D9AF9 
 303 03cf BB16423F 		.ascii	"\273\026B?E\301\257X\013\3360\326\016F\024nc\223Xr\014"
 303      45C1AF58 
 303      0BDE30D6 
 303      0E46146E 
 303      63935872 
 304 03e4 3D51A509 		.ascii	"=Q\245\011\036s\024C?y\323\341J\300\253\367?>\241\306"
 304      1E731443 
 304      3F79D3E1 
 304      4AC0ABF7 
 304      3F3EA1C6 
 305 03f8 17434589 		.ascii	"\027CE\211t\241\012ox\322/\003\014\020\020\231\260\311"
 305      74A10A6F 
 305      78D22F03 
 305      0C101099 
 305      B0C9
 306 040a A564EECF 		.ascii	"\245d\356\317\353*\\r\304\375\235#\214{\235\315\025"
 306      EB2A5C72 
 306      C4FD9D23 
 306      8C7B9DCD 
 306      15
 307 041b 715C2BEA 		.ascii	"q\\+\352\322O(w\217\300\204\242\305[\306G\312\220\261"
 307      D24F2877 
 307      8FC084A2 
 307      C55BC647 
 307      CA90B1
 308 042e 70E5DF3E 		.ascii	"p\345\337>!\325(\357U\034\346\347<\226\241\333\001T"
 308      21D528EF 
 308      551CE6E7 
 308      3C96A1DB 
 308      0154
ARM GAS  /tmp/ccGV0H6c.s 			page 24


 309 0440 E75BA7BA 		.ascii	"\347[\247\272I\025B}\203P\237{\314\301\333g\012\336"
 309      4915427D 
 309      83509F7B 
 309      CCC1DB67 
 309      0ADE
 310 0452 3E633CF6 		.ascii	">c<\366e%\012t\307\325_p[]\024\376n\346/m02\330\003"
 310      65250A74 
 310      C7D55F70 
 310      5B5D14FE 
 310      6EE62F6D 
 311 046a 7CF0C222 		.ascii	"|\360\302\"\026\214t?\316\264\323[\024\256ag\335f'\270"
 311      168C743F 
 311      CEB4D35B 
 311      14AE6167 
 311      DD6627B8 
 312 047e 77F163DD 		.ascii	"w\361c\335\011\272\035\371\361\007G\2269\363cQ\357\377"
 312      09BA1DF9 
 312      F1074796 
 312      39F36351 
 312      EFFF
 313 0490 09EC7F93 		.ascii	"\011\354\177\223\227\366\177\333\334\377\351Km\257\326"
 313      97F67FDB 
 313      DCFFE94B 
 313      6DAFD6
 314 049f ABEA00F6 		.ascii	"\253\352\000\366(}\367{\316.N\356\336v\225\242\231\373"
 314      287DF77B 
 314      CE2E4EEE 
 314      DE7695A2 
 314      99FB
 315 04b1 DEC52BDD 		.ascii	"\336\305+\335\232\222\367q\271\321\3455\233{L6\337\231"
 315      9A92F771 
 315      B9D1E535 
 315      9B7B4C36 
 315      DF99
 316 04c3 B694E116 		.ascii	"\266\224\341\026\016W\343\342\367*x\202\236_\375\373"
 316      0E57E3E2 
 316      F72A7882 
 316      9E5FFDFB 
 317 04d3 E61DAA3A 		.ascii	"\346\035\252:?S\227\341\033\327\210\271\006&\366\235"
 317      3F5397E1 
 317      1BD788B9 
 317      0626F69D 
 318 04e3 C570CCC0 		.ascii	"\305p\314\300\2569\001K\021>[x\260\033\256\301\214\222"
 318      AE39014B 
 318      113E5B78 
 318      B01BAEC1 
 318      8C92
 319 04f5 75F060B7 		.ascii	"u\360`\267\234\200Y-\2204\260\223<\330]\327`F\311N\361"
 319      9C80592D 
 319      9034B093 
 319      3CD85DD7 
 319      6046C94E 
 320 050a 603F3801 		.ascii	"`?8\001\033b/\331\031\036\254\3075\230Q\262Oy\260\352"
 320      1B622FD9 
 320      191EACC7 
 320      359851B2 
 320      4F79B0EA 
ARM GAS  /tmp/ccGV0H6c.s 			page 25


 321 051e 0C0760B9 		.ascii	"\014\007`\271\026\222\305\177v+\220[\211\025\210(\324"
 321      1692C57F 
 321      762B905B 
 321      89158828 
 321      D4
 322 052f 64E85382 		.ascii	"d\350S\202K\237\026\022\030\3633\334\316a\006\275a\016"
 322      4B9F1612 
 322      18F333DC 
 322      CE6106BD 
 322      610E
 323 0541 BBB85E5F 		.ascii	"\273\270^_P_D\345\337q\202\230\302aj\217\"\223\014\254"
 323      505F44E5 
 323      DF718298 
 323      C2616A8F 
 323      22930CAC 
 324 0555 CE3598D1 		.ascii	"\3165\230\321,k(\230a\256\321\202L\327\306\350\220\372"
 324      2C6B2898 
 324      61AED182 
 324      4CD7C6E8 
 324      90FA
 325 0567 C46CE7D7 		.ascii	"\304l\347\327\261\350a\006\233\332jUU\214WV\207\014"
 325      B1E86106 
 325      9BDA6A55 
 325      558C5756 
 325      870C
 326 0579 B1AE2B91 		.ascii	"\261\256+\221e\"]Q\326\213Yq)XY/\365\020\334\354e\230"
 326      65225D51 
 326      D68B5971 
 326      2958592F 
 326      F510DCEC 
 327 058f 8E49F45F 		.ascii	"\216I\364_\272\246v\236\260D\344<a\215\023\232R\014"
 327      BAA6769E 
 327      B044E43C 
 327      618D139A 
 327      520C
 328 05a1 850E3B9A 		.ascii	"\205\016;\232\2425\352<2\273\351\361\224\213\264{\027"
 328      A235EA3C 
 328      32BBE9F1 
 328      948BB47B 
 328      17
 329 05b2 BF5BA745 		.ascii	"\277[\247E\343\325\"\215\306\357fX\006vG`\235o=8\250"
 329      E3D5228D 
 329      C6EF6658 
 329      06764760 
 329      9D6F3D38 
 330 05c7 AD121A10 		.ascii	"\255\022\032\020l{\206y\256\3172\205\366,c\254\316\312"
 330      6C7B8679 
 330      AECF3285 
 330      F62C63AC 
 330      CECA
 331 05d9 4A147AF4 		.ascii	"J\024z\364\237\221}\307m\354\330_\305\263\277\3335\373"
 331      9F917DC7 
 331      6DECD85F 
 331      C5B3BFDB 
 331      35FB
 332 05eb E631747B 		.ascii	"\3461t{\021\271Y\245\326\217\340\374-\245s\302b*\326"
 332      11B959A5 
ARM GAS  /tmp/ccGV0H6c.s 			page 26


 332      D68FE0FC 
 332      2DA573C2 
 332      622AD6
 333 05fe F2AFB830 		.ascii	"\362\257\2700\336\210$\265X3\356\000\250\363\255my\010"
 333      DE8824B5 
 333      5833EE00 
 333      A8F3AD6D 
 333      7908
 334 0610 D4884087 		.ascii	"\324\210@\207\223\330&&\266\211\2219\222\225($\261\234"
 334      93D82626 
 334      B6899139 
 334      92952824 
 334      B19C
 335 0622 A6AE289C 		.ascii	"\246\256(\2340Sg\0201\305L\031\247\356\201{\352Vj\324"
 335      30536710 
 335      31C54C19 
 335      A7EE817B 
 335      EA566AD4 
 336 0636 6D438D4F 		.ascii	"mC\215O'i\334(\272SY\024\316\273V\303oT\243\246\247"
 336      2769DC28 
 336      BA535914 
 336      CEBB56C3 
 336      6F54A3A6 
 337 064b 176A1C60 		.ascii	"\027j\034`j\354@5.\375\010j|\355Z\215\001\234\032\270"
 337      6AEC4035 
 337      2EFD086A 
 337      7CED5A8D 
 337      019C1AB8 
 338 065f A95ACC82 		.ascii	"\251Z\314\202\301 aQ\352\005-\225g\2678\310\270\007"
 338      C1206151 
 338      EA052D95 
 338      67B738C8 
 338      B807
 339 0671 3E7D9CE4 		.ascii	">}\234\344\262\333\351737\217\257\302\205$\022\246:"
 339      B2DBE937 
 339      33378FAF 
 339      C2852412 
 339      A63A
 340 0683 DA7FC4E2 		.ascii	"\332\177\304\342\373\217\275H\331u\253A\343\010\252"
 340      FB8FBD48 
 340      D975AB41 
 340      E308AA
 341 0692 F3E8894F 		.ascii	"\363\350\211O\264\031o?B\335Nb?\323D~\246\221|\270\244"
 341      B4196F3F 
 341      42DD4E62 
 341      3FD3447E 
 341      A6917CB8 
 342 06a7 7DDDC579 		.ascii	"}\335\305y\346u\355\016\275\360\011\275n'\012\017Q\014"
 342      E675ED0E 
 342      BDF009BD 
 342      6E270A0F 
 342      510C
 343 06b9 4A606F56 		.ascii	"J`oV\271tK\371E\235\036\315\031Gs3\037\005\261*\272"
 343      B9744BF9 
 343      459D1ECD 
 343      19477333 
 343      1F05B12A 
ARM GAS  /tmp/ccGV0H6c.s 			page 27


 344 06ce 76817EF4 		.ascii	"v\201~\364\214\307m\177yD\270}'\314\201\312\264\221"
 344      8CC76D7F 
 344      7944B87D 
 344      27CC81CA 
 344      B491
 345 06e0 E8B29985 		.ascii	"\350\262\231\205\365\363\204K]\354\330\362\260H\305"
 345      F5F3844B 
 345      5DECD8F2 
 345      B048C5
 346 06ef 59926936 		.ascii	"Y\222i6\333Eb\332H\\4\036A\332\371r+\037\020\032\037"
 346      DB4562DA 
 346      485C341E 
 346      41DAF972 
 346      2B1F101A 
 347 0704 494B3A8E 		.ascii	"IK:\216n\231\314\260\375\021y\273\267\300\331\351\305"
 347      6E99CCB0 
 347      FD1179BB 
 347      B7C0D9E9 
 347      C5
 348 0715 6B3A167B 		.ascii	"k:\026{\213\322\214\335\236\020M\233\276e\267\273j4"
 348      8BD28CDD 
 348      9E104D9B 
 348      BE65B7BB 
 348      6A34
 349 0727 F7A7CFD2 		.ascii	"\367\247\317\322\017\326\330\345,uQ\016;w\220\310\227"
 349      0FD6D8E5 
 349      2C75510E 
 349      3B7790C8 
 349      97
 350 0738 7856485B 		.ascii	"xVH[Z\255\003\322\322\023\275 \267\215p3\354[\365a\177"
 350      5AAD03D2 
 350      D213BD20 
 350      B78D7033 
 350      EC5BF561 
 351 074d 8ACD9449 		.ascii	"\212\315\224IF\337o\236)]\015\272\253q\222\234.\241"
 351      46DF6F9E 
 351      295D0DBA 
 351      AB71929C 
 351      2EA1
 352 075f CD3F3BA7 		.ascii	"\315?;\247:\316;\325\267\217\346\002\364\255\321\006"
 352      3ACE3BD5 
 352      B78FE602 
 352      F4ADD106 
 353 076f 8BD70516 		.ascii	"\213\327\005\026N\240\306\317\376\006`\317\337c\317"
 353      4EA0C6CF 
 353      FE0660CF 
 353      DF63CF
 354 077e 31B317FC 		.ascii	"1\263\027\374p\247\355\015\375\010\315\221\027\334\262"
 354      70A7ED0D 
 354      FD08CD91 
 354      17DCB2
 355 078d F082582F 		.ascii	"\360\202X/\275\000\\\372j;A8\266SX\355#F8\227;\350\007"
 355      BD005CFA 
 355      6A3B4138 
 355      B65358ED 
 355      23463897 
 356 07a4 B25B6298 		.ascii	"\262[b\230\177E\317]\246A\353\222HO\324\336\365\231"
ARM GAS  /tmp/ccGV0H6c.s 			page 28


 356      7F45CF5D 
 356      A641EB92 
 356      484FD4DE 
 356      F599
 357 07b6 5D8B31C3 		.ascii	"]\2131\303\271V\202F\211\234\307\255\303\005\221\036"
 357      B9568246 
 357      899CC7AD 
 357      C305911E 
 358 07c6 405FC4FC 		.ascii	"@_\304\374s\321\3011\364\377"
 358      73D1C131 
 358      F4FF
 359 07d0 89496F05 		.ascii	"\211Io\005\334\350\235\353\320\373>\343\275\357=\337"
 359      DCE89DEB 
 359      D0FB3EE3 
 359      BDEF3DDF 
 360 07e0 A379DFED 		.ascii	"\243y\337\355\326\343\336\345jt\216\307\305ya\354\220"
 360      D6E3DEE5 
 360      6A748EC7 
 360      C57961EC 
 360      90
 361 07f1 3E70BFC2 		.ascii	">p\277\302\201\273#\211\335o\314\213S'\307v-\275U%\376"
 361      81BB2389 
 361      DD6FCC8B 
 361      5327C776 
 361      2DBD5525 
 362 0806 1385433E 		.ascii	"\023\205C>\007K\376\\\013\326\343\201\366\314b\207G"
 362      074BFE5C 
 362      0BD6E381 
 362      F6CC6287 
 362      47
 363 0817 7FFA4BCF 		.ascii	"\177\372K\317+Qv\022\376\035z\332a\023\027\016N\020"
 363      2B517612 
 363      FE1D7ADA 
 363      6113170E 
 363      4E10
 364 0829 CF60936E 		.ascii	"\317`\223n\3630\276S\2238At0\214\253\242;\337\324C:"
 364      F330BE53 
 364      93384174 
 364      308CABA2 
 364      3BDFD443 
 365 083e 8B8DCC03 		.ascii	"\213\215\314\003\273S{`J>\015&\354\346\006\310M\034"
 365      BB537B60 
 365      4A3E0D26 
 365      ECE606C8 
 365      4D1C
 366 0850 20DFF383 		.ascii	" \337\363\203B\024\2568\341\376I;W\204i\350\244\361"
 366      4214AE38 
 366      E1FE493B 
 366      578469E8 
 366      A4F1
 367 0862 18FC3B33 		.ascii	"\030\374;3\236\325Dd\300\343mY\025\255\355\304\003\013"
 367      9ED54464 
 367      C0E36D59 
 367      15ADEDC4 
 367      030B
 368 0874 E6A3779C 		.ascii	"\346\243w\234\0107\302\036lm\235N\356g\270BQ\375\016"
 368      0837C21E 
ARM GAS  /tmp/ccGV0H6c.s 			page 29


 368      6C6D9D4E 
 368      EE67B842 
 368      51FD0E
 369 0887 F046DB29 		.ascii	"\360F\333)[\025\335\335\271J\303cg\356\363\\\343\031"
 369      5B15DDDD 
 369      B94AC363 
 369      67EEF35C 
 369      E319
 370 0899 E53B5D67 		.ascii	"\345;]gX\317-t\0027\326\261\355\023\3578$r\031\337\324"
 370      58CF2D74 
 370      0237D6B1 
 370      ED13EF38 
 370      247219DF 
 371 08ae 5DC1B773 		.ascii	"]\301\267s_a~\035\363Z\234(\027a\276\030\363\225\230"
 371      5F617E1D 
 371      F35A9C28 
 371      1761BE18 
 371      F39598
 372 08c1 6FC07C2B 		.ascii	"o\300|+\346M\2307c\376-\346\2671\277\213\371}\314\037"
 372      E64D9837 
 372      63FE2DE6 
 372      B731BF8B 
 372      F97DCC1F 
 373 08d5 60FED0C9 		.ascii	"`\376\320\311\204kZ\003\306'\335^\277\212=y$~\306\245"
 373      846B5A03 
 373      C627DD5E 
 373      BF8A3D79 
 373      247EC6A5 
 374 08e9 BF8A7503 		.ascii	"\277\212u\003\226\233\212\303\030\307\341y\344\360\002"
 374      969B8AC3 
 374      18C7E179 
 374      E4F002
 375 08f8 F2A67A86 		.ascii	"\362\246z\206\361\325X\370=\325\353\227?{\316\362\216"
 375      F1D558F8 
 375      3DD5EB97 
 375      3F7BCEF2 
 375      8E
 376 0909 25916B66 		.ascii	"%\221kf<W\361W\325\217\303\331\013\216\005\242[0\243"
 376      3C57F157 
 376      D58FC3D9 
 376      0B8E05A2 
 376      5B30A3
 377 091c 97762E33 		.ascii	"\227v.3NQ\013\235\340\2458\223\324\316\235\031X\235"
 377      4E510B9D 
 377      E0A53893 
 377      D4CE9D19 
 377      589D
 378 092e 6B30A370 		.ascii	"k0\243p\237\235\345\0168\227\371Iz0\253\223;k\343\237"
 378      9F9DE50E 
 378      3897F949 
 378      7A30AB93 
 378      3B6BE39F 
 379 0942 E28C7F06 		.ascii	"\342\214\177\006\215\177\026\215?\333C\363*\314\253"
 379      8D7F168D 
 379      3FDB43F3 
 379      2ACCAB
 380 0951 319F83F9 		.ascii	"1\237\203\371\\\217aj]\353\327\337Mk\235\031_\003\247"
ARM GAS  /tmp/ccGV0H6c.s 			page 30


 380      5C8F616A 
 380      5DEBD7DF 
 380      4D6B9D19 
 380      5F03A7
 381 0964 F00A891C 		.ascii	"\360\012\211\034\205\2164[6\305\230o8\215m\227oGYl\233"
 381      858E345B 
 381      36C5986F 
 381      388D6D97 
 381      6F47596C 
 382 0979 EFA113F2 		.ascii	"\357\241\023\362F\277\353\330\266\013\233\274\355I\212"
 382      46BFEBD8 
 382      B60B9BBC 
 382      ED498A
 383 0988 6D0FF5D7 		.ascii	"m\017\365\327\323\364Y\232\3306\247:\272|\305\246\304"
 383      D3F4599A 
 383      D836A73A 
 383      BA7CC5A6 
 383      C4
 384 0999 3EA93ABE 		.ascii	">\251:\276\253\\\012s\273\335\344`8\210\375[\\\216\037"
 384      AB5C0A73 
 384      BBDDE460 
 384      3888FD5B 
 384      5C8E1F
 385 09ac 25162614 		.ascii	"%\026&\024\222\310_<\324\234\013\214\006;n6\230\313"
 385      92C85F3C 
 385      D49C0B8C 
 385      063B6E36 
 385      98CB
 386 09be 58B827A6 		.ascii	"X\270'\246\307B\366v\372\244\031\317\370.:]0T\243'c"
 386      C742F676 
 386      FAA419CF 
 386      F82E3A5D 
 386      3054A327 
 387 09d3 E0DC4EED 		.ascii	"\340\334N\355\376\303\246\253\317\241\335\227\242\335"
 387      FEC3A6AB 
 387      CFA1DD97 
 387      A2DD
 388 09e1 1FB8B53B 		.ascii	"\037\270\265;\245h\271\311\346\321n9\227\335M\277\222"
 388      A568B9C9 
 388      E6D16E39 
 388      97DD4DBF 
 388      92
 389 09f2 B97719B7 		.ascii	"\271w\031\267\020n\226\244\373\330\231\333*\017\015"
 389      106E96A4 
 389      FBD899DB 
 389      2A0F0D
 390 0a01 A6EF64FD 		.ascii	"\246\357d\375(\013\322%\010\263\374\307r\232\345\234"
 390      280BD225 
 390      08B3FCC7 
 390      729AE59C 
 391 0a11 D3AC40A7 		.ascii	"\323\254@\247Yit\232UY\016\234\246<U\177\332m\303i\201"
 391      5969749A 
 391      55590E9C 
 391      A63C557F 
 391      DA6DC369 
 392 0a26 D55CA5F9 		.ascii	"\325\\\245\371\306Pa\215\032\275\336\325\263\245;oi"
 392      C650618D 
ARM GAS  /tmp/ccGV0H6c.s 			page 31


 392      1ABDDED5 
 392      B3A53B6F 
 392      69
 393 0a37 75559B7A 		.ascii	"uU\233z\235*\356\374;\265\365\036\323wj\354\023&\356"
 393      9D2AEEFC 
 393      3BB5F51E 
 393      D3776AEC 
 393      1326EE
 394 0a4a 433551D8 		.ascii	"C5Q\330k2\305\023\302\273\252\272H].\277\250\177\247"
 394      6B32C513 
 394      C2BBAABA 
 394      485D2EBF 
 394      A87FA7
 395 0a5d 781C6BAC 		.ascii	"x\034k\254\363\014\265\354'\376\255\325\257\204\215"
 395      F30CB5EC 
 395      27FEADD5 
 395      AF848D
 396 0a6c F4DDCF3B 		.ascii	"\364\335\317;\352\334\001\004\245\022\264V\006\2167"
 396      EADC0104 
 396      A512B456 
 396      068E37
 397 0a7b 7844FE06 		.ascii	"xD\376\006U\260\241+z_f\2729Wm\263\246ZB\033\030\203"
 397      55B0A12B 
 397      7A5F66BA 
 397      39576DB3 
 397      A65A421B 
 398 0a91 26553499 		.ascii	"&U4\231\340\327\250z\342\"5\232E\332\222,R\327\365\350"
 398      E0D7A87A 
 398      E222359A 
 398      45DA922C 
 398      52D7F5E8 
 399 0aa5 C3D69CDA 		.ascii	"\303\326\234\332\331]==C\235\313\264\315\212\356\370"
 399      D95D3D3D 
 399      439DCBB4 
 399      CD8AEEF8 
 400 0ab5 4533F3F0 		.ascii	"E3\363\360\370u\013\243\215\377\206\320\240\017\252"
 400      F8750BA3 
 400      8DFF86D0 
 400      A00FAA
 401 0ac4 14B3B6CE 		.ascii	"\024\263\266\316\022\335:\022\331\344\241Aukj\353h\315"
 401      12DD3A12 
 401      D9E4A141 
 401      756B6AEB 
 401      68CD
 402 0ad6 3AA527F5 		.ascii	":\245'\365/\305\256 0\327\314\360\245\230&-k\026]\370"
 402      2FC5AE20 
 402      30D7CCF0 
 402      A598262D 
 402      6B165DF8 
 403 0aea 065D1488 		.ascii	"\006]\024\210\372'\213\337\230\233\232zl\341zl\242\202"
 403      FA278BDF 
 403      989B9A7A 
 403      6CE17A6C 
 403      A282
 404 0afc E22705AD 		.ascii	"\342'\005\255$\265\234c\022N\244F{j\252\033\210\232"
 404      24B59C63 
 404      124EA446 
ARM GAS  /tmp/ccGV0H6c.s 			page 32


 404      7B6AAA1B 
 404      889A
 405 0b0e 19B7D956 		.ascii	"\031\267\331V\263\315vX\332\354\301Qf\263\265c\235\033"
 405      B3CD7658 
 405      DAECC151 
 405      66B3B563 
 405      9D1B
 406 0b20 ED7F1D8C 		.ascii	"\355\177\035\214\221\233i\306\210n\205\275\216\306\210"
 406      919B69C6 
 406      886E85BD 
 406      8EC688
 407 0b2f 6A1A237B 		.ascii	"j\032#{\315\312\355\267P\016\246\320\035\007\177^\277"
 407      CDCAEDB7 
 407      500EA6D0 
 407      1D077F5E 
 407      BF
 408 0b40 439D335F 		.ascii	"C\2353_}\330\363:a#@\024\326\3671\373<\3038h\205\021"
 408      7DD8F33A 
 408      61234014 
 408      D6F731FB 
 408      3CC33868 
 409 0b56 BDD1FAB6 		.ascii	"\275\321\372\266J\334\272\365Gf\206\330\207\213\006"
 409      4ADCBAF5 
 409      476686D8 
 409      878B06
 410 0b65 86B6DB88 		.ascii	"\206\266\333\210q\310R\214\013\0111\030\274(\354\261"
 410      71C8528C 
 410      0B093118 
 410      BC28ECB1 
 411 0b75 01386C04 		.ascii	"\0018l\004\370ga\035\345\342N\315\351\303d\221\332\320"
 411      F867611D 
 411      E5E24ECD 
 411      E9C36491 
 411      DAD0
 412 0b87 467DA587 		.ascii	"F}\245\207\014M\373\365\240~\212}\277\203}\316\327\216"
 412      0C4DFBF5 
 412      A07E8A7D 
 412      BF837DCE 
 412      D78E
 413 0b99 71B3B58F 		.ascii	"q\263\265\2179\014\261\257\010\271\376\217q\353\302"
 413      390CB1AF 
 413      08B9FE8F 
 413      71EBC2
 414 0ba8 13B82EEC 		.ascii	"\023\270.\354\300u\341Q\314\347\341Z\260\016\363%\306"
 414      C075E151 
 414      CCE7E15A 
 414      B00EF325 
 414      C6
 415 0bb9 5871328E 		.ascii	"Xq2\216m)\020\305\3768\241\233\3510\276\335&\244\241"
 415      6D2910C5 
 415      FE38A19B 
 415      E930BEDD 
 415      26A4A1
 416 0bcc 449E6C9B 		.ascii	"D\236l\233V\324#\354Z\035O\264\302\250]\2352j\303\346"
 416      56D423EC 
 416      5A1D4FB4 
 416      C2A85D9D 
ARM GAS  /tmp/ccGV0H6c.s 			page 33


 416      326AC3E6 
 417 0be0 0F754D1F 		.ascii	"\017uM\037\204\255\016\3732u\250\327\022\314\307\232"
 417      84AD0EFB 
 417      3275A8D7 
 417      12CCC79A 
 418 0bf0 BBCBD891 		.ascii	"\273\313\330\221T\007R?/;\355\327|F\034*T\247y\311R"
 418      5407523F 
 418      2F3BEDD7 
 418      7C461C2A 
 418      54A779C9 
 419 0c05 17C36F3F 		.ascii	"\027\303o?;\035-Q\227\304\364\215\327\011\\\204,F\021"
 419      3B1D2D51 
 419      97C4F48D 
 419      D7095C84 
 419      2C4611
 420 0c18 3ADDAF1E 		.ascii	":\335\257\0364\274\2451\334\2160\260z\327`\271\006\260"
 420      34BCA531 
 420      DC8E30B0 
 420      7AD760B9 
 420      06B0
 421 0c2a 7A1E6C95 		.ascii	"z\036l\225\0230\273-!\200\255\340\301\326\271\0063J"
 421      1330BB2D 
 421      2180ADE0 
 421      C1D6B906 
 421      334A
 422 0c3c B68A07DB 		.ascii	"\266\212\007\333\344\004\314n?\010`kx\260\315\256\301"
 422      E404CC6E 
 422      3F08606B 
 422      78B0CDAE 
 422      C1
 423 0c4d 8C92BDCF 		.ascii	"\214\222\275\317\203ms\002f\367%\007\200\355\340\301"
 423      836D7302 
 423      66F72507 
 423      80EDE0C1 
 424 0c5d 76BA0633 		.ascii	"v\272\0063J\266\213\007\333\343\004,\327^\262f\036\254"
 424      4AB68B07 
 424      DBE3042C 
 424      D75EB266 
 424      1EAC
 425 0c6f C5359851 		.ascii	"\3055\230Q\262\277\362`\037:\001\263\333\004\001\330"
 425      B2BFF260 
 425      1F3A01B3 
 425      DB0401D8 
 426 0c7f 5E1EACD5 		.ascii	"^\036\254\3255\230Q\262}<\330\021'`#\354$\233\035my"
 426      359851B2 
 426      7D3CD811 
 426      276023EC 
 426      249B1D6D 
 427 0c94 B556FA89 		.ascii	"\265V\372\211P\253M)\014U\237V\210\321\265\370jt\027"
 427      50AB4D29 
 427      0C559F56 
 427      88D1B5F8 
 427      6A7417
 428 0ca7 62534D22 		.ascii	"bSM\"\335\236\237`\311\360\006\015k\330M\2727<\211\017"
 428      DD9E9F60 
 428      C9F0060D 
 428      6BD84DBA 
ARM GAS  /tmp/ccGV0H6c.s 			page 34


 428      373C890F 
 429 0cbb 9472B212 		.ascii	"\224r\262\022\005\376\277\274$j\321\245\266Ym\243\024"
 429      05FEBFBC 
 429      246AD1A5 
 429      B6596DA3 
 429      14
 430 0ccc 567A1B49 		.ascii	"Vz\033I\354\340I<\351\204\304\261\366`'y\260\263N\300"
 430      ECE0493C 
 430      E984C4B1 
 430      F6602779 
 430      B0B34EC0 
 431 0ce0 5EB4F795 		.ascii	"^\264\367\225S<X\3145\230Q\2623<X\227\023\260W\354%"
 431      533C58CC 
 431      359851B2 
 431      333C5897 
 431      13B057EC 
 432 0cf5 FB9407BB 		.ascii	"\373\224\007\273\344\032\214\227lv\364\263\204\343\321"
 432      E41A8C97 
 432      6C76F4B3 
 432      84E3D1
 433 0d04 8FEB0D9E 		.ascii	"\217\353\015\2367\3268\333\032\252q\236g\252&\021\325"
 433      37D638DB 
 433      1AAA719E 
 433      67AA2611 
 433      D5
 434 0d15 EBD6F166 		.ascii	"\353\326\361f{\255\035\217\377\314(Q\213\276\2125\253"
 434      7BAD1D8F 
 434      FFCC2851 
 434      8BBE8A35 
 434      AB
 435 0d26 6D10422B 		.ascii	"m\020B+N\261\340\320\352\307\007j\211\234\302\235\364"
 435      4EB1E0D0 
 435      EAC7076A 
 435      899CC29D 
 435      F4
 436 0d37 695C239D 		.ascii	"i\\#\235\305\374\034\3461\314\317c~\021\363\3171\277"
 436      C5FC1CE6 
 436      31CCCF63 
 436      7E11F3CF 
 436      31BF
 437 0d49 84F965CC 		.ascii	"\204\371e\314\277\304\374*\346_c\376-\346\3270\377\036"
 437      BFC4FC2A 
 437      E65F63FE 
 437      2DE6D730 
 437      FF1E
 438 0d5b F3DB98DF 		.ascii	"\363\333\230\337\305\374>\346\0170\177\310\257\307L"
 438      C5FC3EE6 
 438      0F307FC8 
 438      AFC74C
 439 0d6a 2BA58E14 		.ascii	"+\245\216\024\353\253j\257\335\372\352\243\024\353\253"
 439      EBAB6AAF 
 439      DDFAEAA3 
 439      14EBAB
 440 0d79 398956DA 		.ascii	"9\211V\332\246}\377\201\366\237m\245\037>\323\365\372"
 440      A67DFF81 
 440      F69F6DA5 
 440      1F3ED3F5 
ARM GAS  /tmp/ccGV0H6c.s 			page 35


 440      FA
 441 0d8a EC39445F 		.ascii	"\3549D_\261\257\311q\262K\235\3535m\012j\274I+i\350"
 441      B1AFC971 
 441      B24B9DEB 
 441      356D0A6A 
 441      BC492B69 
 442 0d9f E4DCA583 		.ascii	"\344\334\245\203\305{\270NL\253\372fb\357#\363\275\311"
 442      C57BB84E 
 442      4CABFA66 
 442      62EF23F3 
 442      BDC9
 443 0db1 3BE84E6B 		.ascii	";\350Nk\331\252\324\367\033\325\014}\013\013\313^\257"
 443      D9AAD4F7 
 443      1BD50C7D 
 443      0B0BCB5E 
 443      AF
 444 0dc2 F5B651C3 		.ascii	"\365\266Q\303{\323R\324}\007\332\177A_d\252==\257\017"
 444      7BD352D4 
 444      7D07DA7F 
 444      415F64AA 
 444      3D3DAF0F 
 445 0dd6 63DDC336 		.ascii	"c\335\3036\324Y\207o\247\356\360\035\313\016\277\377"
 445      D459876F 
 445      A7EEF01D 
 445      CB0EBFFF 
 446 0de6 F2DCAF93 		.ascii	"\362\334\257\223:\334\336\327Q\207\013RwXk\331\341\376"
 446      3ADCDED7 
 446      51870B52 
 446      77586BD9 
 446      E1FE
 447 0df8 03577F6E 		.ascii	"\003W\177n\2648\333\333\0344\365\251m\037\317&v\343"
 447      B438DBDB 
 447      1C34F5A9 
 447      6D1FCF26 
 447      76E3
 448 0e0a 67B0C622 		.ascii	"g\260\306\"\233N\343g\007\232\243\234S_\031\022w\224"
 448      9B4EE367 
 448      079AA39C 
 448      535F1912 
 448      7794
 449 0e1c 456647A9 		.ascii	"EfG\251\363&\355\230::\272z\266\264\217\256S\253\352"
 449      F326ED98 
 449      3A3ABA7A 
 449      B6B48FAE 
 449      53ABEA
 450 0e2f D539B861 		.ascii	"\3259\270a\322\203^\275\361\214\266H\357\266/\266\345"
 450      D2835EBD 
 450      F18CB648 
 450      EFB62FB6 
 450      E5
 451 0e40 6BD5DBD6 		.ascii	"k\325\333\326\222\310r\327\023\324\012\233\011*\307"
 451      92C872D7 
 451      13D40A9B 
 451      092AC7
 452 0e4f A0CA8AC4 		.ascii	"\240\312\212\304\004\025C\206\270\015\266I\010Q\370"
 452      04154386 
 452      B80DB649 
ARM GAS  /tmp/ccGV0H6c.s 			page 36


 452      0851F8
 453 0e5e A22FD19A 		.ascii	"\242/\321\232\301\316+a\222{C\254Lr\303\332$1\335$\260"
 453      C1CE2B61 
 453      927B43AC 
 453      4C72C3DA 
 453      2431DD24 
 454 0e73 9DF3D21D 		.ascii	"\235\363\322\035\375\352\336\230d\265\331$klLr\365\361"
 454      FDEADE98 
 454      64B5D924 
 454      6B6C4C72 
 454      F5F1
 455 0e85 F42699A2 		.ascii	"\364&\231\242w\233\235\312$\246Z\022y\327\265I6\330"
 455      779B9DCA 
 455      24A65A12 
 455      79D7B549 
 455      36D8
 456 0e97 98A48F41 		.ascii	"\230\244\217A\025\275\026\024WzM':&!Da~?\336$\246\331"
 456      15BD1614 
 456      577A4D27 
 456      3A262144 
 456      617E3FDE 
 457 0eae 747D8AD9 		.ascii	"t}\212\331tSb6\025\236\030><\217\375\013E\362\302J^"
 457      74536236 
 457      159E183E 
 457      3C8FFD0B 
 457      45F2C24A 
 458 0ec3 7159B0A4 		.ascii	"qY\260\244\242P\316\013\026EfE\224Y\345rdx\221\360X"
 458      A250CE0B 
 458      16456645 
 458      9459E572 
 458      647891F0 
 459 0ed8 657158A9 		.ascii	"eqX\251\220J\002Jq\251\034\216\004J\212#J@\311\234\360"
 459      904A024A 
 459      71A91C8E 
 459      044A8A23 
 459      4A40C99C 
 460 0eed 873FE5E6 		.ascii	"\207?\345\346\013\203\203E\001\213\347\271\366\300\301"
 460      0B838345 
 460      018BE7B9 
 460      F6C0C1
 461 0efc A24200ED 		.ascii	"\242B\000\355oh\024P\006\230q\274e\362L\305[\036\226"
 461      6F681450 
 461      069871BC 
 461      65F24CC5 
 461      5B1E96
 462 0f0f 2BB3A82C 		.ascii	"+\263\250,p+\240\374G^Q\250T\316\223J\344\231y\023\345"
 462      702BA0FC 
 462      475E51A8 
 462      54CE934A 
 462      E4997913 
 463 0f24 3225149E 		.ascii	"2%\024\236\020\226\312\213\212\203\221\274I\241\212"
 463      1096CA8B 
 463      8A8391BC 
 463      49A18A
 464 0f33 70500ECF 		.ascii	"pP\016\317\012\344\207\012\345\347\3452\200{\271X\221"
 464      0AE4870A 
 464      E5E7E532 
ARM GAS  /tmp/ccGV0H6c.s 			page 37


 464      807BB958 
 464      91
 465 0f44 03D342E1 		.ascii	"\003\323B\341\300\270\202\211\201\027\306=\377R\236"
 465      C0B88289 
 465      8117C63D 
 465      FF529E
 466 0f53 142E7DAA 		.ascii	"\024.}\252,T&?%KS\213\3432E\224\302\3422\005d\362W\300"
 466      2C54263F 
 466      254B538B 
 466      E3324594 
 466      C2E23205 
 467 0f6b DF91CF06 		.ascii	"\337\221\317\006\224\214B\271D\221\374\225\312\264\212"
 467      948C42B9 
 467      4491FC95 
 467      CAB48A
 468 0f7a B26040F1 		.ascii	"\262`@\361\322?\236r)\354/\221\"\012\025%\263R\241Z"
 468      D23F9E72 
 468      29EC2F91 
 468      220A1525 
 468      B352A15A 
 469 0f8e 66412F54 		.ascii	"fA/T8\2714',K\205\2634j\372\302\355\304"
 469      38B93427 
 469      2C4B85B3 
 469      346AFAC2 
 469      EDC4
 470 0fa0 757FA588 		.ascii	"u\177\245\210^D\002\377U!W\310LS\303-?\273\012 \034"
 470      5E4402FF 
 470      552157C8 
 470      4C53C32D 
 470      3FBB0A20 
 471 0fb5 2B67E083 		.ascii	"+g\340\203\321<\211\301Pii\250,\257<\024V\"y\240Q\376"
 471      D13C89C1 
 471      506969A8 
 471      2CAF3C14 
 471      562279A0 
 472 0fcb C499F45E 		.ascii	"\304\231\364^yq\011p\2367!?\037\270\325-\346S\312\303"
 472      79710970 
 472      9E37213F 
 472      1FB8D52D 
 472      E653CAC3 
 473 0fdf C5A18082 		.ascii	"\305\241\200\202\012==*@y,\016\345\320\266\201`\250"
 473      0A3D3D2A 
 473      40792C0E 
 473      E5D0B681 
 473      60A8
 474 0ff1 4C01667F 		.ascii	"L\001f\177\235\026\273(\030\012\313\000\226\215\315"
 474      9D16BB28 
 474      180ACB00 
 474      968DCD
 475 1000 0028A8CC 		.ascii	"\000(\250\314|\312Y\253@\345s\245\224\317\260<\035("
 475      7CCA59AB 
 475      40E573A5 
 475      94CFB03C 
 475      1D28
 476 1012 0F2862F8 		.ascii	"\017(b\370\0311\374[1\374\254\030~N\014\217\026\303"
 476      1931FC5B 
 476      31FCAC18 
ARM GAS  /tmp/ccGV0H6c.s 			page 38


 476      7E4E0C8F 
 476      16C3
 477 1024 BFF38447 		.ascii	"\277\363\204G\216\2004R,\011\213\221r\017@g\224\311"
 477      8E803452 
 477      2C098B91 
 477      720F4067 
 477      94C9
 478 1036 33E47046 		.ascii	"3\344pF\250\244\020l\037,\222\300\001\244R\271OD\371"
 478      A8A4106C 
 478      1F2C92C0 
 478      01A452B9 
 478      4F44F9
 479 1049 B354523C 		.ascii	"\263TR<\275LS\346\331g\300\363fHS\245\010\320\026Q$"
 479      BD4C53E6 
 479      D967C0F3 
 479      664853A5 
 479      08D01651 
 480 105e B0B0E2A3 		.ascii	"\260\260\342\243\017F\203\325\360\332\247\224\202\007"
 480      0F4683D5 
 480      F0DAA794 
 480      8207
 481 106c C0D5B412 		.ascii	"\300\325\264\022iz\304\247\204\345i\021 \200\376\311"
 481      697AC4A7 
 481      84E56911 
 481      2080FEC9 
 482 107c 288D4C87 		.ascii	"(\215L\207\352\032'\231\341\302Yp\303/\317,V\202\320"
 482      EA1A2799 
 482      E1C25970 
 482      C32FCF2C 
 482      5682D0
 483 108f 24738612 		.ascii	"$s\206\022\232\372\237\345\0035k@\0039\014~D\241f(J"
 483      9AFA9FE5 
 483      03356B40 
 483      03390C7E 
 483      44A16628 
 484 10a4 B8DC1701 		.ascii	"\270\334\027\001\217\203\0069\324\350r)\370\035h:\324"
 484      8F830639 
 484      D4E87229 
 484      F81D683A 
 484      D4
 485 10b5 DECF654A 		.ascii	"\336\317eJAF\260\014\034\302\0039\300\303\255r?\264"
 485      4146B00C 
 485      1CC20339 
 485      C0C3AD72 
 485      3FB4
 486 10c7 2EAD000B 		.ascii	".\255\000\013\330\267,Uf\322\226\241\031er\330\207u"
 486      D8B72C55 
 486      66D296A1 
 486      196572D8 
 486      8775
 487 10d9 A9CE0ADC 		.ascii	"\251\316\012\334.\317\226+\251\020R\344\317pK\236A\013"
 487      2ECF962B 
 487      A91052E4 
 487      CF704B9E 
 487      410B
 488 10eb A4A29FEE 		.ascii	"\244\242\237\356M\314\373\372s\376E\357\370fH\305Jq"
 488      4DCCFBFA 
ARM GAS  /tmp/ccGV0H6c.s 			page 39


 488      73FE45EF 
 488      F86648C5 
 488      4A71
 489 10fd D9743FC8 		.ascii	"\331t?\310\316\374M.\227\313\300\345\247\373\000\222"
 489      CEFC4D2E 
 489      97CBC0E5 
 489      A7FB0092 
 490 110d D6003B49 		.ascii	"\326\000;I%\324C2J\313C\241\022_\260\"\014\232+\031"
 490      25D44332 
 490      4ACB43A1 
 490      125FB022 
 490      0C9A2B19 
 491 1121 61FAB01F 		.ascii	"a\372\260\037s\360@\241<\265b:C\347\357d\225Ke\305\301"
 491      73F040A1 
 491      3CB5623A 
 491      43E7EF64 
 491      954B65C5 
 492 1136 00607B0A 		.ascii	"\000`{\012\247N\357S*\001\273\330\371?\331\352\247P"
 492      A74EEF53 
 492      2A01BBD8 
 492      F93FD9EA 
 492      A750
 493 1148 620628A5 		.ascii	"b\006(\245\201 XvjXR\212C`^_XA\2562C\323\246EdETJ\177"
 493      81205876 
 493      6A58528A 
 493      43605E5F 
 493      5841AE32 
 494 1165 66428884 		.ascii	"fB\210\204\203\320\272R\031\036\024\006\005\213\376"
 494      83D0BA52 
 494      191E1406 
 494      058BFE
 495 1174 6DF2F850 		.ascii	"m\362\370P\201\0145_\032\016#S\031>\302S\251\224\373"
 495      810C355F 
 495      1A0E2353 
 495      193EC253 
 495      A994FB
 496 1187 0395D455 		.ascii	"\003\225\324U\213\225>\254\302$xL\007\2634+\223\015"
 496      8B953EAC 
 496      C224784C 
 496      07B3342B 
 496      930D
 497 1199 E61CBEE1 		.ascii	"\346\034\276\3410\276\203\"\251$.#\224\003\021:#dG\224"
 497      30BE8322 
 497      A9242E23 
 497      9403113A 
 497      23644794 
 498 11ad 494AA87C 		.ascii	"IJ\250|\\\011\2701\270\"\300a1\207\336\206N\361\";\301"
 498      5C09B831 
 498      B822C061 
 498      3187DE86 
 498      4EF1223B 
 499 11c2 8822068B 		.ascii	"\210\"\006\213F\231A\331\370\2304y\342\323\243\362^"
 499      469941D9 
 499      F8983479 
 499      E2D3A3F2 
 499      5E
 500 11d3 7E797CDE 		.ascii	"~y|\336\344\227&V\216\204I\247\224:aq)\353E\273\000"
ARM GAS  /tmp/ccGV0H6c.s 			page 40


 500      E4972656 
 500      8E8449A7 
 500      943A6171 
 500      29EB45BB 
 501 11e8 57C92F18 		.ascii	"W\311/\030\011i\224w\322\304\374\002\357\370\227^(\020"
 501      09699477 
 501      D2C4FC02 
 501      EFF8975E 
 501      2810
 502 11fa 2715785E 		.ascii	"'\025x^\230P\220\221\237?\261`$\346\243\274\371\371"
 502      98509091 
 502      9F3FB160 
 502      24E6A3BC 
 502      F9F9
 503 120c 2F1478F2 		.ascii	"/\024x\362\3770\331\363\312\244|\317\270\202\002OA>"
 503      FF30D9F3 
 503      CAA47CCF 
 503      B882024F 
 503      413E
 504 121e 5C4383E7 		.ascii	"\\C\203\347\307O.\360\214\247-'\216+\020\377\310Z=\015"
 504      C74F2EF0 
 504      8CA72D27 
 504      8E2B10FF 
 504      C85A3D0D 
 505 1232 F5A714E4 		.ascii	"\365\247\024\3449\034\2738\373\322i\037\307=\233\236"
 505      391CBB38 
 505      FBD2691F 
 505      C73D9B9E 
 506 1242 23404240 		.ascii	"#@B@\242\332\332\233\265\222\0226\220\362;AV&!!\223"
 506      A2DADA9B 
 506      B5921236 
 506      90F23B41 
 506      56262121 
 507 1257 A1F19441 		.ascii	"\241\361\224A\034\316t\231\225\236vF\022\263C\240\244"
 507      1CCE7499 
 507      959E7646 
 507      12B343A0 
 507      A4
 508 1268 84468C81 		.ascii	"\204F\214\201\254\204\030\301P\005\314b\341\237\362"
 508      AC8418C1 
 508      5005CC62 
 508      E19FF2
 509 1277 22C26D94 		.ascii	"\"\302m\224\320K\257\375\201\000\316\335\201\276za\370"
 509      D04BAFFD 
 509      8100CEDD 
 509      81BE7A61 
 509      F8
 510 1288 6F7F37EA 		.ascii	"o\1777\352\231\301\006\235\300\202\254\011_i\344\263"
 510      99C1069D 
 510      C082AC09 
 510      5F69E4B3 
 511 1298 FF0F350B 		.ascii	"\377\0175\0133\376"
 511      33FE
 512              		.text
 513              		.section	.gnu.lto_.symtab.63e854f24c46fca0,"",%progbits
 514 0000 5F76745F 		.ascii	"_vt_init\000\000\000\000\000\000\000\000\000\000\000"
 514      696E6974 
ARM GAS  /tmp/ccGV0H6c.s 			page 41


 514      00000000 
 514      00000000 
 514      000000
 515 0013 00A80100 		.ascii	"\000\250\001\000\000chVTDoSetI\000\000\000\000\000\000"
 515      00636856 
 515      54446F53 
 515      65744900 
 515      00000000 
 516 0028 00000000 		.ascii	"\000\000\000\000\000\000\254\001\000\000chVTDoReset"
 516      0000AC01 
 516      00006368 
 516      5654446F 
 516      52657365 
 517 003d 49000000 		.ascii	"I\000\000\000\000\000\000\000\000\000\000\000\000\272"
 517      00000000 
 517      00000000 
 517      00BA
 518 004b 01000063 		.ascii	"\001\000\000ch\000\000\002\000\000\000\000\000\000\000"
 518      68000002 
 518      00000000 
 518      000000
 519 005a 0000C801 		.ascii	"\000\000\310\001\000\000stStopAlarm\000\000\002\000"
 519      00007374 
 519      53746F70 
 519      416C6172 
 519      6D000002 
 520 006f 00000000 		.ascii	"\000\000\000\000\000\000\000\000\300\001\000\000stS"
 520      00000000 
 520      C0010000 
 520      737453
 521 007e 6574416C 		.ascii	"etAlarm\000\000\002\000\000\000\000\000\000\000\000"
 521      61726D00 
 521      00020000 
 521      00000000 
 521      0000
 522 0090 00C20100 		.ascii	"\000\302\001\000\000stStartAlarm\000\000\002\000\000"
 522      00737453 
 522      74617274 
 522      416C6172 
 522      6D000002 
 523 00a6 00000000 		.ascii	"\000\000\000\000\000\000\000\306\001\000\000"
 523      000000C6 
 523      010000
 524              		.text
 525              		.section	.gnu.lto_.opts,"",%progbits
 526 0000 272D6D63 		.ascii	"'-mcpu=cortex-m3' '-mno-thumb-interwork' '-mthumb' "
 526      70753D63 
 526      6F727465 
 526      782D6D33 
 526      2720272D 
 527 0033 272D6767 		.ascii	"'-ggdb' '-O2' '-fomit-frame-pointer' '-falign-funct"
 527      64622720 
 527      272D4F32 
 527      2720272D 
 527      666F6D69 
 528 0066 696F6E73 		.ascii	"ions=16' '-ffunction-sections' '-fdata-sections' '-"
 528      3D313627 
ARM GAS  /tmp/ccGV0H6c.s 			page 42


 528      20272D66 
 528      66756E63 
 528      74696F6E 
 529 0099 666E6F2D 		.ascii	"fno-common' '-flto'\000"
 529      636F6D6D 
 529      6F6E2720 
 529      272D666C 
 529      746F2700 
 530              		.text
 531              		.cfi_sections	.debug_frame
 532              		.section	.text._vt_init,"ax",%progbits
 533              		.align	2
 534              		.p2align 4,,15
 535              		.global	_vt_init
 536              		.thumb
 537              		.thumb_func
 538              		.type	_vt_init, %function
 539              	_vt_init:
 540              	.LFB186:
 541              		.file 1 "../../../os/rt/src/chvt.c"
 542              		.loc 1 61 0
 543              		.cfi_startproc
 544              		@ args = 0, pretend = 0, frame = 0
 545              		@ frame_needed = 0, uses_anonymous_args = 0
 546              		@ link register save eliminated.
 547              		.loc 1 63 0
 548 0000 40F20003 		movw	r3, #:lower16:ch
 549 0004 C0F20003 		movt	r3, #:upper16:ch
 550 0008 03F11C02 		add	r2, r3, #28
 551              		.loc 1 65 0
 552 000c 4FF6FF70 		movw	r0, #65535
 553              		.loc 1 69 0
 554 0010 0021     		movs	r1, #0
 555              		.loc 1 65 0
 556 0012 9884     		strh	r0, [r3, #36]	@ movhi
 557              		.loc 1 69 0
 558 0014 D984     		strh	r1, [r3, #38]	@ movhi
 559              		.loc 1 63 0
 560 0016 DA61     		str	r2, [r3, #28]
 561              		.loc 1 64 0
 562 0018 1A62     		str	r2, [r3, #32]
 563 001a 7047     		bx	lr
 564              		.cfi_endproc
 565              	.LFE186:
 566              		.size	_vt_init, .-_vt_init
 567 001c AFF30080 		.section	.text.chVTDoSetI,"ax",%progbits
 568              		.align	2
 569              		.p2align 4,,15
 570              		.global	chVTDoSetI
 571              		.thumb
 572              		.thumb_func
 573              		.type	chVTDoSetI, %function
 574              	chVTDoSetI:
 575              	.LFB187:
 576              		.loc 1 96 0
 577              		.cfi_startproc
 578              		@ args = 0, pretend = 0, frame = 0
ARM GAS  /tmp/ccGV0H6c.s 			page 43


 579              		@ frame_needed = 0, uses_anonymous_args = 0
 580              	.LVL0:
 581 0000 F8B5     		push	{r3, r4, r5, r6, r7, lr}
 582              		.cfi_def_cfa_offset 24
 583              		.cfi_offset 3, -24
 584              		.cfi_offset 4, -20
 585              		.cfi_offset 5, -16
 586              		.cfi_offset 6, -12
 587              		.cfi_offset 7, -8
 588              		.cfi_offset 14, -4
 589              	.LBB35:
 590              		.loc 1 117 0
 591 0002 40F20007 		movw	r7, #:lower16:ch
 592 0006 C0F20007 		movt	r7, #:upper16:ch
 593 000a BC46     		mov	ip, r7
 594 000c 5CF81C4F 		ldr	r4, [ip, #28]!
 595              	.LBB36:
 596              	.LBB37:
 597              	.LBB38:
 598              	.LBB39:
 599              		.file 2 "../../../os/hal/ports/STM32/LLD/TIMv1/hal_st_lld.h"
 600              		.loc 2 141 0
 601 0010 4FF08045 		mov	r5, #1073741824
 602 0014 6D6A     		ldr	r5, [r5, #36]
 603              	.LBE39:
 604              	.LBE38:
 605              	.LBE37:
 606              	.LBE36:
 607              		.loc 1 113 0
 608 0016 0129     		cmp	r1, #1
 609 0018 98BF     		it	ls
 610 001a 0221     		movls	r1, #2
 611              	.LVL1:
 612              		.loc 1 117 0
 613 001c 6445     		cmp	r4, ip
 614              	.LBE35:
 615              		.loc 1 103 0
 616 001e 0361     		str	r3, [r0, #16]
 617              		.loc 1 96 0
 618 0020 0646     		mov	r6, r0
 619              		.loc 1 104 0
 620 0022 C260     		str	r2, [r0, #12]
 621              	.LBB50:
 622              	.LBB43:
 623              	.LBB42:
 624              	.LBB41:
 625              	.LBB40:
 626              		.loc 2 141 0
 627 0024 ABB2     		uxth	r3, r5
 628              	.LVL2:
 629              	.LBE40:
 630              	.LBE41:
 631              	.LBE42:
 632              	.LBE43:
 633              		.loc 1 117 0
 634 0026 27D0     		beq	.L14
 635              	.LVL3:
ARM GAS  /tmp/ccGV0H6c.s 			page 44


 636              		.loc 1 139 0
 637 0028 FA8C     		ldrh	r2, [r7, #38]
 638              	.LVL4:
 639 002a 9B1A     		subs	r3, r3, r2
 640 002c CD18     		adds	r5, r1, r3
 641 002e ADB2     		uxth	r5, r5
 642              	.LVL5:
 643              		.loc 1 141 0
 644 0030 9D42     		cmp	r5, r3
 645              		.loc 1 145 0
 646 0032 2389     		ldrh	r3, [r4, #8]
 647              		.loc 1 141 0
 648 0034 15DB     		blt	.L15
 649              		.loc 1 148 0
 650 0036 9D42     		cmp	r5, r3
 651 0038 04D2     		bcs	.L12
 652 003a 17E0     		b	.L17
 653              	.LVL6:
 654              	.L9:
 655              	.LBE50:
 656              		.loc 1 166 0
 657 003c 2468     		ldr	r4, [r4]
 658              	.LVL7:
 659              		.loc 1 165 0
 660 003e ED1A     		subs	r5, r5, r3
 661              	.LVL8:
 662              		.loc 1 164 0
 663 0040 2389     		ldrh	r3, [r4, #8]
 664              		.loc 1 165 0
 665 0042 ADB2     		uxth	r5, r5
 666              	.L12:
 667              	.LVL9:
 668              		.loc 1 164 0
 669 0044 AB42     		cmp	r3, r5
 670 0046 F9D3     		bcc	.L9
 671              		.loc 1 171 0
 672 0048 6368     		ldr	r3, [r4, #4]
 673              		.loc 1 170 0
 674 004a 3460     		str	r4, [r6]
 675              		.loc 1 171 0
 676 004c 7360     		str	r3, [r6, #4]
 677              		.loc 1 172 0
 678 004e 1E60     		str	r6, [r3]
 679              		.loc 1 173 0
 680 0050 6660     		str	r6, [r4, #4]
 681              		.loc 1 174 0
 682 0052 3581     		strh	r5, [r6, #8]	@ movhi
 683              		.loc 1 178 0
 684 0054 2289     		ldrh	r2, [r4, #8]
 685              		.loc 1 179 0
 686 0056 4FF6FF73 		movw	r3, #65535
 687              		.loc 1 178 0
 688 005a 551B     		subs	r5, r2, r5
 689              	.LVL10:
 690 005c 2581     		strh	r5, [r4, #8]	@ movhi
 691              		.loc 1 179 0
 692 005e BB84     		strh	r3, [r7, #36]	@ movhi
ARM GAS  /tmp/ccGV0H6c.s 			page 45


 693 0060 F8BD     		pop	{r3, r4, r5, r6, r7, pc}
 694              	.LVL11:
 695              	.L15:
 696              	.LBB51:
 697              		.loc 1 146 0
 698 0062 2468     		ldr	r4, [r4]
 699              	.LVL12:
 700              		.loc 1 145 0
 701 0064 ED1A     		subs	r5, r5, r3
 702              	.LVL13:
 703 0066 ADB2     		uxth	r5, r5
 704              	.LVL14:
 705 0068 2389     		ldrh	r3, [r4, #8]
 706 006a EBE7     		b	.L12
 707              	.L17:
 708              	.LVL15:
 709              		.loc 1 151 0
 710 006c A818     		adds	r0, r5, r2
 711              	.LVL16:
 712              	.LBB44:
 713              	.LBB45:
 714              		.file 3 "../../../os/common/ports/ARMCMx/chcore_timer.h"
 715              		.loc 3 95 0
 716 006e 80B2     		uxth	r0, r0
 717 0070 FFF7FEFF 		bl	stSetAlarm
 718              	.LVL17:
 719 0074 2389     		ldrh	r3, [r4, #8]
 720 0076 E5E7     		b	.L12
 721              	.LVL18:
 722              	.L14:
 723              	.LBE45:
 724              	.LBE44:
 725              		.loc 1 129 0
 726 0078 C818     		adds	r0, r1, r3
 727              	.LVL19:
 728              		.loc 1 121 0
 729 007a FB84     		strh	r3, [r7, #38]	@ movhi
 730              		.loc 1 122 0
 731 007c FE61     		str	r6, [r7, #28]
 732              		.loc 1 123 0
 733 007e 3E62     		str	r6, [r7, #32]
 734              	.LBB46:
 735              	.LBB47:
 736              		.loc 3 73 0
 737 0080 80B2     		uxth	r0, r0
 738              	.LBE47:
 739              	.LBE46:
 740              		.loc 1 124 0
 741 0082 3460     		str	r4, [r6]
 742              		.loc 1 125 0
 743 0084 7460     		str	r4, [r6, #4]
 744              		.loc 1 126 0
 745 0086 3181     		strh	r1, [r6, #8]	@ movhi
 746              	.LVL20:
 747              	.LBE51:
 748              		.loc 1 180 0
 749 0088 BDE8F840 		pop	{r3, r4, r5, r6, r7, lr}
ARM GAS  /tmp/ccGV0H6c.s 			page 46


 750              	.LVL21:
 751              	.LBB52:
 752              	.LBB49:
 753              	.LBB48:
 754              		.loc 3 73 0
 755 008c FFF7FEBF 		b	stStartAlarm
 756              	.LVL22:
 757              	.LBE48:
 758              	.LBE49:
 759              	.LBE52:
 760              		.cfi_endproc
 761              	.LFE187:
 762              		.size	chVTDoSetI, .-chVTDoSetI
 763              		.section	.text.chVTDoResetI,"ax",%progbits
 764              		.align	2
 765              		.p2align 4,,15
 766              		.global	chVTDoResetI
 767              		.thumb
 768              		.thumb_func
 769              		.type	chVTDoResetI, %function
 770              	chVTDoResetI:
 771              	.LFB188:
 772              		.loc 1 190 0
 773              		.cfi_startproc
 774              		@ args = 0, pretend = 0, frame = 0
 775              		@ frame_needed = 0, uses_anonymous_args = 0
 776              		@ link register save eliminated.
 777              	.LVL23:
 778              		.loc 1 214 0
 779 0000 40F20003 		movw	r3, #:lower16:ch
 780 0004 C0F20003 		movt	r3, #:upper16:ch
 781 0008 DA69     		ldr	r2, [r3, #28]
 782              		.loc 1 190 0
 783 000a 70B4     		push	{r4, r5, r6}
 784              		.cfi_def_cfa_offset 12
 785              		.cfi_offset 4, -12
 786              		.cfi_offset 5, -8
 787              		.cfi_offset 6, -4
 788              		.loc 1 214 0
 789 000c 8242     		cmp	r2, r0
 790 000e 0FD0     		beq	.L19
 791              		.loc 1 216 0
 792 0010 0268     		ldr	r2, [r0]
 793 0012 4168     		ldr	r1, [r0, #4]
 794              		.loc 1 221 0
 795 0014 1C33     		adds	r3, r3, #28
 796              		.loc 1 216 0
 797 0016 0A60     		str	r2, [r1]
 798              		.loc 1 217 0
 799 0018 0268     		ldr	r2, [r0]
 800              		.loc 1 218 0
 801 001a 0024     		movs	r4, #0
 802              		.loc 1 221 0
 803 001c 9A42     		cmp	r2, r3
 804              		.loc 1 217 0
 805 001e 5160     		str	r1, [r2, #4]
 806              		.loc 1 218 0
ARM GAS  /tmp/ccGV0H6c.s 			page 47


 807 0020 C460     		str	r4, [r0, #12]
 808              		.loc 1 221 0
 809 0022 03D0     		beq	.L18
 810              		.loc 1 222 0
 811 0024 0189     		ldrh	r1, [r0, #8]
 812 0026 1389     		ldrh	r3, [r2, #8]
 813 0028 0B44     		add	r3, r3, r1
 814 002a 1381     		strh	r3, [r2, #8]	@ movhi
 815              	.LVL24:
 816              	.L18:
 817              		.loc 1 268 0
 818 002c 70BC     		pop	{r4, r5, r6}
 819 002e 7047     		bx	lr
 820              	.LVL25:
 821              	.L19:
 822              	.LBB63:
 823              	.LBB64:
 824              		.loc 1 228 0
 825 0030 1168     		ldr	r1, [r2]
 826 0032 1846     		mov	r0, r3
 827              	.LVL26:
 828 0034 40F81C1F 		str	r1, [r0, #28]!
 829              		.loc 1 230 0
 830 0038 0024     		movs	r4, #0
 831              		.loc 1 233 0
 832 003a 8142     		cmp	r1, r0
 833              		.loc 1 229 0
 834 003c 4860     		str	r0, [r1, #4]
 835              		.loc 1 230 0
 836 003e D460     		str	r4, [r2, #12]
 837              		.loc 1 233 0
 838 0040 17D0     		beq	.L26
 839              	.LBB65:
 840              	.LBB66:
 841              	.LBB67:
 842              	.LBB68:
 843              		.loc 2 141 0
 844 0042 4FF08040 		mov	r0, #1073741824
 845 0046 466A     		ldr	r6, [r0, #36]
 846              	.LBE68:
 847              	.LBE67:
 848              	.LBE66:
 849              	.LBE65:
 850              		.loc 1 240 0
 851 0048 1589     		ldrh	r5, [r2, #8]
 852              		.loc 1 249 0
 853 004a D88C     		ldrh	r0, [r3, #38]
 854              		.loc 1 240 0
 855 004c 0C89     		ldrh	r4, [r1, #8]
 856              	.LBB72:
 857              	.LBB71:
 858              	.LBB70:
 859              	.LBB69:
 860              		.loc 2 141 0
 861 004e B2B2     		uxth	r2, r6
 862              	.LVL27:
 863              	.LBE69:
ARM GAS  /tmp/ccGV0H6c.s 			page 48


 864              	.LBE70:
 865              	.LBE71:
 866              	.LBE72:
 867              		.loc 1 240 0
 868 0050 2B19     		adds	r3, r5, r4
 869              		.loc 1 249 0
 870 0052 101A     		subs	r0, r2, r0
 871              		.loc 1 240 0
 872 0054 9BB2     		uxth	r3, r3
 873              		.loc 1 249 0
 874 0056 80B2     		uxth	r0, r0
 875              	.LVL28:
 876              		.loc 1 253 0
 877 0058 8342     		cmp	r3, r0
 878              		.loc 1 240 0
 879 005a 0B81     		strh	r3, [r1, #8]	@ movhi
 880              		.loc 1 253 0
 881 005c E6D9     		bls	.L18
 882              	.LBE64:
 883              	.LBE63:
 884              		.loc 1 268 0
 885 005e 70BC     		pop	{r4, r5, r6}
 886              	.LBB79:
 887              	.LBB77:
 888              		.loc 1 258 0
 889 0060 1B1A     		subs	r3, r3, r0
 890 0062 9BB2     		uxth	r3, r3
 891              	.LVL29:
 892              		.loc 1 263 0
 893 0064 012B     		cmp	r3, #1
 894 0066 98BF     		it	ls
 895 0068 0223     		movls	r3, #2
 896              	.LVL30:
 897              		.loc 1 266 0
 898 006a 9818     		adds	r0, r3, r2
 899              	.LVL31:
 900              	.LBB73:
 901              	.LBB74:
 902              		.loc 3 95 0
 903 006c 80B2     		uxth	r0, r0
 904 006e FFF7FEBF 		b	stSetAlarm
 905              	.LVL32:
 906              	.L26:
 907              	.LBE74:
 908              	.LBE73:
 909              	.LBE77:
 910              	.LBE79:
 911              		.loc 1 268 0
 912 0072 70BC     		pop	{r4, r5, r6}
 913              	.LBB80:
 914              	.LBB78:
 915              	.LBB75:
 916              	.LBB76:
 917              		.loc 3 83 0
 918 0074 FFF7FEBF 		b	stStopAlarm
 919              	.LVL33:
 920              	.LBE76:
ARM GAS  /tmp/ccGV0H6c.s 			page 49


 921              	.LBE75:
 922              	.LBE78:
 923              	.LBE80:
 924              		.cfi_endproc
 925              	.LFE188:
 926              		.size	chVTDoResetI, .-chVTDoResetI
 927 0078 AFF30080 		.text
 927      AFF30080 
 928              	.Letext0:
 929              		.file 4 "/home/alex/MentorGraphics/Sourcery_CodeBench_Lite_for_ARM_EABI/arm-none-eabi/include/stdi
 930              		.file 5 "../../../os/common/ports/ARMCMx/compilers/GCC/chtypes.h"
 931              		.file 6 "../../../os/rt/include/chsystypes.h"
 932              		.file 7 "../../../os/rt/include/chschd.h"
 933              		.file 8 "../../../os/common/ports/ARMCMx/chcore.h"
 934              		.file 9 "../../../os/common/ports/ARMCMx/chcore_v7m.h"
 935              		.file 10 "../../../os/hal/ports/STM32/LLD/TIMv1/stm32_tim.h"
 936              		.file 11 "../../../os/rt/include/chtm.h"
 937              		.file 12 "../../../os/rt/include/chsem.h"
 938              		.file 13 "../../../os/rt/include/chmtx.h"
 939              		.file 14 "../../../os/rt/include/chvt.h"
 940              		.file 15 "../../../os/hal/include/hal_st.h"
 941              		.file 16 "../../../os/common/ext/CMSIS/include/core_cm3.h"
 942              		.section	.debug_info,"",%progbits
 943              	.Ldebug_info0:
 944 0000 070A0000 		.4byte	0xa07
 945 0004 0400     		.2byte	0x4
 946 0006 00000000 		.4byte	.Ldebug_abbrev0
 947 000a 04       		.byte	0x4
 948 000b 01       		.uleb128 0x1
 949 000c 43020000 		.4byte	.LASF111
 950 0010 01       		.byte	0x1
 951 0011 20030000 		.4byte	.LASF112
 952 0015 5A050000 		.4byte	.LASF113
 953 0019 90000000 		.4byte	.Ldebug_ranges0+0x90
 954 001d 00000000 		.4byte	0
 955 0021 00000000 		.4byte	.Ldebug_line0
 956 0025 02       		.uleb128 0x2
 957 0026 04       		.byte	0x4
 958 0027 05       		.byte	0x5
 959 0028 696E7400 		.ascii	"int\000"
 960 002c 03       		.uleb128 0x3
 961 002d 04       		.byte	0x4
 962 002e 07       		.byte	0x7
 963 002f 63000000 		.4byte	.LASF0
 964 0033 03       		.uleb128 0x3
 965 0034 01       		.byte	0x1
 966 0035 06       		.byte	0x6
 967 0036 22050000 		.4byte	.LASF1
 968 003a 04       		.uleb128 0x4
 969 003b 18030000 		.4byte	.LASF4
 970 003f 04       		.byte	0x4
 971 0040 2A       		.byte	0x2a
 972 0041 45000000 		.4byte	0x45
 973 0045 03       		.uleb128 0x3
 974 0046 01       		.byte	0x1
 975 0047 08       		.byte	0x8
 976 0048 D1040000 		.4byte	.LASF2
ARM GAS  /tmp/ccGV0H6c.s 			page 50


 977 004c 03       		.uleb128 0x3
 978 004d 02       		.byte	0x2
 979 004e 05       		.byte	0x5
 980 004f FF030000 		.4byte	.LASF3
 981 0053 04       		.uleb128 0x4
 982 0054 E9030000 		.4byte	.LASF5
 983 0058 04       		.byte	0x4
 984 0059 36       		.byte	0x36
 985 005a 5E000000 		.4byte	0x5e
 986 005e 03       		.uleb128 0x3
 987 005f 02       		.byte	0x2
 988 0060 07       		.byte	0x7
 989 0061 34050000 		.4byte	.LASF6
 990 0065 04       		.uleb128 0x4
 991 0066 BB040000 		.4byte	.LASF7
 992 006a 04       		.byte	0x4
 993 006b 4F       		.byte	0x4f
 994 006c 70000000 		.4byte	0x70
 995 0070 03       		.uleb128 0x3
 996 0071 04       		.byte	0x4
 997 0072 05       		.byte	0x5
 998 0073 09040000 		.4byte	.LASF8
 999 0077 04       		.uleb128 0x4
 1000 0078 05010000 		.4byte	.LASF9
 1001 007c 04       		.byte	0x4
 1002 007d 50       		.byte	0x50
 1003 007e 82000000 		.4byte	0x82
 1004 0082 03       		.uleb128 0x3
 1005 0083 04       		.byte	0x4
 1006 0084 07       		.byte	0x7
 1007 0085 8B040000 		.4byte	.LASF10
 1008 0089 03       		.uleb128 0x3
 1009 008a 08       		.byte	0x8
 1010 008b 05       		.byte	0x5
 1011 008c 78030000 		.4byte	.LASF11
 1012 0090 04       		.uleb128 0x4
 1013 0091 50040000 		.4byte	.LASF12
 1014 0095 04       		.byte	0x4
 1015 0096 78       		.byte	0x78
 1016 0097 9B000000 		.4byte	0x9b
 1017 009b 03       		.uleb128 0x3
 1018 009c 08       		.byte	0x8
 1019 009d 07       		.byte	0x7
 1020 009e 77010000 		.4byte	.LASF13
 1021 00a2 04       		.uleb128 0x4
 1022 00a3 F2030000 		.4byte	.LASF14
 1023 00a7 05       		.byte	0x5
 1024 00a8 39       		.byte	0x39
 1025 00a9 77000000 		.4byte	0x77
 1026 00ad 04       		.uleb128 0x4
 1027 00ae C1030000 		.4byte	.LASF15
 1028 00b2 05       		.byte	0x5
 1029 00b3 3C       		.byte	0x3c
 1030 00b4 3A000000 		.4byte	0x3a
 1031 00b8 04       		.uleb128 0x4
 1032 00b9 0F030000 		.4byte	.LASF16
 1033 00bd 05       		.byte	0x5
ARM GAS  /tmp/ccGV0H6c.s 			page 51


 1034 00be 3D       		.byte	0x3d
 1035 00bf 3A000000 		.4byte	0x3a
 1036 00c3 04       		.uleb128 0x4
 1037 00c4 6D040000 		.4byte	.LASF17
 1038 00c8 05       		.byte	0x5
 1039 00c9 3E       		.byte	0x3e
 1040 00ca 3A000000 		.4byte	0x3a
 1041 00ce 04       		.uleb128 0x4
 1042 00cf 4C010000 		.4byte	.LASF18
 1043 00d3 05       		.byte	0x5
 1044 00d4 40       		.byte	0x40
 1045 00d5 77000000 		.4byte	0x77
 1046 00d9 04       		.uleb128 0x4
 1047 00da 86030000 		.4byte	.LASF19
 1048 00de 05       		.byte	0x5
 1049 00df 41       		.byte	0x41
 1050 00e0 65000000 		.4byte	0x65
 1051 00e4 04       		.uleb128 0x4
 1052 00e5 21010000 		.4byte	.LASF20
 1053 00e9 05       		.byte	0x5
 1054 00ea 43       		.byte	0x43
 1055 00eb 77000000 		.4byte	0x77
 1056 00ef 04       		.uleb128 0x4
 1057 00f0 A1010000 		.4byte	.LASF21
 1058 00f4 05       		.byte	0x5
 1059 00f5 45       		.byte	0x45
 1060 00f6 65000000 		.4byte	0x65
 1061 00fa 04       		.uleb128 0x4
 1062 00fb 40000000 		.4byte	.LASF22
 1063 00ff 06       		.byte	0x6
 1064 0100 35       		.byte	0x35
 1065 0101 53000000 		.4byte	0x53
 1066 0105 04       		.uleb128 0x4
 1067 0106 F8010000 		.4byte	.LASF23
 1068 010a 06       		.byte	0x6
 1069 010b 3F       		.byte	0x3f
 1070 010c 10010000 		.4byte	0x110
 1071 0110 05       		.uleb128 0x5
 1072 0111 48030000 		.4byte	.LASF41
 1073 0115 44       		.byte	0x44
 1074 0116 07       		.byte	0x7
 1075 0117 9A       		.byte	0x9a
 1076 0118 EE010000 		.4byte	0x1ee
 1077 011c 06       		.uleb128 0x6
 1078 011d B5040000 		.4byte	.LASF24
 1079 0121 07       		.byte	0x7
 1080 0122 9B       		.byte	0x9b
 1081 0123 23020000 		.4byte	0x223
 1082 0127 00       		.byte	0
 1083 0128 06       		.uleb128 0x6
 1084 0129 E6020000 		.4byte	.LASF25
 1085 012d 07       		.byte	0x7
 1086 012e 9C       		.byte	0x9c
 1087 012f CE000000 		.4byte	0xce
 1088 0133 08       		.byte	0x8
 1089 0134 07       		.uleb128 0x7
 1090 0135 63747800 		.ascii	"ctx\000"
ARM GAS  /tmp/ccGV0H6c.s 			page 52


 1091 0139 07       		.byte	0x7
 1092 013a 9D       		.byte	0x9d
 1093 013b 40040000 		.4byte	0x440
 1094 013f 0C       		.byte	0xc
 1095 0140 06       		.uleb128 0x6
 1096 0141 CB040000 		.4byte	.LASF26
 1097 0145 07       		.byte	0x7
 1098 0146 9F       		.byte	0x9f
 1099 0147 F9010000 		.4byte	0x1f9
 1100 014b 10       		.byte	0x10
 1101 014c 06       		.uleb128 0x6
 1102 014d FD040000 		.4byte	.LASF27
 1103 0151 07       		.byte	0x7
 1104 0152 A0       		.byte	0xa0
 1105 0153 F9010000 		.4byte	0x1f9
 1106 0157 14       		.byte	0x14
 1107 0158 06       		.uleb128 0x6
 1108 0159 5F040000 		.4byte	.LASF28
 1109 015d 07       		.byte	0x7
 1110 015e A7       		.byte	0xa7
 1111 015f E7060000 		.4byte	0x6e7
 1112 0163 18       		.byte	0x18
 1113 0164 06       		.uleb128 0x6
 1114 0165 08030000 		.4byte	.LASF29
 1115 0169 07       		.byte	0x7
 1116 016a B0       		.byte	0xb0
 1117 016b F9060000 		.4byte	0x6f9
 1118 016f 1C       		.byte	0x1c
 1119 0170 06       		.uleb128 0x6
 1120 0171 03050000 		.4byte	.LASF30
 1121 0175 07       		.byte	0x7
 1122 0176 B5       		.byte	0xb5
 1123 0177 B8000000 		.4byte	0xb8
 1124 017b 20       		.byte	0x20
 1125 017c 06       		.uleb128 0x6
 1126 017d 3A000000 		.4byte	.LASF31
 1127 0181 07       		.byte	0x7
 1128 0182 B9       		.byte	0xb9
 1129 0183 AD000000 		.4byte	0xad
 1130 0187 21       		.byte	0x21
 1131 0188 06       		.uleb128 0x6
 1132 0189 97000000 		.4byte	.LASF32
 1133 018d 07       		.byte	0x7
 1134 018e BE       		.byte	0xbe
 1135 018f C3000000 		.4byte	0xc3
 1136 0193 22       		.byte	0x22
 1137 0194 08       		.uleb128 0x8
 1138 0195 7500     		.ascii	"u\000"
 1139 0197 07       		.byte	0x7
 1140 0198 0F01     		.2byte	0x10f
 1141 019a 1C060000 		.4byte	0x61c
 1142 019e 24       		.byte	0x24
 1143 019f 09       		.uleb128 0x9
 1144 01a0 DF040000 		.4byte	.LASF33
 1145 01a4 07       		.byte	0x7
 1146 01a5 1401     		.2byte	0x114
 1147 01a7 FF010000 		.4byte	0x1ff
ARM GAS  /tmp/ccGV0H6c.s 			page 53


 1148 01ab 28       		.byte	0x28
 1149 01ac 09       		.uleb128 0x9
 1150 01ad 3A030000 		.4byte	.LASF34
 1151 01b1 07       		.byte	0x7
 1152 01b2 1A01     		.2byte	0x11a
 1153 01b4 23020000 		.4byte	0x223
 1154 01b8 2C       		.byte	0x2c
 1155 01b9 09       		.uleb128 0x9
 1156 01ba 5A000000 		.4byte	.LASF35
 1157 01be 07       		.byte	0x7
 1158 01bf 2001     		.2byte	0x120
 1159 01c1 E4000000 		.4byte	0xe4
 1160 01c5 34       		.byte	0x34
 1161 01c6 09       		.uleb128 0x9
 1162 01c7 D9010000 		.4byte	.LASF36
 1163 01cb 07       		.byte	0x7
 1164 01cc 2701     		.2byte	0x127
 1165 01ce E1060000 		.4byte	0x6e1
 1166 01d2 38       		.byte	0x38
 1167 01d3 09       		.uleb128 0x9
 1168 01d4 4A000000 		.4byte	.LASF37
 1169 01d8 07       		.byte	0x7
 1170 01d9 2B01     		.2byte	0x12b
 1171 01db CE000000 		.4byte	0xce
 1172 01df 3C       		.byte	0x3c
 1173 01e0 09       		.uleb128 0x9
 1174 01e1 B3050000 		.4byte	.LASF38
 1175 01e5 07       		.byte	0x7
 1176 01e6 3201     		.2byte	0x132
 1177 01e8 D6020000 		.4byte	0x2d6
 1178 01ec 40       		.byte	0x40
 1179 01ed 00       		.byte	0
 1180 01ee 04       		.uleb128 0x4
 1181 01ef F5020000 		.4byte	.LASF39
 1182 01f3 06       		.byte	0x6
 1183 01f4 44       		.byte	0x44
 1184 01f5 F9010000 		.4byte	0x1f9
 1185 01f9 0A       		.uleb128 0xa
 1186 01fa 04       		.byte	0x4
 1187 01fb 05010000 		.4byte	0x105
 1188 01ff 04       		.uleb128 0x4
 1189 0200 88000000 		.4byte	.LASF40
 1190 0204 06       		.byte	0x6
 1191 0205 49       		.byte	0x49
 1192 0206 0A020000 		.4byte	0x20a
 1193 020a 05       		.uleb128 0x5
 1194 020b 00000000 		.4byte	.LASF42
 1195 020f 04       		.byte	0x4
 1196 0210 07       		.byte	0x7
 1197 0211 88       		.byte	0x88
 1198 0212 23020000 		.4byte	0x223
 1199 0216 06       		.uleb128 0x6
 1200 0217 70000000 		.4byte	.LASF43
 1201 021b 07       		.byte	0x7
 1202 021c 89       		.byte	0x89
 1203 021d F9010000 		.4byte	0x1f9
 1204 0221 00       		.byte	0
ARM GAS  /tmp/ccGV0H6c.s 			page 54


 1205 0222 00       		.byte	0
 1206 0223 04       		.uleb128 0x4
 1207 0224 C9010000 		.4byte	.LASF44
 1208 0228 06       		.byte	0x6
 1209 0229 50       		.byte	0x50
 1210 022a 2E020000 		.4byte	0x22e
 1211 022e 05       		.uleb128 0x5
 1212 022f D6000000 		.4byte	.LASF45
 1213 0233 08       		.byte	0x8
 1214 0234 07       		.byte	0x7
 1215 0235 8F       		.byte	0x8f
 1216 0236 53020000 		.4byte	0x253
 1217 023a 06       		.uleb128 0x6
 1218 023b 70000000 		.4byte	.LASF43
 1219 023f 07       		.byte	0x7
 1220 0240 90       		.byte	0x90
 1221 0241 F9010000 		.4byte	0x1f9
 1222 0245 00       		.byte	0
 1223 0246 06       		.uleb128 0x6
 1224 0247 D1000000 		.4byte	.LASF46
 1225 024b 07       		.byte	0x7
 1226 024c 91       		.byte	0x91
 1227 024d F9010000 		.4byte	0x1f9
 1228 0251 04       		.byte	0x4
 1229 0252 00       		.byte	0
 1230 0253 04       		.uleb128 0x4
 1231 0254 A8040000 		.4byte	.LASF47
 1232 0258 06       		.byte	0x6
 1233 0259 57       		.byte	0x57
 1234 025a 5E020000 		.4byte	0x25e
 1235 025e 0B       		.uleb128 0xb
 1236 025f B7000000 		.4byte	.LASF48
 1237 0263 1C       		.byte	0x1c
 1238 0264 07       		.byte	0x7
 1239 0265 6A01     		.2byte	0x16a
 1240 0267 BA020000 		.4byte	0x2ba
 1241 026b 09       		.uleb128 0x9
 1242 026c B5040000 		.4byte	.LASF24
 1243 0270 07       		.byte	0x7
 1244 0271 6B01     		.2byte	0x16b
 1245 0273 23020000 		.4byte	0x223
 1246 0277 00       		.byte	0
 1247 0278 09       		.uleb128 0x9
 1248 0279 E6020000 		.4byte	.LASF25
 1249 027d 07       		.byte	0x7
 1250 027e 6C01     		.2byte	0x16c
 1251 0280 CE000000 		.4byte	0xce
 1252 0284 08       		.byte	0x8
 1253 0285 08       		.uleb128 0x8
 1254 0286 63747800 		.ascii	"ctx\000"
 1255 028a 07       		.byte	0x7
 1256 028b 6E01     		.2byte	0x16e
 1257 028d 40040000 		.4byte	0x440
 1258 0291 0C       		.byte	0xc
 1259 0292 09       		.uleb128 0x9
 1260 0293 CB040000 		.4byte	.LASF26
 1261 0297 07       		.byte	0x7
ARM GAS  /tmp/ccGV0H6c.s 			page 55


 1262 0298 7101     		.2byte	0x171
 1263 029a F9010000 		.4byte	0x1f9
 1264 029e 10       		.byte	0x10
 1265 029f 09       		.uleb128 0x9
 1266 02a0 FD040000 		.4byte	.LASF27
 1267 02a4 07       		.byte	0x7
 1268 02a5 7201     		.2byte	0x172
 1269 02a7 F9010000 		.4byte	0x1f9
 1270 02ab 14       		.byte	0x14
 1271 02ac 09       		.uleb128 0x9
 1272 02ad 52050000 		.4byte	.LASF49
 1273 02b1 07       		.byte	0x7
 1274 02b2 7501     		.2byte	0x175
 1275 02b4 F9010000 		.4byte	0x1f9
 1276 02b8 18       		.byte	0x18
 1277 02b9 00       		.byte	0
 1278 02ba 04       		.uleb128 0x4
 1279 02bb EC000000 		.4byte	.LASF50
 1280 02bf 06       		.byte	0x6
 1281 02c0 5C       		.byte	0x5c
 1282 02c1 C5020000 		.4byte	0x2c5
 1283 02c5 0A       		.uleb128 0xa
 1284 02c6 04       		.byte	0x4
 1285 02c7 CB020000 		.4byte	0x2cb
 1286 02cb 0C       		.uleb128 0xc
 1287 02cc D6020000 		.4byte	0x2d6
 1288 02d0 0D       		.uleb128 0xd
 1289 02d1 D6020000 		.4byte	0x2d6
 1290 02d5 00       		.byte	0
 1291 02d6 0E       		.uleb128 0xe
 1292 02d7 04       		.byte	0x4
 1293 02d8 04       		.uleb128 0x4
 1294 02d9 99030000 		.4byte	.LASF51
 1295 02dd 06       		.byte	0x6
 1296 02de 61       		.byte	0x61
 1297 02df E3020000 		.4byte	0x2e3
 1298 02e3 0B       		.uleb128 0xb
 1299 02e4 54010000 		.4byte	.LASF52
 1300 02e8 14       		.byte	0x14
 1301 02e9 07       		.byte	0x7
 1302 02ea 4501     		.2byte	0x145
 1303 02ec 32030000 		.4byte	0x332
 1304 02f0 09       		.uleb128 0x9
 1305 02f1 70000000 		.4byte	.LASF43
 1306 02f5 07       		.byte	0x7
 1307 02f6 4601     		.2byte	0x146
 1308 02f8 FF060000 		.4byte	0x6ff
 1309 02fc 00       		.byte	0
 1310 02fd 09       		.uleb128 0x9
 1311 02fe D1000000 		.4byte	.LASF46
 1312 0302 07       		.byte	0x7
 1313 0303 4701     		.2byte	0x147
 1314 0305 FF060000 		.4byte	0x6ff
 1315 0309 04       		.byte	0x4
 1316 030a 09       		.uleb128 0x9
 1317 030b 2E050000 		.4byte	.LASF53
 1318 030f 07       		.byte	0x7
ARM GAS  /tmp/ccGV0H6c.s 			page 56


 1319 0310 4801     		.2byte	0x148
 1320 0312 FA000000 		.4byte	0xfa
 1321 0316 08       		.byte	0x8
 1322 0317 09       		.uleb128 0x9
 1323 0318 C5000000 		.4byte	.LASF54
 1324 031c 07       		.byte	0x7
 1325 031d 4901     		.2byte	0x149
 1326 031f BA020000 		.4byte	0x2ba
 1327 0323 0C       		.byte	0xc
 1328 0324 08       		.uleb128 0x8
 1329 0325 70617200 		.ascii	"par\000"
 1330 0329 07       		.byte	0x7
 1331 032a 4B01     		.2byte	0x14b
 1332 032c D6020000 		.4byte	0x2d6
 1333 0330 10       		.byte	0x10
 1334 0331 00       		.byte	0
 1335 0332 04       		.uleb128 0x4
 1336 0333 E7040000 		.4byte	.LASF55
 1337 0337 06       		.byte	0x6
 1338 0338 66       		.byte	0x66
 1339 0339 3D030000 		.4byte	0x33d
 1340 033d 0B       		.uleb128 0xb
 1341 033e E1010000 		.4byte	.LASF56
 1342 0342 0C       		.byte	0xc
 1343 0343 07       		.byte	0x7
 1344 0344 5501     		.2byte	0x155
 1345 0346 7F030000 		.4byte	0x37f
 1346 034a 09       		.uleb128 0x9
 1347 034b 70000000 		.4byte	.LASF43
 1348 034f 07       		.byte	0x7
 1349 0350 5601     		.2byte	0x156
 1350 0352 FF060000 		.4byte	0x6ff
 1351 0356 00       		.byte	0
 1352 0357 09       		.uleb128 0x9
 1353 0358 D1000000 		.4byte	.LASF46
 1354 035c 07       		.byte	0x7
 1355 035d 5801     		.2byte	0x158
 1356 035f FF060000 		.4byte	0x6ff
 1357 0363 04       		.byte	0x4
 1358 0364 09       		.uleb128 0x9
 1359 0365 2E050000 		.4byte	.LASF53
 1360 0369 07       		.byte	0x7
 1361 036a 5A01     		.2byte	0x15a
 1362 036c FA000000 		.4byte	0xfa
 1363 0370 08       		.byte	0x8
 1364 0371 09       		.uleb128 0x9
 1365 0372 47040000 		.4byte	.LASF57
 1366 0376 07       		.byte	0x7
 1367 0377 6201     		.2byte	0x162
 1368 0379 FA000000 		.4byte	0xfa
 1369 037d 0A       		.byte	0xa
 1370 037e 00       		.byte	0
 1371 037f 04       		.uleb128 0x4
 1372 0380 69030000 		.4byte	.LASF58
 1373 0384 06       		.byte	0x6
 1374 0385 6B       		.byte	0x6b
 1375 0386 8A030000 		.4byte	0x38a
ARM GAS  /tmp/ccGV0H6c.s 			page 57


 1376 038a 0B       		.uleb128 0xb
 1377 038b F5000000 		.4byte	.LASF59
 1378 038f 04       		.byte	0x4
 1379 0390 07       		.byte	0x7
 1380 0391 7C01     		.2byte	0x17c
 1381 0393 A5030000 		.4byte	0x3a5
 1382 0397 09       		.uleb128 0x9
 1383 0398 B7030000 		.4byte	.LASF60
 1384 039c 07       		.byte	0x7
 1385 039d 8401     		.2byte	0x184
 1386 039f 05070000 		.4byte	0x705
 1387 03a3 00       		.byte	0
 1388 03a4 00       		.byte	0
 1389 03a5 04       		.uleb128 0x4
 1390 03a6 09050000 		.4byte	.LASF61
 1391 03aa 06       		.byte	0x6
 1392 03ab 70       		.byte	0x70
 1393 03ac B0030000 		.4byte	0x3b0
 1394 03b0 0B       		.uleb128 0xb
 1395 03b1 31040000 		.4byte	.LASF62
 1396 03b5 74       		.byte	0x74
 1397 03b6 07       		.byte	0x7
 1398 03b7 9C01     		.2byte	0x19c
 1399 03b9 FE030000 		.4byte	0x3fe
 1400 03bd 09       		.uleb128 0x9
 1401 03be 59040000 		.4byte	.LASF63
 1402 03c2 07       		.byte	0x7
 1403 03c3 A001     		.2byte	0x1a0
 1404 03c5 53020000 		.4byte	0x253
 1405 03c9 00       		.byte	0
 1406 03ca 09       		.uleb128 0x9
 1407 03cb A3000000 		.4byte	.LASF64
 1408 03cf 07       		.byte	0x7
 1409 03d0 A401     		.2byte	0x1a4
 1410 03d2 32030000 		.4byte	0x332
 1411 03d6 1C       		.byte	0x1c
 1412 03d7 08       		.uleb128 0x8
 1413 03d8 64626700 		.ascii	"dbg\000"
 1414 03dc 07       		.byte	0x7
 1415 03dd A801     		.2byte	0x1a8
 1416 03df 7F030000 		.4byte	0x37f
 1417 03e3 28       		.byte	0x28
 1418 03e4 09       		.uleb128 0x9
 1419 03e5 C9030000 		.4byte	.LASF65
 1420 03e9 07       		.byte	0x7
 1421 03ea AC01     		.2byte	0x1ac
 1422 03ec 05010000 		.4byte	0x105
 1423 03f0 2C       		.byte	0x2c
 1424 03f1 08       		.uleb128 0x8
 1425 03f2 746D00   		.ascii	"tm\000"
 1426 03f5 07       		.byte	0x7
 1427 03f6 B101     		.2byte	0x1b1
 1428 03f8 11060000 		.4byte	0x611
 1429 03fc 70       		.byte	0x70
 1430 03fd 00       		.byte	0
 1431 03fe 03       		.uleb128 0x3
 1432 03ff 04       		.byte	0x4
ARM GAS  /tmp/ccGV0H6c.s 			page 58


 1433 0400 07       		.byte	0x7
 1434 0401 64040000 		.4byte	.LASF66
 1435 0405 0F       		.uleb128 0xf
 1436 0406 77000000 		.4byte	0x77
 1437 040a 10       		.uleb128 0x10
 1438 040b 77000000 		.4byte	0x77
 1439 040f 1A040000 		.4byte	0x41a
 1440 0413 11       		.uleb128 0x11
 1441 0414 FE030000 		.4byte	0x3fe
 1442 0418 01       		.byte	0x1
 1443 0419 00       		.byte	0
 1444 041a 10       		.uleb128 0x10
 1445 041b 77000000 		.4byte	0x77
 1446 041f 2A040000 		.4byte	0x42a
 1447 0423 11       		.uleb128 0x11
 1448 0424 FE030000 		.4byte	0x3fe
 1449 0428 03       		.byte	0x3
 1450 0429 00       		.byte	0
 1451 042a 04       		.uleb128 0x4
 1452 042b 28000000 		.4byte	.LASF67
 1453 042f 08       		.byte	0x8
 1454 0430 65       		.byte	0x65
 1455 0431 D6020000 		.4byte	0x2d6
 1456 0435 04       		.uleb128 0x4
 1457 0436 47050000 		.4byte	.LASF68
 1458 043a 08       		.byte	0x8
 1459 043b 6D       		.byte	0x6d
 1460 043c 90000000 		.4byte	0x90
 1461 0440 05       		.uleb128 0x5
 1462 0441 AA000000 		.4byte	.LASF69
 1463 0445 04       		.byte	0x4
 1464 0446 08       		.byte	0x8
 1465 0447 89       		.byte	0x89
 1466 0448 58040000 		.4byte	0x458
 1467 044c 07       		.uleb128 0x7
 1468 044d 737000   		.ascii	"sp\000"
 1469 0450 08       		.byte	0x8
 1470 0451 8A       		.byte	0x8a
 1471 0452 D4040000 		.4byte	0x4d4
 1472 0456 00       		.byte	0
 1473 0457 00       		.byte	0
 1474 0458 0B       		.uleb128 0xb
 1475 0459 12040000 		.4byte	.LASF70
 1476 045d 24       		.byte	0x24
 1477 045e 09       		.byte	0x9
 1478 045f 5901     		.2byte	0x159
 1479 0461 D4040000 		.4byte	0x4d4
 1480 0465 08       		.uleb128 0x8
 1481 0466 723400   		.ascii	"r4\000"
 1482 0469 09       		.byte	0x9
 1483 046a 6C01     		.2byte	0x16c
 1484 046c 2A040000 		.4byte	0x42a
 1485 0470 00       		.byte	0
 1486 0471 08       		.uleb128 0x8
 1487 0472 723500   		.ascii	"r5\000"
 1488 0475 09       		.byte	0x9
 1489 0476 6D01     		.2byte	0x16d
ARM GAS  /tmp/ccGV0H6c.s 			page 59


 1490 0478 2A040000 		.4byte	0x42a
 1491 047c 04       		.byte	0x4
 1492 047d 08       		.uleb128 0x8
 1493 047e 723600   		.ascii	"r6\000"
 1494 0481 09       		.byte	0x9
 1495 0482 6E01     		.2byte	0x16e
 1496 0484 2A040000 		.4byte	0x42a
 1497 0488 08       		.byte	0x8
 1498 0489 08       		.uleb128 0x8
 1499 048a 723700   		.ascii	"r7\000"
 1500 048d 09       		.byte	0x9
 1501 048e 6F01     		.2byte	0x16f
 1502 0490 2A040000 		.4byte	0x42a
 1503 0494 0C       		.byte	0xc
 1504 0495 08       		.uleb128 0x8
 1505 0496 723800   		.ascii	"r8\000"
 1506 0499 09       		.byte	0x9
 1507 049a 7001     		.2byte	0x170
 1508 049c 2A040000 		.4byte	0x42a
 1509 04a0 10       		.byte	0x10
 1510 04a1 08       		.uleb128 0x8
 1511 04a2 723900   		.ascii	"r9\000"
 1512 04a5 09       		.byte	0x9
 1513 04a6 7101     		.2byte	0x171
 1514 04a8 2A040000 		.4byte	0x42a
 1515 04ac 14       		.byte	0x14
 1516 04ad 08       		.uleb128 0x8
 1517 04ae 72313000 		.ascii	"r10\000"
 1518 04b2 09       		.byte	0x9
 1519 04b3 7201     		.2byte	0x172
 1520 04b5 2A040000 		.4byte	0x42a
 1521 04b9 18       		.byte	0x18
 1522 04ba 08       		.uleb128 0x8
 1523 04bb 72313100 		.ascii	"r11\000"
 1524 04bf 09       		.byte	0x9
 1525 04c0 7301     		.2byte	0x173
 1526 04c2 2A040000 		.4byte	0x42a
 1527 04c6 1C       		.byte	0x1c
 1528 04c7 08       		.uleb128 0x8
 1529 04c8 6C7200   		.ascii	"lr\000"
 1530 04cb 09       		.byte	0x9
 1531 04cc 7401     		.2byte	0x174
 1532 04ce 2A040000 		.4byte	0x42a
 1533 04d2 20       		.byte	0x20
 1534 04d3 00       		.byte	0
 1535 04d4 0A       		.uleb128 0xa
 1536 04d5 04       		.byte	0x4
 1537 04d6 58040000 		.4byte	0x458
 1538 04da 12       		.uleb128 0x12
 1539 04db 60       		.byte	0x60
 1540 04dc 0A       		.byte	0xa
 1541 04dd A101     		.2byte	0x1a1
 1542 04df E6050000 		.4byte	0x5e6
 1543 04e3 08       		.uleb128 0x8
 1544 04e4 43523100 		.ascii	"CR1\000"
 1545 04e8 0A       		.byte	0xa
 1546 04e9 A201     		.2byte	0x1a2
ARM GAS  /tmp/ccGV0H6c.s 			page 60


 1547 04eb 05040000 		.4byte	0x405
 1548 04ef 00       		.byte	0
 1549 04f0 08       		.uleb128 0x8
 1550 04f1 43523200 		.ascii	"CR2\000"
 1551 04f5 0A       		.byte	0xa
 1552 04f6 A301     		.2byte	0x1a3
 1553 04f8 05040000 		.4byte	0x405
 1554 04fc 04       		.byte	0x4
 1555 04fd 09       		.uleb128 0x9
 1556 04fe 43030000 		.4byte	.LASF71
 1557 0502 0A       		.byte	0xa
 1558 0503 A401     		.2byte	0x1a4
 1559 0505 05040000 		.4byte	0x405
 1560 0509 08       		.byte	0x8
 1561 050a 09       		.uleb128 0x9
 1562 050b 2A020000 		.4byte	.LASF72
 1563 050f 0A       		.byte	0xa
 1564 0510 A501     		.2byte	0x1a5
 1565 0512 05040000 		.4byte	0x405
 1566 0516 0C       		.byte	0xc
 1567 0517 08       		.uleb128 0x8
 1568 0518 535200   		.ascii	"SR\000"
 1569 051b 0A       		.byte	0xa
 1570 051c A601     		.2byte	0x1a6
 1571 051e 05040000 		.4byte	0x405
 1572 0522 10       		.byte	0x10
 1573 0523 08       		.uleb128 0x8
 1574 0524 45475200 		.ascii	"EGR\000"
 1575 0528 0A       		.byte	0xa
 1576 0529 A701     		.2byte	0x1a7
 1577 052b 05040000 		.4byte	0x405
 1578 052f 14       		.byte	0x14
 1579 0530 09       		.uleb128 0x9
 1580 0531 65010000 		.4byte	.LASF73
 1581 0535 0A       		.byte	0xa
 1582 0536 A801     		.2byte	0x1a8
 1583 0538 05040000 		.4byte	0x405
 1584 053c 18       		.byte	0x18
 1585 053d 09       		.uleb128 0x9
 1586 053e 6B010000 		.4byte	.LASF74
 1587 0542 0A       		.byte	0xa
 1588 0543 A901     		.2byte	0x1a9
 1589 0545 05040000 		.4byte	0x405
 1590 0549 1C       		.byte	0x1c
 1591 054a 09       		.uleb128 0x9
 1592 054b EB020000 		.4byte	.LASF75
 1593 054f 0A       		.byte	0xa
 1594 0550 AA01     		.2byte	0x1aa
 1595 0552 05040000 		.4byte	0x405
 1596 0556 20       		.byte	0x20
 1597 0557 08       		.uleb128 0x8
 1598 0558 434E5400 		.ascii	"CNT\000"
 1599 055c 0A       		.byte	0xa
 1600 055d AB01     		.2byte	0x1ab
 1601 055f 05040000 		.4byte	0x405
 1602 0563 24       		.byte	0x24
 1603 0564 08       		.uleb128 0x8
ARM GAS  /tmp/ccGV0H6c.s 			page 61


 1604 0565 50534300 		.ascii	"PSC\000"
 1605 0569 0A       		.byte	0xa
 1606 056a AC01     		.2byte	0x1ac
 1607 056c 05040000 		.4byte	0x405
 1608 0570 28       		.byte	0x28
 1609 0571 08       		.uleb128 0x8
 1610 0572 41525200 		.ascii	"ARR\000"
 1611 0576 0A       		.byte	0xa
 1612 0577 AD01     		.2byte	0x1ad
 1613 0579 05040000 		.4byte	0x405
 1614 057d 2C       		.byte	0x2c
 1615 057e 08       		.uleb128 0x8
 1616 057f 52435200 		.ascii	"RCR\000"
 1617 0583 0A       		.byte	0xa
 1618 0584 AE01     		.2byte	0x1ae
 1619 0586 05040000 		.4byte	0x405
 1620 058a 30       		.byte	0x30
 1621 058b 08       		.uleb128 0x8
 1622 058c 43435200 		.ascii	"CCR\000"
 1623 0590 0A       		.byte	0xa
 1624 0591 AF01     		.2byte	0x1af
 1625 0593 E6050000 		.4byte	0x5e6
 1626 0597 34       		.byte	0x34
 1627 0598 09       		.uleb128 0x9
 1628 0599 2D010000 		.4byte	.LASF76
 1629 059d 0A       		.byte	0xa
 1630 059e B001     		.2byte	0x1b0
 1631 05a0 05040000 		.4byte	0x405
 1632 05a4 44       		.byte	0x44
 1633 05a5 08       		.uleb128 0x8
 1634 05a6 44435200 		.ascii	"DCR\000"
 1635 05aa 0A       		.byte	0xa
 1636 05ab B101     		.2byte	0x1b1
 1637 05ad 05040000 		.4byte	0x405
 1638 05b1 48       		.byte	0x48
 1639 05b2 09       		.uleb128 0x9
 1640 05b3 E7000000 		.4byte	.LASF77
 1641 05b7 0A       		.byte	0xa
 1642 05b8 B201     		.2byte	0x1b2
 1643 05ba 05040000 		.4byte	0x405
 1644 05be 4C       		.byte	0x4c
 1645 05bf 08       		.uleb128 0x8
 1646 05c0 4F5200   		.ascii	"OR\000"
 1647 05c3 0A       		.byte	0xa
 1648 05c4 B301     		.2byte	0x1b3
 1649 05c6 05040000 		.4byte	0x405
 1650 05ca 50       		.byte	0x50
 1651 05cb 09       		.uleb128 0x9
 1652 05cc 71010000 		.4byte	.LASF78
 1653 05d0 0A       		.byte	0xa
 1654 05d1 B401     		.2byte	0x1b4
 1655 05d3 05040000 		.4byte	0x405
 1656 05d7 54       		.byte	0x54
 1657 05d8 09       		.uleb128 0x9
 1658 05d9 FA030000 		.4byte	.LASF79
 1659 05dd 0A       		.byte	0xa
 1660 05de B501     		.2byte	0x1b5
ARM GAS  /tmp/ccGV0H6c.s 			page 62


 1661 05e0 EB050000 		.4byte	0x5eb
 1662 05e4 58       		.byte	0x58
 1663 05e5 00       		.byte	0
 1664 05e6 0F       		.uleb128 0xf
 1665 05e7 1A040000 		.4byte	0x41a
 1666 05eb 0F       		.uleb128 0xf
 1667 05ec 0A040000 		.4byte	0x40a
 1668 05f0 13       		.uleb128 0x13
 1669 05f1 0F020000 		.4byte	.LASF80
 1670 05f5 0A       		.byte	0xa
 1671 05f6 B601     		.2byte	0x1b6
 1672 05f8 DA040000 		.4byte	0x4da
 1673 05fc 14       		.uleb128 0x14
 1674 05fd 04       		.byte	0x4
 1675 05fe 0B       		.byte	0xb
 1676 05ff 38       		.byte	0x38
 1677 0600 11060000 		.4byte	0x611
 1678 0604 06       		.uleb128 0x6
 1679 0605 08020000 		.4byte	.LASF81
 1680 0609 0B       		.byte	0xb
 1681 060a 3C       		.byte	0x3c
 1682 060b A2000000 		.4byte	0xa2
 1683 060f 00       		.byte	0
 1684 0610 00       		.byte	0
 1685 0611 04       		.uleb128 0x4
 1686 0612 17000000 		.4byte	.LASF82
 1687 0616 0B       		.byte	0xb
 1688 0617 3D       		.byte	0x3d
 1689 0618 FC050000 		.4byte	0x5fc
 1690 061c 15       		.uleb128 0x15
 1691 061d 04       		.byte	0x4
 1692 061e 07       		.byte	0x7
 1693 061f D2       		.byte	0xd2
 1694 0620 7F060000 		.4byte	0x67f
 1695 0624 16       		.uleb128 0x16
 1696 0625 01020000 		.4byte	.LASF83
 1697 0629 07       		.byte	0x7
 1698 062a D9       		.byte	0xd9
 1699 062b D9000000 		.4byte	0xd9
 1700 062f 16       		.uleb128 0x16
 1701 0630 AA050000 		.4byte	.LASF84
 1702 0634 07       		.byte	0x7
 1703 0635 E0       		.byte	0xe0
 1704 0636 D9000000 		.4byte	0xd9
 1705 063a 16       		.uleb128 0x16
 1706 063b 9C000000 		.4byte	.LASF85
 1707 063f 07       		.byte	0x7
 1708 0640 E7       		.byte	0xe7
 1709 0641 D6020000 		.4byte	0x2d6
 1710 0645 16       		.uleb128 0x16
 1711 0646 1C050000 		.4byte	.LASF86
 1712 064a 07       		.byte	0x7
 1713 064b EE       		.byte	0xee
 1714 064c 7F060000 		.4byte	0x67f
 1715 0650 16       		.uleb128 0x16
 1716 0651 19010000 		.4byte	.LASF87
 1717 0655 07       		.byte	0x7
ARM GAS  /tmp/ccGV0H6c.s 			page 63


 1718 0656 F3       		.byte	0xf3
 1719 0657 D9000000 		.4byte	0xd9
 1720 065b 16       		.uleb128 0x16
 1721 065c 15050000 		.4byte	.LASF88
 1722 0660 07       		.byte	0x7
 1723 0661 FC       		.byte	0xfc
 1724 0662 AA060000 		.4byte	0x6aa
 1725 0666 17       		.uleb128 0x17
 1726 0667 10000000 		.4byte	.LASF89
 1727 066b 07       		.byte	0x7
 1728 066c 0501     		.2byte	0x105
 1729 066e E1060000 		.4byte	0x6e1
 1730 0672 17       		.uleb128 0x17
 1731 0673 CA000000 		.4byte	.LASF90
 1732 0677 07       		.byte	0x7
 1733 0678 0D01     		.2byte	0x10d
 1734 067a E4000000 		.4byte	0xe4
 1735 067e 00       		.byte	0
 1736 067f 0A       		.uleb128 0xa
 1737 0680 04       		.byte	0x4
 1738 0681 EE010000 		.4byte	0x1ee
 1739 0685 05       		.uleb128 0x5
 1740 0686 3F010000 		.4byte	.LASF91
 1741 068a 0C       		.byte	0xc
 1742 068b 0C       		.byte	0xc
 1743 068c 34       		.byte	0x34
 1744 068d AA060000 		.4byte	0x6aa
 1745 0691 06       		.uleb128 0x6
 1746 0692 B5040000 		.4byte	.LASF24
 1747 0696 0C       		.byte	0xc
 1748 0697 35       		.byte	0x35
 1749 0698 23020000 		.4byte	0x223
 1750 069c 00       		.byte	0
 1751 069d 07       		.uleb128 0x7
 1752 069e 636E7400 		.ascii	"cnt\000"
 1753 06a2 0C       		.byte	0xc
 1754 06a3 37       		.byte	0x37
 1755 06a4 EF000000 		.4byte	0xef
 1756 06a8 08       		.byte	0x8
 1757 06a9 00       		.byte	0
 1758 06aa 0A       		.uleb128 0xa
 1759 06ab 04       		.byte	0x4
 1760 06ac 85060000 		.4byte	0x685
 1761 06b0 05       		.uleb128 0x5
 1762 06b1 21020000 		.4byte	.LASF92
 1763 06b5 10       		.byte	0x10
 1764 06b6 0D       		.byte	0xd
 1765 06b7 39       		.byte	0x39
 1766 06b8 E1060000 		.4byte	0x6e1
 1767 06bc 06       		.uleb128 0x6
 1768 06bd B5040000 		.4byte	.LASF24
 1769 06c1 0D       		.byte	0xd
 1770 06c2 3A       		.byte	0x3a
 1771 06c3 23020000 		.4byte	0x223
 1772 06c7 00       		.byte	0
 1773 06c8 06       		.uleb128 0x6
 1774 06c9 C3010000 		.4byte	.LASF93
ARM GAS  /tmp/ccGV0H6c.s 			page 64


 1775 06cd 0D       		.byte	0xd
 1776 06ce 3C       		.byte	0x3c
 1777 06cf F9010000 		.4byte	0x1f9
 1778 06d3 08       		.byte	0x8
 1779 06d4 06       		.uleb128 0x6
 1780 06d5 70000000 		.4byte	.LASF43
 1781 06d9 0D       		.byte	0xd
 1782 06da 3E       		.byte	0x3e
 1783 06db 15070000 		.4byte	0x715
 1784 06df 0C       		.byte	0xc
 1785 06e0 00       		.byte	0
 1786 06e1 0A       		.uleb128 0xa
 1787 06e2 04       		.byte	0x4
 1788 06e3 B0060000 		.4byte	0x6b0
 1789 06e7 0A       		.uleb128 0xa
 1790 06e8 04       		.byte	0x4
 1791 06e9 ED060000 		.4byte	0x6ed
 1792 06ed 18       		.uleb128 0x18
 1793 06ee F2060000 		.4byte	0x6f2
 1794 06f2 03       		.uleb128 0x3
 1795 06f3 01       		.byte	0x1
 1796 06f4 08       		.byte	0x8
 1797 06f5 F0020000 		.4byte	.LASF94
 1798 06f9 0A       		.uleb128 0xa
 1799 06fa 04       		.byte	0x4
 1800 06fb 35040000 		.4byte	0x435
 1801 06ff 0A       		.uleb128 0xa
 1802 0700 04       		.byte	0x4
 1803 0701 D8020000 		.4byte	0x2d8
 1804 0705 0F       		.uleb128 0xf
 1805 0706 E7060000 		.4byte	0x6e7
 1806 070a 04       		.uleb128 0x4
 1807 070b C3040000 		.4byte	.LASF95
 1808 070f 0D       		.byte	0xd
 1809 0710 34       		.byte	0x34
 1810 0711 B0060000 		.4byte	0x6b0
 1811 0715 0A       		.uleb128 0xa
 1812 0716 04       		.byte	0x4
 1813 0717 0A070000 		.4byte	0x70a
 1814 071b 03       		.uleb128 0x3
 1815 071c 01       		.byte	0x1
 1816 071d 02       		.byte	0x2
 1817 071e 1B020000 		.4byte	.LASF96
 1818 0722 19       		.uleb128 0x19
 1819 0723 8E010000 		.4byte	.LASF97
 1820 0727 02       		.byte	0x2
 1821 0728 8B       		.byte	0x8b
 1822 0729 FA000000 		.4byte	0xfa
 1823 072d 03       		.byte	0x3
 1824 072e 19       		.uleb128 0x19
 1825 072f 2F020000 		.4byte	.LASF98
 1826 0733 03       		.byte	0x3
 1827 0734 69       		.byte	0x69
 1828 0735 FA000000 		.4byte	0xfa
 1829 0739 03       		.byte	0x3
 1830 073a 1A       		.uleb128 0x1a
 1831 073b 75000000 		.4byte	.LASF99
ARM GAS  /tmp/ccGV0H6c.s 			page 65


 1832 073f 0E       		.byte	0xe
 1833 0740 8801     		.2byte	0x188
 1834 0742 FA000000 		.4byte	0xfa
 1835 0746 03       		.byte	0x3
 1836 0747 1B       		.uleb128 0x1b
 1837 0748 52030000 		.4byte	.LASF100
 1838 074c 03       		.byte	0x3
 1839 074d 47       		.byte	0x47
 1840 074e 03       		.byte	0x3
 1841 074f 5F070000 		.4byte	0x75f
 1842 0753 1C       		.uleb128 0x1c
 1843 0754 BE010000 		.4byte	.LASF102
 1844 0758 03       		.byte	0x3
 1845 0759 47       		.byte	0x47
 1846 075a FA000000 		.4byte	0xfa
 1847 075e 00       		.byte	0
 1848 075f 1B       		.uleb128 0x1b
 1849 0760 D4030000 		.4byte	.LASF101
 1850 0764 03       		.byte	0x3
 1851 0765 5D       		.byte	0x5d
 1852 0766 03       		.byte	0x3
 1853 0767 77070000 		.4byte	0x777
 1854 076b 1C       		.uleb128 0x1c
 1855 076c BE010000 		.4byte	.LASF102
 1856 0770 03       		.byte	0x3
 1857 0771 5D       		.byte	0x5d
 1858 0772 FA000000 		.4byte	0xfa
 1859 0776 00       		.byte	0
 1860 0777 1D       		.uleb128 0x1d
 1861 0778 75040000 		.4byte	.LASF114
 1862 077c 03       		.byte	0x3
 1863 077d 51       		.byte	0x51
 1864 077e 03       		.byte	0x3
 1865 077f 1E       		.uleb128 0x1e
 1866 0780 8C030000 		.4byte	.LASF108
 1867 0784 01       		.byte	0x1
 1868 0785 BE       		.byte	0xbe
 1869 0786 01       		.byte	0x1
 1870 0787 BA070000 		.4byte	0x7ba
 1871 078b 1F       		.uleb128 0x1f
 1872 078c 76747000 		.ascii	"vtp\000"
 1873 0790 01       		.byte	0x1
 1874 0791 BE       		.byte	0xbe
 1875 0792 FF060000 		.4byte	0x6ff
 1876 0796 20       		.uleb128 0x20
 1877 0797 A7010000 		.4byte	.LASF103
 1878 079b CA070000 		.4byte	0x7ca
 1879 079f 8C030000 		.4byte	.LASF108
 1880 07a3 21       		.uleb128 0x21
 1881 07a4 B5010000 		.4byte	.LASF104
 1882 07a8 01       		.byte	0x1
 1883 07a9 D2       		.byte	0xd2
 1884 07aa FA000000 		.4byte	0xfa
 1885 07ae 21       		.uleb128 0x21
 1886 07af 2E050000 		.4byte	.LASF53
 1887 07b3 01       		.byte	0x1
 1888 07b4 D2       		.byte	0xd2
ARM GAS  /tmp/ccGV0H6c.s 			page 66


 1889 07b5 FA000000 		.4byte	0xfa
 1890 07b9 00       		.byte	0
 1891 07ba 10       		.uleb128 0x10
 1892 07bb F2060000 		.4byte	0x6f2
 1893 07bf CA070000 		.4byte	0x7ca
 1894 07c3 11       		.uleb128 0x11
 1895 07c4 FE030000 		.4byte	0x3fe
 1896 07c8 0C       		.byte	0xc
 1897 07c9 00       		.byte	0
 1898 07ca 18       		.uleb128 0x18
 1899 07cb BA070000 		.4byte	0x7ba
 1900 07cf 22       		.uleb128 0x22
 1901 07d0 31000000 		.4byte	.LASF115
 1902 07d4 01       		.byte	0x1
 1903 07d5 3D       		.byte	0x3d
 1904 07d6 00000000 		.4byte	.LFB186
 1905 07da 1C000000 		.4byte	.LFE186-.LFB186
 1906 07de 01       		.uleb128 0x1
 1907 07df 9C       		.byte	0x9c
 1908 07e0 23       		.uleb128 0x23
 1909 07e1 9D040000 		.4byte	.LASF116
 1910 07e5 01       		.byte	0x1
 1911 07e6 5F       		.byte	0x5f
 1912 07e7 00000000 		.4byte	.LFB187
 1913 07eb 90000000 		.4byte	.LFE187-.LFB187
 1914 07ef 01       		.uleb128 0x1
 1915 07f0 9C       		.byte	0x9c
 1916 07f1 E4080000 		.4byte	0x8e4
 1917 07f5 24       		.uleb128 0x24
 1918 07f6 76747000 		.ascii	"vtp\000"
 1919 07fa 01       		.byte	0x1
 1920 07fb 5F       		.byte	0x5f
 1921 07fc FF060000 		.4byte	0x6ff
 1922 0800 00000000 		.4byte	.LLST0
 1923 0804 25       		.uleb128 0x25
 1924 0805 2B040000 		.4byte	.LASF105
 1925 0809 01       		.byte	0x1
 1926 080a 5F       		.byte	0x5f
 1927 080b FA000000 		.4byte	0xfa
 1928 080f 64000000 		.4byte	.LLST1
 1929 0813 25       		.uleb128 0x25
 1930 0814 53000000 		.4byte	.LASF106
 1931 0818 01       		.byte	0x1
 1932 0819 60       		.byte	0x60
 1933 081a BA020000 		.4byte	0x2ba
 1934 081e A6000000 		.4byte	.LLST2
 1935 0822 24       		.uleb128 0x24
 1936 0823 70617200 		.ascii	"par\000"
 1937 0827 01       		.byte	0x1
 1938 0828 60       		.byte	0x60
 1939 0829 D6020000 		.4byte	0x2d6
 1940 082d 12010000 		.4byte	.LLST3
 1941 0831 26       		.uleb128 0x26
 1942 0832 7000     		.ascii	"p\000"
 1943 0834 01       		.byte	0x1
 1944 0835 61       		.byte	0x61
 1945 0836 FF060000 		.4byte	0x6ff
ARM GAS  /tmp/ccGV0H6c.s 			page 67


 1946 083a 9A010000 		.4byte	.LLST4
 1947 083e 27       		.uleb128 0x27
 1948 083f 2E050000 		.4byte	.LASF53
 1949 0843 01       		.byte	0x1
 1950 0844 62       		.byte	0x62
 1951 0845 FA000000 		.4byte	0xfa
 1952 0849 CF010000 		.4byte	.LLST5
 1953 084d 28       		.uleb128 0x28
 1954 084e A9030000 		.4byte	.LASF117
 1955 0852 F4080000 		.4byte	0x8f4
 1956 0856 29       		.uleb128 0x29
 1957 0857 00000000 		.4byte	.Ldebug_ranges0+0
 1958 085b 2A       		.uleb128 0x2a
 1959 085c 6E6F7700 		.ascii	"now\000"
 1960 0860 01       		.byte	0x1
 1961 0861 6C       		.byte	0x6c
 1962 0862 FA000000 		.4byte	0xfa
 1963 0866 2B       		.uleb128 0x2b
 1964 0867 3A070000 		.4byte	0x73a
 1965 086b 10000000 		.4byte	.LBB36
 1966 086f 28000000 		.4byte	.Ldebug_ranges0+0x28
 1967 0873 01       		.byte	0x1
 1968 0874 6C       		.byte	0x6c
 1969 0875 9A080000 		.4byte	0x89a
 1970 0879 2C       		.uleb128 0x2c
 1971 087a 2E070000 		.4byte	0x72e
 1972 087e 10000000 		.4byte	.LBB37
 1973 0882 28000000 		.4byte	.Ldebug_ranges0+0x28
 1974 0886 0E       		.byte	0xe
 1975 0887 8D01     		.2byte	0x18d
 1976 0889 2D       		.uleb128 0x2d
 1977 088a 22070000 		.4byte	0x722
 1978 088e 10000000 		.4byte	.LBB38
 1979 0892 28000000 		.4byte	.Ldebug_ranges0+0x28
 1980 0896 03       		.byte	0x3
 1981 0897 6B       		.byte	0x6b
 1982 0898 00       		.byte	0
 1983 0899 00       		.byte	0
 1984 089a 2E       		.uleb128 0x2e
 1985 089b 5F070000 		.4byte	0x75f
 1986 089f 6E000000 		.4byte	.LBB44
 1987 08a3 0A000000 		.4byte	.LBE44-.LBB44
 1988 08a7 01       		.byte	0x1
 1989 08a8 97       		.byte	0x97
 1990 08a9 C0080000 		.4byte	0x8c0
 1991 08ad 2F       		.uleb128 0x2f
 1992 08ae 6B070000 		.4byte	0x76b
 1993 08b2 03020000 		.4byte	.LLST6
 1994 08b6 30       		.uleb128 0x30
 1995 08b7 74000000 		.4byte	.LVL17
 1996 08bb E1090000 		.4byte	0x9e1
 1997 08bf 00       		.byte	0
 1998 08c0 31       		.uleb128 0x31
 1999 08c1 47070000 		.4byte	0x747
 2000 08c5 80000000 		.4byte	.LBB46
 2001 08c9 40000000 		.4byte	.Ldebug_ranges0+0x40
 2002 08cd 01       		.byte	0x1
ARM GAS  /tmp/ccGV0H6c.s 			page 68


 2003 08ce 81       		.byte	0x81
 2004 08cf 2F       		.uleb128 0x2f
 2005 08d0 53070000 		.4byte	0x753
 2006 08d4 1B020000 		.4byte	.LLST7
 2007 08d8 32       		.uleb128 0x32
 2008 08d9 90000000 		.4byte	.LVL22
 2009 08dd F2090000 		.4byte	0x9f2
 2010 08e1 00       		.byte	0
 2011 08e2 00       		.byte	0
 2012 08e3 00       		.byte	0
 2013 08e4 10       		.uleb128 0x10
 2014 08e5 F2060000 		.4byte	0x6f2
 2015 08e9 F4080000 		.4byte	0x8f4
 2016 08ed 11       		.uleb128 0x11
 2017 08ee FE030000 		.4byte	0x3fe
 2018 08f2 0A       		.byte	0xa
 2019 08f3 00       		.byte	0
 2020 08f4 18       		.uleb128 0x18
 2021 08f5 E4080000 		.4byte	0x8e4
 2022 08f9 33       		.uleb128 0x33
 2023 08fa 7F070000 		.4byte	0x77f
 2024 08fe 00000000 		.4byte	.LFB188
 2025 0902 78000000 		.4byte	.LFE188-.LFB188
 2026 0906 01       		.uleb128 0x1
 2027 0907 9C       		.byte	0x9c
 2028 0908 C5090000 		.4byte	0x9c5
 2029 090c 2F       		.uleb128 0x2f
 2030 090d 8B070000 		.4byte	0x78b
 2031 0911 33020000 		.4byte	.LLST8
 2032 0915 34       		.uleb128 0x34
 2033 0916 96070000 		.4byte	0x796
 2034 091a 34       		.uleb128 0x34
 2035 091b A3070000 		.4byte	0x7a3
 2036 091f 34       		.uleb128 0x34
 2037 0920 AE070000 		.4byte	0x7ae
 2038 0924 29       		.uleb128 0x29
 2039 0925 58000000 		.4byte	.Ldebug_ranges0+0x58
 2040 0929 2F       		.uleb128 0x2f
 2041 092a 8B070000 		.4byte	0x78b
 2042 092e 6D020000 		.4byte	.LLST9
 2043 0932 29       		.uleb128 0x29
 2044 0933 58000000 		.4byte	.Ldebug_ranges0+0x58
 2045 0937 35       		.uleb128 0x35
 2046 0938 A3070000 		.4byte	0x7a3
 2047 093c 8B020000 		.4byte	.LLST10
 2048 0940 35       		.uleb128 0x35
 2049 0941 AE070000 		.4byte	0x7ae
 2050 0945 9E020000 		.4byte	.LLST11
 2051 0949 34       		.uleb128 0x34
 2052 094a 96070000 		.4byte	0x796
 2053 094e 2B       		.uleb128 0x2b
 2054 094f 3A070000 		.4byte	0x73a
 2055 0953 42000000 		.4byte	.LBB65
 2056 0957 78000000 		.4byte	.Ldebug_ranges0+0x78
 2057 095b 01       		.byte	0x1
 2058 095c F9       		.byte	0xf9
 2059 095d 82090000 		.4byte	0x982
ARM GAS  /tmp/ccGV0H6c.s 			page 69


 2060 0961 2C       		.uleb128 0x2c
 2061 0962 2E070000 		.4byte	0x72e
 2062 0966 42000000 		.4byte	.LBB66
 2063 096a 78000000 		.4byte	.Ldebug_ranges0+0x78
 2064 096e 0E       		.byte	0xe
 2065 096f 8D01     		.2byte	0x18d
 2066 0971 2D       		.uleb128 0x2d
 2067 0972 22070000 		.4byte	0x722
 2068 0976 42000000 		.4byte	.LBB67
 2069 097a 78000000 		.4byte	.Ldebug_ranges0+0x78
 2070 097e 03       		.byte	0x3
 2071 097f 6B       		.byte	0x6b
 2072 0980 00       		.byte	0
 2073 0981 00       		.byte	0
 2074 0982 36       		.uleb128 0x36
 2075 0983 5F070000 		.4byte	0x75f
 2076 0987 6C000000 		.4byte	.LBB73
 2077 098b 06000000 		.4byte	.LBE73-.LBB73
 2078 098f 01       		.byte	0x1
 2079 0990 0A01     		.2byte	0x10a
 2080 0992 A9090000 		.4byte	0x9a9
 2081 0996 2F       		.uleb128 0x2f
 2082 0997 6B070000 		.4byte	0x76b
 2083 099b B1020000 		.4byte	.LLST12
 2084 099f 32       		.uleb128 0x32
 2085 09a0 72000000 		.4byte	.LVL32
 2086 09a4 E1090000 		.4byte	0x9e1
 2087 09a8 00       		.byte	0
 2088 09a9 37       		.uleb128 0x37
 2089 09aa 77070000 		.4byte	0x777
 2090 09ae 74000000 		.4byte	.LBB75
 2091 09b2 04000000 		.4byte	.LBE75-.LBB75
 2092 09b6 01       		.byte	0x1
 2093 09b7 EA       		.byte	0xea
 2094 09b8 32       		.uleb128 0x32
 2095 09b9 78000000 		.4byte	.LVL33
 2096 09bd 030A0000 		.4byte	0xa03
 2097 09c1 00       		.byte	0
 2098 09c2 00       		.byte	0
 2099 09c3 00       		.byte	0
 2100 09c4 00       		.byte	0
 2101 09c5 38       		.uleb128 0x38
 2102 09c6 1E040000 		.4byte	.LASF107
 2103 09ca 10       		.byte	0x10
 2104 09cb 9606     		.2byte	0x696
 2105 09cd D1090000 		.4byte	0x9d1
 2106 09d1 0F       		.uleb128 0xf
 2107 09d2 65000000 		.4byte	0x65
 2108 09d6 39       		.uleb128 0x39
 2109 09d7 636800   		.ascii	"ch\000"
 2110 09da 07       		.byte	0x7
 2111 09db D201     		.2byte	0x1d2
 2112 09dd A5030000 		.4byte	0x3a5
 2113 09e1 3A       		.uleb128 0x3a
 2114 09e2 0E010000 		.4byte	.LASF109
 2115 09e6 0F       		.byte	0xf
 2116 09e7 59       		.byte	0x59
ARM GAS  /tmp/ccGV0H6c.s 			page 70


 2117 09e8 F2090000 		.4byte	0x9f2
 2118 09ec 0D       		.uleb128 0xd
 2119 09ed FA000000 		.4byte	0xfa
 2120 09f1 00       		.byte	0
 2121 09f2 3A       		.uleb128 0x3a
 2122 09f3 32010000 		.4byte	.LASF110
 2123 09f7 0F       		.byte	0xf
 2124 09f8 57       		.byte	0x57
 2125 09f9 030A0000 		.4byte	0xa03
 2126 09fd 0D       		.uleb128 0xd
 2127 09fe FA000000 		.4byte	0xfa
 2128 0a02 00       		.byte	0
 2129 0a03 3B       		.uleb128 0x3b
 2130 0a04 3B040000 		.4byte	.LASF118
 2131 0a08 0F       		.byte	0xf
 2132 0a09 58       		.byte	0x58
 2133 0a0a 00       		.byte	0
 2134              		.section	.debug_abbrev,"",%progbits
 2135              	.Ldebug_abbrev0:
 2136 0000 01       		.uleb128 0x1
 2137 0001 11       		.uleb128 0x11
 2138 0002 01       		.byte	0x1
 2139 0003 25       		.uleb128 0x25
 2140 0004 0E       		.uleb128 0xe
 2141 0005 13       		.uleb128 0x13
 2142 0006 0B       		.uleb128 0xb
 2143 0007 03       		.uleb128 0x3
 2144 0008 0E       		.uleb128 0xe
 2145 0009 1B       		.uleb128 0x1b
 2146 000a 0E       		.uleb128 0xe
 2147 000b 55       		.uleb128 0x55
 2148 000c 17       		.uleb128 0x17
 2149 000d 11       		.uleb128 0x11
 2150 000e 01       		.uleb128 0x1
 2151 000f 10       		.uleb128 0x10
 2152 0010 17       		.uleb128 0x17
 2153 0011 00       		.byte	0
 2154 0012 00       		.byte	0
 2155 0013 02       		.uleb128 0x2
 2156 0014 24       		.uleb128 0x24
 2157 0015 00       		.byte	0
 2158 0016 0B       		.uleb128 0xb
 2159 0017 0B       		.uleb128 0xb
 2160 0018 3E       		.uleb128 0x3e
 2161 0019 0B       		.uleb128 0xb
 2162 001a 03       		.uleb128 0x3
 2163 001b 08       		.uleb128 0x8
 2164 001c 00       		.byte	0
 2165 001d 00       		.byte	0
 2166 001e 03       		.uleb128 0x3
 2167 001f 24       		.uleb128 0x24
 2168 0020 00       		.byte	0
 2169 0021 0B       		.uleb128 0xb
 2170 0022 0B       		.uleb128 0xb
 2171 0023 3E       		.uleb128 0x3e
 2172 0024 0B       		.uleb128 0xb
 2173 0025 03       		.uleb128 0x3
ARM GAS  /tmp/ccGV0H6c.s 			page 71


 2174 0026 0E       		.uleb128 0xe
 2175 0027 00       		.byte	0
 2176 0028 00       		.byte	0
 2177 0029 04       		.uleb128 0x4
 2178 002a 16       		.uleb128 0x16
 2179 002b 00       		.byte	0
 2180 002c 03       		.uleb128 0x3
 2181 002d 0E       		.uleb128 0xe
 2182 002e 3A       		.uleb128 0x3a
 2183 002f 0B       		.uleb128 0xb
 2184 0030 3B       		.uleb128 0x3b
 2185 0031 0B       		.uleb128 0xb
 2186 0032 49       		.uleb128 0x49
 2187 0033 13       		.uleb128 0x13
 2188 0034 00       		.byte	0
 2189 0035 00       		.byte	0
 2190 0036 05       		.uleb128 0x5
 2191 0037 13       		.uleb128 0x13
 2192 0038 01       		.byte	0x1
 2193 0039 03       		.uleb128 0x3
 2194 003a 0E       		.uleb128 0xe
 2195 003b 0B       		.uleb128 0xb
 2196 003c 0B       		.uleb128 0xb
 2197 003d 3A       		.uleb128 0x3a
 2198 003e 0B       		.uleb128 0xb
 2199 003f 3B       		.uleb128 0x3b
 2200 0040 0B       		.uleb128 0xb
 2201 0041 01       		.uleb128 0x1
 2202 0042 13       		.uleb128 0x13
 2203 0043 00       		.byte	0
 2204 0044 00       		.byte	0
 2205 0045 06       		.uleb128 0x6
 2206 0046 0D       		.uleb128 0xd
 2207 0047 00       		.byte	0
 2208 0048 03       		.uleb128 0x3
 2209 0049 0E       		.uleb128 0xe
 2210 004a 3A       		.uleb128 0x3a
 2211 004b 0B       		.uleb128 0xb
 2212 004c 3B       		.uleb128 0x3b
 2213 004d 0B       		.uleb128 0xb
 2214 004e 49       		.uleb128 0x49
 2215 004f 13       		.uleb128 0x13
 2216 0050 38       		.uleb128 0x38
 2217 0051 0B       		.uleb128 0xb
 2218 0052 00       		.byte	0
 2219 0053 00       		.byte	0
 2220 0054 07       		.uleb128 0x7
 2221 0055 0D       		.uleb128 0xd
 2222 0056 00       		.byte	0
 2223 0057 03       		.uleb128 0x3
 2224 0058 08       		.uleb128 0x8
 2225 0059 3A       		.uleb128 0x3a
 2226 005a 0B       		.uleb128 0xb
 2227 005b 3B       		.uleb128 0x3b
 2228 005c 0B       		.uleb128 0xb
 2229 005d 49       		.uleb128 0x49
 2230 005e 13       		.uleb128 0x13
ARM GAS  /tmp/ccGV0H6c.s 			page 72


 2231 005f 38       		.uleb128 0x38
 2232 0060 0B       		.uleb128 0xb
 2233 0061 00       		.byte	0
 2234 0062 00       		.byte	0
 2235 0063 08       		.uleb128 0x8
 2236 0064 0D       		.uleb128 0xd
 2237 0065 00       		.byte	0
 2238 0066 03       		.uleb128 0x3
 2239 0067 08       		.uleb128 0x8
 2240 0068 3A       		.uleb128 0x3a
 2241 0069 0B       		.uleb128 0xb
 2242 006a 3B       		.uleb128 0x3b
 2243 006b 05       		.uleb128 0x5
 2244 006c 49       		.uleb128 0x49
 2245 006d 13       		.uleb128 0x13
 2246 006e 38       		.uleb128 0x38
 2247 006f 0B       		.uleb128 0xb
 2248 0070 00       		.byte	0
 2249 0071 00       		.byte	0
 2250 0072 09       		.uleb128 0x9
 2251 0073 0D       		.uleb128 0xd
 2252 0074 00       		.byte	0
 2253 0075 03       		.uleb128 0x3
 2254 0076 0E       		.uleb128 0xe
 2255 0077 3A       		.uleb128 0x3a
 2256 0078 0B       		.uleb128 0xb
 2257 0079 3B       		.uleb128 0x3b
 2258 007a 05       		.uleb128 0x5
 2259 007b 49       		.uleb128 0x49
 2260 007c 13       		.uleb128 0x13
 2261 007d 38       		.uleb128 0x38
 2262 007e 0B       		.uleb128 0xb
 2263 007f 00       		.byte	0
 2264 0080 00       		.byte	0
 2265 0081 0A       		.uleb128 0xa
 2266 0082 0F       		.uleb128 0xf
 2267 0083 00       		.byte	0
 2268 0084 0B       		.uleb128 0xb
 2269 0085 0B       		.uleb128 0xb
 2270 0086 49       		.uleb128 0x49
 2271 0087 13       		.uleb128 0x13
 2272 0088 00       		.byte	0
 2273 0089 00       		.byte	0
 2274 008a 0B       		.uleb128 0xb
 2275 008b 13       		.uleb128 0x13
 2276 008c 01       		.byte	0x1
 2277 008d 03       		.uleb128 0x3
 2278 008e 0E       		.uleb128 0xe
 2279 008f 0B       		.uleb128 0xb
 2280 0090 0B       		.uleb128 0xb
 2281 0091 3A       		.uleb128 0x3a
 2282 0092 0B       		.uleb128 0xb
 2283 0093 3B       		.uleb128 0x3b
 2284 0094 05       		.uleb128 0x5
 2285 0095 01       		.uleb128 0x1
 2286 0096 13       		.uleb128 0x13
 2287 0097 00       		.byte	0
ARM GAS  /tmp/ccGV0H6c.s 			page 73


 2288 0098 00       		.byte	0
 2289 0099 0C       		.uleb128 0xc
 2290 009a 15       		.uleb128 0x15
 2291 009b 01       		.byte	0x1
 2292 009c 27       		.uleb128 0x27
 2293 009d 19       		.uleb128 0x19
 2294 009e 01       		.uleb128 0x1
 2295 009f 13       		.uleb128 0x13
 2296 00a0 00       		.byte	0
 2297 00a1 00       		.byte	0
 2298 00a2 0D       		.uleb128 0xd
 2299 00a3 05       		.uleb128 0x5
 2300 00a4 00       		.byte	0
 2301 00a5 49       		.uleb128 0x49
 2302 00a6 13       		.uleb128 0x13
 2303 00a7 00       		.byte	0
 2304 00a8 00       		.byte	0
 2305 00a9 0E       		.uleb128 0xe
 2306 00aa 0F       		.uleb128 0xf
 2307 00ab 00       		.byte	0
 2308 00ac 0B       		.uleb128 0xb
 2309 00ad 0B       		.uleb128 0xb
 2310 00ae 00       		.byte	0
 2311 00af 00       		.byte	0
 2312 00b0 0F       		.uleb128 0xf
 2313 00b1 35       		.uleb128 0x35
 2314 00b2 00       		.byte	0
 2315 00b3 49       		.uleb128 0x49
 2316 00b4 13       		.uleb128 0x13
 2317 00b5 00       		.byte	0
 2318 00b6 00       		.byte	0
 2319 00b7 10       		.uleb128 0x10
 2320 00b8 01       		.uleb128 0x1
 2321 00b9 01       		.byte	0x1
 2322 00ba 49       		.uleb128 0x49
 2323 00bb 13       		.uleb128 0x13
 2324 00bc 01       		.uleb128 0x1
 2325 00bd 13       		.uleb128 0x13
 2326 00be 00       		.byte	0
 2327 00bf 00       		.byte	0
 2328 00c0 11       		.uleb128 0x11
 2329 00c1 21       		.uleb128 0x21
 2330 00c2 00       		.byte	0
 2331 00c3 49       		.uleb128 0x49
 2332 00c4 13       		.uleb128 0x13
 2333 00c5 2F       		.uleb128 0x2f
 2334 00c6 0B       		.uleb128 0xb
 2335 00c7 00       		.byte	0
 2336 00c8 00       		.byte	0
 2337 00c9 12       		.uleb128 0x12
 2338 00ca 13       		.uleb128 0x13
 2339 00cb 01       		.byte	0x1
 2340 00cc 0B       		.uleb128 0xb
 2341 00cd 0B       		.uleb128 0xb
 2342 00ce 3A       		.uleb128 0x3a
 2343 00cf 0B       		.uleb128 0xb
 2344 00d0 3B       		.uleb128 0x3b
ARM GAS  /tmp/ccGV0H6c.s 			page 74


 2345 00d1 05       		.uleb128 0x5
 2346 00d2 01       		.uleb128 0x1
 2347 00d3 13       		.uleb128 0x13
 2348 00d4 00       		.byte	0
 2349 00d5 00       		.byte	0
 2350 00d6 13       		.uleb128 0x13
 2351 00d7 16       		.uleb128 0x16
 2352 00d8 00       		.byte	0
 2353 00d9 03       		.uleb128 0x3
 2354 00da 0E       		.uleb128 0xe
 2355 00db 3A       		.uleb128 0x3a
 2356 00dc 0B       		.uleb128 0xb
 2357 00dd 3B       		.uleb128 0x3b
 2358 00de 05       		.uleb128 0x5
 2359 00df 49       		.uleb128 0x49
 2360 00e0 13       		.uleb128 0x13
 2361 00e1 00       		.byte	0
 2362 00e2 00       		.byte	0
 2363 00e3 14       		.uleb128 0x14
 2364 00e4 13       		.uleb128 0x13
 2365 00e5 01       		.byte	0x1
 2366 00e6 0B       		.uleb128 0xb
 2367 00e7 0B       		.uleb128 0xb
 2368 00e8 3A       		.uleb128 0x3a
 2369 00e9 0B       		.uleb128 0xb
 2370 00ea 3B       		.uleb128 0x3b
 2371 00eb 0B       		.uleb128 0xb
 2372 00ec 01       		.uleb128 0x1
 2373 00ed 13       		.uleb128 0x13
 2374 00ee 00       		.byte	0
 2375 00ef 00       		.byte	0
 2376 00f0 15       		.uleb128 0x15
 2377 00f1 17       		.uleb128 0x17
 2378 00f2 01       		.byte	0x1
 2379 00f3 0B       		.uleb128 0xb
 2380 00f4 0B       		.uleb128 0xb
 2381 00f5 3A       		.uleb128 0x3a
 2382 00f6 0B       		.uleb128 0xb
 2383 00f7 3B       		.uleb128 0x3b
 2384 00f8 0B       		.uleb128 0xb
 2385 00f9 01       		.uleb128 0x1
 2386 00fa 13       		.uleb128 0x13
 2387 00fb 00       		.byte	0
 2388 00fc 00       		.byte	0
 2389 00fd 16       		.uleb128 0x16
 2390 00fe 0D       		.uleb128 0xd
 2391 00ff 00       		.byte	0
 2392 0100 03       		.uleb128 0x3
 2393 0101 0E       		.uleb128 0xe
 2394 0102 3A       		.uleb128 0x3a
 2395 0103 0B       		.uleb128 0xb
 2396 0104 3B       		.uleb128 0x3b
 2397 0105 0B       		.uleb128 0xb
 2398 0106 49       		.uleb128 0x49
 2399 0107 13       		.uleb128 0x13
 2400 0108 00       		.byte	0
 2401 0109 00       		.byte	0
ARM GAS  /tmp/ccGV0H6c.s 			page 75


 2402 010a 17       		.uleb128 0x17
 2403 010b 0D       		.uleb128 0xd
 2404 010c 00       		.byte	0
 2405 010d 03       		.uleb128 0x3
 2406 010e 0E       		.uleb128 0xe
 2407 010f 3A       		.uleb128 0x3a
 2408 0110 0B       		.uleb128 0xb
 2409 0111 3B       		.uleb128 0x3b
 2410 0112 05       		.uleb128 0x5
 2411 0113 49       		.uleb128 0x49
 2412 0114 13       		.uleb128 0x13
 2413 0115 00       		.byte	0
 2414 0116 00       		.byte	0
 2415 0117 18       		.uleb128 0x18
 2416 0118 26       		.uleb128 0x26
 2417 0119 00       		.byte	0
 2418 011a 49       		.uleb128 0x49
 2419 011b 13       		.uleb128 0x13
 2420 011c 00       		.byte	0
 2421 011d 00       		.byte	0
 2422 011e 19       		.uleb128 0x19
 2423 011f 2E       		.uleb128 0x2e
 2424 0120 00       		.byte	0
 2425 0121 03       		.uleb128 0x3
 2426 0122 0E       		.uleb128 0xe
 2427 0123 3A       		.uleb128 0x3a
 2428 0124 0B       		.uleb128 0xb
 2429 0125 3B       		.uleb128 0x3b
 2430 0126 0B       		.uleb128 0xb
 2431 0127 27       		.uleb128 0x27
 2432 0128 19       		.uleb128 0x19
 2433 0129 49       		.uleb128 0x49
 2434 012a 13       		.uleb128 0x13
 2435 012b 20       		.uleb128 0x20
 2436 012c 0B       		.uleb128 0xb
 2437 012d 00       		.byte	0
 2438 012e 00       		.byte	0
 2439 012f 1A       		.uleb128 0x1a
 2440 0130 2E       		.uleb128 0x2e
 2441 0131 00       		.byte	0
 2442 0132 03       		.uleb128 0x3
 2443 0133 0E       		.uleb128 0xe
 2444 0134 3A       		.uleb128 0x3a
 2445 0135 0B       		.uleb128 0xb
 2446 0136 3B       		.uleb128 0x3b
 2447 0137 05       		.uleb128 0x5
 2448 0138 27       		.uleb128 0x27
 2449 0139 19       		.uleb128 0x19
 2450 013a 49       		.uleb128 0x49
 2451 013b 13       		.uleb128 0x13
 2452 013c 20       		.uleb128 0x20
 2453 013d 0B       		.uleb128 0xb
 2454 013e 00       		.byte	0
 2455 013f 00       		.byte	0
 2456 0140 1B       		.uleb128 0x1b
 2457 0141 2E       		.uleb128 0x2e
 2458 0142 01       		.byte	0x1
ARM GAS  /tmp/ccGV0H6c.s 			page 76


 2459 0143 03       		.uleb128 0x3
 2460 0144 0E       		.uleb128 0xe
 2461 0145 3A       		.uleb128 0x3a
 2462 0146 0B       		.uleb128 0xb
 2463 0147 3B       		.uleb128 0x3b
 2464 0148 0B       		.uleb128 0xb
 2465 0149 27       		.uleb128 0x27
 2466 014a 19       		.uleb128 0x19
 2467 014b 20       		.uleb128 0x20
 2468 014c 0B       		.uleb128 0xb
 2469 014d 01       		.uleb128 0x1
 2470 014e 13       		.uleb128 0x13
 2471 014f 00       		.byte	0
 2472 0150 00       		.byte	0
 2473 0151 1C       		.uleb128 0x1c
 2474 0152 05       		.uleb128 0x5
 2475 0153 00       		.byte	0
 2476 0154 03       		.uleb128 0x3
 2477 0155 0E       		.uleb128 0xe
 2478 0156 3A       		.uleb128 0x3a
 2479 0157 0B       		.uleb128 0xb
 2480 0158 3B       		.uleb128 0x3b
 2481 0159 0B       		.uleb128 0xb
 2482 015a 49       		.uleb128 0x49
 2483 015b 13       		.uleb128 0x13
 2484 015c 00       		.byte	0
 2485 015d 00       		.byte	0
 2486 015e 1D       		.uleb128 0x1d
 2487 015f 2E       		.uleb128 0x2e
 2488 0160 00       		.byte	0
 2489 0161 03       		.uleb128 0x3
 2490 0162 0E       		.uleb128 0xe
 2491 0163 3A       		.uleb128 0x3a
 2492 0164 0B       		.uleb128 0xb
 2493 0165 3B       		.uleb128 0x3b
 2494 0166 0B       		.uleb128 0xb
 2495 0167 27       		.uleb128 0x27
 2496 0168 19       		.uleb128 0x19
 2497 0169 20       		.uleb128 0x20
 2498 016a 0B       		.uleb128 0xb
 2499 016b 00       		.byte	0
 2500 016c 00       		.byte	0
 2501 016d 1E       		.uleb128 0x1e
 2502 016e 2E       		.uleb128 0x2e
 2503 016f 01       		.byte	0x1
 2504 0170 3F       		.uleb128 0x3f
 2505 0171 19       		.uleb128 0x19
 2506 0172 03       		.uleb128 0x3
 2507 0173 0E       		.uleb128 0xe
 2508 0174 3A       		.uleb128 0x3a
 2509 0175 0B       		.uleb128 0xb
 2510 0176 3B       		.uleb128 0x3b
 2511 0177 0B       		.uleb128 0xb
 2512 0178 27       		.uleb128 0x27
 2513 0179 19       		.uleb128 0x19
 2514 017a 20       		.uleb128 0x20
 2515 017b 0B       		.uleb128 0xb
ARM GAS  /tmp/ccGV0H6c.s 			page 77


 2516 017c 01       		.uleb128 0x1
 2517 017d 13       		.uleb128 0x13
 2518 017e 00       		.byte	0
 2519 017f 00       		.byte	0
 2520 0180 1F       		.uleb128 0x1f
 2521 0181 05       		.uleb128 0x5
 2522 0182 00       		.byte	0
 2523 0183 03       		.uleb128 0x3
 2524 0184 08       		.uleb128 0x8
 2525 0185 3A       		.uleb128 0x3a
 2526 0186 0B       		.uleb128 0xb
 2527 0187 3B       		.uleb128 0x3b
 2528 0188 0B       		.uleb128 0xb
 2529 0189 49       		.uleb128 0x49
 2530 018a 13       		.uleb128 0x13
 2531 018b 00       		.byte	0
 2532 018c 00       		.byte	0
 2533 018d 20       		.uleb128 0x20
 2534 018e 34       		.uleb128 0x34
 2535 018f 00       		.byte	0
 2536 0190 03       		.uleb128 0x3
 2537 0191 0E       		.uleb128 0xe
 2538 0192 49       		.uleb128 0x49
 2539 0193 13       		.uleb128 0x13
 2540 0194 34       		.uleb128 0x34
 2541 0195 19       		.uleb128 0x19
 2542 0196 1C       		.uleb128 0x1c
 2543 0197 0E       		.uleb128 0xe
 2544 0198 00       		.byte	0
 2545 0199 00       		.byte	0
 2546 019a 21       		.uleb128 0x21
 2547 019b 34       		.uleb128 0x34
 2548 019c 00       		.byte	0
 2549 019d 03       		.uleb128 0x3
 2550 019e 0E       		.uleb128 0xe
 2551 019f 3A       		.uleb128 0x3a
 2552 01a0 0B       		.uleb128 0xb
 2553 01a1 3B       		.uleb128 0x3b
 2554 01a2 0B       		.uleb128 0xb
 2555 01a3 49       		.uleb128 0x49
 2556 01a4 13       		.uleb128 0x13
 2557 01a5 00       		.byte	0
 2558 01a6 00       		.byte	0
 2559 01a7 22       		.uleb128 0x22
 2560 01a8 2E       		.uleb128 0x2e
 2561 01a9 00       		.byte	0
 2562 01aa 3F       		.uleb128 0x3f
 2563 01ab 19       		.uleb128 0x19
 2564 01ac 03       		.uleb128 0x3
 2565 01ad 0E       		.uleb128 0xe
 2566 01ae 3A       		.uleb128 0x3a
 2567 01af 0B       		.uleb128 0xb
 2568 01b0 3B       		.uleb128 0x3b
 2569 01b1 0B       		.uleb128 0xb
 2570 01b2 27       		.uleb128 0x27
 2571 01b3 19       		.uleb128 0x19
 2572 01b4 11       		.uleb128 0x11
ARM GAS  /tmp/ccGV0H6c.s 			page 78


 2573 01b5 01       		.uleb128 0x1
 2574 01b6 12       		.uleb128 0x12
 2575 01b7 06       		.uleb128 0x6
 2576 01b8 40       		.uleb128 0x40
 2577 01b9 18       		.uleb128 0x18
 2578 01ba 9742     		.uleb128 0x2117
 2579 01bc 19       		.uleb128 0x19
 2580 01bd 00       		.byte	0
 2581 01be 00       		.byte	0
 2582 01bf 23       		.uleb128 0x23
 2583 01c0 2E       		.uleb128 0x2e
 2584 01c1 01       		.byte	0x1
 2585 01c2 3F       		.uleb128 0x3f
 2586 01c3 19       		.uleb128 0x19
 2587 01c4 03       		.uleb128 0x3
 2588 01c5 0E       		.uleb128 0xe
 2589 01c6 3A       		.uleb128 0x3a
 2590 01c7 0B       		.uleb128 0xb
 2591 01c8 3B       		.uleb128 0x3b
 2592 01c9 0B       		.uleb128 0xb
 2593 01ca 27       		.uleb128 0x27
 2594 01cb 19       		.uleb128 0x19
 2595 01cc 11       		.uleb128 0x11
 2596 01cd 01       		.uleb128 0x1
 2597 01ce 12       		.uleb128 0x12
 2598 01cf 06       		.uleb128 0x6
 2599 01d0 40       		.uleb128 0x40
 2600 01d1 18       		.uleb128 0x18
 2601 01d2 9742     		.uleb128 0x2117
 2602 01d4 19       		.uleb128 0x19
 2603 01d5 01       		.uleb128 0x1
 2604 01d6 13       		.uleb128 0x13
 2605 01d7 00       		.byte	0
 2606 01d8 00       		.byte	0
 2607 01d9 24       		.uleb128 0x24
 2608 01da 05       		.uleb128 0x5
 2609 01db 00       		.byte	0
 2610 01dc 03       		.uleb128 0x3
 2611 01dd 08       		.uleb128 0x8
 2612 01de 3A       		.uleb128 0x3a
 2613 01df 0B       		.uleb128 0xb
 2614 01e0 3B       		.uleb128 0x3b
 2615 01e1 0B       		.uleb128 0xb
 2616 01e2 49       		.uleb128 0x49
 2617 01e3 13       		.uleb128 0x13
 2618 01e4 02       		.uleb128 0x2
 2619 01e5 17       		.uleb128 0x17
 2620 01e6 00       		.byte	0
 2621 01e7 00       		.byte	0
 2622 01e8 25       		.uleb128 0x25
 2623 01e9 05       		.uleb128 0x5
 2624 01ea 00       		.byte	0
 2625 01eb 03       		.uleb128 0x3
 2626 01ec 0E       		.uleb128 0xe
 2627 01ed 3A       		.uleb128 0x3a
 2628 01ee 0B       		.uleb128 0xb
 2629 01ef 3B       		.uleb128 0x3b
ARM GAS  /tmp/ccGV0H6c.s 			page 79


 2630 01f0 0B       		.uleb128 0xb
 2631 01f1 49       		.uleb128 0x49
 2632 01f2 13       		.uleb128 0x13
 2633 01f3 02       		.uleb128 0x2
 2634 01f4 17       		.uleb128 0x17
 2635 01f5 00       		.byte	0
 2636 01f6 00       		.byte	0
 2637 01f7 26       		.uleb128 0x26
 2638 01f8 34       		.uleb128 0x34
 2639 01f9 00       		.byte	0
 2640 01fa 03       		.uleb128 0x3
 2641 01fb 08       		.uleb128 0x8
 2642 01fc 3A       		.uleb128 0x3a
 2643 01fd 0B       		.uleb128 0xb
 2644 01fe 3B       		.uleb128 0x3b
 2645 01ff 0B       		.uleb128 0xb
 2646 0200 49       		.uleb128 0x49
 2647 0201 13       		.uleb128 0x13
 2648 0202 02       		.uleb128 0x2
 2649 0203 17       		.uleb128 0x17
 2650 0204 00       		.byte	0
 2651 0205 00       		.byte	0
 2652 0206 27       		.uleb128 0x27
 2653 0207 34       		.uleb128 0x34
 2654 0208 00       		.byte	0
 2655 0209 03       		.uleb128 0x3
 2656 020a 0E       		.uleb128 0xe
 2657 020b 3A       		.uleb128 0x3a
 2658 020c 0B       		.uleb128 0xb
 2659 020d 3B       		.uleb128 0x3b
 2660 020e 0B       		.uleb128 0xb
 2661 020f 49       		.uleb128 0x49
 2662 0210 13       		.uleb128 0x13
 2663 0211 02       		.uleb128 0x2
 2664 0212 17       		.uleb128 0x17
 2665 0213 00       		.byte	0
 2666 0214 00       		.byte	0
 2667 0215 28       		.uleb128 0x28
 2668 0216 34       		.uleb128 0x34
 2669 0217 00       		.byte	0
 2670 0218 03       		.uleb128 0x3
 2671 0219 0E       		.uleb128 0xe
 2672 021a 49       		.uleb128 0x49
 2673 021b 13       		.uleb128 0x13
 2674 021c 34       		.uleb128 0x34
 2675 021d 19       		.uleb128 0x19
 2676 021e 00       		.byte	0
 2677 021f 00       		.byte	0
 2678 0220 29       		.uleb128 0x29
 2679 0221 0B       		.uleb128 0xb
 2680 0222 01       		.byte	0x1
 2681 0223 55       		.uleb128 0x55
 2682 0224 17       		.uleb128 0x17
 2683 0225 00       		.byte	0
 2684 0226 00       		.byte	0
 2685 0227 2A       		.uleb128 0x2a
 2686 0228 34       		.uleb128 0x34
ARM GAS  /tmp/ccGV0H6c.s 			page 80


 2687 0229 00       		.byte	0
 2688 022a 03       		.uleb128 0x3
 2689 022b 08       		.uleb128 0x8
 2690 022c 3A       		.uleb128 0x3a
 2691 022d 0B       		.uleb128 0xb
 2692 022e 3B       		.uleb128 0x3b
 2693 022f 0B       		.uleb128 0xb
 2694 0230 49       		.uleb128 0x49
 2695 0231 13       		.uleb128 0x13
 2696 0232 00       		.byte	0
 2697 0233 00       		.byte	0
 2698 0234 2B       		.uleb128 0x2b
 2699 0235 1D       		.uleb128 0x1d
 2700 0236 01       		.byte	0x1
 2701 0237 31       		.uleb128 0x31
 2702 0238 13       		.uleb128 0x13
 2703 0239 52       		.uleb128 0x52
 2704 023a 01       		.uleb128 0x1
 2705 023b 55       		.uleb128 0x55
 2706 023c 17       		.uleb128 0x17
 2707 023d 58       		.uleb128 0x58
 2708 023e 0B       		.uleb128 0xb
 2709 023f 59       		.uleb128 0x59
 2710 0240 0B       		.uleb128 0xb
 2711 0241 01       		.uleb128 0x1
 2712 0242 13       		.uleb128 0x13
 2713 0243 00       		.byte	0
 2714 0244 00       		.byte	0
 2715 0245 2C       		.uleb128 0x2c
 2716 0246 1D       		.uleb128 0x1d
 2717 0247 01       		.byte	0x1
 2718 0248 31       		.uleb128 0x31
 2719 0249 13       		.uleb128 0x13
 2720 024a 52       		.uleb128 0x52
 2721 024b 01       		.uleb128 0x1
 2722 024c 55       		.uleb128 0x55
 2723 024d 17       		.uleb128 0x17
 2724 024e 58       		.uleb128 0x58
 2725 024f 0B       		.uleb128 0xb
 2726 0250 59       		.uleb128 0x59
 2727 0251 05       		.uleb128 0x5
 2728 0252 00       		.byte	0
 2729 0253 00       		.byte	0
 2730 0254 2D       		.uleb128 0x2d
 2731 0255 1D       		.uleb128 0x1d
 2732 0256 00       		.byte	0
 2733 0257 31       		.uleb128 0x31
 2734 0258 13       		.uleb128 0x13
 2735 0259 52       		.uleb128 0x52
 2736 025a 01       		.uleb128 0x1
 2737 025b 55       		.uleb128 0x55
 2738 025c 17       		.uleb128 0x17
 2739 025d 58       		.uleb128 0x58
 2740 025e 0B       		.uleb128 0xb
 2741 025f 59       		.uleb128 0x59
 2742 0260 0B       		.uleb128 0xb
 2743 0261 00       		.byte	0
ARM GAS  /tmp/ccGV0H6c.s 			page 81


 2744 0262 00       		.byte	0
 2745 0263 2E       		.uleb128 0x2e
 2746 0264 1D       		.uleb128 0x1d
 2747 0265 01       		.byte	0x1
 2748 0266 31       		.uleb128 0x31
 2749 0267 13       		.uleb128 0x13
 2750 0268 11       		.uleb128 0x11
 2751 0269 01       		.uleb128 0x1
 2752 026a 12       		.uleb128 0x12
 2753 026b 06       		.uleb128 0x6
 2754 026c 58       		.uleb128 0x58
 2755 026d 0B       		.uleb128 0xb
 2756 026e 59       		.uleb128 0x59
 2757 026f 0B       		.uleb128 0xb
 2758 0270 01       		.uleb128 0x1
 2759 0271 13       		.uleb128 0x13
 2760 0272 00       		.byte	0
 2761 0273 00       		.byte	0
 2762 0274 2F       		.uleb128 0x2f
 2763 0275 05       		.uleb128 0x5
 2764 0276 00       		.byte	0
 2765 0277 31       		.uleb128 0x31
 2766 0278 13       		.uleb128 0x13
 2767 0279 02       		.uleb128 0x2
 2768 027a 17       		.uleb128 0x17
 2769 027b 00       		.byte	0
 2770 027c 00       		.byte	0
 2771 027d 30       		.uleb128 0x30
 2772 027e 898201   		.uleb128 0x4109
 2773 0281 00       		.byte	0
 2774 0282 11       		.uleb128 0x11
 2775 0283 01       		.uleb128 0x1
 2776 0284 31       		.uleb128 0x31
 2777 0285 13       		.uleb128 0x13
 2778 0286 00       		.byte	0
 2779 0287 00       		.byte	0
 2780 0288 31       		.uleb128 0x31
 2781 0289 1D       		.uleb128 0x1d
 2782 028a 01       		.byte	0x1
 2783 028b 31       		.uleb128 0x31
 2784 028c 13       		.uleb128 0x13
 2785 028d 52       		.uleb128 0x52
 2786 028e 01       		.uleb128 0x1
 2787 028f 55       		.uleb128 0x55
 2788 0290 17       		.uleb128 0x17
 2789 0291 58       		.uleb128 0x58
 2790 0292 0B       		.uleb128 0xb
 2791 0293 59       		.uleb128 0x59
 2792 0294 0B       		.uleb128 0xb
 2793 0295 00       		.byte	0
 2794 0296 00       		.byte	0
 2795 0297 32       		.uleb128 0x32
 2796 0298 898201   		.uleb128 0x4109
 2797 029b 00       		.byte	0
 2798 029c 11       		.uleb128 0x11
 2799 029d 01       		.uleb128 0x1
 2800 029e 9542     		.uleb128 0x2115
ARM GAS  /tmp/ccGV0H6c.s 			page 82


 2801 02a0 19       		.uleb128 0x19
 2802 02a1 31       		.uleb128 0x31
 2803 02a2 13       		.uleb128 0x13
 2804 02a3 00       		.byte	0
 2805 02a4 00       		.byte	0
 2806 02a5 33       		.uleb128 0x33
 2807 02a6 2E       		.uleb128 0x2e
 2808 02a7 01       		.byte	0x1
 2809 02a8 31       		.uleb128 0x31
 2810 02a9 13       		.uleb128 0x13
 2811 02aa 11       		.uleb128 0x11
 2812 02ab 01       		.uleb128 0x1
 2813 02ac 12       		.uleb128 0x12
 2814 02ad 06       		.uleb128 0x6
 2815 02ae 40       		.uleb128 0x40
 2816 02af 18       		.uleb128 0x18
 2817 02b0 9742     		.uleb128 0x2117
 2818 02b2 19       		.uleb128 0x19
 2819 02b3 01       		.uleb128 0x1
 2820 02b4 13       		.uleb128 0x13
 2821 02b5 00       		.byte	0
 2822 02b6 00       		.byte	0
 2823 02b7 34       		.uleb128 0x34
 2824 02b8 34       		.uleb128 0x34
 2825 02b9 00       		.byte	0
 2826 02ba 31       		.uleb128 0x31
 2827 02bb 13       		.uleb128 0x13
 2828 02bc 00       		.byte	0
 2829 02bd 00       		.byte	0
 2830 02be 35       		.uleb128 0x35
 2831 02bf 34       		.uleb128 0x34
 2832 02c0 00       		.byte	0
 2833 02c1 31       		.uleb128 0x31
 2834 02c2 13       		.uleb128 0x13
 2835 02c3 02       		.uleb128 0x2
 2836 02c4 17       		.uleb128 0x17
 2837 02c5 00       		.byte	0
 2838 02c6 00       		.byte	0
 2839 02c7 36       		.uleb128 0x36
 2840 02c8 1D       		.uleb128 0x1d
 2841 02c9 01       		.byte	0x1
 2842 02ca 31       		.uleb128 0x31
 2843 02cb 13       		.uleb128 0x13
 2844 02cc 11       		.uleb128 0x11
 2845 02cd 01       		.uleb128 0x1
 2846 02ce 12       		.uleb128 0x12
 2847 02cf 06       		.uleb128 0x6
 2848 02d0 58       		.uleb128 0x58
 2849 02d1 0B       		.uleb128 0xb
 2850 02d2 59       		.uleb128 0x59
 2851 02d3 05       		.uleb128 0x5
 2852 02d4 01       		.uleb128 0x1
 2853 02d5 13       		.uleb128 0x13
 2854 02d6 00       		.byte	0
 2855 02d7 00       		.byte	0
 2856 02d8 37       		.uleb128 0x37
 2857 02d9 1D       		.uleb128 0x1d
ARM GAS  /tmp/ccGV0H6c.s 			page 83


 2858 02da 01       		.byte	0x1
 2859 02db 31       		.uleb128 0x31
 2860 02dc 13       		.uleb128 0x13
 2861 02dd 11       		.uleb128 0x11
 2862 02de 01       		.uleb128 0x1
 2863 02df 12       		.uleb128 0x12
 2864 02e0 06       		.uleb128 0x6
 2865 02e1 58       		.uleb128 0x58
 2866 02e2 0B       		.uleb128 0xb
 2867 02e3 59       		.uleb128 0x59
 2868 02e4 0B       		.uleb128 0xb
 2869 02e5 00       		.byte	0
 2870 02e6 00       		.byte	0
 2871 02e7 38       		.uleb128 0x38
 2872 02e8 34       		.uleb128 0x34
 2873 02e9 00       		.byte	0
 2874 02ea 03       		.uleb128 0x3
 2875 02eb 0E       		.uleb128 0xe
 2876 02ec 3A       		.uleb128 0x3a
 2877 02ed 0B       		.uleb128 0xb
 2878 02ee 3B       		.uleb128 0x3b
 2879 02ef 05       		.uleb128 0x5
 2880 02f0 49       		.uleb128 0x49
 2881 02f1 13       		.uleb128 0x13
 2882 02f2 3F       		.uleb128 0x3f
 2883 02f3 19       		.uleb128 0x19
 2884 02f4 3C       		.uleb128 0x3c
 2885 02f5 19       		.uleb128 0x19
 2886 02f6 00       		.byte	0
 2887 02f7 00       		.byte	0
 2888 02f8 39       		.uleb128 0x39
 2889 02f9 34       		.uleb128 0x34
 2890 02fa 00       		.byte	0
 2891 02fb 03       		.uleb128 0x3
 2892 02fc 08       		.uleb128 0x8
 2893 02fd 3A       		.uleb128 0x3a
 2894 02fe 0B       		.uleb128 0xb
 2895 02ff 3B       		.uleb128 0x3b
 2896 0300 05       		.uleb128 0x5
 2897 0301 49       		.uleb128 0x49
 2898 0302 13       		.uleb128 0x13
 2899 0303 3F       		.uleb128 0x3f
 2900 0304 19       		.uleb128 0x19
 2901 0305 3C       		.uleb128 0x3c
 2902 0306 19       		.uleb128 0x19
 2903 0307 00       		.byte	0
 2904 0308 00       		.byte	0
 2905 0309 3A       		.uleb128 0x3a
 2906 030a 2E       		.uleb128 0x2e
 2907 030b 01       		.byte	0x1
 2908 030c 3F       		.uleb128 0x3f
 2909 030d 19       		.uleb128 0x19
 2910 030e 03       		.uleb128 0x3
 2911 030f 0E       		.uleb128 0xe
 2912 0310 3A       		.uleb128 0x3a
 2913 0311 0B       		.uleb128 0xb
 2914 0312 3B       		.uleb128 0x3b
ARM GAS  /tmp/ccGV0H6c.s 			page 84


 2915 0313 0B       		.uleb128 0xb
 2916 0314 27       		.uleb128 0x27
 2917 0315 19       		.uleb128 0x19
 2918 0316 3C       		.uleb128 0x3c
 2919 0317 19       		.uleb128 0x19
 2920 0318 01       		.uleb128 0x1
 2921 0319 13       		.uleb128 0x13
 2922 031a 00       		.byte	0
 2923 031b 00       		.byte	0
 2924 031c 3B       		.uleb128 0x3b
 2925 031d 2E       		.uleb128 0x2e
 2926 031e 00       		.byte	0
 2927 031f 3F       		.uleb128 0x3f
 2928 0320 19       		.uleb128 0x19
 2929 0321 03       		.uleb128 0x3
 2930 0322 0E       		.uleb128 0xe
 2931 0323 3A       		.uleb128 0x3a
 2932 0324 0B       		.uleb128 0xb
 2933 0325 3B       		.uleb128 0x3b
 2934 0326 0B       		.uleb128 0xb
 2935 0327 27       		.uleb128 0x27
 2936 0328 19       		.uleb128 0x19
 2937 0329 3C       		.uleb128 0x3c
 2938 032a 19       		.uleb128 0x19
 2939 032b 00       		.byte	0
 2940 032c 00       		.byte	0
 2941 032d 00       		.byte	0
 2942              		.section	.debug_loc,"",%progbits
 2943              	.Ldebug_loc0:
 2944              	.LLST0:
 2945 0000 00000000 		.4byte	.LVL0
 2946 0004 3C000000 		.4byte	.LVL6
 2947 0008 0100     		.2byte	0x1
 2948 000a 50       		.byte	0x50
 2949 000b 3C000000 		.4byte	.LVL6
 2950 000f 62000000 		.4byte	.LVL11
 2951 0013 0100     		.2byte	0x1
 2952 0015 56       		.byte	0x56
 2953 0016 62000000 		.4byte	.LVL11
 2954 001a 6E000000 		.4byte	.LVL16
 2955 001e 0100     		.2byte	0x1
 2956 0020 50       		.byte	0x50
 2957 0021 6E000000 		.4byte	.LVL16
 2958 0025 78000000 		.4byte	.LVL18
 2959 0029 0100     		.2byte	0x1
 2960 002b 56       		.byte	0x56
 2961 002c 78000000 		.4byte	.LVL18
 2962 0030 7A000000 		.4byte	.LVL19
 2963 0034 0100     		.2byte	0x1
 2964 0036 50       		.byte	0x50
 2965 0037 7A000000 		.4byte	.LVL19
 2966 003b 8C000000 		.4byte	.LVL21
 2967 003f 0100     		.2byte	0x1
 2968 0041 56       		.byte	0x56
 2969 0042 8C000000 		.4byte	.LVL21
 2970 0046 8F000000 		.4byte	.LVL22-1
 2971 004a 0200     		.2byte	0x2
ARM GAS  /tmp/ccGV0H6c.s 			page 85


 2972 004c 7C       		.byte	0x7c
 2973 004d 00       		.sleb128 0
 2974 004e 8F000000 		.4byte	.LVL22-1
 2975 0052 90000000 		.4byte	.LFE187
 2976 0056 0400     		.2byte	0x4
 2977 0058 F3       		.byte	0xf3
 2978 0059 01       		.uleb128 0x1
 2979 005a 50       		.byte	0x50
 2980 005b 9F       		.byte	0x9f
 2981 005c 00000000 		.4byte	0
 2982 0060 00000000 		.4byte	0
 2983              	.LLST1:
 2984 0064 00000000 		.4byte	.LVL0
 2985 0068 1C000000 		.4byte	.LVL1
 2986 006c 0100     		.2byte	0x1
 2987 006e 51       		.byte	0x51
 2988 006f 1C000000 		.4byte	.LVL1
 2989 0073 26000000 		.4byte	.LVL2
 2990 0077 0400     		.2byte	0x4
 2991 0079 F3       		.byte	0xf3
 2992 007a 01       		.uleb128 0x1
 2993 007b 51       		.byte	0x51
 2994 007c 9F       		.byte	0x9f
 2995 007d 26000000 		.4byte	.LVL2
 2996 0081 3C000000 		.4byte	.LVL6
 2997 0085 0100     		.2byte	0x1
 2998 0087 51       		.byte	0x51
 2999 0088 62000000 		.4byte	.LVL11
 3000 008c 73000000 		.4byte	.LVL17-1
 3001 0090 0100     		.2byte	0x1
 3002 0092 51       		.byte	0x51
 3003 0093 78000000 		.4byte	.LVL18
 3004 0097 8F000000 		.4byte	.LVL22-1
 3005 009b 0100     		.2byte	0x1
 3006 009d 51       		.byte	0x51
 3007 009e 00000000 		.4byte	0
 3008 00a2 00000000 		.4byte	0
 3009              	.LLST2:
 3010 00a6 00000000 		.4byte	.LVL0
 3011 00aa 2A000000 		.4byte	.LVL4
 3012 00ae 0100     		.2byte	0x1
 3013 00b0 52       		.byte	0x52
 3014 00b1 2A000000 		.4byte	.LVL4
 3015 00b5 3C000000 		.4byte	.LVL6
 3016 00b9 0200     		.2byte	0x2
 3017 00bb 70       		.byte	0x70
 3018 00bc 0C       		.sleb128 12
 3019 00bd 3C000000 		.4byte	.LVL6
 3020 00c1 62000000 		.4byte	.LVL11
 3021 00c5 0400     		.2byte	0x4
 3022 00c7 F3       		.byte	0xf3
 3023 00c8 01       		.uleb128 0x1
 3024 00c9 52       		.byte	0x52
 3025 00ca 9F       		.byte	0x9f
 3026 00cb 62000000 		.4byte	.LVL11
 3027 00cf 6E000000 		.4byte	.LVL16
 3028 00d3 0200     		.2byte	0x2
ARM GAS  /tmp/ccGV0H6c.s 			page 86


 3029 00d5 70       		.byte	0x70
 3030 00d6 0C       		.sleb128 12
 3031 00d7 6E000000 		.4byte	.LVL16
 3032 00db 73000000 		.4byte	.LVL17-1
 3033 00df 0200     		.2byte	0x2
 3034 00e1 76       		.byte	0x76
 3035 00e2 0C       		.sleb128 12
 3036 00e3 73000000 		.4byte	.LVL17-1
 3037 00e7 78000000 		.4byte	.LVL18
 3038 00eb 0400     		.2byte	0x4
 3039 00ed F3       		.byte	0xf3
 3040 00ee 01       		.uleb128 0x1
 3041 00ef 52       		.byte	0x52
 3042 00f0 9F       		.byte	0x9f
 3043 00f1 78000000 		.4byte	.LVL18
 3044 00f5 8F000000 		.4byte	.LVL22-1
 3045 00f9 0100     		.2byte	0x1
 3046 00fb 52       		.byte	0x52
 3047 00fc 8F000000 		.4byte	.LVL22-1
 3048 0100 90000000 		.4byte	.LFE187
 3049 0104 0400     		.2byte	0x4
 3050 0106 F3       		.byte	0xf3
 3051 0107 01       		.uleb128 0x1
 3052 0108 52       		.byte	0x52
 3053 0109 9F       		.byte	0x9f
 3054 010a 00000000 		.4byte	0
 3055 010e 00000000 		.4byte	0
 3056              	.LLST3:
 3057 0112 00000000 		.4byte	.LVL0
 3058 0116 26000000 		.4byte	.LVL2
 3059 011a 0100     		.2byte	0x1
 3060 011c 53       		.byte	0x53
 3061 011d 26000000 		.4byte	.LVL2
 3062 0121 3C000000 		.4byte	.LVL6
 3063 0125 0200     		.2byte	0x2
 3064 0127 70       		.byte	0x70
 3065 0128 10       		.sleb128 16
 3066 0129 3C000000 		.4byte	.LVL6
 3067 012d 62000000 		.4byte	.LVL11
 3068 0131 0400     		.2byte	0x4
 3069 0133 F3       		.byte	0xf3
 3070 0134 01       		.uleb128 0x1
 3071 0135 53       		.byte	0x53
 3072 0136 9F       		.byte	0x9f
 3073 0137 62000000 		.4byte	.LVL11
 3074 013b 6E000000 		.4byte	.LVL16
 3075 013f 0200     		.2byte	0x2
 3076 0141 70       		.byte	0x70
 3077 0142 10       		.sleb128 16
 3078 0143 6E000000 		.4byte	.LVL16
 3079 0147 73000000 		.4byte	.LVL17-1
 3080 014b 0200     		.2byte	0x2
 3081 014d 76       		.byte	0x76
 3082 014e 10       		.sleb128 16
 3083 014f 73000000 		.4byte	.LVL17-1
 3084 0153 78000000 		.4byte	.LVL18
 3085 0157 0400     		.2byte	0x4
ARM GAS  /tmp/ccGV0H6c.s 			page 87


 3086 0159 F3       		.byte	0xf3
 3087 015a 01       		.uleb128 0x1
 3088 015b 53       		.byte	0x53
 3089 015c 9F       		.byte	0x9f
 3090 015d 78000000 		.4byte	.LVL18
 3091 0161 7A000000 		.4byte	.LVL19
 3092 0165 0200     		.2byte	0x2
 3093 0167 70       		.byte	0x70
 3094 0168 10       		.sleb128 16
 3095 0169 7A000000 		.4byte	.LVL19
 3096 016d 8C000000 		.4byte	.LVL21
 3097 0171 0200     		.2byte	0x2
 3098 0173 76       		.byte	0x76
 3099 0174 10       		.sleb128 16
 3100 0175 8C000000 		.4byte	.LVL21
 3101 0179 8F000000 		.4byte	.LVL22-1
 3102 017d 0500     		.2byte	0x5
 3103 017f 7C       		.byte	0x7c
 3104 0180 00       		.sleb128 0
 3105 0181 06       		.byte	0x6
 3106 0182 23       		.byte	0x23
 3107 0183 10       		.uleb128 0x10
 3108 0184 8F000000 		.4byte	.LVL22-1
 3109 0188 90000000 		.4byte	.LFE187
 3110 018c 0400     		.2byte	0x4
 3111 018e F3       		.byte	0xf3
 3112 018f 01       		.uleb128 0x1
 3113 0190 53       		.byte	0x53
 3114 0191 9F       		.byte	0x9f
 3115 0192 00000000 		.4byte	0
 3116 0196 00000000 		.4byte	0
 3117              	.LLST4:
 3118 019a 28000000 		.4byte	.LVL3
 3119 019e 3E000000 		.4byte	.LVL7
 3120 01a2 0100     		.2byte	0x1
 3121 01a4 54       		.byte	0x54
 3122 01a5 44000000 		.4byte	.LVL9
 3123 01a9 64000000 		.4byte	.LVL12
 3124 01ad 0100     		.2byte	0x1
 3125 01af 54       		.byte	0x54
 3126 01b0 64000000 		.4byte	.LVL12
 3127 01b4 68000000 		.4byte	.LVL14
 3128 01b8 0200     		.2byte	0x2
 3129 01ba 7C       		.byte	0x7c
 3130 01bb 00       		.sleb128 0
 3131 01bc 68000000 		.4byte	.LVL14
 3132 01c0 78000000 		.4byte	.LVL18
 3133 01c4 0100     		.2byte	0x1
 3134 01c6 54       		.byte	0x54
 3135 01c7 00000000 		.4byte	0
 3136 01cb 00000000 		.4byte	0
 3137              	.LLST5:
 3138 01cf 30000000 		.4byte	.LVL5
 3139 01d3 40000000 		.4byte	.LVL8
 3140 01d7 0100     		.2byte	0x1
 3141 01d9 55       		.byte	0x55
 3142 01da 44000000 		.4byte	.LVL9
ARM GAS  /tmp/ccGV0H6c.s 			page 88


 3143 01de 5C000000 		.4byte	.LVL10
 3144 01e2 0100     		.2byte	0x1
 3145 01e4 55       		.byte	0x55
 3146 01e5 62000000 		.4byte	.LVL11
 3147 01e9 66000000 		.4byte	.LVL13
 3148 01ed 0100     		.2byte	0x1
 3149 01ef 55       		.byte	0x55
 3150 01f0 68000000 		.4byte	.LVL14
 3151 01f4 78000000 		.4byte	.LVL18
 3152 01f8 0100     		.2byte	0x1
 3153 01fa 55       		.byte	0x55
 3154 01fb 00000000 		.4byte	0
 3155 01ff 00000000 		.4byte	0
 3156              	.LLST6:
 3157 0203 6C000000 		.4byte	.LVL15
 3158 0207 73000000 		.4byte	.LVL17-1
 3159 020b 0600     		.2byte	0x6
 3160 020d 75       		.byte	0x75
 3161 020e 00       		.sleb128 0
 3162 020f 72       		.byte	0x72
 3163 0210 00       		.sleb128 0
 3164 0211 22       		.byte	0x22
 3165 0212 9F       		.byte	0x9f
 3166 0213 00000000 		.4byte	0
 3167 0217 00000000 		.4byte	0
 3168              	.LLST7:
 3169 021b 88000000 		.4byte	.LVL20
 3170 021f 8C000000 		.4byte	.LVL21
 3171 0223 0600     		.2byte	0x6
 3172 0225 71       		.byte	0x71
 3173 0226 00       		.sleb128 0
 3174 0227 73       		.byte	0x73
 3175 0228 00       		.sleb128 0
 3176 0229 22       		.byte	0x22
 3177 022a 9F       		.byte	0x9f
 3178 022b 00000000 		.4byte	0
 3179 022f 00000000 		.4byte	0
 3180              	.LLST8:
 3181 0233 00000000 		.4byte	.LVL23
 3182 0237 2C000000 		.4byte	.LVL24
 3183 023b 0100     		.2byte	0x1
 3184 023d 50       		.byte	0x50
 3185 023e 2C000000 		.4byte	.LVL24
 3186 0242 30000000 		.4byte	.LVL25
 3187 0246 0400     		.2byte	0x4
 3188 0248 F3       		.byte	0xf3
 3189 0249 01       		.uleb128 0x1
 3190 024a 50       		.byte	0x50
 3191 024b 9F       		.byte	0x9f
 3192 024c 30000000 		.4byte	.LVL25
 3193 0250 34000000 		.4byte	.LVL26
 3194 0254 0100     		.2byte	0x1
 3195 0256 50       		.byte	0x50
 3196 0257 34000000 		.4byte	.LVL26
 3197 025b 78000000 		.4byte	.LFE188
 3198 025f 0400     		.2byte	0x4
 3199 0261 F3       		.byte	0xf3
ARM GAS  /tmp/ccGV0H6c.s 			page 89


 3200 0262 01       		.uleb128 0x1
 3201 0263 50       		.byte	0x50
 3202 0264 9F       		.byte	0x9f
 3203 0265 00000000 		.4byte	0
 3204 0269 00000000 		.4byte	0
 3205              	.LLST9:
 3206 026d 30000000 		.4byte	.LVL25
 3207 0271 50000000 		.4byte	.LVL27
 3208 0275 0100     		.2byte	0x1
 3209 0277 52       		.byte	0x52
 3210 0278 72000000 		.4byte	.LVL32
 3211 027c 77000000 		.4byte	.LVL33-1
 3212 0280 0100     		.2byte	0x1
 3213 0282 52       		.byte	0x52
 3214 0283 00000000 		.4byte	0
 3215 0287 00000000 		.4byte	0
 3216              	.LLST10:
 3217 028b 58000000 		.4byte	.LVL28
 3218 028f 6C000000 		.4byte	.LVL31
 3219 0293 0100     		.2byte	0x1
 3220 0295 50       		.byte	0x50
 3221 0296 00000000 		.4byte	0
 3222 029a 00000000 		.4byte	0
 3223              	.LLST11:
 3224 029e 64000000 		.4byte	.LVL29
 3225 02a2 71000000 		.4byte	.LVL32-1
 3226 02a6 0100     		.2byte	0x1
 3227 02a8 53       		.byte	0x53
 3228 02a9 00000000 		.4byte	0
 3229 02ad 00000000 		.4byte	0
 3230              	.LLST12:
 3231 02b1 6A000000 		.4byte	.LVL30
 3232 02b5 71000000 		.4byte	.LVL32-1
 3233 02b9 0600     		.2byte	0x6
 3234 02bb 73       		.byte	0x73
 3235 02bc 00       		.sleb128 0
 3236 02bd 72       		.byte	0x72
 3237 02be 00       		.sleb128 0
 3238 02bf 22       		.byte	0x22
 3239 02c0 9F       		.byte	0x9f
 3240 02c1 00000000 		.4byte	0
 3241 02c5 00000000 		.4byte	0
 3242              		.section	.debug_aranges,"",%progbits
 3243 0000 2C000000 		.4byte	0x2c
 3244 0004 0200     		.2byte	0x2
 3245 0006 00000000 		.4byte	.Ldebug_info0
 3246 000a 04       		.byte	0x4
 3247 000b 00       		.byte	0
 3248 000c 0000     		.2byte	0
 3249 000e 0000     		.2byte	0
 3250 0010 00000000 		.4byte	.LFB186
 3251 0014 1C000000 		.4byte	.LFE186-.LFB186
 3252 0018 00000000 		.4byte	.LFB187
 3253 001c 90000000 		.4byte	.LFE187-.LFB187
 3254 0020 00000000 		.4byte	.LFB188
 3255 0024 78000000 		.4byte	.LFE188-.LFB188
 3256 0028 00000000 		.4byte	0
ARM GAS  /tmp/ccGV0H6c.s 			page 90


 3257 002c 00000000 		.4byte	0
 3258              		.section	.debug_ranges,"",%progbits
 3259              	.Ldebug_ranges0:
 3260 0000 02000000 		.4byte	.LBB35
 3261 0004 1E000000 		.4byte	.LBE35
 3262 0008 24000000 		.4byte	.LBB50
 3263 000c 3C000000 		.4byte	.LBE50
 3264 0010 62000000 		.4byte	.LBB51
 3265 0014 88000000 		.4byte	.LBE51
 3266 0018 8C000000 		.4byte	.LBB52
 3267 001c 90000000 		.4byte	.LBE52
 3268 0020 00000000 		.4byte	0
 3269 0024 00000000 		.4byte	0
 3270 0028 10000000 		.4byte	.LBB36
 3271 002c 16000000 		.4byte	.LBE36
 3272 0030 24000000 		.4byte	.LBB43
 3273 0034 26000000 		.4byte	.LBE43
 3274 0038 00000000 		.4byte	0
 3275 003c 00000000 		.4byte	0
 3276 0040 80000000 		.4byte	.LBB46
 3277 0044 82000000 		.4byte	.LBE46
 3278 0048 8C000000 		.4byte	.LBB49
 3279 004c 90000000 		.4byte	.LBE49
 3280 0050 00000000 		.4byte	0
 3281 0054 00000000 		.4byte	0
 3282 0058 30000000 		.4byte	.LBB63
 3283 005c 5E000000 		.4byte	.LBE63
 3284 0060 60000000 		.4byte	.LBB79
 3285 0064 72000000 		.4byte	.LBE79
 3286 0068 74000000 		.4byte	.LBB80
 3287 006c 78000000 		.4byte	.LBE80
 3288 0070 00000000 		.4byte	0
 3289 0074 00000000 		.4byte	0
 3290 0078 42000000 		.4byte	.LBB65
 3291 007c 48000000 		.4byte	.LBE65
 3292 0080 4E000000 		.4byte	.LBB72
 3293 0084 50000000 		.4byte	.LBE72
 3294 0088 00000000 		.4byte	0
 3295 008c 00000000 		.4byte	0
 3296 0090 00000000 		.4byte	.LFB186
 3297 0094 1C000000 		.4byte	.LFE186
 3298 0098 00000000 		.4byte	.LFB187
 3299 009c 90000000 		.4byte	.LFE187
 3300 00a0 00000000 		.4byte	.LFB188
 3301 00a4 78000000 		.4byte	.LFE188
 3302 00a8 00000000 		.4byte	0
 3303 00ac 00000000 		.4byte	0
 3304              		.section	.debug_line,"",%progbits
 3305              	.Ldebug_line0:
 3306 0000 17030000 		.section	.debug_str,"MS",%progbits,1
 3306      02001302 
 3306      00000201 
 3306      FB0E0D00 
 3306      01010101 
 3307              	.LASF42:
 3308 0000 63685F74 		.ascii	"ch_threads_list\000"
 3308      68726561 
ARM GAS  /tmp/ccGV0H6c.s 			page 91


 3308      64735F6C 
 3308      69737400 
 3309              	.LASF89:
 3310 0010 77746D74 		.ascii	"wtmtxp\000"
 3310      787000
 3311              	.LASF82:
 3312 0017 746D5F63 		.ascii	"tm_calibration_t\000"
 3312      616C6962 
 3312      72617469 
 3312      6F6E5F74 
 3312      00
 3313              	.LASF67:
 3314 0028 72656761 		.ascii	"regarm_t\000"
 3314      726D5F74 
 3314      00
 3315              	.LASF115:
 3316 0031 5F76745F 		.ascii	"_vt_init\000"
 3316      696E6974 
 3316      00
 3317              	.LASF31:
 3318 003a 666C6167 		.ascii	"flags\000"
 3318      7300
 3319              	.LASF22:
 3320 0040 73797374 		.ascii	"systime_t\000"
 3320      696D655F 
 3320      7400
 3321              	.LASF37:
 3322 004a 7265616C 		.ascii	"realprio\000"
 3322      7072696F 
 3322      00
 3323              	.LASF106:
 3324 0053 76746675 		.ascii	"vtfunc\000"
 3324      6E6300
 3325              	.LASF35:
 3326 005a 6570656E 		.ascii	"epending\000"
 3326      64696E67 
 3326      00
 3327              	.LASF0:
 3328 0063 756E7369 		.ascii	"unsigned int\000"
 3328      676E6564 
 3328      20696E74 
 3328      00
 3329              	.LASF43:
 3330 0070 6E657874 		.ascii	"next\000"
 3330      00
 3331              	.LASF99:
 3332 0075 63685654 		.ascii	"chVTGetSystemTimeX\000"
 3332      47657453 
 3332      79737465 
 3332      6D54696D 
 3332      655800
 3333              	.LASF40:
 3334 0088 74687265 		.ascii	"threads_list_t\000"
 3334      6164735F 
 3334      6C697374 
 3334      5F7400
 3335              	.LASF32:
ARM GAS  /tmp/ccGV0H6c.s 			page 92


 3336 0097 72656673 		.ascii	"refs\000"
 3336      00
 3337              	.LASF85:
 3338 009c 77746F62 		.ascii	"wtobjp\000"
 3338      6A7000
 3339              	.LASF64:
 3340 00a3 76746C69 		.ascii	"vtlist\000"
 3340      737400
 3341              	.LASF69:
 3342 00aa 706F7274 		.ascii	"port_context\000"
 3342      5F636F6E 
 3342      74657874 
 3342      00
 3343              	.LASF48:
 3344 00b7 63685F72 		.ascii	"ch_ready_list\000"
 3344      65616479 
 3344      5F6C6973 
 3344      7400
 3345              	.LASF54:
 3346 00c5 66756E63 		.ascii	"func\000"
 3346      00
 3347              	.LASF90:
 3348 00ca 65776D61 		.ascii	"ewmask\000"
 3348      736B00
 3349              	.LASF46:
 3350 00d1 70726576 		.ascii	"prev\000"
 3350      00
 3351              	.LASF45:
 3352 00d6 63685F74 		.ascii	"ch_threads_queue\000"
 3352      68726561 
 3352      64735F71 
 3352      75657565 
 3352      00
 3353              	.LASF77:
 3354 00e7 444D4152 		.ascii	"DMAR\000"
 3354      00
 3355              	.LASF50:
 3356 00ec 76746675 		.ascii	"vtfunc_t\000"
 3356      6E635F74 
 3356      00
 3357              	.LASF59:
 3358 00f5 63685F73 		.ascii	"ch_system_debug\000"
 3358      79737465 
 3358      6D5F6465 
 3358      62756700 
 3359              	.LASF9:
 3360 0105 75696E74 		.ascii	"uint32_t\000"
 3360      33325F74 
 3360      00
 3361              	.LASF109:
 3362 010e 73745365 		.ascii	"stSetAlarm\000"
 3362      74416C61 
 3362      726D00
 3363              	.LASF87:
 3364 0119 73656E74 		.ascii	"sentmsg\000"
 3364      6D736700 
 3365              	.LASF20:
ARM GAS  /tmp/ccGV0H6c.s 			page 93


 3366 0121 6576656E 		.ascii	"eventmask_t\000"
 3366      746D6173 
 3366      6B5F7400 
 3367              	.LASF76:
 3368 012d 42445452 		.ascii	"BDTR\000"
 3368      00
 3369              	.LASF110:
 3370 0132 73745374 		.ascii	"stStartAlarm\000"
 3370      61727441 
 3370      6C61726D 
 3370      00
 3371              	.LASF91:
 3372 013f 63685F73 		.ascii	"ch_semaphore\000"
 3372      656D6170 
 3372      686F7265 
 3372      00
 3373              	.LASF18:
 3374 014c 74707269 		.ascii	"tprio_t\000"
 3374      6F5F7400 
 3375              	.LASF52:
 3376 0154 63685F76 		.ascii	"ch_virtual_timer\000"
 3376      69727475 
 3376      616C5F74 
 3376      696D6572 
 3376      00
 3377              	.LASF73:
 3378 0165 43434D52 		.ascii	"CCMR1\000"
 3378      3100
 3379              	.LASF74:
 3380 016b 43434D52 		.ascii	"CCMR2\000"
 3380      3200
 3381              	.LASF78:
 3382 0171 43434D52 		.ascii	"CCMR3\000"
 3382      3300
 3383              	.LASF13:
 3384 0177 6C6F6E67 		.ascii	"long long unsigned int\000"
 3384      206C6F6E 
 3384      6720756E 
 3384      7369676E 
 3384      65642069 
 3385              	.LASF97:
 3386 018e 73745F6C 		.ascii	"st_lld_get_counter\000"
 3386      6C645F67 
 3386      65745F63 
 3386      6F756E74 
 3386      657200
 3387              	.LASF21:
 3388 01a1 636E745F 		.ascii	"cnt_t\000"
 3388      7400
 3389              	.LASF103:
 3390 01a7 5F5F6675 		.ascii	"__func__.5924\000"
 3390      6E635F5F 
 3390      2E353932 
 3390      3400
 3391              	.LASF104:
 3392 01b5 6E6F7764 		.ascii	"nowdelta\000"
 3392      656C7461 
ARM GAS  /tmp/ccGV0H6c.s 			page 94


 3392      00
 3393              	.LASF102:
 3394 01be 74696D65 		.ascii	"time\000"
 3394      00
 3395              	.LASF93:
 3396 01c3 6F776E65 		.ascii	"owner\000"
 3396      7200
 3397              	.LASF44:
 3398 01c9 74687265 		.ascii	"threads_queue_t\000"
 3398      6164735F 
 3398      71756575 
 3398      655F7400 
 3399              	.LASF36:
 3400 01d9 6D74786C 		.ascii	"mtxlist\000"
 3400      69737400 
 3401              	.LASF56:
 3402 01e1 63685F76 		.ascii	"ch_virtual_timers_list\000"
 3402      69727475 
 3402      616C5F74 
 3402      696D6572 
 3402      735F6C69 
 3403              	.LASF23:
 3404 01f8 74687265 		.ascii	"thread_t\000"
 3404      61645F74 
 3404      00
 3405              	.LASF83:
 3406 0201 7264796D 		.ascii	"rdymsg\000"
 3406      736700
 3407              	.LASF81:
 3408 0208 6F666673 		.ascii	"offset\000"
 3408      657400
 3409              	.LASF80:
 3410 020f 73746D33 		.ascii	"stm32_tim_t\000"
 3410      325F7469 
 3410      6D5F7400 
 3411              	.LASF96:
 3412 021b 5F426F6F 		.ascii	"_Bool\000"
 3412      6C00
 3413              	.LASF92:
 3414 0221 63685F6D 		.ascii	"ch_mutex\000"
 3414      75746578 
 3414      00
 3415              	.LASF72:
 3416 022a 44494552 		.ascii	"DIER\000"
 3416      00
 3417              	.LASF98:
 3418 022f 706F7274 		.ascii	"port_timer_get_time\000"
 3418      5F74696D 
 3418      65725F67 
 3418      65745F74 
 3418      696D6500 
 3419              	.LASF111:
 3420 0243 474E5520 		.ascii	"GNU C 4.8.1 -mcpu=cortex-m3 -mno-thumb-interwork -m"
 3420      4320342E 
 3420      382E3120 
 3420      2D6D6370 
 3420      753D636F 
ARM GAS  /tmp/ccGV0H6c.s 			page 95


 3421 0276 7468756D 		.ascii	"thumb -ggdb -O2 -fomit-frame-pointer -falign-functi"
 3421      62202D67 
 3421      67646220 
 3421      2D4F3220 
 3421      2D666F6D 
 3422 02a9 6F6E733D 		.ascii	"ons=16 -ffunction-sections -fdata-sections -fno-com"
 3422      3136202D 
 3422      6666756E 
 3422      6374696F 
 3422      6E2D7365 
 3423 02dc 6D6F6E20 		.ascii	"mon -flto\000"
 3423      2D666C74 
 3423      6F00
 3424              	.LASF25:
 3425 02e6 7072696F 		.ascii	"prio\000"
 3425      00
 3426              	.LASF75:
 3427 02eb 43434552 		.ascii	"CCER\000"
 3427      00
 3428              	.LASF94:
 3429 02f0 63686172 		.ascii	"char\000"
 3429      00
 3430              	.LASF39:
 3431 02f5 74687265 		.ascii	"thread_reference_t\000"
 3431      61645F72 
 3431      65666572 
 3431      656E6365 
 3431      5F7400
 3432              	.LASF29:
 3433 0308 77616261 		.ascii	"wabase\000"
 3433      736500
 3434              	.LASF16:
 3435 030f 74737461 		.ascii	"tstate_t\000"
 3435      74655F74 
 3435      00
 3436              	.LASF4:
 3437 0318 75696E74 		.ascii	"uint8_t\000"
 3437      385F7400 
 3438              	.LASF112:
 3439 0320 2E2E2F2E 		.ascii	"../../../os/rt/src/chvt.c\000"
 3439      2E2F2E2E 
 3439      2F6F732F 
 3439      72742F73 
 3439      72632F63 
 3440              	.LASF34:
 3441 033a 6D736771 		.ascii	"msgqueue\000"
 3441      75657565 
 3441      00
 3442              	.LASF71:
 3443 0343 534D4352 		.ascii	"SMCR\000"
 3443      00
 3444              	.LASF41:
 3445 0348 63685F74 		.ascii	"ch_thread\000"
 3445      68726561 
 3445      6400
 3446              	.LASF100:
 3447 0352 706F7274 		.ascii	"port_timer_start_alarm\000"
ARM GAS  /tmp/ccGV0H6c.s 			page 96


 3447      5F74696D 
 3447      65725F73 
 3447      74617274 
 3447      5F616C61 
 3448              	.LASF58:
 3449 0369 73797374 		.ascii	"system_debug_t\000"
 3449      656D5F64 
 3449      65627567 
 3449      5F7400
 3450              	.LASF11:
 3451 0378 6C6F6E67 		.ascii	"long long int\000"
 3451      206C6F6E 
 3451      6720696E 
 3451      7400
 3452              	.LASF19:
 3453 0386 6D73675F 		.ascii	"msg_t\000"
 3453      7400
 3454              	.LASF108:
 3455 038c 63685654 		.ascii	"chVTDoResetI\000"
 3455      446F5265 
 3455      73657449 
 3455      00
 3456              	.LASF51:
 3457 0399 76697274 		.ascii	"virtual_timer_t\000"
 3457      75616C5F 
 3457      74696D65 
 3457      725F7400 
 3458              	.LASF117:
 3459 03a9 5F5F6675 		.ascii	"__func__.5916\000"
 3459      6E635F5F 
 3459      2E353931 
 3459      3600
 3460              	.LASF60:
 3461 03b7 70616E69 		.ascii	"panic_msg\000"
 3461      635F6D73 
 3461      6700
 3462              	.LASF15:
 3463 03c1 746D6F64 		.ascii	"tmode_t\000"
 3463      655F7400 
 3464              	.LASF65:
 3465 03c9 6D61696E 		.ascii	"mainthread\000"
 3465      74687265 
 3465      616400
 3466              	.LASF101:
 3467 03d4 706F7274 		.ascii	"port_timer_set_alarm\000"
 3467      5F74696D 
 3467      65725F73 
 3467      65745F61 
 3467      6C61726D 
 3468              	.LASF5:
 3469 03e9 75696E74 		.ascii	"uint16_t\000"
 3469      31365F74 
 3469      00
 3470              	.LASF14:
 3471 03f2 7274636E 		.ascii	"rtcnt_t\000"
 3471      745F7400 
 3472              	.LASF79:
ARM GAS  /tmp/ccGV0H6c.s 			page 97


 3473 03fa 43435852 		.ascii	"CCXR\000"
 3473      00
 3474              	.LASF3:
 3475 03ff 73686F72 		.ascii	"short int\000"
 3475      7420696E 
 3475      7400
 3476              	.LASF8:
 3477 0409 6C6F6E67 		.ascii	"long int\000"
 3477      20696E74 
 3477      00
 3478              	.LASF70:
 3479 0412 706F7274 		.ascii	"port_intctx\000"
 3479      5F696E74 
 3479      63747800 
 3480              	.LASF107:
 3481 041e 49544D5F 		.ascii	"ITM_RxBuffer\000"
 3481      52784275 
 3481      66666572 
 3481      00
 3482              	.LASF105:
 3483 042b 64656C61 		.ascii	"delay\000"
 3483      7900
 3484              	.LASF62:
 3485 0431 63685F73 		.ascii	"ch_system\000"
 3485      79737465 
 3485      6D00
 3486              	.LASF118:
 3487 043b 73745374 		.ascii	"stStopAlarm\000"
 3487      6F70416C 
 3487      61726D00 
 3488              	.LASF57:
 3489 0447 6C617374 		.ascii	"lasttime\000"
 3489      74696D65 
 3489      00
 3490              	.LASF12:
 3491 0450 75696E74 		.ascii	"uint64_t\000"
 3491      36345F74 
 3491      00
 3492              	.LASF63:
 3493 0459 726C6973 		.ascii	"rlist\000"
 3493      7400
 3494              	.LASF28:
 3495 045f 6E616D65 		.ascii	"name\000"
 3495      00
 3496              	.LASF66:
 3497 0464 73697A65 		.ascii	"sizetype\000"
 3497      74797065 
 3497      00
 3498              	.LASF17:
 3499 046d 74726566 		.ascii	"trefs_t\000"
 3499      735F7400 
 3500              	.LASF114:
 3501 0475 706F7274 		.ascii	"port_timer_stop_alarm\000"
 3501      5F74696D 
 3501      65725F73 
 3501      746F705F 
 3501      616C6172 
ARM GAS  /tmp/ccGV0H6c.s 			page 98


 3502              	.LASF10:
 3503 048b 6C6F6E67 		.ascii	"long unsigned int\000"
 3503      20756E73 
 3503      69676E65 
 3503      6420696E 
 3503      7400
 3504              	.LASF116:
 3505 049d 63685654 		.ascii	"chVTDoSetI\000"
 3505      446F5365 
 3505      744900
 3506              	.LASF47:
 3507 04a8 72656164 		.ascii	"ready_list_t\000"
 3507      795F6C69 
 3507      73745F74 
 3507      00
 3508              	.LASF24:
 3509 04b5 71756575 		.ascii	"queue\000"
 3509      6500
 3510              	.LASF7:
 3511 04bb 696E7433 		.ascii	"int32_t\000"
 3511      325F7400 
 3512              	.LASF95:
 3513 04c3 6D757465 		.ascii	"mutex_t\000"
 3513      785F7400 
 3514              	.LASF26:
 3515 04cb 6E657765 		.ascii	"newer\000"
 3515      7200
 3516              	.LASF2:
 3517 04d1 756E7369 		.ascii	"unsigned char\000"
 3517      676E6564 
 3517      20636861 
 3517      7200
 3518              	.LASF33:
 3519 04df 77616974 		.ascii	"waiting\000"
 3519      696E6700 
 3520              	.LASF55:
 3521 04e7 76697274 		.ascii	"virtual_timers_list_t\000"
 3521      75616C5F 
 3521      74696D65 
 3521      72735F6C 
 3521      6973745F 
 3522              	.LASF27:
 3523 04fd 6F6C6465 		.ascii	"older\000"
 3523      7200
 3524              	.LASF30:
 3525 0503 73746174 		.ascii	"state\000"
 3525      6500
 3526              	.LASF61:
 3527 0509 63685F73 		.ascii	"ch_system_t\000"
 3527      79737465 
 3527      6D5F7400 
 3528              	.LASF88:
 3529 0515 77747365 		.ascii	"wtsemp\000"
 3529      6D7000
 3530              	.LASF86:
 3531 051c 77747472 		.ascii	"wttrp\000"
 3531      7000
ARM GAS  /tmp/ccGV0H6c.s 			page 99


 3532              	.LASF1:
 3533 0522 7369676E 		.ascii	"signed char\000"
 3533      65642063 
 3533      68617200 
 3534              	.LASF53:
 3535 052e 64656C74 		.ascii	"delta\000"
 3535      6100
 3536              	.LASF6:
 3537 0534 73686F72 		.ascii	"short unsigned int\000"
 3537      7420756E 
 3537      7369676E 
 3537      65642069 
 3537      6E7400
 3538              	.LASF68:
 3539 0547 73746B61 		.ascii	"stkalign_t\000"
 3539      6C69676E 
 3539      5F7400
 3540              	.LASF49:
 3541 0552 63757272 		.ascii	"current\000"
 3541      656E7400 
 3542              	.LASF113:
 3543 055a 2F686F6D 		.ascii	"/home/alex/Embebidos Proyecto/ChibiOS_17.6.1/demos/"
 3543      652F616C 
 3543      65782F45 
 3543      6D626562 
 3543      69646F73 
 3544 058d 53544D33 		.ascii	"STM32/RT-STM32F100-DISCOVERY\000"
 3544      322F5254 
 3544      2D53544D 
 3544      33324631 
 3544      30302D44 
 3545              	.LASF84:
 3546 05aa 65786974 		.ascii	"exitcode\000"
 3546      636F6465 
 3546      00
 3547              	.LASF38:
 3548 05b3 6D706F6F 		.ascii	"mpool\000"
 3548      6C00
 3549              		.comm	__gnu_lto_v1,1,1
 3550              		.ident	"GCC: (Sourcery CodeBench Lite 2013.11-24) 4.8.1"
ARM GAS  /tmp/ccGV0H6c.s 			page 100


DEFINED SYMBOLS
                            *ABS*:00000000 chvt.c
     /tmp/ccGV0H6c.s:533    .text._vt_init:00000000 $t
     /tmp/ccGV0H6c.s:539    .text._vt_init:00000000 _vt_init
     /tmp/ccGV0H6c.s:568    .text.chVTDoSetI:00000000 $t
     /tmp/ccGV0H6c.s:574    .text.chVTDoSetI:00000000 chVTDoSetI
     /tmp/ccGV0H6c.s:764    .text.chVTDoResetI:00000000 $t
     /tmp/ccGV0H6c.s:770    .text.chVTDoResetI:00000000 chVTDoResetI
                            *COM*:00000001 __gnu_lto_v1
                     .debug_frame:00000010 $d

UNDEFINED SYMBOLS
ch
stSetAlarm
stStartAlarm
stStopAlarm
