ARM GAS  /tmp/ccGV0H6c.s 			page 1


   1              		.syntax unified
   2              		.cpu cortex-m3
   3              		.fpu softvfp
   4              		.eabi_attribute 20, 1
   5              		.eabi_attribute 21, 1
   6              		.eabi_attribute 23, 3
   7              		.eabi_attribute 24, 1
   8              		.eabi_attribute 25, 1
   9              		.eabi_attribute 26, 1
  10              		.eabi_attribute 30, 2
  11              		.eabi_attribute 34, 1
  12              		.eabi_attribute 18, 4
  13              		.thumb
  14              		.file	"chvt.c"
  15              		.text
  16              	.Ltext0:
  17              		.section	.gnu.lto_.jmpfuncs.63e854f24c46fca0,"",%progbits
  18 0000 789C6362 		.ascii	"x\234cb`b\300\006d\2404\013\003#\020\002\0251\363\003"
  18      6062C006 
  18      64A0340B 
  18      03231002 
  18      1531F303 
  19 0014 29206261 		.ascii	") badd\006\212\227\001\231\000\011|\000\275"
  19      6464068A 
  19      97019900 
  19      097C00BD 
  20              		.text
  21              		.section	.gnu.lto_.inline.63e854f24c46fca0,"",%progbits
  22 0000 789C6362 		.ascii	"x\234cb`b\300\006\224\031\031\030\244\2014\013\003\203"
  22      6062C006 
  22      94191918 
  22      A481340B 
  22      0383
  23 0012 9414230B 		.ascii	"\224\024#\013Cz5\303\257\206\216\206\007\213\277Yf2"
  23      437A35C3 
  23      AF868E86 
  23      078BBF59 
  23      6632
  24 0024 326833AC 		.ascii	"2h3\254j\000\002\323LF\306\\F\206$F\2706f\006\206\214"
  24      6A0002D3 
  24      4C46C65C 
  24      46862446 
  24      B8366606 
  25 003a 44C6858C 		.ascii	"D\306\205\214\325 \026#\003\214t`g\355Pg`\357Pgb`|\301"
  25      D5201623 
  25      038C7460 
  25      67ED5067 
  25      60EF5067 
  26 0052 2EC0C400 		.ascii	".\300\304\000\344\0120H}[\302\310\301\300\270\233]\201"
  26      E40A3048 
  26      7D5BC2C8 
  26      C1C0B89B 
  26      5D81
  27 0064 83094281 		.ascii	"\203\011B\201\214`\344\002Y\312\304\315\000\224\232"
  27      8C60E402 
  27      59CAC4CD 
  27      00949A
ARM GAS  /tmp/ccGV0H6c.s 			page 2


  28 0073 E0C7C4C0 		.ascii	"\340\307\304\300\316\306\310\300\304q\300\216\201m\201"
  28      CEC6C8C0 
  28      C471C08E 
  28      816D81
  29 0082 3C13C40E 		.ascii	"<\023\304\016\243K\014\214\314\214)\021\214\231\214"
  29      A34B0C8C 
  29      CC8C2911 
  29      8C998C
  30 0091 4C40E319 		.ascii	"L@\343\031S\341,\220K\230\275\316\377\340`\340[\352"
  30      53E12C90 
  30      4B98BDCE 
  30      FFE060E0 
  30      5BEA
  31 00a3 C6C4C0B2 		.ascii	"\306\304\300\262@^\000\244\005h\032\3300\010\305\302"
  31      405E00A4 
  31      05681AD8 
  31      3008C5C2 
  32 00b3 2022C0C8 		.ascii	" \"\300\310\014v\230\002\262#9\304&Lfd\3408\242\003"
  32      0C769802 
  32      B22339C4 
  32      264C6664 
  32      E038A203 
  33 00c7 74CD2536 		.ascii	"t\315%6\026\010\011\"8\300L\240{.\261\0120\201I$C\031"
  33      16080922 
  33      38C04CA0 
  33      7B2EB10A 
  33      30814924 
  34 00dd A4F4F4F4 		.ascii	"\244\364\364\364!(\277X\277\250D\277\270(Y?9\243\254"
  34      2128BF58 
  34      BFA844BF 
  34      B828593F 
  34      39A3AC
  35 00f0 442F9901 		.ascii	"D/\231\001\000\033\3201\002"
  35      001BD031 
  35      02
  36              		.text
  37              		.section	.gnu.lto_.pureconst.63e854f24c46fca0,"",%progbits
  38 0000 789C6362 		.ascii	"x\234cb`b\340d\200\000\026\006)&\011f)\026)\000\002"
  38      6062E064 
  38      80001606 
  38      29260966 
  38      29162900 
  39 0015 D80081   		.ascii	"\330\000\201"
  40              		.text
  41              		.section	.gnu.lto_chVTDoResetI.part.0.63e854f24c46fca0,"",%progbits
  42 0000 789C9555 		.ascii	"x\234\225U]lTU\020\236\271\377\367\356n\267\232h\320"
  42      5D6C5455 
  42      109EB9FF 
  42      F7EE6EB7 
  42      9A68D0
  43 0013 4462F04D 		.ascii	"Db\360Mbo\224\230\310\2231\372BB_d\233\350\213u\275"
  43      626F9498 
  43      C89331FA 
  43      42425F64 
  43      9BE88B75 
  44 0028 DD6C6FB2 		.ascii	"\335lo\262\333%\333\025M|\340,\273!\010&\224&FE+\202"
  44      DB25DB15 
ARM GAS  /tmp/ccGV0H6c.s 			page 3


  44      4D7CE02C 
  44      BB210826 
  44      94264645 
  45 003e 15154C88 		.ascii	"\025\025L\210\232\250\004\002\305\037l!-\222\370\003"
  45      9AA80402 
  45      C51F6C21 
  45      2D92F803 
  46 004e 4D1FFA60 		.ascii	"M\037\372`\370\011A\233\324\027*\260\316\234\373\263"
  46      F809419B 
  46      D4172AB0 
  46      CE9CFBB3 
  47 005e 97D5063C 		.ascii	"\227\325\006<\331{f\31693\337|3\347g\025P\240\263\225"
  47      D97B66CE 
  47      3933DF7C 
  47      33E76715 
  47      50A0B395 
  48 0072 E9FBC800 		.ascii	"\351\373\310\000\370\222$:\200\366\310\014)6*R*\212"
  48      F892243A 
  48      80F6C80C 
  48      29362A52 
  48      2A8A
  49 0084 7A5805E1 		.ascii	"zX\005\341h\277\235\002\020i\025-\236\256[\232b\035"
  49      68BF9D02 
  49      1069152D 
  49      9EAE5B9A 
  49      621D
  50 0096 5D49F3FA 		.ascii	"]I\363\372\317.M\353\212\361\306=42\233kid\240\031\030"
  50      CF2E4DEB 
  50      8AF1C63D 
  50      34329B6B 
  50      6964A019 
  51 00ab 9991B585 		.ascii	"\231\221\265\205\310\012 l\266\025U\323\015\323\302"
  51      C80A206C 
  51      B61555D3 
  51      0DD3C2
  52 00ba CDCF2387 		.ascii	"\315\317#\207\327\312\010\253`\257\020\273\347\1778"
  52      D7CA08AB 
  52      60AF10BB 
  52      E77F38
  53 00c9 FEF98AED 		.ascii	"\376\371\212\355\037\324G\304\315V\013}^\365\020\236"
  53      1FD447C4 
  53      CD560B7D 
  53      5EF5109E 
  54 00d9 230DBBA5 		.ascii	"#\015\273\245P:\310K\267\321\211_f\336Z!\022n\012<\200"
  54      503AC84B 
  54      B7D1895F 
  54      66DE5A21 
  54      126E0A3C 
  55 00ee 77E4298E 		.ascii	"w\344)\216\274\370\211hN\264ZOJ\257\207n\347uH\021\363"
  55      BCF88968 
  55      4EB45A4F 
  55      4AAF876E 
  55      E7754811 
  56 0103 ADD63B1F 		.ascii	"\255\326;\037;\367\"\226\021\025\360QU\251\3234\356"
  56      3BF72296 
  56      1115F051 
  56      55A9D334 
ARM GAS  /tmp/ccGV0H6c.s 			page 4


  56      EE
  57 0114 74EE0CEA 		.ascii	"t\356\014\352t\223:\260xhC\036\307q\0258$\367\221L\361"
  57      74933AB0 
  57      7868431E 
  57      C7711538 
  57      24F7914C 
  58 0129 643A1C64 		.ascii	"d:\034dx@\260:4\205\030y0\260\014\226d\346\324r\324"
  58      7840B03A 
  58      34851879 
  58      30B00C96 
  58      64E6D472 
  59 013e 73E17268 		.ascii	"s\341rh\263T\373((\313i\3302\373\366\3425%\217\373Q"
  59      B354FB28 
  59      28CB69D8 
  59      32FBF6E2 
  59      35258FFB 
  60 0153 87222AAB 		.ascii	"\207\"*\253\341a\"\363.\354\256\013\321\355\243QD\344"
  60      E16122F3 
  60      2EECAE0B 
  60      D1EDA351 
  60      44E4
  61 0165 0C54C9FB 		.ascii	"\014T\311\373%\2142 \277\251\237\234\300k5\034\020\324"
  61      258C3220 
  61      BFA99F9C 
  61      C06B351C 
  61      10D4
  62 0177 D69255A8 		.ascii	"\326\222U\250\246|4c\010\3535X\022\333X\263\313\310"
  62      A67C3463 
  62      08EB3558 
  62      12DB58B3 
  62      CBC8
  63 0189 85603C3B 		.ascii	"\205`<;\304\303P\006\005*\262$\350\245\306\327\357?"
  63      C4C35006 
  63      052AB224 
  63      E8A5C6D7 
  63      EF3F
  64 019b 710BF886 		.ascii	"q\013\370\206\016RJ\222T \2030\342\010-8\241\327Y\322"
  64      0E524A92 
  64      54208330 
  64      E2082D38 
  64      A1D759D2 
  65 01af 4D0A1AC5 		.ascii	"M\012\032\305\211\250\177sn\3612\336\202\237\3611\265"
  65      89A87F73 
  65      6EF132DE 
  65      829FF131 
  65      B5
  66 01c0 6CD29A94 		.ascii	"l\322\232\224<\223be\022\276\277x\342\213l\\\2620p\266"
  66      3C936265 
  66      12BEBF78 
  66      E28B6C5C 
  66      B23070B6 
  67 01d4 1DF7F1FF 		.ascii	"\035\367\361\377\010\033\265>\202=\254\252g\240\261"
  67      081BB53E 
  67      823DACAA 
  67      67A0B1
  68 01e3 30F7EBD6 		.ascii	"0\367\353\326l\270g\321\346M\354\270\372\241\011\020"
  68      6CB867D1 
ARM GAS  /tmp/ccGV0H6c.s 			page 5


  68      E64DECB8 
  68      FAA10910 
  69 01f3 607B917F 		.ascii	"`{\221\177\\\301\264\207\264U_\321\0325\0373\021\244"
  69      5CC1B487 
  69      B4555FD1 
  69      1A351F33 
  69      11A4
  70 0205 0674AB82 		.ascii	"\006t\253\202\315\\\232R#f\341v\220\037,[;\275]\225"
  70      CD5C9A52 
  70      2366E176 
  70      901F2C5B 
  70      3BBD5D95 
  71 0219 D9853827 		.ascii	"\331\2058'M\036\003X\266\"m\257\306\266\306\005\214"
  71      4D1E0358 
  71      B6226DAF 
  71      C6B6C605 
  71      8C
  72 022a DC748A59 		.ascii	"\334t\212Y\344r\021\332\272d}\357\200B\221\3454|;\373"
  72      E47211DA 
  72      BA647DEF 
  72      804291E5 
  72      347C3BFB 
  73 023e DE9F973E 		.ascii	"\336\237\227>\035\305\316\272,\316\216\031\361`\357"
  73      1DC5CEBA 
  73      2CCE8E19 
  73      F160EF
  74 024d 9B639978 		.ascii	"\233c\231xp\372z\303nWL\245O\243O\0170\015\216\337\254"
  74      70FA7AC3 
  74      6E574CA5 
  74      4FA34F0F 
  74      300D8EDF 
  75 0262 CF5F3B39 		.ascii	"\317_;93\212\232\217]\314b\204Yd\231B7\357\226&\267"
  75      338A9A8F 
  75      5DCC6284 
  75      59649942 
  75      37EF9626 
  76 0277 B63B6463 		.ascii	"\266;dc0\326\361\300\237\322\370\243\321\225\307c2;"
  76      30D6F1C0 
  76      9FD2F8A3 
  76      D195C763 
  76      323B
  77 0289 B3C88B5C 		.ascii	"\263\310\213\\\250\271\337\367\274\020\345l\005\245"
  77      A8B9DFF7 
  77      BC10E56C 
  77      05A5
  78 0297 0A777E0F 		.ascii	"\012w~\017\376\357\243o\266k\371z\243\032\301\3322\236"
  78      FEEFA36F 
  78      B66BF97A 
  78      A31AC1DA 
  78      329E
  79 02a9 053005E1 		.ascii	"\0050\005\341\345\014\256u\221\375'\241y\341\304\337"
  79      E50CAE75 
  79      91FD27A1 
  79      79E1C4DF 
  80 02b9 3BD544DD 		.ascii	";\325D\335\355\344\011\323\341\307GT\211wp\374\276\310"
  80      EDE409D3 
  80      E1C74754 
ARM GAS  /tmp/ccGV0H6c.s 			page 6


  80      897770FC 
  80      BEC8
  81 02cb C889EC12 		.ascii	"\310\211\354\022\210\373$\242\023\"\216\215\306\210"
  81      88FB24A2 
  81      13228E8D 
  81      C688
  82 02d9 0E3385E4 		.ascii	"\0163\205\344\361\355\243\344\367\247\325)\3302\277"
  82      F1EDA3E4 
  82      F7A7D529 
  82      D832BF
  83 02e8 F3B29104 		.ascii	"\363\262\221\004`SM\211\315L\016Nf\026\304\001\322\341"
  83      60534D89 
  83      CD4C0E4E 
  83      6616C401 
  83      D2E1
  84 02fa 49B932EE 		.ascii	"I\2712\356F\001R\224\234d\303\013q\330\214\\H'8\206"
  84      46015294 
  84      9C64C30B 
  84      71D88C5C 
  84      48273886 
  85 030e 4FF38D1D 		.ascii	"O\363\215\035\337\241\330.\352\013\255VV\276\261\207"
  85      DFA1D82E 
  85      EA0BAD56 
  85      56BEB187 
  86 031e F0768F6C 		.ascii	"\360v\217l\221\257\307\031h.\314\335<\331\365\257k6"
  86      91AFC719 
  86      682ECCDD 
  86      3CD9F5AF 
  86      6B36
  87 0330 FD979EC7 		.ascii	"\375\227\236\307I\371BFG\307\350\270lwyh\346\361tt\224"
  87      49F94246 
  87      47C7E8B8 
  87      6C777968 
  87      E6F17474 
  88 0345 E889B89B 		.ascii	"\350\211\270\233\265\363\220\246\372\350\237\355*\204"
  88      B5F390A6 
  88      FAE89FED 
  88      2A84
  89 0353 891BD777 		.ascii	"\211\033\327w\2259qK\276\250g\351_\252M\"G4i\226\251"
  89      9539714B 
  89      BEA867E9 
  89      5FAA4D22 
  89      47346996 
  90 0368 DDDFD3E3 		.ascii	"\335\337\323\343\006\277\312\260[\255\271\303U\317\365"
  90      06BFCAB0 
  90      5BADB9C3 
  90      55CFF5
  91 0377 0637D57A 		.ascii	"\0067\325z<\320\007\012\245Z\336\032\252\274\"\0257"
  91      3CD0070A 
  91      A55ADE1A 
  91      AABC2215 
  91      37
  92 0388 69E955CA 		.ascii	"i\351U\312\345\312\220\273\261R\255\015\273O=\333\373"
  92      E5CA90BB 
  92      B152AD0D 
  92      BB4F3DDB 
  92      FB
ARM GAS  /tmp/ccGV0H6c.s 			page 7


  93 0399 74EFABE4 		.ascii	"t\357\253\344\346U\252\205\376\232_.T{\006aM\322~0_"
  93      E655AA85 
  93      FE9A5F2E 
  93      547B0661 
  93      4DD27E30 
  94 03ae 0A8D37E4 		.ascii	"\012\2157\344z\327<\346\256_\377\214\233[\327\273\351"
  94      7AD73CE6 
  94      AE5FFF8C 
  94      9B5BD7BB 
  94      E9
  95 03bf 515EE91F 		.ascii	"Q^\351\037\256\365\227J\003\344\263\262\203\215?\344"
  95      AEF5974A 
  95      03E4B3B2 
  95      838D3FE4 
  96 03cf 955E1E28 		.ascii	"\225^\036(\004\214\006Ac\354\177\000f\340\306\240"
  96      048C0641 
  96      63EC7F00 
  96      66E0C6A0 
  97              		.text
  98              		.section	.gnu.lto__vt_init.63e854f24c46fca0,"",%progbits
  99 0000 789C6362 		.ascii	"x\234cb`b@\007\222 \014\024\226\001\322\214\314\014"
  99      60624007 
  99      92200C14 
  99      9601D28C 
  99      CC0C
 100 0012 8C4C13CE 		.ascii	"\214L\023\316104r012\202\030\014\214\014\365L\214\365"
 100      31303472 
 100      30313282 
 100      180C8C0C 
 100      F54C8CF5 
 101 0026 918C60B5 		.ascii	"\221\214`\265\353\231\016<\370\377\177\335\257\255\017"
 101      EB990E3C 
 101      F8FF7FDD 
 101      AFAD0F
 102 0035 FB1905D9 		.ascii	"\373\031\005\331\200\002\254\014-\015\015\023\024\030"
 102      8002AC0C 
 102      2D0D0D13 
 102      1418
 103 0043 1892C10A 		.ascii	"\030\222\301\012B\200$HW(#\023\210f>\313\320\364\253"
 103      42802448 
 103      57282313 
 103      88663ECB 
 103      D0F4AB
 104 0056 F9FF65A6 		.ascii	"\371\377e\246D\306\205\214\254\014\332\014\253\032\200"
 104      44C6858C 
 104      AC0CDA0C 
 104      AB1A80
 105 0065 C0329311 		.ascii	"\3002\223\021\306\344\316dd\234\3150\253\261\241A \223"
 105      C6E4CE64 
 105      649CCD30 
 105      ABB1A141 
 105      2093
 106 0077 91A99AE1 		.ascii	"\221\251\232\341WC\007\210\305\234\0136-\202\021\310"
 106      57430788 
 106      C59C0B36 
 106      2D8211C8 
 107 0087 04DB9B04 		.ascii	"\004\333\233\004\261\036HC\030\020\225\015\363\201\012"
ARM GAS  /tmp/ccGV0H6c.s 			page 8


 107      B11E4843 
 107      1810950D 
 107      F3810A
 108 0096 58A0466D 		.ascii	"X\240Fm\005\262\031\201\372`J\301\000l\377\342\036-"
 108      05B21981 
 108      FA604AC1 
 108      006CFFE2 
 108      1E2D
 109 00a8 EAD9CF44 		.ascii	"\352\331\317D\252\375;v<\272\201\341\177V\262\355\207"
 109      AAFD3B76 
 109      3CBA81E1 
 109      7F56B2ED 
 109      87
 110 00b9 F041326C 		.ascii	"\360A2l\377\3773\303\254x\374\201\212V\260 \254\000"
 110      FFFF33C3 
 110      AC78FC81 
 110      8A56B020 
 110      AC00
 111 00cb 312E3234 		.ascii	"1.24>\350W\206\030\017\003!\300x\000\306/(0\244\364"
 111      3EE85786 
 111      180F0321 
 111      C07800C6 
 111      2F2830A4 
 112 00e0 F4F42128 		.ascii	"\364\364!(\277X\277\250D\277\270(Y?9\243\254D/\231\001"
 112      BF58BFA8 
 112      44BFB828 
 112      593F39A3 
 112      AC442F99 
 113 00f5 00BBF58A 		.ascii	"\000\273\365\212f"
 113      66
 114              		.text
 115              		.section	.gnu.lto_chVTDoSetI.63e854f24c46fca0,"",%progbits
 116 0000 789CAD56 		.ascii	"x\234\255V}h\225U\030?\3179\367\356\275\337[\202\371"
 116      7D689555 
 116      183FCF39 
 116      F7EEBDDF 
 116      5B82F9
 117 0013 B52F876C 		.ascii	"\265/\207ll\312\256k\216\222\350\217\250\177\004\367"
 117      6CCAAE6B 
 117      8E92E88F 
 117      A87F04F7 
 118 0023 4735A1E8 		.ascii	"G5\241\350\017\271\335\215\273\013\273\233l\313\202"
 118      0FB9DD8D 
 118      BB0BBB9B 
 118      6CCB82
 119 0032 02DFEB2E 		.ascii	"\002\337\353.\245i)2\303RA\031VL\231\222\34063\232&"
 119      A5692932 
 119      C3524119 
 119      564C9992 
 119      E036339A 
 120 0047 E892746A 		.ascii	"\350\222tj\342\256E\\\203i\202\310\314\312e\262\333"
 120      E2AE455C 
 120      836982C8 
 120      CCCA65B2 
 120      DB
 121 0058 73BEDEFB 		.ascii	"s\276\336\373\251S\351\345\336\347\274\357s\236\347"
 121      A953E9E5 
ARM GAS  /tmp/ccGV0H6c.s 			page 9


 121      DEE7BCEF 
 121      739EE7
 122 0067 779EAFF3 		.ascii	"w\236\257\363\234C\011%\331\317~\374\207\274\204\034"
 122      9C430925 
 122      D9CF7EFC 
 122      87BC841C 
 123 0077 C2110A09 		.ascii	"\302\021\012\011\320\255g\011\211:(e\233g\023\323e\213"
 123      D0AD6709 
 123      893A2865 
 123      9B6713D3 
 123      658B
 124 0089 2D27A687 		.ascii	"-'\246\207\201M\262m\324>\314\220]p\371\007\202|;\370"
 124      814DB26D 
 124      D43ECC90 
 124      5D70F907 
 124      827C3BF8 
 125 009d 24BF801A 		.ascii	"$\277\200\032\033\252\220\357\340\324c\200K\262\035"
 125      1BAA90EF 
 125      E0D46380 
 125      4BB21D
 126 00ac D4F9D3D3 		.ascii	"\324\371\323\323\310v\035{\026\331N\315v\201\207\277"
 126      C8761D7B 
 126      16D94ECD 
 126      768187BF 
 127 00bc 805B8EC7 		.ascii	"\200[\216\307\035\036\352\336|\012\001]\336\230\201"
 127      1D1EEADE 
 127      7C0A015D 
 127      DE9881
 128 00cb 825E0DEB 		.ascii	"\202^\015\353\003\340/\004\310:\312l\366\002\303\341"
 128      03E02F04 
 128      C83ACA6C 
 128      F602C3E1 
 129 00db 74B93D5E 		.ascii	"t\271=^\037\254{\003\270\361\264\202\3545\315m\211}"
 129      1FAC7B03 
 129      B8F1B482 
 129      EC35CD6D 
 129      897D
 130 00ed 7F24E867 		.ascii	"\177$\350g\346Hl\217y?\231\004\010\003:Z\002$\010\344"
 130      E6486C8F 
 130      793F9904 
 130      08033A5A 
 130      022408E4 
 131 0101 75FC8072 		.ascii	"u\374\200r1P[\246\347Rwd\373\251O\346\232{\242[\315"
 131      31505BA6 
 131      E7527764 
 131      FBA94FE6 
 131      9A7BA25B 
 132 0116 69540D03 		.ascii	"iT\015\003\243\244,\245Y$5\263\302v\220\216$\222\311"
 132      A3A42CA5 
 132      592435B3 
 132      C276908E 
 132      2492C9
 133 0129 CDC37FFE 		.ascii	"\315\303\177\376v\023f=\007$\302\327\013\300^\250 \014"
 133      7613663D 
 133      0724C2D7 
 133      0BC05EA8 
 133      200C
ARM GAS  /tmp/ccGV0H6c.s 			page 10


 134 013b C73E1C0D 		.ascii	"\307>\034\015\210\0008\220P\027\022\346EB|\004\015\233"
 134      88003890 
 134      501712E6 
 134      45427C04 
 134      0D9B
 135 014d 8DC43687 		.ascii	"\215\3046\207\223\271\234\314S\362\363\361\303\276\200"
 135      93B99CCC 
 135      53F2F3F1 
 135      C3BE80
 136 015c 93624E4A 		.ascii	"\223bNJ8)\345\002eJ\240\\-\260\2203+8Y\304I\245\232"
 136      3829E502 
 136      654AA05C 
 136      2DB09033 
 136      2B3859C4 
 137 0173 AE52D3D5 		.ascii	"\256R\323\325j\254\341k-Q\223K\271d\035'\313\220\024"
 137      6AACE16B 
 137      2D51934B 
 137      B9641D27 
 137      CB9014
 138 0186 342061E8 		.ascii	"4 a\350\206\235\304Lsk\271T\220\222\021\300 \005El\233"
 138      869DC44C 
 138      736BB954 
 138      909211C0 
 138      2005456C 
 139 019b 900E1864 		.ascii	"\220\016\030d\025P\034\330\217d\375\231\251;\011\010"
 139      15501CD8 
 139      8F64FD99 
 139      A93B0908 
 140 01ab C03EB093 		.ascii	"\300>\260\223\305\244\337\304\307\033\006c'\371\034"
 140      C5A4DFC4 
 140      C71B0663 
 140      27F91C
 141 01ba 23E40881 		.ascii	"#\344\010\201\301#%\343\363\226\032C\340 \204k\356\370"
 141      C12325E3 
 141      F3961A43 
 141      E020846B 
 141      EEF8
 142 01cc FBF71C4D 		.ascii	"\373\367\034Mg~MP\232.\256y\342\312\261\213g\2679\225"
 142      677E4D50 
 142      9A2EAE79 
 142      E2CAB18B 
 142      67B73995 
 143 01e0 A1DAE291 		.ascii	"\241\332\342\221\353\037\377\314\230\3655\321\273\333"
 143      EB1FFFCC 
 143      98F535D1 
 143      BBDB
 144 01ee 6B7D6CBA 		.ascii	"k}l\272u\333\232)\227\0316\017\231\246]T\006\023\351"
 144      75DB9A29 
 144      9719360F 
 144      99A65D54 
 144      0613E9
 145 0201 FD0A66CA 		.ascii	"\375\012f\312/!\322X\302c\301\205)\376\231\264k\031"
 145      2F21D258 
 145      C263C185 
 145      29FE99B4 
 145      6B19
 146 0213 F720164D 		.ascii	"\367 \026M\354\374\253wE\030\\\350\004\226NQ\030\334"
ARM GAS  /tmp/ccGV0H6c.s 			page 11


 146      ECFCAB77 
 146      45185CE8 
 146      04964E51 
 146      18DC
 147 0225 1CC8C37D 		.ascii	"\034\310\303}\263\011L\217\362\207r\260\375\022\014"
 147      B3094C8F 
 147      F28772B0 
 147      FD120C
 148 0234 4371ABC7 		.ascii	"Cq\253\307\027\200~\374\014A\003\202\0212J\326O\236"
 148      17807EFC 
 148      0C410382 
 148      11324AD6 
 148      4F9E
 149 0246 F8E6FD00 		.ascii	"\370\346\375\000\014 3\000\0071\011\3749Mb\327\216\237"
 149      0C203300 
 149      073109FC 
 149      394D62D7 
 149      8E9F
 150 0258 FFD023F9 		.ascii	"\377\320#\371!\360rL\006i&\256B\213\246\201\241~\342"
 150      21F0724C 
 150      066926AE 
 150      428BA681 
 150      A17EE2
 151 026b 469F21E5 		.ascii	"F\237!\345\"\322-\033\265dl<y(\203\211\300\311\020\017"
 151      22D22D1B 
 151      B5646C3C 
 151      79288389 
 151      C0C9100F 
 152 027f 2F5A7165 		.ascii	"/Zqe\350\337\323\206\206\366-&5\030\177\225\231K\250"
 152      E8DFD386 
 152      86F62D26 
 152      35187F95 
 152      994BA8
 153 0292 EFE55E99 		.ascii	"\357\345^\231\334+\337{\344\236\271\201\277\025F\204"
 153      DC2BDF7B 
 153      E49EB981 
 153      BF154684 
 154 02a2 0F1CBE50 		.ascii	"\017\034\276P\271\306\324\250\367\325ir\362z\264\316"
 154      B9C6D4A8 
 154      F7D56972 
 154      F27AB4CE 
 155 02b2 8295AA66 		.ascii	"\202\225\252f}\030\212\024\366r\204F\030\255\231\366"
 155      7D188A14 
 155      F6728446 
 155      18AD99F6 
 156 02c2 C409A08F 		.ascii	"\304\011\240\217\024\224\365l\327\267\335\334z;\251"
 156      1494F56C 
 156      D7B7DDDC 
 156      7A3BA9
 157 02d1 E195373A 		.ascii	"\341\2257:4=\306$\256Bz\005\203\241^\353\037\333^\273"
 157      343DC624 
 157      AE427A05 
 157      83A15EEB 
 157      1FDB5EBB 
 158 02e5 2AB10659 		.ascii	"*\261\006Y\234\343\323\2234\033\234<1\270M\201\033\022"
 158      9CE3D393 
 158      341B9C3C 
ARM GAS  /tmp/ccGV0H6c.s 			page 12


 158      31B84D81 
 158      1B12
 159 02f7 7CEA7F05 		.ascii	"|\352\177\005/\310\000\277\327sgKu\006x\003\202\347"
 159      2FC800BF 
 159      D773674B 
 159      75067803 
 159      82E7
 160 0309 DF568618 		.ascii	"\337V\206\030UJvC*'\207!OR\004\370\335G\006w<.\370\231"
 160      554A7643 
 160      2A278721 
 160      4F5204F8 
 160      DD470677 
 161 0321 F1E418CD 		.ascii	"\361\344\030\315\006g\371\301\235\312gQ\271=\033z\276"
 161      0667F9C1 
 161      9DCA6751 
 161      B93D1B7A 
 161      BE
 162 0332 EC7D4197 		.ascii	"\354}A\227\330l\344\2124\216\022\205\246zz\362\203\357"
 162      D86CE48A 
 162      348E1285 
 162      A67A7AF2 
 162      83EF
 163 0344 C1FCC88C 		.ascii	"\301\374\310\214N&\223\205b\317\037\230q\317#\032!\347"
 163      4E269385 
 163      62CF1F98 
 163      71CF231A 
 163      21E7
 164 0356 486C72B8 		.ascii	"Hlr\270\357\332\024dw\2343'/\340~9'6\247\\)\250\313"
 164      EFDA1464 
 164      779C3327 
 164      2FE07E39 
 164      2736A75C 
 165 036d DECADB53 		.ascii	"\336\312\333SA\260\007\340\202,/\204\013\303,\275\013"
 165      41B007E0 
 165      822C2F84 
 165      0BC32CBD 
 165      0B
 166 037e 0B484CEC 		.ascii	"\013HL\354\302\304\226\011\320;\2357]\334%r?N}q\225"
 166      C2C49609 
 166      D03B9D37 
 166      5DDC2572 
 166      3F4E7D71 
 167 0393 69AFE688 		.ascii	"i\257\346\210\375\250\313\373\315',o\021\255\215=\355"
 167      FDA8CBFB 
 167      CD272C6F 
 167      11AD8D3D 
 167      ED
 168 03a4 1A75AE68 		.ascii	"\032u\256h8sd\020\255\265\346\211\011H\213\240<\007"
 168      38736410 
 168      ADB5E689 
 168      09488BA0 
 168      3C07
 169 03b6 7046B5AB 		.ascii	"pF\265\253\273\275eZx~\212{\0044s\201\336G\267,\320"
 169      BBBD655A 
 169      787E8A7B 
 169      04347381 
 169      DE47B72C 
ARM GAS  /tmp/ccGV0H6c.s 			page 13


 170 03cb 62BDCE46 		.ascii	"b\275\316F\213U\"\004\213E\217\230H\365\010D,I\245`"
 170      8B552204 
 170      8B458F98 
 170      48F50844 
 170      2C49A560 
 171 03df 1556E909 		.ascii	"\025V\351\011\306D\177\352\037\245Z\250T\306\303\252"
 171      C6447FEA 
 171      1FA55AA8 
 171      54C6C3AA 
 172 03ef 0E5F6E75 		.ascii	"\016_nu(g\327j\2252\341Yi\036\267\312d\274\307\373G"
 172      2867D76A 
 172      9532E159 
 172      691EB7CA 
 172      64BCC7FB 
 173 0404 2D0FCA53 		.ascii	"-\017\312S\335\211\344_\304P\213`\006G\346e\346\257"
 173      DD89E45F 
 173      C4508B60 
 173      0647E665 
 173      E6AF
 174 0416 5C9BEED0 		.ascii	"\\\233\356\320\246\357\330\377\217e\372\302G1\035Cr"
 174      A6EFD8FF 
 174      8F65FAC2 
 174      47311D43 
 174      72
 175 0427 2DFABCA5 		.ascii	"-\372\274\245\"\202\234\012\211\223\364\000\023\205"
 175      22829C0A 
 175      8993F400 
 175      1385
 176 0435 FFDD764B 		.ascii	"\377\335vK\250\002#,\344f(\374\000\214\211\263\353\341"
 176      A802232C 
 176      E46628FC 
 176      008C89B3 
 176      EBE1
 177 0447 855F210A 		.ascii	"\205_!\012\177l\270\317\310)\373\313_c\331\377\232Q"
 177      7F6CB8CF 
 177      C829FBCB 
 177      5F63D9FF 
 177      9A51
 178 0459 F605B965 		.ascii	"\366\005\271e\2172\011]\366\025ie\357\342e\317\233{"
 178      8F32095D 
 178      F6156965 
 178      EFE265CF 
 178      9B7B
 179 046b 35BAEEB8 		.ascii	"5\272\356\270\177\036\013\303\347\344A3\016\\j\216\223"
 179      7F1E0BC3 
 179      E7E44133 
 179      0E5C6A8E 
 179      93
 180 047c 25E882E3 		.ascii	"%\350\202\343\330\3056\0348\267\314\330uIt}7\301\313"
 180      D8C5361C 
 180      38B7CCD8 
 180      7549747D 
 180      37C1CB
 181 048f 2013191D 		.ascii	" \023\031\035\374t\201<\212CP\031\002\026\202E\312\347"
 181      FC74813C 
 181      8A435019 
 181      02168245 
ARM GAS  /tmp/ccGV0H6c.s 			page 14


 181      CAE7
 182 04a1 7D6939AD 		.ascii	"}i9\255T9=\274\\\313V\345kY\364A)54\234Li\2256\337C"
 182      54393DBC 
 182      5CCB56E5 
 182      6B59F441 
 182      2935349C 
 183 04bb F0F209F2 		.ascii	"\360\362\011\362\360\324k1\241\"\030R\232\312\305w\034"
 183      F0D46B31 
 183      A1221852 
 183      9ACAC577 
 183      1C
 184 04cc 8E835E7D 		.ascii	"\216\203^}QV\326\351\003\262>\021\255\267TB\251\016"
 184      5156D6E9 
 184      03B23E11 
 184      ADB75442 
 184      A90E
 185 04de 19273404 		.ascii	"\031'4\004\325.\354lU\356\233\361\3428A\267\227\360"
 185      D52EEC6C 
 185      55EE9BF1 
 185      E23841B7 
 185      97F0
 186 04f0 CF4AF72F 		.ascii	"\317J\367/\3616n\230\227\307\225\237\213\343Gn\344\334"
 186      F1366E98 
 186      97C7959F 
 186      8BE3476E 
 186      E4DC
 187 0502 AB1E7A00 		.ascii	"\253\036z\000X\366N\0359\316\364\3425\362\002\220\337"
 187      58F64E1D 
 187      39CEF4E2 
 187      35F20290 
 187      DF
 188 0513 5E87B5C1 		.ascii	"^\207\265\301\326\217\0362\036q1\207Z\254F]\377\006"
 188      D68F1E32 
 188      1E713187 
 188      5AAC465D 
 188      FF06
 189 0525 E3344333 		.ascii	"\3434C3c\253\325\3443S\035\237C\203\361L\007\2353\030"
 189      63ABD5E4 
 189      33531D9F 
 189      4383F14C 
 189      079D3318 
 190 0539 AA3547C7 		.ascii	"\2525G\307\007o\347\204f\206\023\206\251::z\325J\345"
 190      076FE784 
 190      66861386 
 190      A93A3A7A 
 190      D54AE5
 191 054c 52A95C34 		.ascii	"R\251\\4c:U\267\223Zu\250\250\341V\244\0331\023\016"
 191      633A55B7 
 191      935A75A8 
 191      A8E156A4 
 191      1B31130E 
 192 0560 AA0AA5A1 		.ascii	"\252\012\245\241\251\243\271\021\323'\202\373\261O\004"
 192      A9A3B911 
 192      D32782FB 
 192      B14F04
 193 056f 9718C5DD 		.ascii	"\227\030\305\335\012/\301Vk\361\361\273\341y\022Ml\322"
 193      0A2FC156 
ARM GAS  /tmp/ccGV0H6c.s 			page 15


 193      6BF1F1BB 
 193      E179124D 
 193      6CD2
 194 0581 A7927E9A 		.ascii	"\247\222~\232\360H\0300x\243\230_[\353\227\277\216."
 194      F0481830 
 194      78A3985F 
 194      5BEB97BF 
 194      8E2E
 195 0593 7F67B7BF 		.ascii	"\177g\267\277\2533\350\017\266\256\355\256\015\022X"
 195      AB33E80F 
 195      B6AEEDAE 
 195      0D1258
 196 05a2 636F6E69 		.ascii	"coni\353\016\324\247\213\264\006\332\374k::\273\273"
 196      EB0ED4A7 
 196      8BB406DA 
 196      FC6B3A3A 
 196      BBBB
 197 05b4 FCAF3535 		.ascii	"\374\25755\326?\343_\271\362e\177\323\212\306\265u|"
 197      D63FE35F 
 197      B9F2657F 
 197      D38AC6B5 
 197      757C
 198 05c6 667557F7 		.ascii	"fuW\367\352\266\266\346\332V\342O\327\011vD\"\035\355"
 198      EAB6B6E6 
 198      DA56E24F 
 198      D7097644 
 198      221DED
 199 05d9 4AEDC557 		.ascii	"J\355\305W\033_j|\027\327\010vt\266\254\356\016GZ:Q"
 199      1B5F6A7C 
 199      17D70876 
 199      74B6ACEE 
 199      0E475A3A 
 200 05ee BE34CB8C 		.ascii	"\2764\313\214p{\260\355\355\346\026iJ+a\355\035\357"
 200      707BB0ED 
 200      EDE61669 
 200      4A2B61ED 
 200      1DEF
 201 0600 D8B8EC7F 		.ascii	"\330\270\354\177\035\252FF"
 201      1DAA4646 
 202              		.text
 203              		.section	.gnu.lto_chVTDoResetI.63e854f24c46fca0,"",%progbits
 204 0000 789CAD93 		.ascii	"x\234\255\2231h\024A\024\206\337{\263\263{\271=5`#\202"
 204      31681441 
 204      1486DF7B 
 204      B3B37BB9 
 204      3D356023 
 205 0015 2016161E 		.ascii	" \026\026\036\334!6Z\210\265`\231\003\355\214\253\304"
 205      DC21365A 
 205      88B56099 
 205      03ED8CAB 
 205      C4
 206 0026 05CF4072 		.ascii	"\005\317@rha\2219sE*9\254D\033\323\211\210ZX\304\356"
 206      68619139 
 206      73452A39 
 206      AC441BD3 
 206      89885A58 
 207 003c CECAA046 		.ascii	"\316\312\240F-\204 \001\305V\215\265A\\\337\233\331"
ARM GAS  /tmp/ccGV0H6c.s 			page 16


 207      2D842001 
 207      C5568DB5 
 207      415CDF9B 
 207      D9
 208 004d B9BD2487 		.ascii	"\271\275$\207i2\334\2757\263;\337\377\336\2747K@\260"
 208      6932DCBD 
 208      37B33BDF 
 208      FFDEBC37 
 208      4B40B0
 209 0060 759CE3FF 		.ascii	"u\234\343\377O\005Pe\217\021 uW\000\332%\"\365\342\025"
 209      4F055065 
 209      8F112075 
 209      5700DA25 
 209      22F5E215 
 210 0074 8029EBB5 		.ascii	"\200)\353\265\030LEQ\340\226\241]\006\030\272m\332M"
 210      184C4551 
 210      E096A15D 
 210      0618BA6D 
 210      DA4D
 211 0086 3044140F 		.ascii	"0D\024\017\010s\244\002\035\342\334\005\264\362\317"
 211      0873A402 
 211      1DE2DC05 
 211      B4F2CF
 212 0095 A8F735CB 		.ascii	"\250\3675\313\236\376y\363\344-.\323~\202\024Aa\023"
 212      9EFE79F3 
 212      E42D2ED3 
 212      7E821441 
 212      6113
 213 00a7 21909916 		.ascii	"!\220\231\026\023\211)\263\301XLE\014\223\032:\306t"
 213      138929B3 
 213      C1584C45 
 213      0C931A3A 
 213      C674
 214 00b9 0F37118F 		.ascii	"\0177\021\217\300\2421w{\237V\356\0340\017\333]\363"
 214      C0A23177 
 214      7B9F56EE 
 214      1C300FDB 
 214      5DF3
 215 00cb 37CB3045 		.ascii	"7\3130E\"8\204\220 \234\347\205\032\267.\330r>G\232"
 215      22388490 
 215      209CE785 
 215      1AB72ED8 
 215      723E479A 
 216 00df 2F171F99 		.ascii	"/\027\037\231N/\313\316X\352\350N\024\310{\036\023l"
 216      4E2FCBCE 
 216      58EAE84E 
 216      14C87B1E 
 216      136C
 217 00f1 E5540D24 		.ascii	"\345T\015$\361\352\035\334\376\274\372\275O\223\270"
 217      F1EA1DDC 
 217      FEBCFABD 
 217      4F93B8
 218 0100 881AA690 		.ascii	"\210\032\246\220\252p\214S\257\302c\303\343D\212\372"
 218      AA708C53 
 218      AFC263C3 
 218      E3448AFA 
 219 0110 01DC6F1B 		.ascii	"\001\334o\0333\236bx\0136\314\202\314\242&\212\274\304"
ARM GAS  /tmp/ccGV0H6c.s 			page 17


 219      339E6278 
 219      0B36CC82 
 219      CCA2268A 
 219      BCC4
 220 0122 89ACF625 		.ascii	"\211\254\366%W\030\366\371\004^C\347G{\317@u\012U\221"
 220      5718F6F9 
 220      045E43E7 
 220      477BCF40 
 220      750A5591 
 221 0136 4983175C 		.ascii	"I\203\027\\y\033\373\336z\037\375\256\300\305\346\200"
 221      791BFBDE 
 221      7A1FFDAE 
 221      C0C5E680 
 222 0146 2C5C6244 		.ascii	",\\bD\002xa\177\036\201>\354\365\210\376\037\242\012"
 222      0278617F 
 222      1E813EEC 
 222      F588FE1F 
 222      A20A
 223 0158 64F979EC 		.ascii	"d\371y\354\220\374`\247\207\241`;\304\312.\324\322P"
 223      90FC60A7 
 223      87A1603B 
 223      C4CA2ED4 
 223      D250
 224 016a 7ED16E04 		.ascii	"~\321n\004\213\266\037\2123\260\334\322\352\372o\334"
 224      8BB61F8A 
 224      33B0DCD2 
 224      EAFA6FDC 
 225 017a 441E4F71 		.ascii	"D\036Oqlt\270\300zy2\346\313\335\337\030\224%r\255\222"
 225      6C74B8C0 
 225      7A7932E6 
 225      CBDDDF18 
 225      942572AD 
 226 018f FE9573A9 		.ascii	"\376\225s\251S\334Jn\233\357\324\246\321`\271\227'\335"
 226      53DC4A6E 
 226      9BEFD4A6 
 226      D160B997 
 226      27DD
 227 01a1 5DF8D557 		.ascii	"]\370\325W^%G\271\3414:}=\334\223}\036\213m\231ht\336"
 227      5E2547B9 
 227      E1343A7D 
 227      3DDC937D 
 227      1E8B6D99 
 228 01b8 0532BF30 		.ascii	"\0052\2770\377mP\332\012Gc\322J\235\035.\301N\301\031"
 228      FF6D50DA 
 228      0A4763D2 
 228      4A9D1D2E 
 228      C14EC119 
 229 01cc F567D0B0 		.ascii	"\365g\320\260\026\253\367\320)9\036`p_\343$\277\227"
 229      16ABF7D0 
 229      29391E60 
 229      705FE324 
 229      BF97
 230 01de 9C4C5A00 		.ascii	"\234LZ\000\241\375\002>\362'_\224b\202w\362Si\314\301"
 230      A1FD023E 
 230      F2275F94 
 230      628277F2 
 230      5369CCC1 
ARM GAS  /tmp/ccGV0H6c.s 			page 18


 231 01f2 5AADEE7E 		.ascii	"Z\255\356~\323\263\365\231V}v&\251'Wo\264j\011\224\256"
 231      D3B3F599 
 231      567D7626 
 231      A927576F 
 231      B46A0994 
 232 0207 4FDFBC7C 		.ascii	"O\337\274|\345ZkR[\373\017#\334\342\360"
 232      E55A6B52 
 232      5BFB0F23 
 232      DCE2F0
 233              		.text
 234              		.section	.gnu.lto_.symbol_nodes.63e854f24c46fca0,"",%progbits
 235 0000 789C4DC8 		.ascii	"x\234M\310\275\015\302P\030CQ\333_\336c\006\226`EGJ"
 235      BD0DC250 
 235      184351DB 
 235      5FDE6306 
 235      96604547 
 236 0015 41444543 		.ascii	"ADEC\011\005l\301\217\210\022!*\322P0\007\033\200D\224"
 236      09056CC1 
 236      8F881221 
 236      2AD25030 
 236      071B8044 
 237 002a E0EA1E0B 		.ascii	"\340\352\036\013\302\006\303t\243\201u\017\330\333\232"
 237      C206C374 
 237      A381750F 
 237      D8DB9A
 238 0039 E9C26F41 		.ascii	"\351\302oAG\232\303\273\253\251\023\255?\236\351\230"
 238      479AC3BB 
 238      ABA913AD 
 238      3F9EE998 
 239 0049 C8962E7E 		.ascii	"\310\226.~,K\262\241\323\244+\235G\0052\252\376>\017"
 239      2C4BB2A1 
 239      D3A42B9D 
 239      470532AA 
 239      FE3E0F
 240 005c 241CDE8A 		.ascii	"$\034\336\212\230\241[-\"2\272\347CQ\000\373\345K\370"
 240      98A15B2D 
 240      2232BAE7 
 240      435100FB 
 240      E54BF8
 241 006f 000E052B 		.ascii	"\000\016\005+2"
 241      32
 242              		.text
 243              		.section	.gnu.lto_.refs.63e854f24c46fca0,"",%progbits
 244 0000 789C6362 		.ascii	"x\234cb`b0f\200\000\026\006FF& d`dc\002\261 \230\221"
 244      60623066 
 244      80001606 
 244      46462620 
 244      64606463 
 245 0019 91939901 		.ascii	"\221\223\231\001\312\202\311\003i\026\220\030\003\000"
 245      CA82C903 
 245      69169018 
 245      0300
 246 0027 152A0084 		.ascii	"\025*\000\204"
 247              		.text
 248              		.section	.gnu.lto_.decls.63e854f24c46fca0,"",%progbits
 249 0000 789CAD5B 		.ascii	"x\234\255[{p\024\307\231\237\236]iWH<\0021\307%\316"
 249      7B7014C7 
ARM GAS  /tmp/ccGV0H6c.s 			page 19


 249      999F9E5D 
 249      6957483C 
 249      0231C725 
 250 0015 21AE9C9C 		.ascii	"!\256\234\234\223*#\300\216M\376\270\000\026.\354*\223"
 250      932A23C0 
 250      8E4DFEB8 
 250      00162EEC 
 250      2A93
 251 0027 B804B9A2 		.ascii	"\270\004\271\242\312u\267\036V\003\322E\322\352vG\002"
 251      CA75B71E 
 251      5603D245 
 251      D2EA7647 
 251      02
 252 0038 AAAECA83 		.ascii	"\252\256\312\203\0042\370\021\004\342!\336\002\003'"
 252      0432F811 
 252      04E221DE 
 252      020327
 253 0047 30501660 		.ascii	"0P\026`\0218\020\213\035\204\004\006d\304\303x\013\220"
 253      1138108B 
 253      1D840406 
 253      64C4C378 
 253      0B90
 254 0059 0F834DFC 		.ascii	"\017\203M\374\000\201y\232B\367\365\3273\273=\2633\273"
 254      0081799A 
 254      42F7F5D7 
 254      33BB3DB3 
 254      33BB
 255 006b 33C25B74 		.ascii	"3\302[t\253g\246\373\327\337\367\373\276\356\257\273"
 255      AB67A6FB 
 255      D7DFF7FB 
 255      BEEEAFBB 
 256 007b 67100551 		.ascii	"g\020\005Q\330%\012B\017\374\006\217\021\204\301>A\310"
 256      D8250A42 
 256      0FFC068F 
 256      1184C13E 
 256      41C8
 257 008d 1004E1F7 		.ascii	"\020\004\341\367\220<\220\326AZ\017\251\031\022\201"
 257      903C90D6 
 257      415A0FA9 
 257      191281
 258 009c 7414928F 		.ascii	"t\024\222\217\336\207\213FH[!\355\205\024\205\364!\244"
 258      DE878B46 
 258      485B21ED 
 258      851485F4 
 258      21A4
 259 00ae 56C2EAB5 		.ascii	"V\302\352\265\321\214\373\321\372\2034\234~\220r m\321"
 259      D18CFBD1 
 259      FA83349C 
 259      7E907220 
 259      6DD1
 260 00c0 FAA078EF 		.ascii	"\372\240x\357i\375\264C\275c\204\365\333\002\3518\224"
 260      69FDB443 
 260      BD6384F5 
 260      DB02E938 
 260      94
 261 00d1 37433A01 		.ascii	"7C:\001\251\003\222\007d\365B\372\010\312~x\336\244"
 261      A9039207 
ARM GAS  /tmp/ccGV0H6c.s 			page 20


 261      64F542FA 
 261      08CA7E78 
 261      DEA4
 262 00e3 C9B419D2 		.ascii	"\311\264\031\322NH\373!}\000\351Kx\336.\260:\264\357"
 262      4E48FB21 
 262      7D00E94B 
 262      78DE2EB0 
 262      3AB4EF
 263 00f6 0C91C9E8 		.ascii	"\014\221\311\350\207\2779\220\372C\032(2\231\251\014"
 263      87BF3990 
 263      FA431A28 
 263      3299A90C 
 264 0106 FF00E58D 		.ascii	"\377\000\345\215$Yn\252\243O\223\325,_\263&\177\006"
 264      24596EAA 
 264      A34F93D5 
 264      2C5FB326 
 264      7F06
 265 0118 27C361AA 		.ascii	"'\303a\252\273\300\372&Z{+>\266j|l\341\370\320\361\274"
 265      BBC0FA26 
 265      5A7B2B3E 
 265      B66A7C6C 
 265      E1F8D0F1 
 266 012d 1A276334 		.ascii	"\032'c4^(\017\274\376f9t>\262\241|H\343\200\352\257"
 266      5E280FBC 
 266      FE663974 
 266      3EB2A17C 
 266      48E380EA 
 267 0142 CBD4AEC9 		.ascii	"\313\324\256\311\325\244q\364\201&\243_\223\203\347"
 267      D5A471F4 
 267      8126A35F 
 267      9383E7
 268 0151 E41722B3 		.ascii	"\344\027\"\263\241\316M&\324\331\005\177wB\372+\244"
 268      A1CE4D26 
 268      D4D9057F 
 268      7742FA2B 
 268      A4
 269 0162 6648C3C4 		.ascii	"fH\303\304d}\250\017\364\345l\312\333\231\227W\327\207"
 269      647DA80F 
 269      F4E56CCA 
 269      DB999757 
 269      D787
 270 0174 CAFD2BAA 		.ascii	"\312\375+\252\213\326\007o\303&\316\216\242\206\275"
 270      8BD6076F 
 270      C326CE8E 
 270      A286BD
 271 0183 4EB3530B 		.ascii	"N\263S\013a\2662\367\237-\274\251\252UjC\215\372b[\277"
 271      61B632F7 
 271      9F2DBCA9 
 271      AA556A43 
 271      8DFA625B 
 272 0198 81C24215 		.ascii	"\201\302B\025~\271m \301\024\"\221~Y\302kX\310\311B"
 272      7EB96D20 
 272      C1142291 
 272      7E59C26B 
 272      58C8C942 
 273 01ac 817E296C 		.ascii	"\201~)lP\325\332\256C7\243\031\252\352\227\310z2\020"
 273      50D5DAAE 
ARM GAS  /tmp/ccGV0H6c.s 			page 21


 273      4337A319 
 273      AAEA97C8 
 273      7A3210
 274 01bf 3AFA1722 		.ascii	":\372\027\"\374F\330\014\355jUu\375P!\371\227\016V\024"
 274      FC46D80C 
 274      ED6A5575 
 274      FD5021F9 
 274      970E5614 
 275 01d3 C6134122 		.ascii	"\306\023A\"\233\000M\"\033\311oX?j\327\235\3263s\311"
 275      9B004D22 
 275      1BC96F58 
 275      3F6AD79D 
 275      D63373C9 
 276 01e7 6C5525EC 		.ascii	"lU%\354\231\240=\265\370\015\023\032@\213\350\371\245"
 276      99A03DB5 
 276      F80D131A 
 276      408BE8F9 
 276      A5
 277 01f8 ABFF516D 		.ascii	"\253\377Qm\370\220\244S\252\201\350\335\3774\241\325"
 277      F890A453 
 277      AA81E8DD 
 277      FF34A1D5 
 278 0208 C61B6D5E 		.ascii	"\306\033m^\324\352=\324\352\277\211\241\273\264(\242"
 278      D4EA3DD4 
 278      EABF89A1 
 278      BBB428A2 
 279 0218 F036A14D 		.ascii	"\3606\241M\266'k\321\252k\261\335\221\026\2535-$\262"
 279      B6276BD1 
 279      AA6BB1DD 
 279      9116AB35 
 279      2D24B2
 280 022b 05341185 		.ascii	"\0054\021\205\325q\\\255\343\\\275_\352\360Z\221\375"
 280      D5715CAD 
 280      E35CBD5F 
 280      EAF05A91 
 280      FD
 281 023c B40A46BC 		.ascii	"\264\012F\2745grj%\035l\275k\260\\\003X\323\231UC\324"
 281      3567726A 
 281      251D6CBD 
 281      6BB05C03 
 281      58D39955 
 282 0252 8683244B 		.ascii	"\206\203$K\230G)Vk\324'\033\023\224\014\320\021D\216"
 282      98472956 
 282      6BD4271B 
 282      13940CD0 
 282      11448E
 283 0265 D7958FA9 		.ascii	"\327\225\217\251^\2114\023z\367\177\210\221V\3470\235"
 283      5E893413 
 283      7AF77F88 
 283      9156E730 
 283      9D
 284 0276 6FED1E8D 		.ascii	"o\355\036\215\346\331\203@\265\242\021H\"\236\270\336"
 284      E6D98340 
 284      B5A21148 
 284      229EB8DE 
 285 0286 F16BBD02 		.ascii	"\361k\275\002E\303\307Z\241\247\307#\270\253,\012\313"
 285      45C3C75A 
ARM GAS  /tmp/ccGV0H6c.s 			page 22


 285      A1A7C723 
 285      B8AB2C0A 
 285      CB
 286 0297 45137106 		.ascii	"E\023q\006!\265\242\337\326\012\340\006\037/!u\325j"
 286      21B5A2DF 
 286      D60AE006 
 286      1F2F2175 
 286      D56A
 287 02a9 DB088377 		.ascii	"\333\010\203w\016\026\226P\277\202\013\225(\022\371"
 287      0E169650 
 287      BF820B95 
 287      2812F9
 288 02b8 FD639676 		.ascii	"\375c\226v\241\"\036 \203\261\344\301\016\341\306\230"
 288      A1221E20 
 288      83B1E4C1 
 288      0EE1C698 
 289 02c8 6CC8FE94 		.ascii	"l\310\376\224\320\304\252\241F\336\334kQ\021\311kA'"
 289      D0C4AAA1 
 289      46DEDC6B 
 289      5111C96B 
 289      4127
 290 02da 586B22CF 		.ascii	"Xk\"\317 \021\353\311N\212\217H\266\215\003'=\023\205"
 290      2011EBC9 
 290      4E8A8F48 
 290      B68D0327 
 290      3D1385
 291 02ed 46336756 		.ascii	"F3gV\316\3467\012o\344\354\330F\306\031j+\012\333\234"
 291      CEE6370A 
 291      6FE4ECD8 
 291      46C6196A 
 291      2B0ADB9C 
 292 0301 000EB030 		.ascii	"\000\016\2600\202\325\217\037\253\022y\237\374\022\362"
 292      82D58F1F 
 292      AB12799F 
 292      FC12F2
 293 0310 26320CF2 		.ascii	"&2\014\362\235\230\177\200\371~\314\017A\236\222h\012"
 293      9D987F80 
 293      F97ECC0F 
 293      419E9268 
 293      0A
 294 0321 4747581C 		.ascii	"GGX\034{\007\021\2659\255w\243\366zb\324Jd\227k0\003"
 294      7B0711B5 
 294      39AD77A3 
 294      F67A62D4 
 294      4A64976B 
 295 0337 91D15BDA 		.ascii	"\221\321[\332\250e\303P\"\373\314x\356\2349\272xYN\307"
 295      A865C350 
 295      22FBCC78 
 295      EE9C39BA 
 295      78594EC7 
 296 034b 6BFA986E 		.ascii	"k\372\230n\022\211K\260\001\251\214\262\2113J#\032e"
 296      12894BB0 
 296      01A98CB2 
 296      89334A23 
 296      1A65
 297 035d 339AE030 		.ascii	"3\232\3400\346m\230\267;1\307\272\2049Pl5Z\377*\245"
 297      E66D98B7 
ARM GAS  /tmp/ccGV0H6c.s 			page 23


 297      3B31C7BA 
 297      8439506C 
 297      355AFF2A 
 298 0372 9445ADBD 		.ascii	"\224E\255\275 \265\325\244\356\323a\024\201\272\360"
 298      20B5D5A4 
 298      EED36114 
 298      81BAF0
 299 0381 4154EE98 		.ascii	"AT\356\230iR\217\336[\221C'\265c\016&t5\2720\266\212"
 299      69528FDE 
 299      5B914327 
 299      B5630E26 
 299      7435BA30 
 300 0397 D009DDA2 		.ascii	"\320\011\335\242\273\256x\014y\\\210\217\326\313__\367"
 300      BBAE780C 
 300      795C888F 
 300      D6CB5F5F 
 300      F7
 301 03a8 E068FD04 		.ascii	"\340h\375\004%=*\246\015EF\030Q\370\024\233\234J\012"
 301      253D2AA6 
 301      0D454618 
 301      51F8149B 
 301      9C4A0A
 302 03bb 4535DFEA 		.ascii	"E5\337\352\241\350\224#\311w\237\265\225|,oY}\232\371"
 302      A1E89423 
 302      C9779FB5 
 302      957C2C6F 
 302      597D9AF9 
 303 03cf BB16423F 		.ascii	"\273\026B?E\301\257X\013\3360\326\016F\024nc\223Xr\014"
 303      45C1AF58 
 303      0BDE30D6 
 303      0E46146E 
 303      63935872 
 304 03e4 3D51A509 		.ascii	"=Q\245\011\036s\024C?y\323\341J\300\253\367?>\241\306"
 304      1E731443 
 304      3F79D3E1 
 304      4AC0ABF7 
 304      3F3EA1C6 
 305 03f8 17434589 		.ascii	"\027CE\211t\241\012ox\322/\003\014\020\020\231\260\311"
 305      74A10A6F 
 305      78D22F03 
 305      0C101099 
 305      B0C9
 306 040a A564EECF 		.ascii	"\245d\356\317\353*\\r\304\375\235#\214{\235\315\025"
 306      EB2A5C72 
 306      C4FD9D23 
 306      8C7B9DCD 
 306      15
 307 041b 715C2BEA 		.ascii	"q\\+\352\322O(w\217\300\204\242\305[\306G\312\220\261"
 307      D24F2877 
 307      8FC084A2 
 307      C55BC647 
 307      CA90B1
 308 042e 70E5DF3E 		.ascii	"p\345\337>!\325(\357U\034\346\347<\226\241\333\001T"
 308      21D528EF 
 308      551CE6E7 
 308      3C96A1DB 
 308      0154
ARM GAS  /tmp/ccGV0H6c.s 			page 24


 309 0440 E75BA7BA 		.ascii	"\347[\247\272I\025B}\203P\237{\314\301\333g\012\336"
 309      4915427D 
 309      83509F7B 
 309      CCC1DB67 
 309      0ADE
 310 0452 3E633CF6 		.ascii	">c<\366e%\012t\307\325_p[]\024\376n\346/m02\330\003"
 310      65250A74 
 310      C7D55F70 
 310      5B5D14FE 
 310      6EE62F6D 
 311 046a 7CF0C222 		.ascii	"|\360\302\"\026\214t?\316\264\323[\024\256ag\335f'\270"
 311      168C743F 
 311      CEB4D35B 
 311      14AE6167 
 311      DD6627B8 
 312 047e 77F163DD 		.ascii	"w\361c\335\011\272\035\371\361\007G\2269\363cQ\357\377"
 312      09BA1DF9 
 312      F1074796 
 312      39F36351 
 312      EFFF
 313 0490 09EC7F93 		.ascii	"\011\354\177\223\227\366\177\333\334\377\351Km\257\326"
 313      97F67FDB 
 313      DCFFE94B 
 313      6DAFD6
 314 049f ABEA00F6 		.ascii	"\253\352\000\366(}\367{\316.N\356\336v\225\242\231\373"
 314      287DF77B 
 314      CE2E4EEE 
 314      DE7695A2 
 314      99FB
 315 04b1 DEC52BDD 		.ascii	"\336\305+\335\232\222\367q\271\321\3455\233{L6\337\231"
 315      9A92F771 
 315      B9D1E535 
 315      9B7B4C36 
 315      DF99
 316 04c3 B694E116 		.ascii	"\266\224\341\026\016W\343\342\367*x\202\236_\375\373"
 316      0E57E3E2 
 316      F72A7882 
 316      9E5FFDFB 
 317 04d3 E61DAA3A 		.ascii	"\346\035\252:?S\227\341\033\327\210\271\006&\366\235"
 317      3F5397E1 
 317      1BD788B9 
 317      0626F69D 
 318 04e3 C570CCC0 		.ascii	"\305p\314\300\2569\001K\021>[x\260\033\256\301\214\222"
 318      AE39014B 
 318      113E5B78 
 318      B01BAEC1 
 318      8C92
 319 04f5 75F060B7 		.ascii	"u\360`\267\234\200Y-\2204\260\223<\330]\327`F\311N\361"
 319      9C80592D 
 319      9034B093 
 319      3CD85DD7 
 319      6046C94E 
 320 050a 603F3801 		.ascii	"`?8\001\033b/\331\031\036\254\3075\230Q\262Oy\260\352"
 320      1B622FD9 
 320      191EACC7 
 320      359851B2 
 320      4F79B0EA 
ARM GAS  /tmp/ccGV0H6c.s 			page 25


 321 051e 0C0760B9 		.ascii	"\014\007`\271\026\222\305\177v+\220[\211\025\210(\324"
 321      1692C57F 
 321      762B905B 
 321      89158828 
 321      D4
 322 052f 64E85382 		.ascii	"d\350S\202K\237\026\022\030\3633\334\316a\006\275a\016"
 322      4B9F1612 
 322      18F333DC 
 322      CE6106BD 
 322      610E
 323 0541 BBB85E5F 		.ascii	"\273\270^_P_D\345\337q\202\230\302aj\217\"\223\014\254"
 323      505F44E5 
 323      DF718298 
 323      C2616A8F 
 323      22930CAC 
 324 0555 CE3598D1 		.ascii	"\3165\230\321,k(\230a\256\321\202L\327\306\350\220\372"
 324      2C6B2898 
 324      61AED182 
 324      4CD7C6E8 
 324      90FA
 325 0567 C46CE7D7 		.ascii	"\304l\347\327\261\350a\006\233\332jUU\214WV\207\014"
 325      B1E86106 
 325      9BDA6A55 
 325      558C5756 
 325      870C
 326 0579 B1AE2B91 		.ascii	"\261\256+\221e\"]Q\326\213Yq)XY/\365\020\334\354e\230"
 326      65225D51 
 326      D68B5971 
 326      2958592F 
 326      F510DCEC 
 327 058f 8E49F45F 		.ascii	"\216I\364_\272\246v\236\260D\344<a\215\023\232R\014"
 327      BAA6769E 
 327      B044E43C 
 327      618D139A 
 327      520C
 328 05a1 850E3B9A 		.ascii	"\205\016;\232\2425\352<2\273\351\361\224\213\264{\027"
 328      A235EA3C 
 328      32BBE9F1 
 328      948BB47B 
 328      17
 329 05b2 BF5BA745 		.ascii	"\277[\247E\343\325\"\215\306\357fX\006vG`\235o=8\250"
 329      E3D5228D 
 329      C6EF6658 
 329      06764760 
 329      9D6F3D38 
 330 05c7 AD121A10 		.ascii	"\255\022\032\020l{\206y\256\3172\205\366,c\254\316\312"
 330      6C7B8679 
 330      AECF3285 
 330      F62C63AC 
 330      CECA
 331 05d9 4A147AF4 		.ascii	"J\024z\364\237\221}\307m\354\330_\305\263\277\3335\373"
 331      9F917DC7 
 331      6DECD85F 
 331      C5B3BFDB 
 331      35FB
 332 05eb E631747B 		.ascii	"\3461t{\021\271Y\245\326\217\340\374-\245s\302b*\326"
 332      11B959A5 
ARM GAS  /tmp/ccGV0H6c.s 			page 26


 332      D68FE0FC 
 332      2DA573C2 
 332      622AD6
 333 05fe F2AFB830 		.ascii	"\362\257\2700\336\210$\265X3\356\000\250\363\255my\010"
 333      DE8824B5 
 333      5833EE00 
 333      A8F3AD6D 
 333      7908
 334 0610 D4884087 		.ascii	"\324\210@\207\223\330&&\266\211\2219\222\225($\261\234"
 334      93D82626 
 334      B6899139 
 334      92952824 
 334      B19C
 335 0622 A6AE289C 		.ascii	"\246\256(\2340Sg\0201\305L\031\247\356\201{\352Vj\324"
 335      30536710 
 335      31C54C19 
 335      A7EE817B 
 335      EA566AD4 
 336 0636 6D438D4F 		.ascii	"mC\215O'i\334(\272SY\024\316\273V\303oT\243\246\247"
 336      2769DC28 
 336      BA535914 
 336      CEBB56C3 
 336      6F54A3A6 
 337 064b 176A1C60 		.ascii	"\027j\034`j\354@5.\375\010j|\355Z\215\001\234\032\270"
 337      6AEC4035 
 337      2EFD086A 
 337      7CED5A8D 
 337      019C1AB8 
 338 065f A95ACC82 		.ascii	"\251Z\314\202\301 aQ\352\005-\225g\2678\310\270\007"
 338      C1206151 
 338      EA052D95 
 338      67B738C8 
 338      B807
 339 0671 3E7D9CE4 		.ascii	">}\234\344\262\333\351737\217\257\302\205$\022\246:"
 339      B2DBE937 
 339      33378FAF 
 339      C2852412 
 339      A63A
 340 0683 DA7FC4E2 		.ascii	"\332\177\304\342\373\217\275H\331u\253A\343\010\252"
 340      FB8FBD48 
 340      D975AB41 
 340      E308AA
 341 0692 F3E8894F 		.ascii	"\363\350\211O\264\031o?B\335Nb?\323D~\246\221|\270\244"
 341      B4196F3F 
 341      42DD4E62 
 341      3FD3447E 
 341      A6917CB8 
 342 06a7 7DDDC579 		.ascii	"}\335\305y\346u\355\016\275\360\011\275n'\012\017Q\014"
 342      E675ED0E 
 342      BDF009BD 
 342      6E270A0F 
 342      510C
 343 06b9 4A606F56 		.ascii	"J`oV\271tK\371E\235\036\315\031Gs3\037\005\261*\272"
 343      B9744BF9 
 343      459D1ECD 
 343      19477333 
 343      1F05B12A 
ARM GAS  /tmp/ccGV0H6c.s 			page 27


 344 06ce 76817EF4 		.ascii	"v\201~\364\214\307m\177yD\270}'\314\201\312\264\221"
 344      8CC76D7F 
 344      7944B87D 
 344      27CC81CA 
 344      B491
 345 06e0 E8B29985 		.ascii	"\350\262\231\205\365\363\204K]\354\330\362\260H\305"
 345      F5F3844B 
 345      5DECD8F2 
 345      B048C5
 346 06ef 59926936 		.ascii	"Y\222i6\333Eb\332H\\4\036A\332\371r+\037\020\032\037"
 346      DB4562DA 
 346      485C341E 
 346      41DAF972 
 346      2B1F101A 
 347 0704 494B3A8E 		.ascii	"IK:\216n\231\314\260\375\021y\273\267\300\331\351\305"
 347      6E99CCB0 
 347      FD1179BB 
 347      B7C0D9E9 
 347      C5
 348 0715 6B3A167B 		.ascii	"k:\026{\213\322\214\335\236\020M\233\276e\267\273j4"
 348      8BD28CDD 
 348      9E104D9B 
 348      BE65B7BB 
 348      6A34
 349 0727 F7A7CFD2 		.ascii	"\367\247\317\322\017\326\330\345,uQ\016;w\220\310\227"
 349      0FD6D8E5 
 349      2C75510E 
 349      3B7790C8 
 349      97
 350 0738 7856485B 		.ascii	"xVH[Z\255\003\322\322\023\275 \267\215p3\354[\365a\177"
 350      5AAD03D2 
 350      D213BD20 
 350      B78D7033 
 350      EC5BF561 
 351 074d 8ACD9449 		.ascii	"\212\315\224IF\337o\236)]\015\272\253q\222\234.\241"
 351      46DF6F9E 
 351      295D0DBA 
 351      AB71929C 
 351      2EA1
 352 075f CD3F3BA7 		.ascii	"\315?;\247:\316;\325\267\217\346\002\364\255\321\006"
 352      3ACE3BD5 
 352      B78FE602 
 352      F4ADD106 
 353 076f 8BD70516 		.ascii	"\213\327\005\026N\240\306\317\376\006`\317\337c\317"
 353      4EA0C6CF 
 353      FE0660CF 
 353      DF63CF
 354 077e 31B317FC 		.ascii	"1\263\027\374p\247\355\015\375\010\315\221\027\334\262"
 354      70A7ED0D 
 354      FD08CD91 
 354      17DCB2
 355 078d F082582F 		.ascii	"\360\202X/\275\000\\\372j;A8\266SX\355#F8\227;\350\007"
 355      BD005CFA 
 355      6A3B4138 
 355      B65358ED 
 355      23463897 
 356 07a4 B25B6298 		.ascii	"\262[b\230\177E\317]\246A\353\222HO\324\336\365\231"
ARM GAS  /tmp/ccGV0H6c.s 			page 28


 356      7F45CF5D 
 356      A641EB92 
 356      484FD4DE 
 356      F599
 357 07b6 5D8B31C3 		.ascii	"]\2131\303\271V\202F\211\234\307\255\303\005\221\036"
 357      B9568246 
 357      899CC7AD 
 357      C305911E 
 358 07c6 405FC4FC 		.ascii	"@_\304\374s\321\3011\364\377"
 358      73D1C131 
 358      F4FF
 359 07d0 89496F05 		.ascii	"\211Io\005\334\350\235\353\320\373>\343\275\357=\337"
 359      DCE89DEB 
 359      D0FB3EE3 
 359      BDEF3DDF 
 360 07e0 A379DFED 		.ascii	"\243y\337\355\326\343\336\345jt\216\307\305ya\354\220"
 360      D6E3DEE5 
 360      6A748EC7 
 360      C57961EC 
 360      90
 361 07f1 3E70BFC2 		.ascii	">p\277\302\201\273#\211\335o\314\213S'\307v-\275U%\376"
 361      81BB2389 
 361      DD6FCC8B 
 361      5327C776 
 361      2DBD5525 
 362 0806 1385433E 		.ascii	"\023\205C>\007K\376\\\013\326\343\201\366\314b\207G"
 362      074BFE5C 
 362      0BD6E381 
 362      F6CC6287 
 362      47
 363 0817 7FFA4BCF 		.ascii	"\177\372K\317+Qv\022\376\035z\332a\023\027\016N\020"
 363      2B517612 
 363      FE1D7ADA 
 363      6113170E 
 363      4E10
 364 0829 CF60936E 		.ascii	"\317`\223n\3630\276S\2238At0\214\253\242;\337\324C:"
 364      F330BE53 
 364      93384174 
 364      308CABA2 
 364      3BDFD443 
 365 083e 8B8DCC03 		.ascii	"\213\215\314\003\273S{`J>\015&\354\346\006\310M\034"
 365      BB537B60 
 365      4A3E0D26 
 365      ECE606C8 
 365      4D1C
 366 0850 20DFF383 		.ascii	" \337\363\203B\024\2568\341\376I;W\204i\350\244\361"
 366      4214AE38 
 366      E1FE493B 
 366      578469E8 
 366      A4F1
 367 0862 18FC3B33 		.ascii	"\030\374;3\236\325Dd\300\343mY\025\255\355\304\003\013"
 367      9ED54464 
 367      C0E36D59 
 367      15ADEDC4 
 367      030B
 368 0874 E6A3779C 		.ascii	"\346\243w\234\0107\302\036lm\235N\356g\270BQ\375\016"
 368      0837C21E 
ARM GAS  /tmp/ccGV0H6c.s 			page 29


 368      6C6D9D4E 
 368      EE67B842 
 368      51FD0E
 369 0887 F046DB29 		.ascii	"\360F\333)[\025\335\335\271J\303cg\356\363\\\343\031"
 369      5B15DDDD 
 369      B94AC363 
 369      67EEF35C 
 369      E319
 370 0899 E53B5D67 		.ascii	"\345;]gX\317-t\0027\326\261\355\023\3578$r\031\337\324"
 370      58CF2D74 
 370      0237D6B1 
 370      ED13EF38 
 370      247219DF 
 371 08ae 5DC1B773 		.ascii	"]\301\267s_a~\035\363Z\234(\027a\276\030\363\225\230"
 371      5F617E1D 
 371      F35A9C28 
 371      1761BE18 
 371      F39598
 372 08c1 6FC07C2B 		.ascii	"o\300|+\346M\2307c\376-\346\2671\277\213\371}\314\037"
 372      E64D9837 
 372      63FE2DE6 
 372      B731BF8B 
 372      F97DCC1F 
 373 08d5 60FED0C9 		.ascii	"`\376\320\311\204kZ\003\306'\335^\277\212=y$~\306\245"
 373      846B5A03 
 373      C627DD5E 
 373      BF8A3D79 
 373      247EC6A5 
 374 08e9 BF8A7503 		.ascii	"\277\212u\003\226\233\212\303\030\307\341y\344\360\002"
 374      969B8AC3 
 374      18C7E179 
 374      E4F002
 375 08f8 F2A67A86 		.ascii	"\362\246z\206\361\325X\370=\325\353\227?{\316\362\216"
 375      F1D558F8 
 375      3DD5EB97 
 375      3F7BCEF2 
 375      8E
 376 0909 25916B66 		.ascii	"%\221kf<W\361W\325\217\303\331\013\216\005\242[0\243"
 376      3C57F157 
 376      D58FC3D9 
 376      0B8E05A2 
 376      5B30A3
 377 091c 97762E33 		.ascii	"\227v.3NQ\013\235\340\2458\223\324\316\235\031X\235"
 377      4E510B9D 
 377      E0A53893 
 377      D4CE9D19 
 377      589D
 378 092e 6B30A370 		.ascii	"k0\243p\237\235\345\0168\227\371Iz0\253\223;k\343\237"
 378      9F9DE50E 
 378      3897F949 
 378      7A30AB93 
 378      3B6BE39F 
 379 0942 E28C7F06 		.ascii	"\342\214\177\006\215\177\026\215?\333C\363*\314\253"
 379      8D7F168D 
 379      3FDB43F3 
 379      2ACCAB
 380 0951 319F83F9 		.ascii	"1\237\203\371\\\217aj]\353\327\337Mk\235\031_\003\247"
ARM GAS  /tmp/ccGV0H6c.s 			page 30


 380      5C8F616A 
 380      5DEBD7DF 
 380      4D6B9D19 
 380      5F03A7
 381 0964 F00A891C 		.ascii	"\360\012\211\034\205\2164[6\305\230o8\215m\227oGYl\233"
 381      858E345B 
 381      36C5986F 
 381      388D6D97 
 381      6F47596C 
 382 0979 EFA113F2 		.ascii	"\357\241\023\362F\277\353\330\266\013\233\274\355I\212"
 382      46BFEBD8 
 382      B60B9BBC 
 382      ED498A
 383 0988 6D0FF5D7 		.ascii	"m\017\365\327\323\364Y\232\3306\247:\272|\305\246\304"
 383      D3F4599A 
 383      D836A73A 
 383      BA7CC5A6 
 383      C4
 384 0999 3EA93ABE 		.ascii	">\251:\276\253\\\012s\273\335\344`8\210\375[\\\216\037"
 384      AB5C0A73 
 384      BBDDE460 
 384      3888FD5B 
 384      5C8E1F
 385 09ac 25162614 		.ascii	"%\026&\024\222\310_<\324\234\013\214\006;n6\230\313"
 385      92C85F3C 
 385      D49C0B8C 
 385      063B6E36 
 385      98CB
 386 09be 58B827A6 		.ascii	"X\270'\246\307B\366v\372\244\031\317\370.:]0T\243'c"
 386      C742F676 
 386      FAA419CF 
 386      F82E3A5D 
 386      3054A327 
 387 09d3 E0DC4EED 		.ascii	"\340\334N\355\376\303\246\253\317\241\335\227\242\335"
 387      FEC3A6AB 
 387      CFA1DD97 
 387      A2DD
 388 09e1 1FB8B53B 		.ascii	"\037\270\265;\245h\271\311\346\321n9\227\335M\277\222"
 388      A568B9C9 
 388      E6D16E39 
 388      97DD4DBF 
 388      92
 389 09f2 B97719B7 		.ascii	"\271w\031\267\020n\226\244\373\330\231\333*\017\015"
 389      106E96A4 
 389      FBD899DB 
 389      2A0F0D
 390 0a01 A6EF64FD 		.ascii	"\246\357d\375(\013\322%\010\263\374\307r\232\345\234"
 390      280BD225 
 390      08B3FCC7 
 390      729AE59C 
 391 0a11 D3AC40A7 		.ascii	"\323\254@\247Yit\232UY\016\234\246<U\177\332m\303i\201"
 391      5969749A 
 391      55590E9C 
 391      A63C557F 
 391      DA6DC369 
 392 0a26 D55CA5F9 		.ascii	"\325\\\245\371\306Pa\215\032\275\336\325\263\245;oi"
 392      C650618D 
ARM GAS  /tmp/ccGV0H6c.s 			page 31


 392      1ABDDED5 
 392      B3A53B6F 
 392      69
 393 0a37 75559B7A 		.ascii	"uU\233z\235*\356\374;\265\365\036\323wj\354\023&\356"
 393      9D2AEEFC 
 393      3BB5F51E 
 393      D3776AEC 
 393      1326EE
 394 0a4a 433551D8 		.ascii	"C5Q\330k2\305\023\302\273\252\272H].\277\250\177\247"
 394      6B32C513 
 394      C2BBAABA 
 394      485D2EBF 
 394      A87FA7
 395 0a5d 781C6BAC 		.ascii	"x\034k\254\363\014\265\354'\376\255\325\257\204\215"
 395      F30CB5EC 
 395      27FEADD5 
 395      AF848D
 396 0a6c F4DDCF3B 		.ascii	"\364\335\317;\352\334\001\004\245\022\264V\006\2167"
 396      EADC0104 
 396      A512B456 
 396      068E37
 397 0a7b 7844FE06 		.ascii	"xD\376\006U\260\241+z_f\2729Wm\263\246ZB\033\030\203"
 397      55B0A12B 
 397      7A5F66BA 
 397      39576DB3 
 397      A65A421B 
 398 0a91 26553499 		.ascii	"&U4\231\340\327\250z\342\"5\232E\332\222,R\327\365\350"
 398      E0D7A87A 
 398      E222359A 
 398      45DA922C 
 398      52D7F5E8 
 399 0aa5 C3D69CDA 		.ascii	"\303\326\234\332\331]==C\235\313\264\315\212\356\370"
 399      D95D3D3D 
 399      439DCBB4 
 399      CD8AEEF8 
 400 0ab5 4533F3F0 		.ascii	"E3\363\360\370u\013\243\215\377\206\320\240\017\252"
 400      F8750BA3 
 400      8DFF86D0 
 400      A00FAA
 401 0ac4 14B3B6CE 		.ascii	"\024\263\266\316\022\335:\022\331\344\241Aukj\353h\315"
 401      12DD3A12 
 401      D9E4A141 
 401      756B6AEB 
 401      68CD
 402 0ad6 3AA527F5 		.ascii	":\245'\365/\305\256 0\327\314\360\245\230&-k\026]\370"
 402      2FC5AE20 
 402      30D7CCF0 
 402      A598262D 
 402      6B165DF8 
 403 0aea 065D1488 		.ascii	"\006]\024\210\372'\213\337\230\233\232zl\341zl\242\202"
 403      FA278BDF 
 403      989B9A7A 
 403      6CE17A6C 
 403      A282
 404 0afc E22705AD 		.ascii	"\342'\005\255$\265\234c\022N\244F{j\252\033\210\232"
 404      24B59C63 
 404      124EA446 
ARM GAS  /tmp/ccGV0H6c.s 			page 32


 404      7B6AAA1B 
 404      889A
 405 0b0e 19B7D956 		.ascii	"\031\267\331V\263\315vX\332\354\301Qf\263\265c\235\033"
 405      B3CD7658 
 405      DAECC151 
 405      66B3B563 
 405      9D1B
 406 0b20 ED7F1D8C 		.ascii	"\355\177\035\214\221\233i\306\210n\205\275\216\306\210"
 406      919B69C6 
 406      886E85BD 
 406      8EC688
 407 0b2f 6A1A237B 		.ascii	"j\032#{\315\312\355\267P\016\246\320\035\007\177^\277"
 407      CDCAEDB7 
 407      500EA6D0 
 407      1D077F5E 
 407      BF
 408 0b40 439D335F 		.ascii	"C\2353_}\330\363:a#@\024\326\3671\373<\3038h\205\021"
 408      7DD8F33A 
 408      61234014 
 408      D6F731FB 
 408      3CC33868 
 409 0b56 BDD1FAB6 		.ascii	"\275\321\372\266J\334\272\365Gf\206\330\207\213\006"
 409      4ADCBAF5 
 409      476686D8 
 409      878B06
 410 0b65 86B6DB88 		.ascii	"\206\266\333\210q\310R\214\013\0111\030\274(\354\261"
 410      71C8528C 
 410      0B093118 
 410      BC28ECB1 
 411 0b75 01386C04 		.ascii	"\0018l\004\370ga\035\345\342N\315\351\303d\221\332\320"
 411      F867611D 
 411      E5E24ECD 
 411      E9C36491 
 411      DAD0
 412 0b87 467DA587 		.ascii	"F}\245\207\014M\373\365\240~\212}\277\203}\316\327\216"
 412      0C4DFBF5 
 412      A07E8A7D 
 412      BF837DCE 
 412      D78E
 413 0b99 71B3B58F 		.ascii	"q\263\265\2179\014\261\257\010\271\376\217q\353\302"
 413      390CB1AF 
 413      08B9FE8F 
 413      71EBC2
 414 0ba8 13B82EEC 		.ascii	"\023\270.\354\300u\341Q\314\347\341Z\260\016\363%\306"
 414      C075E151 
 414      CCE7E15A 
 414      B00EF325 
 414      C6
 415 0bb9 5871328E 		.ascii	"Xq2\216m)\020\305\3768\241\233\3510\276\335&\244\241"
 415      6D2910C5 
 415      FE38A19B 
 415      E930BEDD 
 415      26A4A1
 416 0bcc 449E6C9B 		.ascii	"D\236l\233V\324#\354Z\035O\264\302\250]\2352j\303\346"
 416      56D423EC 
 416      5A1D4FB4 
 416      C2A85D9D 
ARM GAS  /tmp/ccGV0H6c.s 			page 33


 416      326AC3E6 
 417 0be0 0F754D1F 		.ascii	"\017uM\037\204\255\016\3732u\250\327\022\314\307\232"
 417      84AD0EFB 
 417      3275A8D7 
 417      12CCC79A 
 418 0bf0 BBCBD891 		.ascii	"\273\313\330\221T\007R?/;\355\327|F\034*T\247y\311R"
 418      5407523F 
 418      2F3BEDD7 
 418      7C461C2A 
 418      54A779C9 
 419 0c05 17C36F3F 		.ascii	"\027\303o?;\035-Q\227\304\364\215\327\011\\\204,F\021"
 419      3B1D2D51 
 419      97C4F48D 
 419      D7095C84 
 419      2C4611
 420 0c18 3ADDAF1E 		.ascii	":\335\257\0364\274\2451\334\2160\260z\327`\271\006\260"
 420      34BCA531 
 420      DC8E30B0 
 420      7AD760B9 
 420      06B0
 421 0c2a 7A1E6C95 		.ascii	"z\036l\225\0230\273-!\200\255\340\301\326\271\0063J"
 421      1330BB2D 
 421      2180ADE0 
 421      C1D6B906 
 421      334A
 422 0c3c B68A07DB 		.ascii	"\266\212\007\333\344\004\314n?\010`kx\260\315\256\301"
 422      E404CC6E 
 422      3F08606B 
 422      78B0CDAE 
 422      C1
 423 0c4d 8C92BDCF 		.ascii	"\214\222\275\317\203ms\002f\367%\007\200\355\340\301"
 423      836D7302 
 423      66F72507 
 423      80EDE0C1 
 424 0c5d 76BA0633 		.ascii	"v\272\0063J\266\213\007\333\343\004,\327^\262f\036\254"
 424      4AB68B07 
 424      DBE3042C 
 424      D75EB266 
 424      1EAC
 425 0c6f C5359851 		.ascii	"\3055\230Q\262\277\362`\037:\001\263\333\004\001\330"
 425      B2BFF260 
 425      1F3A01B3 
 425      DB0401D8 
 426 0c7f 5E1EACD5 		.ascii	"^\036\254\3255\230Q\262}<\330\021'`#\354$\233\035my"
 426      359851B2 
 426      7D3CD811 
 426      276023EC 
 426      249B1D6D 
 427 0c94 B556FA89 		.ascii	"\265V\372\211P\253M)\014U\237V\210\321\265\370jt\027"
 427      50AB4D29 
 427      0C559F56 
 427      88D1B5F8 
 427      6A7417
 428 0ca7 62534D22 		.ascii	"bSM\"\335\236\237`\311\360\006\015k\330M\2727<\211\017"
 428      DD9E9F60 
 428      C9F0060D 
 428      6BD84DBA 
ARM GAS  /tmp/ccGV0H6c.s 			page 34


 428      373C890F 
 429 0cbb 9472B212 		.ascii	"\224r\262\022\005\376\277\274$j\321\245\266Ym\243\024"
 429      05FEBFBC 
 429      246AD1A5 
 429      B6596DA3 
 429      14
 430 0ccc 567A1B49 		.ascii	"Vz\033I\354\340I<\351\204\304\261\366`'y\260\263N\300"
 430      ECE0493C 
 430      E984C4B1 
 430      F6602779 
 430      B0B34EC0 
 431 0ce0 5EB4F795 		.ascii	"^\264\367\225S<X\3145\230Q\2623<X\227\023\260W\354%"
 431      533C58CC 
 431      359851B2 
 431      333C5897 
 431      13B057EC 
 432 0cf5 FB9407BB 		.ascii	"\373\224\007\273\344\032\214\227lv\364\263\204\343\321"
 432      E41A8C97 
 432      6C76F4B3 
 432      84E3D1
 433 0d04 8FEB0D9E 		.ascii	"\217\353\015\2367\3268\333\032\252q\236g\252&\021\325"
 433      37D638DB 
 433      1AAA719E 
 433      67AA2611 
 433      D5
 434 0d15 EBD6F166 		.ascii	"\353\326\361f{\255\035\217\377\314(Q\213\276\2125\253"
 434      7BAD1D8F 
 434      FFCC2851 
 434      8BBE8A35 
 434      AB
 435 0d26 6D10422B 		.ascii	"m\020B+N\261\340\320\352\307\007j\211\234\302\235\364"
 435      4EB1E0D0 
 435      EAC7076A 
 435      899CC29D 
 435      F4
 436 0d37 695C239D 		.ascii	"i\\#\235\305\374\034\3461\314\317c~\021\363\3171\277"
 436      C5FC1CE6 
 436      31CCCF63 
 436      7E11F3CF 
 436      31BF
 437 0d49 84F965CC 		.ascii	"\204\371e\314\277\304\374*\346_c\376-\346\3270\377\036"
 437      BFC4FC2A 
 437      E65F63FE 
 437      2DE6D730 
 437      FF1E
 438 0d5b F3DB98DF 		.ascii	"\363\333\230\337\305\374>\346\0170\177\310\257\307L"
 438      C5FC3EE6 
 438      0F307FC8 
 438      AFC74C
 439 0d6a 2BA58E14 		.ascii	"+\245\216\024\353\253j\257\335\372\352\243\024\353\253"
 439      EBAB6AAF 
 439      DDFAEAA3 
 439      14EBAB
 440 0d79 398956DA 		.ascii	"9\211V\332\246}\377\201\366\237m\245\037>\323\365\372"
 440      A67DFF81 
 440      F69F6DA5 
 440      1F3ED3F5 
ARM GAS  /tmp/ccGV0H6c.s 			page 35


 440      FA
 441 0d8a EC39445F 		.ascii	"\3549D_\261\257\311q\262K\235\3535m\012j\274I+i\350"
 441      B1AFC971 
 441      B24B9DEB 
 441      356D0A6A 
 441      BC492B69 
 442 0d9f E4DCA583 		.ascii	"\344\334\245\203\305{\270NL\253\372fb\357#\363\275\311"
 442      C57BB84E 
 442      4CABFA66 
 442      62EF23F3 
 442      BDC9
 443 0db1 3BE84E6B 		.ascii	";\350Nk\331\252\324\367\033\325\014}\013\013\313^\257"
 443      D9AAD4F7 
 443      1BD50C7D 
 443      0B0BCB5E 
 443      AF
 444 0dc2 F5B651C3 		.ascii	"\365\266Q\303{\323R\324}\007\332\177A_d\252==\257\017"
 444      7BD352D4 
 444      7D07DA7F 
 444      415F64AA 
 444      3D3DAF0F 
 445 0dd6 63DDC336 		.ascii	"c\335\3036\324Y\207o\247\356\360\035\313\016\277\377"
 445      D459876F 
 445      A7EEF01D 
 445      CB0EBFFF 
 446 0de6 F2DCAF93 		.ascii	"\362\334\257\223:\334\336\327Q\207\013RwXk\331\341\376"
 446      3ADCDED7 
 446      51870B52 
 446      77586BD9 
 446      E1FE
 447 0df8 03577F6E 		.ascii	"\003W\177n\2648\333\333\0344\365\251m\037\317&v\343"
 447      B438DBDB 
 447      1C34F5A9 
 447      6D1FCF26 
 447      76E3
 448 0e0a 67B0C622 		.ascii	"g\260\306\"\233N\343g\007\232\243\234S_\031\022w\224"
 448      9B4EE367 
 448      079AA39C 
 448      535F1912 
 448      7794
 449 0e1c 456647A9 		.ascii	"EfG\251\363&\355\230::\272z\266\264\217\256S\253\352"
 449      F326ED98 
 449      3A3ABA7A 
 449      B6B48FAE 
 449      53ABEA
 450 0e2f D539B861 		.ascii	"\3259\270a\322\203^\275\361\214\266H\357\266/\266\345"
 450      D2835EBD 
 450      F18CB648 
 450      EFB62FB6 
 450      E5
 451 0e40 6BD5DBD6 		.ascii	"k\325\333\326\222\310r\327\023\324\012\233\011*\307"
 451      92C872D7 
 451      13D40A9B 
 451      092AC7
 452 0e4f A0CA8AC4 		.ascii	"\240\312\212\304\004\025C\206\270\015\266I\010Q\370"
 452      04154386 
 452      B80DB649 
ARM GAS  /tmp/ccGV0H6c.s 			page 36


 452      0851F8
 453 0e5e A22FD19A 		.ascii	"\242/\321\232\301\316+a\222{C\254Lr\303\332$1\335$\260"
 453      C1CE2B61 
 453      927B43AC 
 453      4C72C3DA 
 453      2431DD24 
 454 0e73 9DF3D21D 		.ascii	"\235\363\322\035\375\352\336\230d\265\331$klLr\365\361"
 454      FDEADE98 
 454      64B5D924 
 454      6B6C4C72 
 454      F5F1
 455 0e85 F42699A2 		.ascii	"\364&\231\242w\233\235\312$\246Z\022y\327\265I6\330"
 455      779B9DCA 
 455      24A65A12 
 455      79D7B549 
 455      36D8
 456 0e97 98A48F41 		.ascii	"\230\244\217A\025\275\026\024WzM':&!Da~?\336$\246\331"
 456      15BD1614 
 456      577A4D27 
 456      3A262144 
 456      617E3FDE 
 457 0eae 747D8AD9 		.ascii	"t}\212\331tSb6\025\236\030><\217\375\013E\362\302J^"
 457      74536236 
 457      159E183E 
 457      3C8FFD0B 
 457      45F2C24A 
 458 0ec3 7159B0A4 		.ascii	"qY\260\244\242P\316\013\026EfE\224Y\345rdx\221\360X"
 458      A250CE0B 
 458      16456645 
 458      9459E572 
 458      647891F0 
 459 0ed8 657158A9 		.ascii	"eqX\251\220J\002Jq\251\034\216\004J\212#J@\311\234\360"
 459      904A024A 
 459      71A91C8E 
 459      044A8A23 
 459      4A40C99C 
 460 0eed 873FE5E6 		.ascii	"\207?\345\346\013\203\203E\001\213\347\271\366\300\301"
 460      0B838345 
 460      018BE7B9 
 460      F6C0C1
 461 0efc A24200ED 		.ascii	"\242B\000\355oh\024P\006\230q\274e\362L\305[\036\226"
 461      6F681450 
 461      069871BC 
 461      65F24CC5 
 461      5B1E96
 462 0f0f 2BB3A82C 		.ascii	"+\263\250,p+\240\374G^Q\250T\316\223J\344\231y\023\345"
 462      702BA0FC 
 462      475E51A8 
 462      54CE934A 
 462      E4997913 
 463 0f24 3225149E 		.ascii	"2%\024\236\020\226\312\213\212\203\221\274I\241\212"
 463      1096CA8B 
 463      8A8391BC 
 463      49A18A
 464 0f33 70500ECF 		.ascii	"pP\016\317\012\344\207\012\345\347\3452\200{\271X\221"
 464      0AE4870A 
 464      E5E7E532 
ARM GAS  /tmp/ccGV0H6c.s 			page 37


 464      807BB958 
 464      91
 465 0f44 03D342E1 		.ascii	"\003\323B\341\300\270\202\211\201\027\306=\377R\236"
 465      C0B88289 
 465      8117C63D 
 465      FF529E
 466 0f53 142E7DAA 		.ascii	"\024.}\252,T&?%KS\213\3432E\224\302\3422\005d\362W\300"
 466      2C54263F 
 466      254B538B 
 466      E3324594 
 466      C2E23205 
 467 0f6b DF91CF06 		.ascii	"\337\221\317\006\224\214B\271D\221\374\225\312\264\212"
 467      948C42B9 
 467      4491FC95 
 467      CAB48A
 468 0f7a B26040F1 		.ascii	"\262`@\361\322?\236r)\354/\221\"\012\025%\263R\241Z"
 468      D23F9E72 
 468      29EC2F91 
 468      220A1525 
 468      B352A15A 
 469 0f8e 66412F54 		.ascii	"fA/T8\2714',K\205\2634j\372\302\355\304"
 469      38B93427 
 469      2C4B85B3 
 469      346AFAC2 
 469      EDC4
 470 0fa0 757FA588 		.ascii	"u\177\245\210^D\002\377U!W\310LS\303-?\273\012 \034"
 470      5E4402FF 
 470      552157C8 
 470      4C53C32D 
 470      3FBB0A20 
 471 0fb5 2B67E083 		.ascii	"+g\340\203\321<\211\301Pii\250,\257<\024V\"y\240Q\376"
 471      D13C89C1 
 471      506969A8 
 471      2CAF3C14 
 471      562279A0 
 472 0fcb C499F45E 		.ascii	"\304\231\364^yq\011p\2367!?\037\270\325-\346S\312\303"
 472      79710970 
 472      9E37213F 
 472      1FB8D52D 
 472      E653CAC3 
 473 0fdf C5A18082 		.ascii	"\305\241\200\202\012==*@y,\016\345\320\266\201`\250"
 473      0A3D3D2A 
 473      40792C0E 
 473      E5D0B681 
 473      60A8
 474 0ff1 4C01667F 		.ascii	"L\001f\177\235\026\273(\030\012\313\000\226\215\315"
 474      9D16BB28 
 474      180ACB00 
 474      968DCD
 475 1000 0028A8CC 		.ascii	"\000(\250\314|\312Y\253@\345s\245\224\317\260<\035("
 475      7CCA59AB 
 475      40E573A5 
 475      94CFB03C 
 475      1D28
 476 1012 0F2862F8 		.ascii	"\017(b\370\0311\374[1\374\254\030~N\014\217\026\303"
 476      1931FC5B 
 476      31FCAC18 
ARM GAS  /tmp/ccGV0H6c.s 			page 38


 476      7E4E0C8F 
 476      16C3
 477 1024 BFF38447 		.ascii	"\277\363\204G\216\2004R,\011\213\221r\017@g\224\311"
 477      8E803452 
 477      2C098B91 
 477      720F4067 
 477      94C9
 478 1036 33E47046 		.ascii	"3\344pF\250\244\020l\037,\222\300\001\244R\271OD\371"
 478      A8A4106C 
 478      1F2C92C0 
 478      01A452B9 
 478      4F44F9
 479 1049 B354523C 		.ascii	"\263TR<\275LS\346\331g\300\363fHS\245\010\320\026Q$"
 479      BD4C53E6 
 479      D967C0F3 
 479      664853A5 
 479      08D01651 
 480 105e B0B0E2A3 		.ascii	"\260\260\342\243\017F\203\325\360\332\247\224\202\007"
 480      0F4683D5 
 480      F0DAA794 
 480      8207
 481 106c C0D5B412 		.ascii	"\300\325\264\022iz\304\247\204\345i\021 \200\376\311"
 481      697AC4A7 
 481      84E56911 
 481      2080FEC9 
 482 107c 288D4C87 		.ascii	"(\215L\207\352\032'\231\341\302Yp\303/\317,V\202\320"
 482      EA1A2799 
 482      E1C25970 
 482      C32FCF2C 
 482      5682D0
 483 108f 24738612 		.ascii	"$s\206\022\232\372\237\345\0035k@\0039\014~D\241f(J"
 483      9AFA9FE5 
 483      03356B40 
 483      03390C7E 
 483      44A16628 
 484 10a4 B8DC1701 		.ascii	"\270\334\027\001\217\203\0069\324\350r)\370\035h:\324"
 484      8F830639 
 484      D4E87229 
 484      F81D683A 
 484      D4
 485 10b5 DECF654A 		.ascii	"\336\317eJAF\260\014\034\302\0039\300\303\255r?\264"
 485      4146B00C 
 485      1CC20339 
 485      C0C3AD72 
 485      3FB4
 486 10c7 2EAD000B 		.ascii	".\255\000\013\330\267,Uf\322\226\241\031er\330\207u"
 486      D8B72C55 
 486      66D296A1 
 486      196572D8 
 486      8775
 487 10d9 A9CE0ADC 		.ascii	"\251\316\012\334.\317\226+\251\020R\344\317pK\236A\013"
 487      2ECF962B 
 487      A91052E4 
 487      CF704B9E 
 487      410B
 488 10eb A4A29FEE 		.ascii	"\244\242\237\356M\314\373\372s\376E\357\370fH\305Jq"
 488      4DCCFBFA 
ARM GAS  /tmp/ccGV0H6c.s 			page 39


 488      73FE45EF 
 488      F86648C5 
 488      4A71
 489 10fd D9743FC8 		.ascii	"\331t?\310\316\374M.\227\313\300\345\247\373\000\222"
 489      CEFC4D2E 
 489      97CBC0E5 
 489      A7FB0092 
 490 110d D6003B49 		.ascii	"\326\000;I%\324C2J\313C\241\022_\260\"\014\232+\031"
 490      25D44332 
 490      4ACB43A1 
 490      125FB022 
 490      0C9A2B19 
 491 1121 61FAB01F 		.ascii	"a\372\260\037s\360@\241<\265b:C\347\357d\225Ke\305\301"
 491      73F040A1 
 491      3CB5623A 
 491      43E7EF64 
 491      954B65C5 
 492 1136 00607B0A 		.ascii	"\000`{\012\247N\357S*\001\273\330\371?\331\352\247P"
 492      A74EEF53 
 492      2A01BBD8 
 492      F93FD9EA 
 492      A750
 493 1148 620628A5 		.ascii	"b\006(\245\201 XvjXR\212C`^_XA\2562C\323\246EdETJ\177"
 493      81205876 
 493      6A58528A 
 493      43605E5F 
 493      5841AE32 
 494 1165 66428884 		.ascii	"fB\210\204\203\320\272R\031\036\024\006\005\213\376"
 494      83D0BA52 
 494      191E1406 
 494      058BFE
 495 1174 6DF2F850 		.ascii	"m\362\370P\201\0145_\032\016#S\031>\302S\251\224\373"
 495      810C355F 
 495      1A0E2353 
 495      193EC253 
 495      A994FB
 496 1187 0395D455 		.ascii	"\003\225\324U\213\225>\254\302$xL\007\2634+\223\015"
 496      8B953EAC 
 496      C224784C 
 496      07B3342B 
 496      930D
 497 1199 E61CBEE1 		.ascii	"\346\034\276\3410\276\203\"\251$.#\224\003\021:#dG\224"
 497      30BE8322 
 497      A9242E23 
 497      9403113A 
 497      23644794 
 498 11ad 494AA87C 		.ascii	"IJ\250|\\\011\2701\270\"\300a1\207\336\206N\361\";\301"
 498      5C09B831 
 498      B822C061 
 498      3187DE86 
 498      4EF1223B 
 499 11c2 8822068B 		.ascii	"\210\"\006\213F\231A\331\370\2304y\342\323\243\362^"
 499      469941D9 
 499      F8983479 
 499      E2D3A3F2 
 499      5E
 500 11d3 7E797CDE 		.ascii	"~y|\336\344\227&V\216\204I\247\224:aq)\353E\273\000"
ARM GAS  /tmp/ccGV0H6c.s 			page 40


 500      E4972656 
 500      8E8449A7 
 500      943A6171 
 500      29EB45BB 
 501 11e8 57C92F18 		.ascii	"W\311/\030\011i\224w\322\304\374\002\357\370\227^(\020"
 501      09699477 
 501      D2C4FC02 
 501      EFF8975E 
 501      2810
 502 11fa 2715785E 		.ascii	"'\025x^\230P\220\221\237?\261`$\346\243\274\371\371"
 502      98509091 
 502      9F3FB160 
 502      24E6A3BC 
 502      F9F9
 503 120c 2F1478F2 		.ascii	"/\024x\362\3770\331\363\312\244|\317\270\202\002OA>"
 503      FF30D9F3 
 503      CAA47CCF 
 503      B882024F 
 503      413E
 504 121e 5C4383E7 		.ascii	"\\C\203\347\307O.\360\214\247-'\216+\020\377\310Z=\015"
 504      C74F2EF0 
 504      8CA72D27 
 504      8E2B10FF 
 504      C85A3D0D 
 505 1232 F5A714E4 		.ascii	"\365\247\024\3449\034\2738\373\322i\037\307=\233\236"
 505      391CBB38 
 505      FBD2691F 
 505      C73D9B9E 
 506 1242 23404240 		.ascii	"#@B@\242\332\332\233\265\222\0226\220\362;AV&!!\223"
 506      A2DADA9B 
 506      B5921236 
 506      90F23B41 
 506      56262121 
 507 1257 A1F19441 		.ascii	"\241\361\224A\034\316t\231\225\236vF\022\263C\240\244"
 507      1CCE7499 
 507      959E7646 
 507      12B343A0 
 507      A4
 508 1268 84468C81 		.ascii	"\204F\214\201\254\204\030\301P\005\314b\341\237\362"
 508      AC8418C1 
 508      5005CC62 
 508      E19FF2
 509 1277 22C26D94 		.ascii	"\"\302m\224\320K\257\375\201\000\316\335\201\276za\370"
 509      D04BAFFD 
 509      8100CEDD 
 509      81BE7A61 
 509      F8
 510 1288 6F7F37EA 		.ascii	"o\1777\352\231\301\006\235\300\202\254\011_i\344\263"
 510      99C1069D 
 510      C082AC09 
 510      5F69E4B3 
 511 1298 FF0F350B 		.ascii	"\377\0175\0133\376"
 511      33FE
 512              		.text
 513              		.section	.gnu.lto_.symtab.63e854f24c46fca0,"",%progbits
 514 0000 5F76745F 		.ascii	"_vt_init\000\000\000\000\000\000\000\000\000\000\000"
 514      696E6974 
ARM GAS  /tmp/ccGV0H6c.s 			page 41


 514      00000000 
 514      00000000 
 514      000000
 515 0013 00A80100 		.ascii	"\000\250\001\000\000chVTDoSetI\000\000\000\000\000\000"
 515      00636856 
 515      54446F53 
 515      65744900 
 515      00000000 
 516 0028 00000000 		.ascii	"\000\000\000\000\000\000\254\001\000\000chVTDoReset"
 516      0000AC01 
 516      00006368 
 516      5654446F 
 516      52657365 
 517 003d 49000000 		.ascii	"I\000\000\000\000\000\000\000\000\000\000\000\000\272"
 517      00000000 
 517      00000000 
 517      00BA
 518 004b 01000063 		.ascii	"\001\000\000ch\000\000\002\000\000\000\000\000\000\000"
 518      68000002 
 518      00000000 
 518      000000
 519 005a 0000C801 		.ascii	"\000\000\310\001\000\000stStopAlarm\000\000\002\000"
 519      00007374 
 519      53746F70 
 519      416C6172 
 519      6D000002 
 520 006f 00000000 		.ascii	"\000\000\000\000\000\000\000\000\300\001\000\000stS"
 520      00000000 
 520      C0010000 
 520      737453
 521 007e 6574416C 		.ascii	"etAlarm\000\000\002\000\000\000\000\000\000\000\000"
 521      61726D00 
 521      00020000 
 521      00000000 
 521      0000
 522 0090 00C20100 		.ascii	"\000\302\001\000\000stStartAlarm\000\000\002\000\000"
 522      00737453 
 522      74617274 
 522      416C6172 
 522      6D000002 
 523 00a6 00000000 		.ascii	"\000\000\000\000\000\000\000\306\001\000\000"
 523      000000C6 
 523      010000
 524              		.text
 525              		.section	.gnu.lto_.opts,"",%progbits
 526 0000 272D6D63 		.ascii	"'-mcpu=cortex-m3' '-mno-thumb-interwork' '-mthumb' "
 526      70753D63 
 526      6F727465 
 526      782D6D33 
 526      2720272D 
 527 0033 272D6767 		.ascii	"'-ggdb' '-O2' '-fomit-frame-pointer' '-falign-funct"
 527      64622720 
 527      272D4F32 
 527      2720272D 
 527      666F6D69 
 528 0066 696F6E73 		.ascii	"ions=16' '-ffunction-sections' '-fdata-sections' '-"
 528      3D313627 
ARM GAS  /tmp/ccGV0H6c.s 			page 42


 528      20272D66 
 528      66756E63 
 528      74696F6E 
 529 0099 666E6F2D 		.ascii	"fno-common' '-flto'\000"
 529      636F6D6D 
 529      6F6E2720 
 529      272D666C 
 529      746F2700 
 530              		.text
 531              		.cfi_sections	.debug_frame
 532              		.section	.text._vt_init,"ax",%progbits
 533              		.align	2
 534              		.p2align 4,,15
 535              		.global	_vt_init
 536              		.thumb
 537              		.thumb_func
 538              		.type	_vt_init, %function
 539              	_vt_init:
 540              	.LFB186:
 541              		.file 1 "../../../os/rt/src/chvt.c"
 542              		.loc 1 61 0
 543              		.cfi_startproc
 544              		@ args = 0, pretend = 0, frame = 0
 545              		@ frame_needed = 0, uses_anonymous_args = 0
 546              		@ link register save eliminated.
 547              		.loc 1 63 0
 548 0000 40F20003 		movw	r3, #:lower16:ch
 549 0004 C0F20003 		movt	r3, #:upper16:ch
 550 0008 03F11C02 		add	r2, r3, #28
 551              		.loc 1 65 0
 552 000c 4FF6FF70 		movw	r0, #65535
 553              		.loc 1 69 0
 554 0010 0021     		movs	r1, #0
 555              		.loc 1 65 0
 556 0012 9884     		strh	r0, [r3, #36]	@ movhi
 557              		.loc 1 69 0
 558 0014 D984     		strh	r1, [r3, #38]	@ movhi
 559              		.loc 1 63 0
 560 0016 DA61     		str	r2, [r3, #28]
 561              		.loc 1 64 0
 562 0018 1A62     		str	r2, [r3, #32]
 563 001a 7047     		bx	lr
 564              		.cfi_endproc
 565              	.LFE186:
 566              		.size	_vt_init, .-_vt_init
 567 001c AFF30080 		.section	.text.chVTDoSetI,"ax",%progbits
 568              		.align	2
 569              		.p2align 4,,15
 570              		.global	chVTDoSetI
 571              		.thumb
 572              		.thumb_func
 573              		.type	chVTDoSetI, %function
 574              	chVTDoSetI:
 575              	.LFB187:
 576              		.loc 1 96 0
 577              		.cfi_startproc
 578              		@ args = 0, pretend = 0, frame = 0
ARM GAS  /tmp/ccGV0H6c.s 			page 43


 579              		@ frame_needed = 0, uses_anonymous_args = 0
 580              	.LVL0:
 581 0000 F8B5     		push	{r3, r4, r5, r6, r7, lr}
 582              		.cfi_def_cfa_offset 24
 583              		.cfi_offset 3, -24
 584              		.cfi_offset 4, -20
 585              		.cfi_offset 5, -16
 586              		.cfi_offset 6, -12
 587              		.cfi_offset 7, -8
 588              		.cfi_offset 14, -4
 589              	.LBB35:
 590              		.loc 1 117 0
 591 0002 40F20007 		movw	r7, #:lower16:ch
 592 0006 C0F20007 		movt	r7, #:upper16:ch
 593 000a BC46     		mov	ip, r7
 594 000c 5CF81C4F 		ldr	r4, [ip, #28]!
 595              	.LBB36:
 596              	.LBB37:
 597              	.LBB38:
 598              	.LBB39:
 599              		.file 2 "../../../os/hal/ports/STM32/LLD/TIMv1/hal_st_lld.h"
 600              		.loc 2 141 0
 601 0010 4FF08045 		mov	r5, #1073741824
 602 0014 6D6A     		ldr	r5, [r5, #36]
 603              	.LBE39:
 604              	.LBE38:
 605              	.LBE37:
 606              	.LBE36:
 607              		.loc 1 113 0
 608 0016 0129     		cmp	r1, #1
 609 0018 98BF     		it	ls
 610 001a 0221     		movls	r1, #2
 611              	.LVL1:
 612              		.loc 1 117 0
 613 001c 6445     		cmp	r4, ip
 614              	.LBE35:
 615              		.loc 1 103 0
 616 001e 0361     		str	r3, [r0, #16]
 617              		.loc 1 96 0
 618 0020 0646     		mov	r6, r0
 619              		.loc 1 104 0
 620 0022 C260     		str	r2, [r0, #12]
 621              	.LBB50:
 622              	.LBB43:
 623              	.LBB42:
 624              	.LBB41:
 625              	.LBB40:
 626              		.loc 2 141 0
 627 0024 ABB2     		uxth	r3, r5
 628              	.LVL2:
 629              	.LBE40:
 630              	.LBE41:
 631              	.LBE42:
 632              	.LBE43:
 633              		.loc 1 117 0
 634 0026 27D0     		beq	.L14
 635              	.LVL3:
ARM GAS  /tmp/ccGV0H6c.s 			page 44


 636              		.loc 1 139 0
 637 0028 FA8C     		ldrh	r2, [r7, #38]
 638              	.LVL4:
 639 002a 9B1A     		subs	r3, r3, r2
 640 002c CD18     		adds	r5, r1, r3
 641 002e ADB2     		uxth	r5, r5
 642              	.LVL5:
 643              		.loc 1 141 0
 644 0030 9D42     		cmp	r5, r3
 645              		.loc 1 145 0
 646 0032 2389     		ldrh	r3, [r4, #8]
 647              		.loc 1 141 0
 648 0034 15DB     		blt	.L15
 649              		.loc 1 148 0
 650 0036 9D42     		cmp	r5, r3
 651 0038 04D2     		bcs	.L12
 652 003a 17E0     		b	.L17
 653              	.LVL6:
 654              	.L9:
 655              	.LBE50:
 656              		.loc 1 166 0
 657 003c 2468     		ldr	r4, [r4]
 658              	.LVL7:
 659              		.loc 1 165 0
 660 003e ED1A     		subs	r5, r5, r3
 661              	.LVL8:
 662              		.loc 1 164 0
 663 0040 2389     		ldrh	r3, [r4, #8]
 664              		.loc 1 165 0
 665 0042 ADB2     		uxth	r5, r5
 666              	.L12:
 667              	.LVL9:
 668              		.loc 1 164 0
 669 0044 AB42     		cmp	r3, r5
 670 0046 F9D3     		bcc	.L9
 671              		.loc 1 171 0
 672 0048 6368     		ldr	r3, [r4, #4]
 673              		.loc 1 170 0
 674 004a 3460     		str	r4, [r6]
 675              		.loc 1 171 0
 676 004c 7360     		str	r3, [r6, #4]
 677              		.loc 1 172 0
 678 004e 1E60     		str	r6, [r3]
 679              		.loc 1 173 0
 680 0050 6660     		str	r6, [r4, #4]
 681              		.loc 1 174 0
 682 0052 3581     		strh	r5, [r6, #8]	@ movhi
 683              		.loc 1 178 0
 684 0054 2289     		ldrh	r2, [r4, #8]
 685              		.loc 1 179 0
 686 0056 4FF6FF73 		movw	r3, #65535
 687              		.loc 1 178 0
 688 005a 551B     		subs	r5, r2, r5
 689              	.LVL10:
 690 005c 2581     		strh	r5, [r4, #8]	@ movhi
 691              		.loc 1 179 0
 692 005e BB84     		strh	r3, [r7, #36]	@ movhi
ARM GAS  /tmp/ccGV0H6c.s 			page 45


 693 0060 F8BD     		pop	{r3, r4, r5, r6, r7, pc}
 694              	.LVL11:
 695              	.L15:
 696              	.LBB51:
 697              		.loc 1 146 0
 698 0062 2468     		ldr	r4, [r4]
 699              	.LVL12:
 700              		.loc 1 145 0
 701 0064 ED1A     		subs	r5, r5, r3
 702              	.LVL13:
 703 0066 ADB2     		uxth	r5, r5
 704              	.LVL14:
 705 0068 2389     		ldrh	r3, [r4, #8]
 706 006a EBE7     		b	.L12
 707              	.L17:
 708              	.LVL15:
 709              		.loc 1 151 0
 710 006c A818     		adds	r0, r5, r2
 711              	.LVL16:
 712              	.LBB44:
 713              	.LBB45:
 714              		.file 3 "../../../os/common/ports/ARMCMx/chcore_timer.h"
 715              		.loc 3 95 0
 716 006e 80B2     		uxth	r0, r0
 717 0070 FFF7FEFF 		bl	stSetAlarm
 718              	.LVL17:
 719 0074 2389     		ldrh	r3, [r4, #8]
 720 0076 E5E7     		b	.L12
 721              	.LVL18:
 722              	.L14:
 723              	.LBE45:
 724              	.LBE44:
 725              		.loc 1 129 0
 726 0078 C818     		adds	r0, r1, r3
 727              	.LVL19:
 728              		.loc 1 121 0
 729 007a FB84     		strh	r3, [r7, #38]	@ movhi
 730              		.loc 1 122 0
 731 007c FE61     		str	r6, [r7, #28]
 732              		.loc 1 123 0
 733 007e 3E62     		str	r6, [r7, #32]
 734              	.LBB46:
 735              	.LBB47:
 736              		.loc 3 73 0
 737 0080 80B2     		uxth	r0, r0
 738              	.LBE47:
 739              	.LBE46:
 740              		.loc 1 124 0
 741 0082 3460     		str	r4, [r6]
 742              		.loc 1 125 0
 743 0084 7460     		str	r4, [r6, #4]
 744              		.loc 1 126 0
 745 0086 3181     		strh	r1, [r6, #8]	@ movhi
 746              	.LVL20:
 747              	.LBE51:
 748              		.loc 1 180 0
 749 0088 BDE8F840 		pop	{r3, r4, r5, r6, r7, lr}
ARM GAS  /tmp/ccGV0H6c.s 			page 46


 750              	.LVL21:
 751              	.LBB52:
 752              	.LBB49:
 753              	.LBB48:
 754              		.loc 3 73 0
 755 008c FFF7FEBF 		b	stStartAlarm
 756              	.LVL22:
 757              	.LBE48:
 758              	.LBE49:
 759              	.LBE52:
 760              		.cfi_endproc
 761              	.LFE187:
 762              		.size	chVTDoSetI, .-chVTDoSetI
 763              		.section	.text.chVTDoResetI,"ax",%progbits
 764              		.align	2
 765              		.p2align 4,,15
 766              		.global	chVTDoResetI
 767              		.thumb
 768              		.thumb_func
 769              		.type	chVTDoResetI, %function
 770              	chVTDoResetI:
 771              	.LFB188:
 772              		.loc 1 190 0
 773              		.cfi_startproc
 774              		@ args = 0, pretend = 0, frame = 0
 775              		@ frame_needed = 0, uses_anonymous_args = 0
 776              		@ link register save eliminated.
 777              	.LVL23:
 778              		.loc 1 214 0
 779 0000 40F20003 		movw	r3, #:lower16:ch
 780 0004 C0F20003 		movt	r3, #:upper16:ch
 781 0008 DA69     		ldr	r2, [r3, #28]
 782              		.loc 1 190 0
 783 000a 70B4     		push	{r4, r5, r6}
 784              		.cfi_def_cfa_offset 12
 785              		.cfi_offset 4, -12
 786              		.cfi_offset 5, -8
 787              		.cfi_offset 6, -4
 788              		.loc 1 214 0
 789 000c 8242     		cmp	r2, r0
 790 000e 0FD0     		beq	.L19
 791              		.loc 1 216 0
 792 0010 0268     		ldr	r2, [r0]
 793 0012 4168     		ldr	r1, [r0, #4]
 794              		.loc 1 221 0
 795 0014 1C33     		adds	r3, r3, #28
 796              		.loc 1 216 0
 797 0016 0A60     		str	r2, [r1]
 798              		.loc 1 217 0
 799 0018 0268     		ldr	r2, [r0]
 800              		.loc 1 218 0
 801 001a 0024     		movs	r4, #0
 802              		.loc 1 221 0
 803 001c 9A42     		cmp	r2, r3
 804              		.loc 1 217 0
 805 001e 5160     		str	r1, [r2, #4]
 806              		.loc 1 218 0
ARM GAS  /tmp/ccGV0H6c.s 			page 47


 807 0020 C460     		str	r4, [r0, #12]
 808              		.loc 1 221 0
 809 0022 03D0     		beq	.L18
 810              		.loc 1 222 0
 811 0024 0189     		ldrh	r1, [r0, #8]
 812 0026 1389     		ldrh	r3, [r2, #8]
 813 0028 0B44     		add	r3, r3, r1
 814 002a 1381     		strh	r3, [r2, #8]	@ movhi
 815              	.LVL24:
 816              	.L18:
 817              		.loc 1 268 0
 818 002c 70BC     		pop	{r4, r5, r6}
 819 002e 7047     		bx	lr
 820              	.LVL25:
 821              	.L19:
 822              	.LBB63:
 823              	.LBB64:
 824              		.loc 1 228 0
 825 0030 1168     		ldr	r1, [r2]
 826 0032 1846     		mov	r0, r3
 827              	.LVL26:
 828 0034 40F81C1F 		str	r1, [r0, #28]!
 829              		.loc 1 230 0
 830 0038 0024     		movs	r4, #0
 831              		.loc 1 233 0
 832 003a 8142     		cmp	r1, r0
 833              		.loc 1 229 0
 834 003c 4860     		str	r0, [r1, #4]
 835              		.loc 1 230 0
 836 003e D460     		str	r4, [r2, #12]
 837              		.loc 1 233 0
 838 0040 17D0     		beq	.L26
 839              	.LBB65:
 840              	.LBB66:
 841              	.LBB67:
 842              	.LBB68:
 843              		.loc 2 141 0
 844 0042 4FF08040 		mov	r0, #1073741824
 845 0046 466A     		ldr	r6, [r0, #36]
 846              	.LBE68:
 847              	.LBE67:
 848              	.LBE66:
 849              	.LBE65:
 850              		.loc 1 240 0
 851 0048 1589     		ldrh	r5, [r2, #8]
 852              		.loc 1 249 0
 853 004a D88C     		ldrh	r0, [r3, #38]
 854              		.loc 1 240 0
 855 004c 0C89     		ldrh	r4, [r1, #8]
 856              	.LBB72:
 857              	.LBB71:
 858              	.LBB70:
 859              	.LBB69:
 860              		.loc 2 141 0
 861 004e B2B2     		uxth	r2, r6
 862              	.LVL27:
 863              	.LBE69:
ARM GAS  /tmp/ccGV0H6c.s 			page 48


 864              	.LBE70:
 865              	.LBE71:
 866              	.LBE72:
 867              		.loc 1 240 0
 868 0050 2B19     		adds	r3, r5, r4
 869              		.loc 1 249 0
 870 0052 101A     		subs	r0, r2, r0
 871              		.loc 1 240 0
 872 0054 9BB2     		uxth	r3, r3
 873              		.loc 1 249 0
 874 0056 80B2     		uxth	r0, r0
 875              	.LVL28:
 876              		.loc 1 253 0
 877 0058 8342     		cmp	r3, r0
 878              		.loc 1 240 0
 879 005a 0B81     		strh	r3, [r1, #8]	@ movhi
 880              		.loc 1 253 0
 881 005c E6D9     		bls	.L18
 882              	.LBE64:
 883              	.LBE63:
 884              		.loc 1 268 0
 885 005e 70BC     		pop	{r4, r5, r6}
 886              	.LBB79:
 887              	.LBB77:
 888              		.loc 1 258 0
 889 0060 1B1A     		subs	r3, r3, r0
 890 0062 9BB2     		uxth	r3, r3
 891              	.LVL29:
 892              		.loc 1 263 0
 893 0064 012B     		cmp	r3, #1
 894 0066 98BF     		it	ls
 895 0068 0223     		movls	r3, #2
 896              	.LVL30:
 897              		.loc 1 266 0
 898 006a 9818     		adds	r0, r3, r2
 899              	.LVL31:
 900              	.LBB73:
 901              	.LBB74:
 902              		.loc 3 95 0
 903 006c 80B2     		uxth	r0, r0
 904 006e FFF7FEBF 		b	stSetAlarm
 905              	.LVL32:
 906              	.L26:
 907              	.LBE74:
 908              	.LBE73:
 909              	.LBE77:
 910              	.LBE79:
 911              		.loc 1 268 0
 912 0072 70BC     		pop	{r4, r5, r6}
 913              	.LBB80:
 914              	.LBB78:
 915              	.LBB75:
 916              	.LBB76:
 917              		.loc 3 83 0
 918 0074 FFF7FEBF 		b	stStopAlarm
 919              	.LVL33:
 920              	.LBE76:
ARM GAS  /tmp/ccGV0H6c.s 			page 49


 921              	.LBE75:
 922              	.LBE78:
 923              	.LBE80:
 924              		.cfi_endproc
 925              	.LFE188:
 926              		.size	chVTDoResetI, .-chVTDoResetI
 927 0078 AFF30080 		.text
 927      AFF30080 
 928              	.Letext0:
 929              		.file 4 "/home/alex/MentorGraphics/Sourcery_CodeBench_Lite_for_ARM_EABI/arm-none-eabi/include/stdi
 930              		.file 5 "../../../os/common/ports/ARMCMx/compilers/GCC/chtypes.h"
 931              		.file 6 "../../../os/rt/include/chsystypes.h"
 932              		.file 7 "../../../os/rt/include/chschd.h"
 933              		.file 8 "../../../os/common/ports/ARMCMx/chcore.h"
 934              		.file 9 "../../../os/common/ports/ARMCMx/chcore_v7m.h"
 935              		.file 10 "../../../os/hal/ports/STM32/LLD/TIMv1/stm32_tim.h"
 936              		.file 11 "../../../os/rt/include/chtm.h"
 937              		.file 12 "../../../os/rt/include/chsem.h"
 938              		.file 13 "../../../os/rt/include/chmtx.h"
 939              		.file 14 "../../../os/rt/include/chvt.h"
 940              		.file 15 "../../../os/hal/include/hal_st.h"
 941              		.file 16 "../../../os/common/ext/CMSIS/include/core_cm3.h"