ARM GAS  /tmp/ccOCr6LQ.s 			page 1


   1              		.syntax unified
   2              		.cpu cortex-m3
   3              		.fpu softvfp
   4              		.eabi_attribute 20, 1
   5              		.eabi_attribute 21, 1
   6              		.eabi_attribute 23, 3
   7              		.eabi_attribute 24, 1
   8              		.eabi_attribute 25, 1
   9              		.eabi_attribute 26, 1
  10              		.eabi_attribute 30, 2
  11              		.eabi_attribute 34, 1
  12              		.eabi_attribute 18, 4
  13              		.thumb
  14              		.file	"crt1.c"
  15              		.text
  16              	.Ltext0:
  17              		.section	.gnu.lto_.jmpfuncs.ad2a724d9189c67f,"",%progbits
  18 0000 789C6362 		.ascii	"x\234cb`b\300\006x\2404+\003\003#P\0113\003\013\003"
  18      6062C006 
  18      78A0342B 
  18      03032350 
  18      0933030B 
  19 0015 03000236 		.ascii	"\003\000\0026\000 "
  19      0020
  20              		.text
  21              		.section	.gnu.lto_.inline.ad2a724d9189c67f,"",%progbits
  22 0000 789C6362 		.ascii	"x\234cb`b\300\006\342\2414+\003\0033\023#X\021\333\002"
  22      6062C006 
  22      E2A1342B 
  22      03033313 
  22      235811DB 
  23 0015 79B05A46 		.ascii	"y\260ZF\014\021&\014\021f \017\"\302\002\261\200\205"
  23      0C11260C 
  23      1166200F 
  23      22C202B1 
  23      8085
  24 0027 41E41527 		.ascii	"A\344\025'PD\251m\321LF\2702\006\000\3774\006\240"
  24      5044A96D 
  24      D14C46B8 
  24      320600FF 
  24      3406A0
  25              		.text
  26              		.section	.gnu.lto_.pureconst.ad2a724d9189c67f,"",%progbits
  27 0000 789C6362 		.ascii	"x\234cb`b\340f\200\000V\006\011F\011&\011f\023\026)"
  27      6062E066 
  27      80005606 
  27      09460926 
  27      09661316 
  28 0015 00044D00 		.ascii	"\000\004M\000\265"
  28      B5
  29              		.text
  30              		.section	.gnu.lto___core_init.ad2a724d9189c67f,"",%progbits
  31 0000 789C6362 		.ascii	"x\234cb`b@\007\222@\034\014\304\226@\314\310\314\300"
  31      60624007 
  31      92401C0C 
  31      C49640CC 
  31      C8CCC0
ARM GAS  /tmp/ccOCr6LQ.s 			page 2


  32 0013 C834E11C 		.ascii	"\3104\341\034\003C#\007\023##\210\301\300\310P\317\304"
  32      03432307 
  32      13232388 
  32      C1C0C850 
  32      CFC4
  33 0025 581FC908 		.ascii	"X\037\311\010V\273\236\351\300\203\377\377\327m\350"
  33      56BB9EE9 
  33      C083FFFF 
  33      D76DE8
  34 0034 9AF38671 		.ascii	"\232\363\206q%\023\310,V\206\226\206\206\011\012\014"
  34      2513C82C 
  34      56869686 
  34      86090A0C 
  35 0044 0CC96015 		.ascii	"\014\311`\025!@\022\244-\224\221\011D3_d`Ld\\\310\310"
  35      214012A4 
  35      2D949109 
  35      44335F64 
  35      604C645C 
  36 005a 0AB72D84 		.ascii	"\012\267-\204\221\021$\001\322j\256\247\247\017A\371"
  36      91112401 
  36      D26AAEA7 
  36      A70F41F9 
  37 006a C5FAC9F9 		.ascii	"\305\372\311\371\271\271\371y\372\305%\211E%\245\005"
  37      B9B9F979 
  37      FAC52589 
  37      4525A505 
  38 007a FA8E41BE 		.ascii	"\372\216A\276\316\276\025 \321\202\314\234\324\242b"
  38      CEBE1520 
  38      D182CC9C 
  38      D4A262
  39 0089 7D776767 		.ascii	"}wgg\375\344\242\022C\275d\006\000\267\214)["
  39      FDE4A212 
  39      43BD6406 
  39      00B78C29 
  39      5B
  40              		.text
  41              		.section	.gnu.lto___early_init.ad2a724d9189c67f,"",%progbits
  42 0000 789C6362 		.ascii	"x\234cb`b@\007\222@\034\000\304\226@\314\310\314\300"
  42      60624007 
  42      92401C00 
  42      C49640CC 
  42      C8CCC0
  43 0013 C834E11C 		.ascii	"\3104\341\034\003C#\007\023##\210\301\300\310P\317\304"
  43      03432307 
  43      13232388 
  43      C1C0C850 
  43      CFC4
  44 0025 581FC908 		.ascii	"X\037\311\010V\273\236\351\300\203\377\377\327};5G\002"
  44      56BB9EE9 
  44      C083FFFF 
  44      D77D3B35 
  44      4702
  45 0037 64102B43 		.ascii	"d\020+CKC\303\004\005\006\206d\260t\010\220\004\351"
  45      4B43C304 
  45      05068664 
  45      B0740890 
  45      04E9
ARM GAS  /tmp/ccOCr6LQ.s 			page 3


  46 0049 09656402 		.ascii	"\011ed\002\321\314\027\031\030\023\031\0272\262\302"
  46      D1CC1719 
  46      18131917 
  46      32B2C2
  47 0058 AD0A6164 		.ascii	"\255\012ad\004I\200\264\232\353\351\351CP~\261~r~nn"
  47      044980B4 
  47      9AEBE9E9 
  47      43507EB1 
  47      7E727E6E 
  48 006d 7E9E7E71 		.ascii	"~\236~qIbQIi\201\276c\220\257\263o\005H\264 3'\265\250"
  48      49625149 
  48      6981BE63 
  48      90AFB36F 
  48      0548B420 
  49 0085 58DFDDD9 		.ascii	"X\337\335\331Y?\271\250\304P/\231\001\000\031\306(^"
  49      593FB9A8 
  49      C4502F99 
  49      010019C6 
  49      285E
  50              		.text
  51              		.section	.gnu.lto___late_init.ad2a724d9189c67f,"",%progbits
  52 0000 789C6362 		.ascii	"x\234cb`b@\007\222@\034\000\304\226@\314\310\314\300"
  52      60624007 
  52      92401C00 
  52      C49640CC 
  52      C8CCC0
  53 0013 C834E11C 		.ascii	"\3104\341\034\003C#\007\023##\210\301\300\310P\317\304"
  53      03432307 
  53      13232388 
  53      C1C0C850 
  53      CFC4
  54 0025 581FC908 		.ascii	"X\037\311\010V\273\236\351\300\203\377\377\327m\352"
  54      56BB9EE9 
  54      C083FFFF 
  54      D76DEA
  55 0034 9E230132 		.ascii	"\236#\0012\210\225\241\245\241a\202\002\003C2X:\004"
  55      8895A1A5 
  55      A1618202 
  55      03433258 
  55      3A04
  56 0046 4882F484 		.ascii	"H\202\364\20422\201h\346\213\014\214\211\214\013\031"
  56      32328168 
  56      E68B0C8C 
  56      898C0B19 
  57 0056 59E15685 		.ascii	"Y\341V\20502\202$@Z\315\365\364\364!(\277X?9?77?O\277"
  57      30328224 
  57      405ACDF5 
  57      F4F42128 
  57      BF583F39 
  58 0070 B824B1A8 		.ascii	"\270$\261\250\244\264@\3371\310\327\331\267\002$Z\220"
  58      A4B440DF 
  58      31C8D7D9 
  58      B702245A 
  58      90
  59 0081 99935A54 		.ascii	"\231\223ZT\254\357\356\354\254\237\\Tb\250\227\314\000"
  59      ACEFEEEC 
  59      AC9F5C54 
ARM GAS  /tmp/ccOCr6LQ.s 			page 4


  59      62A897CC 
  59      00
  60 0092 00DB0527 		.ascii	"\000\333\005'\333"
  60      DB
  61              		.text
  62              		.section	.gnu.lto___default_exit.ad2a724d9189c67f,"",%progbits
  63 0000 789C6362 		.ascii	"x\234cb`b@\007:@\354\003\304\226@\314\310\312\300\310"
  63      60624007 
  63      3A40EC03 
  63      C49640CC 
  63      C8CAC0C8 
  64 0014 34E11C03 		.ascii	"4\341\034\003C#\007\023#3\210\301\310\314\310\002\021"
  64      43230713 
  64      233388C1 
  64      C8CCC802 
  64      11
  65 0025 60810838 		.ascii	"`\201\010822\32431\2630\326G2\202\265\257g:\360\340"
  65      3232D433 
  65      31B330D6 
  65      473282B5 
  65      AF673AF0 
  66 003a FFFF7577 		.ascii	"\377\377uwN\317\335\303\270\236\011$\306\312\320\322"
  66      4ECFDDC3 
  66      B89E0924 
  66      C6CAD0D2 
  67 004a D0304181 		.ascii	"\3200A\201\201!\031\254\"\004H2\002I&\240Y!\214\314"
  67      812119AC 
  67      22044832 
  67      024926A0 
  67      59218CCC 
  68 005e 0C404318 		.ascii	"\014@C\030C\030Y\2404\304\020\006s==}\010\312/\326O"
  68      431859A0 
  68      34C41006 
  68      733D3D7D 
  68      08CA2FD6 
  69 0073 CECFCDCD 		.ascii	"\316\317\315\315\317\323/.I,*)-\320w\014\362u\366\255"
  69      CFD32F2E 
  69      492C2A29 
  69      2DD0770C 
  69      F275F6AD 
  70 0087 00891664 		.ascii	"\000\211\026d\346\244\026\025\353\273;;\353'\027\225"
  70      E6A41615 
  70      EBBB3B3B 
  70      EB271795 
  71 0097 18EA2533 		.ascii	"\030\352%3\000\000\351N*\305"
  71      0000E94E 
  71      2AC5
  72              		.text
  73              		.section	.gnu.lto___init_ram_areas.ad2a724d9189c67f,"",%progbits
  74 0000 789C8D54 		.ascii	"x\234\215T]HTA\024>g\346\336\273w\177lW\326 \241H$\350"
  74      5D485441 
  74      143E67E6 
  74      DEBB777F 
  74      6C57D620 
  75 0018 2172E949 		.ascii	"!r\351I\350!0\037z\362\241P\250\207\250m\213e\251\315"
  75      E821301F 
  75      7AF2A150 
ARM GAS  /tmp/ccOCr6LQ.s 			page 5


  75      A887A86D 
  75      8B65A9CD 
  76 002c 4557080A 		.ascii	"EW\010\012\234\325\015\242\244\266 \260\334@\021\351"
  76      9CD50DA2 
  76      A4B620B0 
  76      DC4011E9 
  77 003c 4F88E865 		.ascii	"O\210\350e\211\036V(T0\311G\243\300\222|\260 \304z("
  77      891E5628 
  77      5430C947 
  77      A3C0927C 
  77      B020C47A 
  78 0051 A2EDCC9D 		.ascii	"\242\355\314\235\271W\224\265\032\356\275g\346\3149"
  78      B95794B5 
  78      1AEEBD67 
  78      E6CC39
  79 0060 DF39E79B 		.ascii	"\3379\347\2339\227\001\203\215\243\237\336\263&\300"
  79      39970183 
  79      8DA39FDE 
  79      B326C0
  80 006f 41921802 		.ascii	"A\222\030\002d\205Y\200\234\315\220\253\011GSM\0145"
  80      64855980 
  80      9CCD90AB 
  80      0947534D 
  80      0C35
  81 0081 99B04D66 		.ascii	"\231\260Mf\014L\002\210\200\225\367\201\010YhK=\372"
  81      0C4C0288 
  81      8095F781 
  81      0859684B 
  81      3DFA
  82 0093 949CB06D 		.ascii	"\224\234\260m\346S\373~g\337\317\202j\031p\226A\005"
  82      E653FB7E 
  82      67DFCF82 
  82      6A197096 
  82      4105
  83 00a5 DC124094 		.ascii	"\334\022@\224\022\020z\0317L\313g\373\203\001\354=\206"
  83      12107A19 
  83      374CCB67 
  83      FB8301EC 
  83      3D86
  84 00b7 3229DE08 		.ascii	"2)\336\010#B\334Zx\365q\216\337\021\345\374\260\370"
  84      2342DC5A 
  84      78F5718E 
  84      DF11E5FC 
  84      B0F8
  85 00c9 55A920A6 		.ascii	"U\251 \246\220\012\330\217\220@8J\013lp\0043\326W\244"
  85      900AD88F 
  85      9040384A 
  85      0B6C7004 
  85      33D657A4 
  86 00dd 7CCB43B3 		.ascii	"|\313C\2637\352\305p_A\374&\327\024r\006\007\376\323"
  86      37EAC570 
  86      5F41FC26 
  86      D7147206 
  86      07FED3
  87 00f0 B3381B2A 		.ascii	"\2638\033*\344\256\210J\245\327qk\371\227\333\023V^"
  87      E4AE884A 
  87      A5D7716B 
ARM GAS  /tmp/ccOCr6LQ.s 			page 6


  87      F997DB13 
  87      565E
  88 0102 A8540656 		.ascii	"\250T\006V\276}(at+B\034G\260\2212\215\343(INr\214\244"
  88      BE7D2861 
  88      742B421C 
  88      47B09132 
  88      8DE32849 
  89 011a A1A5AD65 		.ascii	"\241\245\255e@\357\007\365:\004\024\255\206>FXk\"\332"
  89      40EF07F5 
  89      3A0414AD 
  89      863E4658 
  89      6B22DA
  90 012d A256EE44 		.ascii	"\242V\356D\265\262N\303\3230!/D\241\301]'\034\352\332"
  90      B5B24EC3 
  90      D330212F 
  90      44A1C15D 
  90      271CEADA 
  91 0141 E93B07D0 		.ascii	"\351;\007\320\201\214\004\237\206\276\205\253\223[\342"
  91      818C049F 
  91      86BE85AB 
  91      935BE2
  92 0150 781F4DED 		.ascii	"x\037M\355x\021~\212A!nR!f\032\327\252\350@\016y\237"
  92      78117E8A 
  92      41216E52 
  92      21661AD7 
  92      AAE8400E 
  93 0166 F4B0419B 		.ascii	"\364\260A\233&\221\366_C\337\333\322\342\017\364\242"
  93      2691F65F 
  93      43DFDBD2 
  93      E20FF4A2 
  94 0176 C994542E 		.ascii	"\311\224T.\322N\002\323Hb`\017<\022\005!N\244\320\032"
  94      D24E02D3 
  94      4862600F 
  94      3C120521 
  94      4EA4D01A 
  95 018a 82BB04EF 		.ascii	"\202\273\004\357#\177\311\227\302?\345\305\242\020\345"
  95      237FC997 
  95      C23FE5C5 
  95      A210E5
  96 0199 9D717CE8 		.ascii	"\235q|\350\2444\352\304\011\2508S\213\250\364I\014j"
  96      A434EAC4 
  96      09A83853 
  96      8BA8F449 
  96      0C6A
  97 01ab B8E39BC2 		.ascii	"\270\343\233\302a5\2701\007.(\365\363\200\252\326\362"
  97      6135B831 
  97      072E28F5 
  97      F380AAD6 
  97      F2
  98 01bc EDEBBBBC 		.ascii	"\355\353\273\274b\331\003\302\251\013\316|?)K6\200\356"
  98      62D903C2 
  98      A90BCE7C 
  98      3F294B36 
  98      80EE
  99 01ce 26A7D0CF 		.ascii	"&\247\320\317/\177.nwc\327\250\200v\022\231\014\310"
  99      2F7F2E6E 
  99      7763D7A8 
ARM GAS  /tmp/ccOCr6LQ.s 			page 7


  99      80761299 
  99      0CC8
 100 01e0 7520329B 		.ascii	"u 2\233~c)#\262\310\011!\302\216\025_\263\"gi\330\177"
 100      7E632923 
 100      B2C80921 
 100      C28E155F 
 100      B3226769 
 101 01f6 ADFF6B71 		.ascii	"\255\377kq\233\213\027\326&\316\305\231\006\266>\331"
 101      9B8B17D6 
 101      26CEC599 
 101      06B63ED9 
 102 0206 B076582D 		.ascii	"\260vX-\326\273\016\021\035y\243\203\"+\342\036\230"
 102      D6BB0E11 
 102      1D79A383 
 102      222BE21E 
 102      98
 103 0217 09D442DE 		.ascii	"\011\324B\336\211)4\356\020\342(\2245\323G\2704\317"
 103      892934EE 
 103      10E22894 
 103      35D347B8 
 103      34CF
 104 0229 5CF890E4 		.ascii	"\\\370\220\3446\262)\261\356Ob\012^.\345\232=\247\244"
 104      36B229B1 
 104      EE4F620A 
 104      5E2EE59A 
 104      3DA7A4
 105 023c 470451CB 		.ascii	"G\004Q\313\350\314\370\273\225K\224\2151\263zz\0368"
 105      E8CCF8BB 
 105      954B948D 
 105      31B37A7A 
 105      1E38
 106 024e B1CEBF48 		.ascii	"\261\316\277HE\330x\261\352\220k\311\373$\215%E&J\225"
 106      45D878B1 
 106      EA906BC9 
 106      FB248D25 
 106      45264A95 
 107 0262 CFE5BB54 		.ascii	"\317\345\273TZ\236\303*T\032kT\312\231\255x'v\036\337"
 107      5A9EC32A 
 107      541A6B54 
 107      CA99AD78 
 107      27761EDF 
 108 0276 F3E88C6A 		.ascii	"\363\350\214j\263\352tF]vl\311\016\256g\307Pd\014.\257"
 108      B3EA7446 
 108      5D766CC9 
 108      0EAE67C7 
 108      50640C2E 
 109 028b 9151FB77 		.ascii	"\221Q\373w2xU2j\035(\227\014#\211\266\205\024\3327\256"
 109      32785532 
 109      6A1D2897 
 109      0C2389B6 
 109      8514DA37 
 110 02a0 AE955F56 		.ascii	"\256\225_V\356\244\375t\207\353R\247\201Yd}\326\252"
 110      EEA4FD74 
 110      87EB52A7 
 110      8159647D 
 110      D6AA
 111 02b2 D1EA9C08 		.ascii	"\321\352\234\010\237&\336\317\242\352)R\351N=L\311\354"
ARM GAS  /tmp/ccOCr6LQ.s 			page 8


 111      9F26DECF 
 111      A2EA2952 
 111      E94E3D4C 
 111      C9EC
 112 02c4 8571D90C 		.ascii	"\205q\331\014=\224_Z\375\213\3746T\033\355t\367\237"
 112      3D945F5A 
 112      FD8BFC36 
 112      541BED74 
 112      F79F
 113 02d6 59D8411D 		.ascii	"Y\330A\035E\355?\007\271\205\322n\257I\265\005\322\226"
 113      45ED3F07 
 113      B985D26E 
 113      AF49B505 
 113      D296
 114 02e8 3CE3E6A6 		.ascii	"<\343\346\246\246\230z:\273c\211\316t\272\363|\254;"
 114      A6987A3A 
 114      BB6389CE 
 114      74BAF37C 
 114      AC3B
 115 02fa 1BEFCAF6 		.ascii	"\033\357\312\366db-G\332Z\333.Hm&u\356LWw\354Pkk,\321"
 115      64622D47 
 115      DA5ADB2E 
 115      486D2675 
 115      EE4C5777 
 116 0314 95DDD794 		.ascii	"\225\335\327\224\000\336\025\317\260l\0063\177\000T"
 116      00DE15CF 
 116      B06C0633 
 116      7F0054
 117 0323 E65540   		.ascii	"\346U@"
 118              		.text
 119              		.section	.gnu.lto_.symbol_nodes.ad2a724d9189c67f,"",%progbits
 120 0000 789C4DD0 		.ascii	"x\234M\320YN\002Q\020\205\341\277o\367\005\001Ap`\036"
 120      594E0251 
 120      1085E1BF 
 120      6FF70501 
 120      4170601E 
 121 0014 5C831BF0 		.ascii	"\\\203\033\360\325]\335W\036]\201kQqB\260\031\025d\022"
 121      D55DDD57 
 121      1E5D816B 
 121      517142B0 
 121      19156412 
 122 0028 8585D827 		.ascii	"\205\205\330'\306@\275|99IUR\006\303\205\307\337\230"
 122      C640BD7C 
 122      39394955 
 122      5206C385 
 122      C7DF98
 123 003b 5B1C5C87 		.ascii	"[\034\\\207\340\334M\3233w8o/\336\343\314^l\341\374"
 123      E0DC4DD3 
 123      3377386F 
 123      2FDEE3CC 
 123      5E6CE1FC 
 124 004f FF78651E 		.ascii	"\377xe\036p\301\256\264\227\004\316\267\217x\321F\373"
 124      70C1AEB4 
 124      9704CEB7 
 124      8F78D146 
 124      FB
 125 0060 141D8978 		.ascii	"\024\035\211x\306\027/\004\242\215\025\257\304D\207"
ARM GAS  /tmp/ccOCr6LQ.s 			page 9


 125      C6172F04 
 125      A28D15AF 
 125      C44487
 126 006f B8E87220 		.ascii	"\270\350r \336H\210\220\244\350\221\022}\016\305\200"
 126      DE488890 
 126      A4E89112 
 126      7D0EC580 
 127 007f B4189211 		.ascii	"\264\030\222\021#\216\304\230\254x''>8\026\023N\304"
 127      238EC498 
 127      AC782727 
 127      3E381613 
 127      4EC4
 128 0091 9453F1C9 		.ascii	"\224S\361\311\231\230\221\027s\012bAQ,)\211\025e\361"
 128      99989117 
 128      730A6241 
 128      512C2989 
 128      1565F1
 129 00a4 4545ACA9 		.ascii	"EE\254\251\212oj\342\207\272\330\320\020[\316\365\252"
 129      8A6F6AE2 
 129      87BAD8D0 
 129      105BCEF5 
 129      AA
 130 00b5 5F3DDA45 		.ascii	"_=\332E\311"
 130      C9
 131              		.text
 132              		.section	.gnu.lto_.refs.ad2a724d9189c67f,"",%progbits
 133 0000 789C25C1 		.ascii	"x\234%\301[\026BP\000\000\300{\346\270Ry\246\007J\221"
 133      5B164250 
 133      0000C07B 
 133      E6B85279 
 133      A6074A91 
 134 0014 2CA6FD6F 		.ascii	",\246\375o\310\207\031A\370\207\235D\024\247(u\2209"
 134      C8871941 
 134      F8879D44 
 134      14A72875 
 134      9039
 135 0026 3A39CB15 		.ascii	":9\313\025J\225Z\343\242uus\367\320\351\015\236^Fo\037"
 135      4A955AE3 
 135      A2757573 
 135      F7D0E90D 
 135      9E5E466F 
 136 003b 93D9D7E2 		.ascii	"\223\331\327\342g\015\033s\304\003w"
 136      670D1B73 
 136      C40377
 137              		.text
 138              		.section	.gnu.lto_.decls.ad2a724d9189c67f,"",%progbits
 139 0000 789C9558 		.ascii	"x\234\225Xml\024E\030\236\331+m\217\036\005\011b0\030"
 139      6D6C1445 
 139      189ED92B 
 139      6D8F1E05 
 139      09623018 
 140 0014 AE0A9A10 		.ascii	"\256\012\232\020\351\321\357\250\001\205F\221\304\372"
 140      E9D1EFA8 
 140      01854691 
 140      C4FA
 141 0022 0343E22F 		.ascii	"\003C\342/7\353uI/\\\357\310v\033\213\376Y\020K\003"
 141      37EB7549 
ARM GAS  /tmp/ccOCr6LQ.s 			page 10


 141      2F5CEFC8 
 141      761B8BFE 
 141      59104B03 
 142 0036 8929C44B 		.ascii	"\211)\304K\325\006l\021\310\021Klil=\260v\333\304r\326"
 142      D5066C11 
 142      C8114B6C 
 142      696C3DB0 
 142      76DBC472 
 143 004b 8824A51A 		.ascii	"\210$\245\032(\2323\032\025\023\015\004\003\021\220"
 143      289A331A 
 143      15130D04 
 143      031190
 144 005a F3DD8FFB 		.ascii	"\363\335\217\373\330\331\231\033\230\364\271\233\331"
 144      D8D9991B 
 144      98F4B99B 
 144      D9
 145 0067 7D9FF799 		.ascii	"}\237\367\231\231g\336Iz\002\022\320\000F(\015m\345"
 145      9967DE49 
 145      7A0212D0 
 145      0046280D 
 145      6DE5
 146 0079 12845EF0 		.ascii	"\022\204^\360 T\214\020Z\217rm\036\240\037\020\007\014"
 146      20548C10 
 146      5A8F726D 
 146      1EA01F10 
 146      070C
 147 008b 00060123 		.ascii	"\000\006\001#\200\012@\0020\003\370\036p\021p\031\220"
 147      800A4002 
 147      3003F81E 
 147      70117019 
 147      90
 148 009c 02FC02F8 		.ascii	"\002\374\002\370\015p\005\360\027\340*\340:\340\006"
 148      0D7005F0 
 148      17E02AE0 
 148      3AE006
 149 00ab E016E03F 		.ascii	"\340\026\340?#1\350z\000%\200\371\200\005\200E\200%"
 149      2331E87A 
 149      002580F9 
 149      80058045 
 149      8025
 150 00bd 8087000F 		.ascii	"\200\207\000\017\003\036\001T\000V\002\236\000\254\006"
 150      031E0154 
 150      0056029E 
 150      00AC06
 151 00cc 5402AA00 		.ascii	"T\002\252\000\265\200\006\214\034\255?\257\217\211q"
 151      B580068C 
 151      1CAD3FAF 
 151      8F8971
 152 00db A6C58998 		.ascii	"\246\305\211\2308%f\200\210\031\240\304\014\0221\203"
 152      38256680 
 152      8819A0C4 
 152      0C123183 
 153 00eb 9418639F 		.ascii	"\224\030c\237\346\003\236\202\200r\370\366\001&\000"
 153      E6039E82 
 153      8072F8F6 
 153      012600
 154 00fa 2580A7E1 		.ascii	"%\200\247\341\3313\2003\320\237\004\024\331\320\001"
ARM GAS  /tmp/ccOCr6LQ.s 			page 11


 154      D9338033 
 154      D09F0414 
 154      D9D001
 155 0109 53802460 		.ascii	"S\200$`\332\316=b\177'\210\374+\320a\255OO\275s|h\231"
 155      DACE3D62 
 155      7F2788FC 
 155      2BD061AD 
 155      4F4FBD73 
 156 0120 D6B77B22 		.ascii	"\326\267{\"\235~\026-E1\015Z_\247\246aU\302\353\037"
 156      9D7E162D 
 156      45310D5A 
 156      5FA7A661 
 156      55C2EB1F 
 157 0134 44AF6209 		.ascii	"D\257b\011\227{\221\337\354\370\274\246\010B\022>\202"
 157      977B91DF 
 157      ECF8BCA6 
 157      0842123E 
 157      82
 158 0145 97DABDAD 		.ascii	"\227\332\275\255\036+\235`Lj5:\001\374nM\233|\214\330"
 158      1E2B9D60 
 158      4C6A353A 
 158      01FC6E4D 
 158      9B7C8CD8 
 159 0159 5D681E88 		.ascii	"]h\036\210\201\277\246\354\233\307\3211CN\213k\036S"
 159      81BFA6EC 
 159      9BC7D131 
 159      434E8B6B 
 159      1E53
 160 016b CC48D78F 		.ascii	"\314H\327\217W\344s$\3741\026\334\263\326oL\373\272"
 160      57E47324 
 160      FC3116DC 
 160      B3D66F4C 
 160      FBBA
 161 017d 2752E9F4 		.ascii	"'R\351\364\012k*\002\332\202!\366(^\235S\222\360\361"
 161      0A6B2A02 
 161      DA8221F6 
 161      285E9D53 
 161      92F0F1
 162 0190 1C952615 		.ascii	"\034\225&\025'\245NP\245N}CH\211\367/5@J\235\244HM\350"
 162      27A54E50 
 162      A54E7D43 
 162      4889F72F 
 162      35404A9D 
 163 01a8 9749A9ED 		.ascii	"\227I\251\355L){3\337\314\337f\232\362 \251<DQN\351"
 163      4C297B33 
 163      DFCCDF66 
 163      9AF220A9 
 163      3C44514E 
 164 01bd DDE77CDD 		.ascii	"\335\347|\335\273\362\225\337\306\371\322\254\354#d"
 164      BBF295DF 
 164      C6F9D2AC 
 164      EC2364
 165 01cc F65167F6 		.ascii	"\366Qg\366GQ\277v\376\274\376o\347G\030\316\230\246"
 165      4751BF76 
 165      FEBCFE6F 
 165      E74718CE 
 165      98A6
ARM GAS  /tmp/ccOCr6LQ.s 			page 12


 166 01de DD4DA7F1 		.ascii	"\335M\247\361\003\250\333H\343O\226/F\007\314\343\006"
 166      03A8DB48 
 166      E34F962F 
 166      4607CCE3 
 166      06
 167 01ef A72D0927 		.ascii	"\247-\011'\334>k\032\316\034\266E\220a\025:\012\007"
 167      DC3E6B1A 
 167      CE1CB645 
 167      9061153A 
 167      0A07
 168 0201 4ABFBE40 		.ascii	"J\277\276@\260\243\375\314P\011\177\201W!n\230\021\370"
 168      B0A3FDCC 
 168      50097F81 
 168      57216E98 
 168      11F8
 169 0213 255E6CAF 		.ascii	"%^l\257\316\314\257\351\027e\277\365\024\021\253\316"
 169      CECCAFE9 
 169      1765BFF5 
 169      1411ABCE 
 170 0223 6B150866 		.ascii	"k\025\010f\272[\237\273\3625\326\016\372\312\320>\030"
 170      BA5B9FBB 
 170      F235D60E 
 170      FACAD03E 
 170      18
 171 0234 19B5F262 		.ascii	"\031\265\362b\0224\272r\003D\255\032k!\251\213\373."
 171      1234BA72 
 171      0344AD1A 
 171      6B21A98B 
 171      FB2E
 172 0246 5CC3B013 		.ascii	"\\\303\260\023\360b\022{a\243\257\023\033-\341\022\257"
 172      F062127B 
 172      61A3AF13 
 172      1B2DE112 
 172      AF
 173 0257 734F619C 		.ascii	"sOa\234\0110\362\231\257\355\216q\367.\244\353\031\314"
 173      0930F299 
 173      AFED8E71 
 173      F72EA4EB 
 173      19CC
 174 0269 095C9649 		.ascii	"\011\\\226I#\240;\246\220\261FZ\270\335\265\232\035"
 174      23A03BA6 
 174      90B1465A 
 174      B8DDB59A 
 174      1D
 175 027a E05877EA 		.ascii	"\340Xw\352\253\336CpQLb+\255\200\366\013\367\233\317"
 175      ABDE4370 
 175      514C622B 
 175      AD80F60B 
 175      F79BCF
 176 028d EFD8C79F 		.ascii	"\357\330\307\237\344\344\332L\256\330\275\344*e\316"
 176      E4E4DA4C 
 176      AED8BDE4 
 176      2A65CE
 177 029c 4DBF9A97 		.ascii	"M\277\232\227\253\357\276s\371\011\243\255\335\226\360"
 177      ABEFBE73 
 177      F909A3AD 
 177      DD96F0
ARM GAS  /tmp/ccOCr6LQ.s 			page 13


 178 02ab 381C2709 		.ascii	"8\034'\011\353\270\002>\247\314\317\244\3719\215+r\301"
 178      EBB8023E 
 178      A7CCCFA4 
 178      F9398D2B 
 178      72C1
 179 02bd 023A2990 		.ascii	"\002:)\220\016Z\007)/_\356\274!~\306\314\251-\315LV"
 179      0E5A0729 
 179      2F5FEEBC 
 179      217EC6CC 
 179      A92DCD4C 
 180 02d2 B38A3C57 		.ascii	"\263\212<W8\022\036\313-\317\025'\341o\241\310\214f"
 180      38121ECB 
 180      2DCF1527 
 180      E16FA1C8 
 180      8C66
 181 02e4 1E4BCD3E 		.ascii	"\036K\315>\226f\010\353\244\234\303\336\254\266\317"
 181      966608EB 
 181      A49CC3DE 
 181      ACB6CF
 182 02f3 9BEB9438 		.ascii	"\233\353\2248\226\221\211\202E\217e\027\315\236\306"
 182      96918982 
 182      458F6517 
 182      CD9EC6
 183 0302 77F66550 		.ascii	"w\366eP\213\206\265.\335\2706N\303\304\262\006Z\217"
 183      8B86B52E 
 183      DDB8364E 
 183      C3C4B206 
 183      5A8F
 184 0314 9F93F019 		.ascii	"\237\223\360\031sw\214]y\013\335\322\2724\375v\247`"
 184      73778C5D 
 184      790BDDD2 
 184      BA34FD76 
 184      A760
 185 0326 B969DC1F 		.ascii	"\271i\334\037\251\203\372\201\251\367\226i\375\366\375"
 185      A983FA81 
 185      A9F79669 
 185      FDF6FD
 186 0335 91299CB3 		.ascii	"\221)\234\263\344\014\\\213\272\340\270\214\254\035"
 186      E40C5C8B 
 186      BAE0B88C 
 186      AC1D
 187 0343 CF284C2D 		.ascii	"\317(L-'\024\216\273\025.q\025~ \024\222\371\012O:\025"
 187      27148EBB 
 187      152E7115 
 187      7E201492 
 187      F90A4F3A 
 188 0358 3A47DC0A 		.ascii	":G\334\012\177p\025.\021\012\323\371\273\264\216P\230"
 188      7F70152E 
 188      110AD3F9 
 188      BBB48E50 
 188      98
 189 0369 C21F6893 		.ascii	"\302\037h\223{4\355\016Hd5nr5~t^\332v\030.`P\2320\250"
 189      7B34ED0E 
 189      4864356E 
 189      72357E74 
 189      5EDA7618 
 190 0383 8766D05E 		.ascii	"\207f\320^\017O\370g\266Ai\302\240\036\232A\037r\025"
ARM GAS  /tmp/ccOCr6LQ.s 			page 14


 190      0F4FF867 
 190      B64169C2 
 190      A01E9A41 
 190      1F7215
 191 0396 7E651B94 		.ascii	"~e\033\224&\014\352\241\031\024\347*\374\3166(M\030"
 191      260CEAA1 
 191      1914E72A 
 191      FCCE3628 
 191      4D18
 192 03a8 D4433768 		.ascii	"\324C7h\224\253\361'\325 \241\200A\261\275N\203\016"
 192      94ABF127 
 192      D520A180 
 192      41B1BD4E 
 192      830E
 193 03ba 512B882B 		.ascii	"Q+\210+\3747\333\240\330\331\345\204\002\255\202\270"
 193      FC37DBA0 
 193      D8D9E584 
 193      02AD82B8 
 194 03ca 0AD7D806 		.ascii	"\012\327\330\006\305\316:\015:D\255 \256\302?l\203b"
 194      C5CE3A0D 
 194      3A44AD20 
 194      AEC23F6C 
 194      8362
 195 03dc 7BD7110A 		.ascii	"{\327\021\012\364\012\342j\334\244\032\344)`P/a\320"
 195      F40AE26A 
 195      DCA41AE4 
 195      2960502F 
 195      61D0
 196 03ee 30B5828A 		.ascii	"0\265\202\212x\302\267\331\006\365\022\006\015S+\210"
 196      78C2B7D9 
 196      06F51206 
 196      0D532B88 
 197 03fe AB70976D 		.ascii	"\253p\227mP/a\3200\265\202\270\012\273\004\246A\275"
 197      502F61D0 
 197      30B582B8 
 197      0ABB04A6 
 197      41BD
 198 0410 8441C38C 		.ascii	"\204A\303\214\012\342j\354\021h\006\025\0250h\2100("
 198      0AE26AEC 
 198      11680615 
 198      15306888 
 198      3028
 199 0422 41AD20AE 		.ascii	"A\255 \256p\227\3004h\2100(A\255 \256\302~\201i\320"
 199      7097C034 
 199      68883028 
 199      41AD20AE 
 199      C27E8169 
 200 0437 10615082 		.ascii	"\020aP\202ZA\\\205w\331\006\015\021\006%\030\025\304"
 200      5A415C85 
 200      77D9060D 
 200      11062518 
 200      15C4
 201 0449 D5384035 		.ascii	"\3258@5h^\001\203F\011\203\306\251\0254\217'\034c\033"
 201      685E0183 
 201      460983C6 
 201      A915348F 
 201      271C631B 
ARM GAS  /tmp/ccOCr6LQ.s 			page 15


 202 045d 344A1834 		.ascii	"4J\0304N\255 \256\302\373l\203F\011\203\306\251\025"
 202      4EAD20AE 
 202      C2FB6C83 
 202      460983C6 
 202      A915
 203 046f C455E865 		.ascii	"\304U\350e\0334J\0304\316\250 \256\306a\252A\305\005"
 203      1B344A18 
 203      34CEA820 
 203      AEC661AA 
 203      41C505
 204 0482 0C1A230C 		.ascii	"\014\032#\014\232\245V\020W\370\010\333\2401\302\240"
 204      9AA55610 
 204      57F808DB 
 204      A031C2A0 
 205 0492 596A0571 		.ascii	"Yj\005q\025\216\261\015\032#\014\232\245V\020W!\316"
 205      158EB10D 
 205      1A230C9A 
 205      A5561057 
 205      21CE
 206 04a4 36688C30 		.ascii	"6h\2140h\226QA\\\215O\250\006\225\0240h\2060h\216ZA"
 206      68965141 
 206      5C8D4FA8 
 206      06951430 
 206      68863068 
 207 04bb C53CE14F 		.ascii	"\305<\341O\331\006\315\020\006\315Q+\210\253p\212m\320"
 207      D906CD10 
 207      06CD512B 
 207      88AB708A 
 207      6DD0
 208 04cd 0C61D01C 		.ascii	"\014a\320\034\265\202\270\012\237\261\015\232!\014\232"
 208      B582B80A 
 208      9FB10D9A 
 208      210C9A
 209 04dc 63541057 		.ascii	"cT\020W\343s\247A\0109~B\260\374aq\023B\031\203\225"
 209      E373A741 
 209      08397E42 
 209      B0FC6171 
 209      13421983 
 210 04f1 F72F958B 		.ascii	"\367/\225\213u\232\302\322M\2261\347{\370\325\0005T"
 210      759AC2D2 
 210      4D9631E7 
 210      7BF8D500 
 210      3554
 211 0503 5606ACBF 		.ascii	"V\006\254\277h[ \030mm\215F\002m\252\244\250\355;\002"
 211      685B2018 
 211      6D6D8D46 
 211      026DAAA4 
 211      A8ED3B02 
 212 0517 1BB63435 		.ascii	"\033\266456u\030Ow\204\302\262\322\026\330\324\330\030"
 212      3675184F 
 212      7784C2B2 
 212      D216D8D4 
 212      D818
 213 0529 082A6A55 		.ascii	"\010*jUe\020\225\211b0\252\310b(\022R\2137\275\274\325"
 213      65109589 
 213      6230AAC8 
 213      62281252 
ARM GAS  /tmp/ccOCr6LQ.s 			page 16


 213      8B37BDBC 
 214 053e DF888ADE 		.ascii	"\337\210\212\336\220\245\355>Q\224%%\274\323|\001Aa"
 214      90A5ED3E 
 214      51942525 
 214      BCD37C01 
 214      4161
 215 0550 49B582CA 		.ascii	"I\265\202\312E\261Y\336&\265\207UQ\356\010\251\245\021"
 215      45B159DE 
 215      26B58755 
 215      51EE08A9 
 215      A511
 216 0562 60ABED4A 		.ascii	"`\253\355Jd\221h\276\026\025\251U\224\024Yj{-\320\022"
 216      649168BE 
 216      1615A955 
 216      9414596A 
 216      7B2DD012 
 217 0576 6D950352 		.ascii	"m\225\003RX\356\0104\311\0215\252lR\244\035-\241`[\340"
 217      58EE0834 
 217      C91135AA 
 217      6C52A41D 
 217      2DA1605B 
 218 058b 9568BB12 		.ascii	"\225h\273\022\224\225\235bc\264Y\336(G\202-\342K!\310"
 218      94959D62 
 218      63B459DE 
 218      2847822D 
 218      E24B21C8 
 219 059f BF2DAA88 		.ascii	"\277-\252\2100Y\361\371\015\0337\007$\245uM$\032\221"
 219      3059F1F9 
 219      0D1B3707 
 219      24A5754D 
 219      241A91
 220 05b2 D7C8D2EB 		.ascii	"\327\310\322\353\241@(\022\014\2677\313\260\246\346"
 220      A1402812 
 220      0CB737CB 
 220      B0A6E6
 221 05c1 5044AD6C 		.ascii	"PD\255lA\245\355\360]S-\252\345\246\254*w\250\246\256"
 221      41A5EDF0 
 221      5D532DAA 
 221      E5A6AC2A 
 221      77A8A6AE 
 222 05d5 D71C1ABD 		.ascii	"\327\034\032\275\371\3010,\301\354\372\"Q1\373|\241"
 222      F9C1302C 
 222      C1ECFA22 
 222      5131FB7C 
 222      A1
 223 05e6 31C5EC48 		.ascii	"1\305\354HT\275\331)/\026\215\351\257\025s\031\305\005"
 223      54BDD929 
 223      2F168DE9 
 223      AF157319 
 223      C505
 224 05f8 F98FC472 		.ascii	"\371\217\304r{de\026\027\332\303H\324zm\361\253\334"
 224      7B646516 
 224      17DAC348 
 224      D47A6DF1 
 224      ABDC
 225 060a FC2A07BF 		.ascii	"\374*\007\277\312\311\257\"\370\325n~\265\203_\355\344"
 225      CAC9AF22 
ARM GAS  /tmp/ccOCr6LQ.s 			page 17


 225      F8D56E7E 
 225      B5835FED 
 225      E4
 226 061b 5713FC1A 		.ascii	"W\023\374\0327\277\306\301\257q\362k\010~\255\233_\353"
 226      37BFC6C1 
 226      AF71F26B 
 226      087EAD9B 
 226      5FEB
 227 062d E0D73AF9 		.ascii	"\340\327:\371\265\004\277\316\315\257s\360\353\234\374"
 227      B504BFCE 
 227      CDAF73F0 
 227      EB9CFC
 228 063c 3A825FEF 		.ascii	":\202_\357\346\327;\370\365N~=\301op\363\033\034\374"
 228      E6D73BF8 
 228      F54E7E3D 
 228      C16F70F3 
 228      1B1CFC
 229 064f 0627BF21 		.ascii	"\006'\277!\313\377\037`\267\354\034"
 229      CBFF1F60 
 229      B7EC1C
 230              		.text
 231              		.section	.gnu.lto_.symtab.ad2a724d9189c67f,"",%progbits
 232 0000 5F5F636F 		.ascii	"__core_init\000\000\001\000\000\000\000\000\000\000"
 232      72655F69 
 232      6E697400 
 232      00010000 
 232      00000000 
 233 0015 0000A100 		.ascii	"\000\000\241\000\000\000__early_init\000\000\001\000"
 233      00005F5F 
 233      6561726C 
 233      795F696E 
 233      69740000 
 234 002b 00000000 		.ascii	"\000\000\000\000\000\000\000\000\250\000\000\000__l"
 234      00000000 
 234      A8000000 
 234      5F5F6C
 235 003a 6174655F 		.ascii	"ate_init\000\000\001\000\000\000\000\000\000\000\000"
 235      696E6974 
 235      00000100 
 235      00000000 
 235      000000
 236 004d 00AC0000 		.ascii	"\000\254\000\000\000__default_exit\000\000\001\000\000"
 236      005F5F64 
 236      65666175 
 236      6C745F65 
 236      78697400 
 237 0065 00000000 		.ascii	"\000\000\000\000\000\000\000\260\000\000\000__init_"
 237      000000B0 
 237      0000005F 
 237      5F696E69 
 237      745F
 238 0077 72616D5F 		.ascii	"ram_areas\000\000\000\000\000\000\000\000\000\000\000"
 238      61726561 
 238      73000000 
 238      00000000 
 238      00000000 
 239 008b 00B60000 		.ascii	"\000\266\000\000\000__ram0_init_text__\000\000\002\000"
ARM GAS  /tmp/ccOCr6LQ.s 			page 18


 239      005F5F72 
 239      616D305F 
 239      696E6974 
 239      5F746578 
 240 00a6 00000000 		.ascii	"\000\000\000\000\000\000\000\000\323\000\000\000__r"
 240      00000000 
 240      D3000000 
 240      5F5F72
 241 00b5 616D305F 		.ascii	"am0_init__\000\000\002\000\000\000\000\000\000\000\000"
 241      696E6974 
 241      5F5F0000 
 241      02000000 
 241      00000000 
 242 00ca 00D60000 		.ascii	"\000\326\000\000\000__ram0_clear__\000\000\002\000\000"
 242      005F5F72 
 242      616D305F 
 242      636C6561 
 242      725F5F00 
 243 00e2 00000000 		.ascii	"\000\000\000\000\000\000\000\331\000\000\000__ram0_"
 243      000000D9 
 243      0000005F 
 243      5F72616D 
 243      305F
 244 00f4 6E6F696E 		.ascii	"noinit__\000\000\002\000\000\000\000\000\000\000\000"
 244      69745F5F 
 244      00000200 
 244      00000000 
 244      000000
 245 0107 00DC0000 		.ascii	"\000\334\000\000\000__ram1_init_text__\000\000\002\000"
 245      005F5F72 
 245      616D315F 
 245      696E6974 
 245      5F746578 
 246 0122 00000000 		.ascii	"\000\000\000\000\000\000\000\000\340\000\000\000__r"
 246      00000000 
 246      E0000000 
 246      5F5F72
 247 0131 616D315F 		.ascii	"am1_init__\000\000\002\000\000\000\000\000\000\000\000"
 247      696E6974 
 247      5F5F0000 
 247      02000000 
 247      00000000 
 248 0146 00E30000 		.ascii	"\000\343\000\000\000__ram1_clear__\000\000\002\000\000"
 248      005F5F72 
 248      616D315F 
 248      636C6561 
 248      725F5F00 
 249 015e 00000000 		.ascii	"\000\000\000\000\000\000\000\346\000\000\000__ram1_"
 249      000000E6 
 249      0000005F 
 249      5F72616D 
 249      315F
 250 0170 6E6F696E 		.ascii	"noinit__\000\000\002\000\000\000\000\000\000\000\000"
 250      69745F5F 
 250      00000200 
 250      00000000 
 250      000000
ARM GAS  /tmp/ccOCr6LQ.s 			page 19


 251 0183 00E90000 		.ascii	"\000\351\000\000\000__ram2_init_text__\000\000\002\000"
 251      005F5F72 
 251      616D325F 
 251      696E6974 
 251      5F746578 
 252 019e 00000000 		.ascii	"\000\000\000\000\000\000\000\000\355\000\000\000__r"
 252      00000000 
 252      ED000000 
 252      5F5F72
 253 01ad 616D325F 		.ascii	"am2_init__\000\000\002\000\000\000\000\000\000\000\000"
 253      696E6974 
 253      5F5F0000 
 253      02000000 
 253      00000000 
 254 01c2 00F00000 		.ascii	"\000\360\000\000\000__ram2_clear__\000\000\002\000\000"
 254      005F5F72 
 254      616D325F 
 254      636C6561 
 254      725F5F00 
 255 01da 00000000 		.ascii	"\000\000\000\000\000\000\000\363\000\000\000__ram2_"
 255      000000F3 
 255      0000005F 
 255      5F72616D 
 255      325F
 256 01ec 6E6F696E 		.ascii	"noinit__\000\000\002\000\000\000\000\000\000\000\000"
 256      69745F5F 
 256      00000200 
 256      00000000 
 256      000000
 257 01ff 00F60000 		.ascii	"\000\366\000\000\000__ram3_init_text__\000\000\002\000"
 257      005F5F72 
 257      616D335F 
 257      696E6974 
 257      5F746578 
 258 021a 00000000 		.ascii	"\000\000\000\000\000\000\000\000\372\000\000\000__r"
 258      00000000 
 258      FA000000 
 258      5F5F72
 259 0229 616D335F 		.ascii	"am3_init__\000\000\002\000\000\000\000\000\000\000\000"
 259      696E6974 
 259      5F5F0000 
 259      02000000 
 259      00000000 
 260 023e 00FD0000 		.ascii	"\000\375\000\000\000__ram3_clear__\000\000\002\000\000"
 260      005F5F72 
 260      616D335F 
 260      636C6561 
 260      725F5F00 
 261 0256 00000000 		.ascii	"\000\000\000\000\000\000\000\000\001\000\000__ram3_"
 261      00000000 
 261      0100005F 
 261      5F72616D 
 261      335F
 262 0268 6E6F696E 		.ascii	"noinit__\000\000\002\000\000\000\000\000\000\000\000"
 262      69745F5F 
 262      00000200 
 262      00000000 
ARM GAS  /tmp/ccOCr6LQ.s 			page 20


 262      000000
 263 027b 00030100 		.ascii	"\000\003\001\000\000__ram4_init_text__\000\000\002\000"
 263      005F5F72 
 263      616D345F 
 263      696E6974 
 263      5F746578 
 264 0296 00000000 		.ascii	"\000\000\000\000\000\000\000\000\007\001\000\000__r"
 264      00000000 
 264      07010000 
 264      5F5F72
 265 02a5 616D345F 		.ascii	"am4_init__\000\000\002\000\000\000\000\000\000\000\000"
 265      696E6974 
 265      5F5F0000 
 265      02000000 
 265      00000000 
 266 02ba 000A0100 		.ascii	"\000\012\001\000\000__ram4_clear__\000\000\002\000\000"
 266      005F5F72 
 266      616D345F 
 266      636C6561 
 266      725F5F00 
 267 02d2 00000000 		.ascii	"\000\000\000\000\000\000\000\015\001\000\000__ram4_"
 267      0000000D 
 267      0100005F 
 267      5F72616D 
 267      345F
 268 02e4 6E6F696E 		.ascii	"noinit__\000\000\002\000\000\000\000\000\000\000\000"
 268      69745F5F 
 268      00000200 
 268      00000000 
 268      000000
 269 02f7 00100100 		.ascii	"\000\020\001\000\000__ram5_init_text__\000\000\002\000"
 269      005F5F72 
 269      616D355F 
 269      696E6974 
 269      5F746578 
 270 0312 00000000 		.ascii	"\000\000\000\000\000\000\000\000\024\001\000\000__r"
 270      00000000 
 270      14010000 
 270      5F5F72
 271 0321 616D355F 		.ascii	"am5_init__\000\000\002\000\000\000\000\000\000\000\000"
 271      696E6974 
 271      5F5F0000 
 271      02000000 
 271      00000000 
 272 0336 00170100 		.ascii	"\000\027\001\000\000__ram5_clear__\000\000\002\000\000"
 272      005F5F72 
 272      616D355F 
 272      636C6561 
 272      725F5F00 
 273 034e 00000000 		.ascii	"\000\000\000\000\000\000\000\032\001\000\000__ram5_"
 273      0000001A 
 273      0100005F 
 273      5F72616D 
 273      355F
 274 0360 6E6F696E 		.ascii	"noinit__\000\000\002\000\000\000\000\000\000\000\000"
 274      69745F5F 
 274      00000200 
ARM GAS  /tmp/ccOCr6LQ.s 			page 21


 274      00000000 
 274      000000
 275 0373 001D0100 		.ascii	"\000\035\001\000\000__ram6_init_text__\000\000\002\000"
 275      005F5F72 
 275      616D365F 
 275      696E6974 
 275      5F746578 
 276 038e 00000000 		.ascii	"\000\000\000\000\000\000\000\000!\001\000\000__ram6"
 276      00000000 
 276      21010000 
 276      5F5F7261 
 276      6D36
 277 03a0 5F696E69 		.ascii	"_init__\000\000\002\000\000\000\000\000\000\000\000"
 277      745F5F00 
 277      00020000 
 277      00000000 
 277      0000
 278 03b2 00240100 		.ascii	"\000$\001\000\000__ram6_clear__\000\000\002\000\000"
 278      005F5F72 
 278      616D365F 
 278      636C6561 
 278      725F5F00 
 279 03ca 00000000 		.ascii	"\000\000\000\000\000\000\000'\001\000\000__ram6_noi"
 279      00000027 
 279      0100005F 
 279      5F72616D 
 279      365F6E6F 
 280 03df 6E69745F 		.ascii	"nit__\000\000\002\000\000\000\000\000\000\000\000\000"
 280      5F000002 
 280      00000000 
 280      00000000 
 280      00
 281 03f0 2A010000 		.ascii	"*\001\000\000__ram7_i"
 281      5F5F7261 
 281      6D375F69 
 282 03fc 6E69745F 		.ascii	"nit_text__\000\000\002\000\000\000\000\000\000\000\000"
 282      74657874 
 282      5F5F0000 
 282      02000000 
 282      00000000 
 283 0411 002E0100 		.ascii	"\000.\001\000\000__ram7_init__\000\000\002\000\000\000"
 283      005F5F72 
 283      616D375F 
 283      696E6974 
 283      5F5F0000 
 284 0429 00000000 		.ascii	"\000\000\000\000\000\0001\001\000\000__ram7_clear__"
 284      00003101 
 284      00005F5F 
 284      72616D37 
 284      5F636C65 
 285 0441 00000200 		.ascii	"\000\000\002\000\000\000\000\000\000\000\000\0004\001"
 285      00000000 
 285      00000000 
 285      3401
 286 044f 00005F5F 		.ascii	"\000\000__ram7_noinit__\000\000\002\000\000\000\000"
 286      72616D37 
 286      5F6E6F69 
ARM GAS  /tmp/ccOCr6LQ.s 			page 22


 286      6E69745F 
 286      5F000002 
 287 0467 00000000 		.ascii	"\000\000\000\000\0007\001\000\000"
 287      00370100 
 287      00
 288              		.text
 289              		.section	.gnu.lto_.opts,"",%progbits
 290 0000 272D6D63 		.ascii	"'-mcpu=cortex-m3' '-mno-thumb-interwork' '-mthumb' "
 290      70753D63 
 290      6F727465 
 290      782D6D33 
 290      2720272D 
 291 0033 272D6767 		.ascii	"'-ggdb' '-O2' '-fomit-frame-pointer' '-falign-funct"
 291      64622720 
 291      272D4F32 
 291      2720272D 
 291      666F6D69 
 292 0066 696F6E73 		.ascii	"ions=16' '-ffunction-sections' '-fdata-sections' '-"
 292      3D313627 
 292      20272D66 
 292      66756E63 
 292      74696F6E 
 293 0099 666E6F2D 		.ascii	"fno-common' '-flto'\000"
 293      636F6D6D 
 293      6F6E2720 
 293      272D666C 
 293      746F2700 
 294              		.text
 295              		.cfi_sections	.debug_frame
 296              		.section	.text.__core_init,"ax",%progbits
 297              		.align	2
 298              		.p2align 4,,15
 299              		.weak	__core_init
 300              		.thumb
 301              		.thumb_func
 302              		.type	__core_init, %function
 303              	__core_init:
 304              	.LFB63:
 305              		.file 1 "../../../os/common/startup/ARMCMx/compilers/GCC/crt1.c"
 306              		.loc 1 136 0
 307              		.cfi_startproc
 308              		@ args = 0, pretend = 0, frame = 0
 309              		@ frame_needed = 0, uses_anonymous_args = 0
 310              		@ link register save eliminated.
 311 0000 7047     		bx	lr
 312              		.cfi_endproc
 313              	.LFE63:
 314              		.size	__core_init, .-__core_init
 315 0002 00BFAFF3 		.section	.text.__early_init,"ax",%progbits
 315      0080AFF3 
 315      0080AFF3 
 315      0080
 316              		.align	2
 317              		.p2align 4,,15
 318              		.weak	__early_init
 319              		.thumb
 320              		.thumb_func
ARM GAS  /tmp/ccOCr6LQ.s 			page 23


 321              		.type	__early_init, %function
 322              	__early_init:
 323              	.LFB64:
 324              		.loc 1 155 0
 325              		.cfi_startproc
 326              		@ args = 0, pretend = 0, frame = 0
 327              		@ frame_needed = 0, uses_anonymous_args = 0
 328              		@ link register save eliminated.
 329 0000 7047     		bx	lr
 330              		.cfi_endproc
 331              	.LFE64:
 332              		.size	__early_init, .-__early_init
 333 0002 00BFAFF3 		.section	.text.__late_init,"ax",%progbits
 333      0080AFF3 
 333      0080AFF3 
 333      0080
 334              		.align	2
 335              		.p2align 4,,15
 336              		.weak	__late_init
 337              		.thumb
 338              		.thumb_func
 339              		.type	__late_init, %function
 340              	__late_init:
 341              	.LFB65:
 342              		.loc 1 169 0
 343              		.cfi_startproc
 344              		@ args = 0, pretend = 0, frame = 0
 345              		@ frame_needed = 0, uses_anonymous_args = 0
 346              		@ link register save eliminated.
 347 0000 7047     		bx	lr
 348              		.cfi_endproc
 349              	.LFE65:
 350              		.size	__late_init, .-__late_init
 351 0002 00BFAFF3 		.section	.text.__default_exit,"ax",%progbits
 351      0080AFF3 
 351      0080AFF3 
 351      0080
 352              		.align	2
 353              		.p2align 4,,15
 354              		.weak	__default_exit
 355              		.thumb
 356              		.thumb_func
 357              		.type	__default_exit, %function
 358              	__default_exit:
 359              	.LFB66:
 360              		.loc 1 182 0
 361              		.cfi_startproc
 362              		@ Volatile: function does not return.
 363              		@ args = 0, pretend = 0, frame = 0
 364              		@ frame_needed = 0, uses_anonymous_args = 0
 365              		@ link register save eliminated.
 366              	.L5:
 367 0000 FEE7     		b	.L5
 368              		.cfi_endproc
 369              	.LFE66:
 370              		.size	__default_exit, .-__default_exit
 371 0002 00BFAFF3 		.section	.text.__init_ram_areas,"ax",%progbits
ARM GAS  /tmp/ccOCr6LQ.s 			page 24


 371      0080AFF3 
 371      0080AFF3 
 371      0080
 372              		.align	2
 373              		.p2align 4,,15
 374              		.global	__init_ram_areas
 375              		.thumb
 376              		.thumb_func
 377              		.type	__init_ram_areas, %function
 378              	__init_ram_areas:
 379              	.LFB67:
 380              		.loc 1 192 0
 381              		.cfi_startproc
 382              		@ args = 0, pretend = 0, frame = 0
 383              		@ frame_needed = 0, uses_anonymous_args = 0
 384              		@ link register save eliminated.
 385              	.LVL0:
 386              		.loc 1 192 0
 387 0000 F0B4     		push	{r4, r5, r6, r7}
 388              		.cfi_def_cfa_offset 16
 389              		.cfi_offset 4, -16
 390              		.cfi_offset 5, -12
 391              		.cfi_offset 6, -8
 392              		.cfi_offset 7, -4
 393 0002 134E     		ldr	r6, .L19
 394              	.LBB2:
 395              		.loc 1 209 0
 396 0004 0025     		movs	r5, #0
 397 0006 06F17007 		add	r7, r6, #112
 398              	.LVL1:
 399              	.L15:
 400              		.loc 1 197 0
 401 000a A6F11001 		sub	r1, r6, #16
 402              	.LVL2:
 403 000e 1AC9     		ldmia	r1, {r1, r3, r4}
 404              	.LVL3:
 405              		.loc 1 201 0
 406 0010 A342     		cmp	r3, r4
 407 0012 0DD2     		bcs	.L7
 408 0014 0439     		subs	r1, r1, #4
 409              	.LVL4:
 410 0016 1A46     		mov	r2, r3
 411              	.LVL5:
 412              	.L9:
 413              		.loc 1 202 0
 414 0018 51F8040F 		ldr	r0, [r1, #4]!
 415              	.LVL6:
 416 001c 42F8040B 		str	r0, [r2], #4
 417              	.LVL7:
 418              		.loc 1 201 0
 419 0020 A242     		cmp	r2, r4
 420 0022 F9D3     		bcc	.L9
 421 0024 DA43     		mvns	r2, r3
 422              	.LVL8:
 423 0026 1444     		add	r4, r4, r2
 424 0028 24F00304 		bic	r4, r4, #3
 425 002c 0434     		adds	r4, r4, #4
ARM GAS  /tmp/ccOCr6LQ.s 			page 25


 426 002e 2344     		add	r3, r3, r4
 427              	.LVL9:
 428              	.L7:
 429              		.loc 1 208 0 discriminator 1
 430 0030 56F8042C 		ldr	r2, [r6, #-4]
 431 0034 9342     		cmp	r3, r2
 432 0036 03D2     		bcs	.L13
 433              	.L14:
 434              		.loc 1 209 0
 435 0038 43F8045B 		str	r5, [r3], #4
 436              	.LVL10:
 437              		.loc 1 208 0
 438 003c 9342     		cmp	r3, r2
 439 003e FBD3     		bcc	.L14
 440              	.L13:
 441              	.LVL11:
 442              	.LBE2:
 443              		.loc 1 214 0
 444 0040 BE42     		cmp	r6, r7
 445 0042 06F11003 		add	r3, r6, #16
 446              	.LVL12:
 447 0046 01D2     		bcs	.L18
 448 0048 1E46     		mov	r6, r3
 449              	.LVL13:
 450 004a DEE7     		b	.L15
 451              	.LVL14:
 452              	.L18:
 453              		.loc 1 216 0
 454 004c F0BC     		pop	{r4, r5, r6, r7}
 455              	.LVL15:
 456 004e 7047     		bx	lr
 457              	.L20:
 458              		.align	2
 459              	.L19:
 460 0050 10000000 		.word	.LANCHOR0+16
 461              		.cfi_endproc
 462              	.LFE67:
 463              		.size	__init_ram_areas, .-__init_ram_areas
 464 0054 AFF30080 		.section	.rodata.ram_areas,"a",%progbits
 464      AFF30080 
 464      AFF30080 
 465              		.align	2
 466              		.set	.LANCHOR0,. + 0
 467              		.type	ram_areas, %object
 468              		.size	ram_areas, 128
 469              	ram_areas:
 470 0000 00000000 		.word	__ram0_init_text__
 471 0004 00000000 		.word	__ram0_init__
 472 0008 00000000 		.word	__ram0_clear__
 473 000c 00000000 		.word	__ram0_noinit__
 474 0010 00000000 		.word	__ram1_init_text__
 475 0014 00000000 		.word	__ram1_init__
 476 0018 00000000 		.word	__ram1_clear__
 477 001c 00000000 		.word	__ram1_noinit__
 478 0020 00000000 		.word	__ram2_init_text__
 479 0024 00000000 		.word	__ram2_init__
 480 0028 00000000 		.word	__ram2_clear__
ARM GAS  /tmp/ccOCr6LQ.s 			page 26


 481 002c 00000000 		.word	__ram2_noinit__
 482 0030 00000000 		.word	__ram3_init_text__
 483 0034 00000000 		.word	__ram3_init__
 484 0038 00000000 		.word	__ram3_clear__
 485 003c 00000000 		.word	__ram3_noinit__
 486 0040 00000000 		.word	__ram4_init_text__
 487 0044 00000000 		.word	__ram4_init__
 488 0048 00000000 		.word	__ram4_clear__
 489 004c 00000000 		.word	__ram4_noinit__
 490 0050 00000000 		.word	__ram5_init_text__
 491 0054 00000000 		.word	__ram5_init__
 492 0058 00000000 		.word	__ram5_clear__
 493 005c 00000000 		.word	__ram5_noinit__
 494 0060 00000000 		.word	__ram6_init_text__
 495 0064 00000000 		.word	__ram6_init__
 496 0068 00000000 		.word	__ram6_clear__
 497 006c 00000000 		.word	__ram6_noinit__
 498 0070 00000000 		.word	__ram7_init_text__
 499 0074 00000000 		.word	__ram7_init__
 500 0078 00000000 		.word	__ram7_clear__
 501 007c 00000000 		.word	__ram7_noinit__
 502              		.text
 503              	.Letext0:
 504              		.file 2 "/home/alex/MentorGraphics/Sourcery_CodeBench_Lite_for_ARM_EABI/arm-none-eabi/include/stdi
 505              		.file 3 "../../../os/common/ext/CMSIS/include/core_cm3.h"
 506              		.section	.debug_info,"",%progbits
 507              	.Ldebug_info0:
 508 0000 FF020000 		.4byte	0x2ff
 509 0004 0400     		.2byte	0x4
 510 0006 00000000 		.4byte	.Ldebug_abbrev0
 511 000a 04       		.byte	0x4
 512 000b 01       		.uleb128 0x1
 513 000c DC010000 		.4byte	.LASF55
 514 0010 01       		.byte	0x1
 515 0011 E3020000 		.4byte	.LASF56
 516 0015 15040000 		.4byte	.LASF57
 517 0019 00000000 		.4byte	.Ldebug_ranges0+0
 518 001d 00000000 		.4byte	0
 519 0021 00000000 		.4byte	.Ldebug_line0
 520 0025 02       		.uleb128 0x2
 521 0026 01       		.byte	0x1
 522 0027 06       		.byte	0x6
 523 0028 FA030000 		.4byte	.LASF0
 524 002c 02       		.uleb128 0x2
 525 002d 01       		.byte	0x1
 526 002e 08       		.byte	0x8
 527 002f 7A010000 		.4byte	.LASF1
 528 0033 02       		.uleb128 0x2
 529 0034 02       		.byte	0x2
 530 0035 05       		.byte	0x5
 531 0036 B0030000 		.4byte	.LASF2
 532 003a 02       		.uleb128 0x2
 533 003b 02       		.byte	0x2
 534 003c 07       		.byte	0x7
 535 003d 80000000 		.4byte	.LASF3
 536 0041 03       		.uleb128 0x3
 537 0042 1A010000 		.4byte	.LASF5
ARM GAS  /tmp/ccOCr6LQ.s 			page 27


 538 0046 02       		.byte	0x2
 539 0047 4F       		.byte	0x4f
 540 0048 4C000000 		.4byte	0x4c
 541 004c 02       		.uleb128 0x2
 542 004d 04       		.byte	0x4
 543 004e 05       		.byte	0x5
 544 004f E1030000 		.4byte	.LASF4
 545 0053 03       		.uleb128 0x3
 546 0054 D8030000 		.4byte	.LASF6
 547 0058 02       		.byte	0x2
 548 0059 50       		.byte	0x50
 549 005a 5E000000 		.4byte	0x5e
 550 005e 02       		.uleb128 0x2
 551 005f 04       		.byte	0x4
 552 0060 07       		.byte	0x7
 553 0061 22010000 		.4byte	.LASF7
 554 0065 02       		.uleb128 0x2
 555 0066 08       		.byte	0x8
 556 0067 05       		.byte	0x5
 557 0068 5D030000 		.4byte	.LASF8
 558 006c 02       		.uleb128 0x2
 559 006d 08       		.byte	0x8
 560 006e 07       		.byte	0x7
 561 006f B9020000 		.4byte	.LASF9
 562 0073 04       		.uleb128 0x4
 563 0074 04       		.byte	0x4
 564 0075 05       		.byte	0x5
 565 0076 696E7400 		.ascii	"int\000"
 566 007a 02       		.uleb128 0x2
 567 007b 04       		.byte	0x4
 568 007c 07       		.byte	0x7
 569 007d AC020000 		.4byte	.LASF10
 570 0081 02       		.uleb128 0x2
 571 0082 04       		.byte	0x4
 572 0083 07       		.byte	0x7
 573 0084 44030000 		.4byte	.LASF11
 574 0088 05       		.uleb128 0x5
 575 0089 10       		.byte	0x10
 576 008a 01       		.byte	0x1
 577 008b 34       		.byte	0x34
 578 008c C1000000 		.4byte	0xc1
 579 0090 06       		.uleb128 0x6
 580 0091 BA030000 		.4byte	.LASF12
 581 0095 01       		.byte	0x1
 582 0096 35       		.byte	0x35
 583 0097 C1000000 		.4byte	0xc1
 584 009b 00       		.byte	0
 585 009c 06       		.uleb128 0x6
 586 009d 59000000 		.4byte	.LASF13
 587 00a1 01       		.byte	0x1
 588 00a2 36       		.byte	0x36
 589 00a3 C1000000 		.4byte	0xc1
 590 00a7 04       		.byte	0x4
 591 00a8 06       		.uleb128 0x6
 592 00a9 F4000000 		.4byte	.LASF14
 593 00ad 01       		.byte	0x1
 594 00ae 37       		.byte	0x37
ARM GAS  /tmp/ccOCr6LQ.s 			page 28


 595 00af C1000000 		.4byte	0xc1
 596 00b3 08       		.byte	0x8
 597 00b4 06       		.uleb128 0x6
 598 00b5 37030000 		.4byte	.LASF15
 599 00b9 01       		.byte	0x1
 600 00ba 38       		.byte	0x38
 601 00bb C1000000 		.4byte	0xc1
 602 00bf 0C       		.byte	0xc
 603 00c0 00       		.byte	0
 604 00c1 07       		.uleb128 0x7
 605 00c2 04       		.byte	0x4
 606 00c3 53000000 		.4byte	0x53
 607 00c7 03       		.uleb128 0x3
 608 00c8 AA010000 		.4byte	.LASF16
 609 00cc 01       		.byte	0x1
 610 00cd 39       		.byte	0x39
 611 00ce 88000000 		.4byte	0x88
 612 00d2 08       		.uleb128 0x8
 613 00d3 3D000000 		.4byte	.LASF17
 614 00d7 01       		.byte	0x1
 615 00d8 88       		.byte	0x88
 616 00d9 00000000 		.4byte	.LFB63
 617 00dd 02000000 		.4byte	.LFE63-.LFB63
 618 00e1 01       		.uleb128 0x1
 619 00e2 9C       		.byte	0x9c
 620 00e3 08       		.uleb128 0x8
 621 00e4 1A030000 		.4byte	.LASF18
 622 00e8 01       		.byte	0x1
 623 00e9 9B       		.byte	0x9b
 624 00ea 00000000 		.4byte	.LFB64
 625 00ee 02000000 		.4byte	.LFE64-.LFB64
 626 00f2 01       		.uleb128 0x1
 627 00f3 9C       		.byte	0x9c
 628 00f4 08       		.uleb128 0x8
 629 00f5 FF000000 		.4byte	.LASF19
 630 00f9 01       		.byte	0x1
 631 00fa A9       		.byte	0xa9
 632 00fb 00000000 		.4byte	.LFB65
 633 00ff 02000000 		.4byte	.LFE65-.LFB65
 634 0103 01       		.uleb128 0x1
 635 0104 9C       		.byte	0x9c
 636 0105 08       		.uleb128 0x8
 637 0106 88010000 		.4byte	.LASF20
 638 010a 01       		.byte	0x1
 639 010b B6       		.byte	0xb6
 640 010c 00000000 		.4byte	.LFB66
 641 0110 02000000 		.4byte	.LFE66-.LFB66
 642 0114 01       		.uleb128 0x1
 643 0115 9C       		.byte	0x9c
 644 0116 09       		.uleb128 0x9
 645 0117 00000000 		.4byte	.LASF58
 646 011b 01       		.byte	0x1
 647 011c C0       		.byte	0xc0
 648 011d 00000000 		.4byte	.LFB67
 649 0121 54000000 		.4byte	.LFE67-.LFB67
 650 0125 01       		.uleb128 0x1
 651 0126 9C       		.byte	0x9c
ARM GAS  /tmp/ccOCr6LQ.s 			page 29


 652 0127 60010000 		.4byte	0x160
 653 012b 0A       		.uleb128 0xa
 654 012c 72617000 		.ascii	"rap\000"
 655 0130 01       		.byte	0x1
 656 0131 C2       		.byte	0xc2
 657 0132 60010000 		.4byte	0x160
 658 0136 00000000 		.4byte	.LLST0
 659 013a 0B       		.uleb128 0xb
 660 013b 04000000 		.4byte	.LBB2
 661 013f 3C000000 		.4byte	.LBE2-.LBB2
 662 0143 0A       		.uleb128 0xa
 663 0144 747000   		.ascii	"tp\000"
 664 0147 01       		.byte	0x1
 665 0148 C5       		.byte	0xc5
 666 0149 C1000000 		.4byte	0xc1
 667 014d 6D000000 		.4byte	.LLST1
 668 0151 0A       		.uleb128 0xa
 669 0152 7000     		.ascii	"p\000"
 670 0154 01       		.byte	0x1
 671 0155 C6       		.byte	0xc6
 672 0156 C1000000 		.4byte	0xc1
 673 015a B1000000 		.4byte	.LLST2
 674 015e 00       		.byte	0
 675 015f 00       		.byte	0
 676 0160 07       		.uleb128 0x7
 677 0161 04       		.byte	0x4
 678 0162 66010000 		.4byte	0x166
 679 0166 0C       		.uleb128 0xc
 680 0167 C7000000 		.4byte	0xc7
 681 016b 0D       		.uleb128 0xd
 682 016c C7000000 		.4byte	0xc7
 683 0170 7B010000 		.4byte	0x17b
 684 0174 0E       		.uleb128 0xe
 685 0175 81000000 		.4byte	0x81
 686 0179 07       		.byte	0x7
 687 017a 00       		.byte	0
 688 017b 0F       		.uleb128 0xf
 689 017c 63000000 		.4byte	.LASF21
 690 0180 01       		.byte	0x1
 691 0181 5C       		.byte	0x5c
 692 0182 8C010000 		.4byte	0x18c
 693 0186 05       		.uleb128 0x5
 694 0187 03       		.byte	0x3
 695 0188 00000000 		.4byte	ram_areas
 696 018c 0C       		.uleb128 0xc
 697 018d 6B010000 		.4byte	0x16b
 698 0191 10       		.uleb128 0x10
 699 0192 5F010000 		.4byte	.LASF22
 700 0196 03       		.byte	0x3
 701 0197 9606     		.2byte	0x696
 702 0199 9D010000 		.4byte	0x19d
 703 019d 11       		.uleb128 0x11
 704 019e 41000000 		.4byte	0x41
 705 01a2 12       		.uleb128 0x12
 706 01a3 6D000000 		.4byte	.LASF23
 707 01a7 01       		.byte	0x1
 708 01a8 40       		.byte	0x40
ARM GAS  /tmp/ccOCr6LQ.s 			page 30


 709 01a9 53000000 		.4byte	0x53
 710 01ad 12       		.uleb128 0x12
 711 01ae 34010000 		.4byte	.LASF24
 712 01b2 01       		.byte	0x1
 713 01b3 40       		.byte	0x40
 714 01b4 53000000 		.4byte	0x53
 715 01b8 12       		.uleb128 0x12
 716 01b9 C9030000 		.4byte	.LASF25
 717 01bd 01       		.byte	0x1
 718 01be 40       		.byte	0x40
 719 01bf 53000000 		.4byte	0x53
 720 01c3 12       		.uleb128 0x12
 721 01c4 2D000000 		.4byte	.LASF26
 722 01c8 01       		.byte	0x1
 723 01c9 40       		.byte	0x40
 724 01ca 53000000 		.4byte	0x53
 725 01ce 12       		.uleb128 0x12
 726 01cf 7B030000 		.4byte	.LASF27
 727 01d3 01       		.byte	0x1
 728 01d4 43       		.byte	0x43
 729 01d5 53000000 		.4byte	0x53
 730 01d9 12       		.uleb128 0x12
 731 01da A2000000 		.4byte	.LASF28
 732 01de 01       		.byte	0x1
 733 01df 43       		.byte	0x43
 734 01e0 53000000 		.4byte	0x53
 735 01e4 12       		.uleb128 0x12
 736 01e5 50010000 		.4byte	.LASF29
 737 01e9 01       		.byte	0x1
 738 01ea 43       		.byte	0x43
 739 01eb 53000000 		.4byte	0x53
 740 01ef 12       		.uleb128 0x12
 741 01f0 EA030000 		.4byte	.LASF30
 742 01f4 01       		.byte	0x1
 743 01f5 43       		.byte	0x43
 744 01f6 53000000 		.4byte	0x53
 745 01fa 12       		.uleb128 0x12
 746 01fb 97010000 		.4byte	.LASF31
 747 01ff 01       		.byte	0x1
 748 0200 46       		.byte	0x46
 749 0201 53000000 		.4byte	0x53
 750 0205 12       		.uleb128 0x12
 751 0206 11000000 		.4byte	.LASF32
 752 020a 01       		.byte	0x1
 753 020b 46       		.byte	0x46
 754 020c 53000000 		.4byte	0x53
 755 0210 12       		.uleb128 0x12
 756 0211 8E030000 		.4byte	.LASF33
 757 0215 01       		.byte	0x1
 758 0216 46       		.byte	0x46
 759 0217 53000000 		.4byte	0x53
 760 021b 12       		.uleb128 0x12
 761 021c 6B030000 		.4byte	.LASF34
 762 0220 01       		.byte	0x1
 763 0221 46       		.byte	0x46
 764 0222 53000000 		.4byte	0x53
 765 0226 12       		.uleb128 0x12
ARM GAS  /tmp/ccOCr6LQ.s 			page 31


 766 0227 E1000000 		.4byte	.LASF35
 767 022b 01       		.byte	0x1
 768 022c 49       		.byte	0x49
 769 022d 53000000 		.4byte	0x53
 770 0231 12       		.uleb128 0x12
 771 0232 6C010000 		.4byte	.LASF36
 772 0236 01       		.byte	0x1
 773 0237 49       		.byte	0x49
 774 0238 53000000 		.4byte	0x53
 775 023c 12       		.uleb128 0x12
 776 023d 93000000 		.4byte	.LASF37
 777 0241 01       		.byte	0x1
 778 0242 49       		.byte	0x49
 779 0243 53000000 		.4byte	0x53
 780 0247 12       		.uleb128 0x12
 781 0248 4D030000 		.4byte	.LASF38
 782 024c 01       		.byte	0x1
 783 024d 49       		.byte	0x49
 784 024e 53000000 		.4byte	0x53
 785 0252 12       		.uleb128 0x12
 786 0253 9D030000 		.4byte	.LASF39
 787 0257 01       		.byte	0x1
 788 0258 4C       		.byte	0x4c
 789 0259 53000000 		.4byte	0x53
 790 025d 12       		.uleb128 0x12
 791 025e 7F020000 		.4byte	.LASF40
 792 0262 01       		.byte	0x1
 793 0263 4C       		.byte	0x4c
 794 0264 53000000 		.4byte	0x53
 795 0268 12       		.uleb128 0x12
 796 0269 8D020000 		.4byte	.LASF41
 797 026d 01       		.byte	0x1
 798 026e 4C       		.byte	0x4c
 799 026f 53000000 		.4byte	0x53
 800 0273 12       		.uleb128 0x12
 801 0274 9C020000 		.4byte	.LASF42
 802 0278 01       		.byte	0x1
 803 0279 4C       		.byte	0x4c
 804 027a 53000000 		.4byte	0x53
 805 027e 12       		.uleb128 0x12
 806 027f BA010000 		.4byte	.LASF43
 807 0283 01       		.byte	0x1
 808 0284 4F       		.byte	0x4f
 809 0285 53000000 		.4byte	0x53
 810 0289 12       		.uleb128 0x12
 811 028a 42010000 		.4byte	.LASF44
 812 028e 01       		.byte	0x1
 813 028f 4F       		.byte	0x4f
 814 0290 53000000 		.4byte	0x53
 815 0294 12       		.uleb128 0x12
 816 0295 06040000 		.4byte	.LASF45
 817 0299 01       		.byte	0x1
 818 029a 4F       		.byte	0x4f
 819 029b 53000000 		.4byte	0x53
 820 029f 12       		.uleb128 0x12
 821 02a0 27030000 		.4byte	.LASF46
 822 02a4 01       		.byte	0x1
ARM GAS  /tmp/ccOCr6LQ.s 			page 32


 823 02a5 4F       		.byte	0x4f
 824 02a6 53000000 		.4byte	0x53
 825 02aa 12       		.uleb128 0x12
 826 02ab BE000000 		.4byte	.LASF47
 827 02af 01       		.byte	0x1
 828 02b0 52       		.byte	0x52
 829 02b1 53000000 		.4byte	0x53
 830 02b5 12       		.uleb128 0x12
 831 02b6 B0000000 		.4byte	.LASF48
 832 02ba 01       		.byte	0x1
 833 02bb 52       		.byte	0x52
 834 02bc 53000000 		.4byte	0x53
 835 02c0 12       		.uleb128 0x12
 836 02c1 0B010000 		.4byte	.LASF49
 837 02c5 01       		.byte	0x1
 838 02c6 52       		.byte	0x52
 839 02c7 53000000 		.4byte	0x53
 840 02cb 12       		.uleb128 0x12
 841 02cc D1000000 		.4byte	.LASF50
 842 02d0 01       		.byte	0x1
 843 02d1 52       		.byte	0x52
 844 02d2 53000000 		.4byte	0x53
 845 02d6 12       		.uleb128 0x12
 846 02d7 D0020000 		.4byte	.LASF51
 847 02db 01       		.byte	0x1
 848 02dc 55       		.byte	0x55
 849 02dd 53000000 		.4byte	0x53
 850 02e1 12       		.uleb128 0x12
 851 02e2 1F000000 		.4byte	.LASF52
 852 02e6 01       		.byte	0x1
 853 02e7 55       		.byte	0x55
 854 02e8 53000000 		.4byte	0x53
 855 02ec 12       		.uleb128 0x12
 856 02ed CD010000 		.4byte	.LASF53
 857 02f1 01       		.byte	0x1
 858 02f2 55       		.byte	0x55
 859 02f3 53000000 		.4byte	0x53
 860 02f7 12       		.uleb128 0x12
 861 02f8 49000000 		.4byte	.LASF54
 862 02fc 01       		.byte	0x1
 863 02fd 55       		.byte	0x55
 864 02fe 53000000 		.4byte	0x53
 865 0302 00       		.byte	0
 866              		.section	.debug_abbrev,"",%progbits
 867              	.Ldebug_abbrev0:
 868 0000 01       		.uleb128 0x1
 869 0001 11       		.uleb128 0x11
 870 0002 01       		.byte	0x1
 871 0003 25       		.uleb128 0x25
 872 0004 0E       		.uleb128 0xe
 873 0005 13       		.uleb128 0x13
 874 0006 0B       		.uleb128 0xb
 875 0007 03       		.uleb128 0x3
 876 0008 0E       		.uleb128 0xe
 877 0009 1B       		.uleb128 0x1b
 878 000a 0E       		.uleb128 0xe
 879 000b 55       		.uleb128 0x55
ARM GAS  /tmp/ccOCr6LQ.s 			page 33


 880 000c 17       		.uleb128 0x17
 881 000d 11       		.uleb128 0x11
 882 000e 01       		.uleb128 0x1
 883 000f 10       		.uleb128 0x10
 884 0010 17       		.uleb128 0x17
 885 0011 00       		.byte	0
 886 0012 00       		.byte	0
 887 0013 02       		.uleb128 0x2
 888 0014 24       		.uleb128 0x24
 889 0015 00       		.byte	0
 890 0016 0B       		.uleb128 0xb
 891 0017 0B       		.uleb128 0xb
 892 0018 3E       		.uleb128 0x3e
 893 0019 0B       		.uleb128 0xb
 894 001a 03       		.uleb128 0x3
 895 001b 0E       		.uleb128 0xe
 896 001c 00       		.byte	0
 897 001d 00       		.byte	0
 898 001e 03       		.uleb128 0x3
 899 001f 16       		.uleb128 0x16
 900 0020 00       		.byte	0
 901 0021 03       		.uleb128 0x3
 902 0022 0E       		.uleb128 0xe
 903 0023 3A       		.uleb128 0x3a
 904 0024 0B       		.uleb128 0xb
 905 0025 3B       		.uleb128 0x3b
 906 0026 0B       		.uleb128 0xb
 907 0027 49       		.uleb128 0x49
 908 0028 13       		.uleb128 0x13
 909 0029 00       		.byte	0
 910 002a 00       		.byte	0
 911 002b 04       		.uleb128 0x4
 912 002c 24       		.uleb128 0x24
 913 002d 00       		.byte	0
 914 002e 0B       		.uleb128 0xb
 915 002f 0B       		.uleb128 0xb
 916 0030 3E       		.uleb128 0x3e
 917 0031 0B       		.uleb128 0xb
 918 0032 03       		.uleb128 0x3
 919 0033 08       		.uleb128 0x8
 920 0034 00       		.byte	0
 921 0035 00       		.byte	0
 922 0036 05       		.uleb128 0x5
 923 0037 13       		.uleb128 0x13
 924 0038 01       		.byte	0x1
 925 0039 0B       		.uleb128 0xb
 926 003a 0B       		.uleb128 0xb
 927 003b 3A       		.uleb128 0x3a
 928 003c 0B       		.uleb128 0xb
 929 003d 3B       		.uleb128 0x3b
 930 003e 0B       		.uleb128 0xb
 931 003f 01       		.uleb128 0x1
 932 0040 13       		.uleb128 0x13
 933 0041 00       		.byte	0
 934 0042 00       		.byte	0
 935 0043 06       		.uleb128 0x6
 936 0044 0D       		.uleb128 0xd
ARM GAS  /tmp/ccOCr6LQ.s 			page 34


 937 0045 00       		.byte	0
 938 0046 03       		.uleb128 0x3
 939 0047 0E       		.uleb128 0xe
 940 0048 3A       		.uleb128 0x3a
 941 0049 0B       		.uleb128 0xb
 942 004a 3B       		.uleb128 0x3b
 943 004b 0B       		.uleb128 0xb
 944 004c 49       		.uleb128 0x49
 945 004d 13       		.uleb128 0x13
 946 004e 38       		.uleb128 0x38
 947 004f 0B       		.uleb128 0xb
 948 0050 00       		.byte	0
 949 0051 00       		.byte	0
 950 0052 07       		.uleb128 0x7
 951 0053 0F       		.uleb128 0xf
 952 0054 00       		.byte	0
 953 0055 0B       		.uleb128 0xb
 954 0056 0B       		.uleb128 0xb
 955 0057 49       		.uleb128 0x49
 956 0058 13       		.uleb128 0x13
 957 0059 00       		.byte	0
 958 005a 00       		.byte	0
 959 005b 08       		.uleb128 0x8
 960 005c 2E       		.uleb128 0x2e
 961 005d 00       		.byte	0
 962 005e 3F       		.uleb128 0x3f
 963 005f 19       		.uleb128 0x19
 964 0060 03       		.uleb128 0x3
 965 0061 0E       		.uleb128 0xe
 966 0062 3A       		.uleb128 0x3a
 967 0063 0B       		.uleb128 0xb
 968 0064 3B       		.uleb128 0x3b
 969 0065 0B       		.uleb128 0xb
 970 0066 27       		.uleb128 0x27
 971 0067 19       		.uleb128 0x19
 972 0068 11       		.uleb128 0x11
 973 0069 01       		.uleb128 0x1
 974 006a 12       		.uleb128 0x12
 975 006b 06       		.uleb128 0x6
 976 006c 40       		.uleb128 0x40
 977 006d 18       		.uleb128 0x18
 978 006e 9742     		.uleb128 0x2117
 979 0070 19       		.uleb128 0x19
 980 0071 00       		.byte	0
 981 0072 00       		.byte	0
 982 0073 09       		.uleb128 0x9
 983 0074 2E       		.uleb128 0x2e
 984 0075 01       		.byte	0x1
 985 0076 3F       		.uleb128 0x3f
 986 0077 19       		.uleb128 0x19
 987 0078 03       		.uleb128 0x3
 988 0079 0E       		.uleb128 0xe
 989 007a 3A       		.uleb128 0x3a
 990 007b 0B       		.uleb128 0xb
 991 007c 3B       		.uleb128 0x3b
 992 007d 0B       		.uleb128 0xb
 993 007e 27       		.uleb128 0x27
ARM GAS  /tmp/ccOCr6LQ.s 			page 35


 994 007f 19       		.uleb128 0x19
 995 0080 11       		.uleb128 0x11
 996 0081 01       		.uleb128 0x1
 997 0082 12       		.uleb128 0x12
 998 0083 06       		.uleb128 0x6
 999 0084 40       		.uleb128 0x40
 1000 0085 18       		.uleb128 0x18
 1001 0086 9742     		.uleb128 0x2117
 1002 0088 19       		.uleb128 0x19
 1003 0089 01       		.uleb128 0x1
 1004 008a 13       		.uleb128 0x13
 1005 008b 00       		.byte	0
 1006 008c 00       		.byte	0
 1007 008d 0A       		.uleb128 0xa
 1008 008e 34       		.uleb128 0x34
 1009 008f 00       		.byte	0
 1010 0090 03       		.uleb128 0x3
 1011 0091 08       		.uleb128 0x8
 1012 0092 3A       		.uleb128 0x3a
 1013 0093 0B       		.uleb128 0xb
 1014 0094 3B       		.uleb128 0x3b
 1015 0095 0B       		.uleb128 0xb
 1016 0096 49       		.uleb128 0x49
 1017 0097 13       		.uleb128 0x13
 1018 0098 02       		.uleb128 0x2
 1019 0099 17       		.uleb128 0x17
 1020 009a 00       		.byte	0
 1021 009b 00       		.byte	0
 1022 009c 0B       		.uleb128 0xb
 1023 009d 0B       		.uleb128 0xb
 1024 009e 01       		.byte	0x1
 1025 009f 11       		.uleb128 0x11
 1026 00a0 01       		.uleb128 0x1
 1027 00a1 12       		.uleb128 0x12
 1028 00a2 06       		.uleb128 0x6
 1029 00a3 00       		.byte	0
 1030 00a4 00       		.byte	0
 1031 00a5 0C       		.uleb128 0xc
 1032 00a6 26       		.uleb128 0x26
 1033 00a7 00       		.byte	0
 1034 00a8 49       		.uleb128 0x49
 1035 00a9 13       		.uleb128 0x13
 1036 00aa 00       		.byte	0
 1037 00ab 00       		.byte	0
 1038 00ac 0D       		.uleb128 0xd
 1039 00ad 01       		.uleb128 0x1
 1040 00ae 01       		.byte	0x1
 1041 00af 49       		.uleb128 0x49
 1042 00b0 13       		.uleb128 0x13
 1043 00b1 01       		.uleb128 0x1
 1044 00b2 13       		.uleb128 0x13
 1045 00b3 00       		.byte	0
 1046 00b4 00       		.byte	0
 1047 00b5 0E       		.uleb128 0xe
 1048 00b6 21       		.uleb128 0x21
 1049 00b7 00       		.byte	0
 1050 00b8 49       		.uleb128 0x49
ARM GAS  /tmp/ccOCr6LQ.s 			page 36


 1051 00b9 13       		.uleb128 0x13
 1052 00ba 2F       		.uleb128 0x2f
 1053 00bb 0B       		.uleb128 0xb
 1054 00bc 00       		.byte	0
 1055 00bd 00       		.byte	0
 1056 00be 0F       		.uleb128 0xf
 1057 00bf 34       		.uleb128 0x34
 1058 00c0 00       		.byte	0
 1059 00c1 03       		.uleb128 0x3
 1060 00c2 0E       		.uleb128 0xe
 1061 00c3 3A       		.uleb128 0x3a
 1062 00c4 0B       		.uleb128 0xb
 1063 00c5 3B       		.uleb128 0x3b
 1064 00c6 0B       		.uleb128 0xb
 1065 00c7 49       		.uleb128 0x49
 1066 00c8 13       		.uleb128 0x13
 1067 00c9 02       		.uleb128 0x2
 1068 00ca 18       		.uleb128 0x18
 1069 00cb 00       		.byte	0
 1070 00cc 00       		.byte	0
 1071 00cd 10       		.uleb128 0x10
 1072 00ce 34       		.uleb128 0x34
 1073 00cf 00       		.byte	0
 1074 00d0 03       		.uleb128 0x3
 1075 00d1 0E       		.uleb128 0xe
 1076 00d2 3A       		.uleb128 0x3a
 1077 00d3 0B       		.uleb128 0xb
 1078 00d4 3B       		.uleb128 0x3b
 1079 00d5 05       		.uleb128 0x5
 1080 00d6 49       		.uleb128 0x49
 1081 00d7 13       		.uleb128 0x13
 1082 00d8 3F       		.uleb128 0x3f
 1083 00d9 19       		.uleb128 0x19
 1084 00da 3C       		.uleb128 0x3c
 1085 00db 19       		.uleb128 0x19
 1086 00dc 00       		.byte	0
 1087 00dd 00       		.byte	0
 1088 00de 11       		.uleb128 0x11
 1089 00df 35       		.uleb128 0x35
 1090 00e0 00       		.byte	0
 1091 00e1 49       		.uleb128 0x49
 1092 00e2 13       		.uleb128 0x13
 1093 00e3 00       		.byte	0
 1094 00e4 00       		.byte	0
 1095 00e5 12       		.uleb128 0x12
 1096 00e6 34       		.uleb128 0x34
 1097 00e7 00       		.byte	0
 1098 00e8 03       		.uleb128 0x3
 1099 00e9 0E       		.uleb128 0xe
 1100 00ea 3A       		.uleb128 0x3a
 1101 00eb 0B       		.uleb128 0xb
 1102 00ec 3B       		.uleb128 0x3b
 1103 00ed 0B       		.uleb128 0xb
 1104 00ee 49       		.uleb128 0x49
 1105 00ef 13       		.uleb128 0x13
 1106 00f0 3F       		.uleb128 0x3f
 1107 00f1 19       		.uleb128 0x19
ARM GAS  /tmp/ccOCr6LQ.s 			page 37


 1108 00f2 3C       		.uleb128 0x3c
 1109 00f3 19       		.uleb128 0x19
 1110 00f4 00       		.byte	0
 1111 00f5 00       		.byte	0
 1112 00f6 00       		.byte	0
 1113              		.section	.debug_loc,"",%progbits
 1114              	.Ldebug_loc0:
 1115              	.LLST0:
 1116 0000 00000000 		.4byte	.LVL0
 1117 0004 0A000000 		.4byte	.LVL1
 1118 0008 0600     		.2byte	0x6
 1119 000a 03       		.byte	0x3
 1120 000b 00000000 		.4byte	ram_areas
 1121 000f 9F       		.byte	0x9f
 1122 0010 0A000000 		.4byte	.LVL1
 1123 0014 0E000000 		.4byte	.LVL2
 1124 0018 0300     		.2byte	0x3
 1125 001a 76       		.byte	0x76
 1126 001b 70       		.sleb128 -16
 1127 001c 9F       		.byte	0x9f
 1128 001d 0E000000 		.4byte	.LVL2
 1129 0021 10000000 		.4byte	.LVL3
 1130 0025 0100     		.2byte	0x1
 1131 0027 51       		.byte	0x51
 1132 0028 10000000 		.4byte	.LVL3
 1133 002c 40000000 		.4byte	.LVL11
 1134 0030 0300     		.2byte	0x3
 1135 0032 76       		.byte	0x76
 1136 0033 70       		.sleb128 -16
 1137 0034 9F       		.byte	0x9f
 1138 0035 40000000 		.4byte	.LVL11
 1139 0039 4A000000 		.4byte	.LVL13
 1140 003d 0100     		.2byte	0x1
 1141 003f 56       		.byte	0x56
 1142 0040 4A000000 		.4byte	.LVL13
 1143 0044 4C000000 		.4byte	.LVL14
 1144 0048 0300     		.2byte	0x3
 1145 004a 73       		.byte	0x73
 1146 004b 70       		.sleb128 -16
 1147 004c 9F       		.byte	0x9f
 1148 004d 4C000000 		.4byte	.LVL14
 1149 0051 4E000000 		.4byte	.LVL15
 1150 0055 0100     		.2byte	0x1
 1151 0057 56       		.byte	0x56
 1152 0058 4E000000 		.4byte	.LVL15
 1153 005c 54000000 		.4byte	.LFE67
 1154 0060 0300     		.2byte	0x3
 1155 0062 73       		.byte	0x73
 1156 0063 70       		.sleb128 -16
 1157 0064 9F       		.byte	0x9f
 1158 0065 00000000 		.4byte	0
 1159 0069 00000000 		.4byte	0
 1160              	.LLST1:
 1161 006d 10000000 		.4byte	.LVL3
 1162 0071 16000000 		.4byte	.LVL4
 1163 0075 0100     		.2byte	0x1
 1164 0077 51       		.byte	0x51
ARM GAS  /tmp/ccOCr6LQ.s 			page 38


 1165 0078 16000000 		.4byte	.LVL4
 1166 007c 18000000 		.4byte	.LVL5
 1167 0080 0200     		.2byte	0x2
 1168 0082 76       		.byte	0x76
 1169 0083 70       		.sleb128 -16
 1170 0084 18000000 		.4byte	.LVL5
 1171 0088 1C000000 		.4byte	.LVL6
 1172 008c 0300     		.2byte	0x3
 1173 008e 71       		.byte	0x71
 1174 008f 04       		.sleb128 4
 1175 0090 9F       		.byte	0x9f
 1176 0091 1C000000 		.4byte	.LVL6
 1177 0095 20000000 		.4byte	.LVL7
 1178 0099 0100     		.2byte	0x1
 1179 009b 51       		.byte	0x51
 1180 009c 20000000 		.4byte	.LVL7
 1181 00a0 30000000 		.4byte	.LVL9
 1182 00a4 0300     		.2byte	0x3
 1183 00a6 71       		.byte	0x71
 1184 00a7 04       		.sleb128 4
 1185 00a8 9F       		.byte	0x9f
 1186 00a9 00000000 		.4byte	0
 1187 00ad 00000000 		.4byte	0
 1188              	.LLST2:
 1189 00b1 10000000 		.4byte	.LVL3
 1190 00b5 18000000 		.4byte	.LVL5
 1191 00b9 0100     		.2byte	0x1
 1192 00bb 53       		.byte	0x53
 1193 00bc 18000000 		.4byte	.LVL5
 1194 00c0 26000000 		.4byte	.LVL8
 1195 00c4 0100     		.2byte	0x1
 1196 00c6 52       		.byte	0x52
 1197 00c7 30000000 		.4byte	.LVL9
 1198 00cb 46000000 		.4byte	.LVL12
 1199 00cf 0100     		.2byte	0x1
 1200 00d1 53       		.byte	0x53
 1201 00d2 00000000 		.4byte	0
 1202 00d6 00000000 		.4byte	0
 1203              		.section	.debug_aranges,"",%progbits
 1204 0000 3C000000 		.4byte	0x3c
 1205 0004 0200     		.2byte	0x2
 1206 0006 00000000 		.4byte	.Ldebug_info0
 1207 000a 04       		.byte	0x4
 1208 000b 00       		.byte	0
 1209 000c 0000     		.2byte	0
 1210 000e 0000     		.2byte	0
 1211 0010 00000000 		.4byte	.LFB63
 1212 0014 02000000 		.4byte	.LFE63-.LFB63
 1213 0018 00000000 		.4byte	.LFB64
 1214 001c 02000000 		.4byte	.LFE64-.LFB64
 1215 0020 00000000 		.4byte	.LFB65
 1216 0024 02000000 		.4byte	.LFE65-.LFB65
 1217 0028 00000000 		.4byte	.LFB66
 1218 002c 02000000 		.4byte	.LFE66-.LFB66
 1219 0030 00000000 		.4byte	.LFB67
 1220 0034 54000000 		.4byte	.LFE67-.LFB67
 1221 0038 00000000 		.4byte	0
ARM GAS  /tmp/ccOCr6LQ.s 			page 39


 1222 003c 00000000 		.4byte	0
 1223              		.section	.debug_ranges,"",%progbits
 1224              	.Ldebug_ranges0:
 1225 0000 00000000 		.4byte	.LFB63
 1226 0004 02000000 		.4byte	.LFE63
 1227 0008 00000000 		.4byte	.LFB64
 1228 000c 02000000 		.4byte	.LFE64
 1229 0010 00000000 		.4byte	.LFB65
 1230 0014 02000000 		.4byte	.LFE65
 1231 0018 00000000 		.4byte	.LFB66
 1232 001c 02000000 		.4byte	.LFE66
 1233 0020 00000000 		.4byte	.LFB67
 1234 0024 54000000 		.4byte	.LFE67
 1235 0028 00000000 		.4byte	0
 1236 002c 00000000 		.4byte	0
 1237              		.section	.debug_line,"",%progbits
 1238              	.Ldebug_line0:
 1239 0000 4A010000 		.section	.debug_str,"MS",%progbits,1
 1239      0200E100 
 1239      00000201 
 1239      FB0E0D00 
 1239      01010101 
 1240              	.LASF58:
 1241 0000 5F5F696E 		.ascii	"__init_ram_areas\000"
 1241      69745F72 
 1241      616D5F61 
 1241      72656173 
 1241      00
 1242              	.LASF32:
 1243 0011 5F5F7261 		.ascii	"__ram2_init__\000"
 1243      6D325F69 
 1243      6E69745F 
 1243      5F00
 1244              	.LASF52:
 1245 001f 5F5F7261 		.ascii	"__ram7_init__\000"
 1245      6D375F69 
 1245      6E69745F 
 1245      5F00
 1246              	.LASF26:
 1247 002d 5F5F7261 		.ascii	"__ram0_noinit__\000"
 1247      6D305F6E 
 1247      6F696E69 
 1247      745F5F00 
 1248              	.LASF17:
 1249 003d 5F5F636F 		.ascii	"__core_init\000"
 1249      72655F69 
 1249      6E697400 
 1250              	.LASF54:
 1251 0049 5F5F7261 		.ascii	"__ram7_noinit__\000"
 1251      6D375F6E 
 1251      6F696E69 
 1251      745F5F00 
 1252              	.LASF13:
 1253 0059 696E6974 		.ascii	"init_area\000"
 1253      5F617265 
 1253      6100
 1254              	.LASF21:
ARM GAS  /tmp/ccOCr6LQ.s 			page 40


 1255 0063 72616D5F 		.ascii	"ram_areas\000"
 1255      61726561 
 1255      7300
 1256              	.LASF23:
 1257 006d 5F5F7261 		.ascii	"__ram0_init_text__\000"
 1257      6D305F69 
 1257      6E69745F 
 1257      74657874 
 1257      5F5F00
 1258              	.LASF3:
 1259 0080 73686F72 		.ascii	"short unsigned int\000"
 1259      7420756E 
 1259      7369676E 
 1259      65642069 
 1259      6E7400
 1260              	.LASF37:
 1261 0093 5F5F7261 		.ascii	"__ram3_clear__\000"
 1261      6D335F63 
 1261      6C656172 
 1261      5F5F00
 1262              	.LASF28:
 1263 00a2 5F5F7261 		.ascii	"__ram1_init__\000"
 1263      6D315F69 
 1263      6E69745F 
 1263      5F00
 1264              	.LASF48:
 1265 00b0 5F5F7261 		.ascii	"__ram6_init__\000"
 1265      6D365F69 
 1265      6E69745F 
 1265      5F00
 1266              	.LASF47:
 1267 00be 5F5F7261 		.ascii	"__ram6_init_text__\000"
 1267      6D365F69 
 1267      6E69745F 
 1267      74657874 
 1267      5F5F00
 1268              	.LASF50:
 1269 00d1 5F5F7261 		.ascii	"__ram6_noinit__\000"
 1269      6D365F6E 
 1269      6F696E69 
 1269      745F5F00 
 1270              	.LASF35:
 1271 00e1 5F5F7261 		.ascii	"__ram3_init_text__\000"
 1271      6D335F69 
 1271      6E69745F 
 1271      74657874 
 1271      5F5F00
 1272              	.LASF14:
 1273 00f4 636C6561 		.ascii	"clear_area\000"
 1273      725F6172 
 1273      656100
 1274              	.LASF19:
 1275 00ff 5F5F6C61 		.ascii	"__late_init\000"
 1275      74655F69 
 1275      6E697400 
 1276              	.LASF49:
 1277 010b 5F5F7261 		.ascii	"__ram6_clear__\000"
ARM GAS  /tmp/ccOCr6LQ.s 			page 41


 1277      6D365F63 
 1277      6C656172 
 1277      5F5F00
 1278              	.LASF5:
 1279 011a 696E7433 		.ascii	"int32_t\000"
 1279      325F7400 
 1280              	.LASF7:
 1281 0122 6C6F6E67 		.ascii	"long unsigned int\000"
 1281      20756E73 
 1281      69676E65 
 1281      6420696E 
 1281      7400
 1282              	.LASF24:
 1283 0134 5F5F7261 		.ascii	"__ram0_init__\000"
 1283      6D305F69 
 1283      6E69745F 
 1283      5F00
 1284              	.LASF44:
 1285 0142 5F5F7261 		.ascii	"__ram5_init__\000"
 1285      6D355F69 
 1285      6E69745F 
 1285      5F00
 1286              	.LASF29:
 1287 0150 5F5F7261 		.ascii	"__ram1_clear__\000"
 1287      6D315F63 
 1287      6C656172 
 1287      5F5F00
 1288              	.LASF22:
 1289 015f 49544D5F 		.ascii	"ITM_RxBuffer\000"
 1289      52784275 
 1289      66666572 
 1289      00
 1290              	.LASF36:
 1291 016c 5F5F7261 		.ascii	"__ram3_init__\000"
 1291      6D335F69 
 1291      6E69745F 
 1291      5F00
 1292              	.LASF1:
 1293 017a 756E7369 		.ascii	"unsigned char\000"
 1293      676E6564 
 1293      20636861 
 1293      7200
 1294              	.LASF20:
 1295 0188 5F5F6465 		.ascii	"__default_exit\000"
 1295      6661756C 
 1295      745F6578 
 1295      697400
 1296              	.LASF31:
 1297 0197 5F5F7261 		.ascii	"__ram2_init_text__\000"
 1297      6D325F69 
 1297      6E69745F 
 1297      74657874 
 1297      5F5F00
 1298              	.LASF16:
 1299 01aa 72616D5F 		.ascii	"ram_init_area_t\000"
 1299      696E6974 
 1299      5F617265 
ARM GAS  /tmp/ccOCr6LQ.s 			page 42


 1299      615F7400 
 1300              	.LASF43:
 1301 01ba 5F5F7261 		.ascii	"__ram5_init_text__\000"
 1301      6D355F69 
 1301      6E69745F 
 1301      74657874 
 1301      5F5F00
 1302              	.LASF53:
 1303 01cd 5F5F7261 		.ascii	"__ram7_clear__\000"
 1303      6D375F63 
 1303      6C656172 
 1303      5F5F00
 1304              	.LASF55:
 1305 01dc 474E5520 		.ascii	"GNU C 4.8.1 -mcpu=cortex-m3 -mno-thumb-interwork -m"
 1305      4320342E 
 1305      382E3120 
 1305      2D6D6370 
 1305      753D636F 
 1306 020f 7468756D 		.ascii	"thumb -ggdb -O2 -fomit-frame-pointer -falign-functi"
 1306      62202D67 
 1306      67646220 
 1306      2D4F3220 
 1306      2D666F6D 
 1307 0242 6F6E733D 		.ascii	"ons=16 -ffunction-sections -fdata-sections -fno-com"
 1307      3136202D 
 1307      6666756E 
 1307      6374696F 
 1307      6E2D7365 
 1308 0275 6D6F6E20 		.ascii	"mon -flto\000"
 1308      2D666C74 
 1308      6F00
 1309              	.LASF40:
 1310 027f 5F5F7261 		.ascii	"__ram4_init__\000"
 1310      6D345F69 
 1310      6E69745F 
 1310      5F00
 1311              	.LASF41:
 1312 028d 5F5F7261 		.ascii	"__ram4_clear__\000"
 1312      6D345F63 
 1312      6C656172 
 1312      5F5F00
 1313              	.LASF42:
 1314 029c 5F5F7261 		.ascii	"__ram4_noinit__\000"
 1314      6D345F6E 
 1314      6F696E69 
 1314      745F5F00 
 1315              	.LASF10:
 1316 02ac 756E7369 		.ascii	"unsigned int\000"
 1316      676E6564 
 1316      20696E74 
 1316      00
 1317              	.LASF9:
 1318 02b9 6C6F6E67 		.ascii	"long long unsigned int\000"
 1318      206C6F6E 
 1318      6720756E 
 1318      7369676E 
 1318      65642069 
ARM GAS  /tmp/ccOCr6LQ.s 			page 43


 1319              	.LASF51:
 1320 02d0 5F5F7261 		.ascii	"__ram7_init_text__\000"
 1320      6D375F69 
 1320      6E69745F 
 1320      74657874 
 1320      5F5F00
 1321              	.LASF56:
 1322 02e3 2E2E2F2E 		.ascii	"../../../os/common/startup/ARMCMx/compilers/GCC/crt"
 1322      2E2F2E2E 
 1322      2F6F732F 
 1322      636F6D6D 
 1322      6F6E2F73 
 1323 0316 312E6300 		.ascii	"1.c\000"
 1324              	.LASF18:
 1325 031a 5F5F6561 		.ascii	"__early_init\000"
 1325      726C795F 
 1325      696E6974 
 1325      00
 1326              	.LASF46:
 1327 0327 5F5F7261 		.ascii	"__ram5_noinit__\000"
 1327      6D355F6E 
 1327      6F696E69 
 1327      745F5F00 
 1328              	.LASF15:
 1329 0337 6E6F5F69 		.ascii	"no_init_area\000"
 1329      6E69745F 
 1329      61726561 
 1329      00
 1330              	.LASF11:
 1331 0344 73697A65 		.ascii	"sizetype\000"
 1331      74797065 
 1331      00
 1332              	.LASF38:
 1333 034d 5F5F7261 		.ascii	"__ram3_noinit__\000"
 1333      6D335F6E 
 1333      6F696E69 
 1333      745F5F00 
 1334              	.LASF8:
 1335 035d 6C6F6E67 		.ascii	"long long int\000"
 1335      206C6F6E 
 1335      6720696E 
 1335      7400
 1336              	.LASF34:
 1337 036b 5F5F7261 		.ascii	"__ram2_noinit__\000"
 1337      6D325F6E 
 1337      6F696E69 
 1337      745F5F00 
 1338              	.LASF27:
 1339 037b 5F5F7261 		.ascii	"__ram1_init_text__\000"
 1339      6D315F69 
 1339      6E69745F 
 1339      74657874 
 1339      5F5F00
 1340              	.LASF33:
 1341 038e 5F5F7261 		.ascii	"__ram2_clear__\000"
 1341      6D325F63 
 1341      6C656172 
ARM GAS  /tmp/ccOCr6LQ.s 			page 44


 1341      5F5F00
 1342              	.LASF39:
 1343 039d 5F5F7261 		.ascii	"__ram4_init_text__\000"
 1343      6D345F69 
 1343      6E69745F 
 1343      74657874 
 1343      5F5F00
 1344              	.LASF2:
 1345 03b0 73686F72 		.ascii	"short int\000"
 1345      7420696E 
 1345      7400
 1346              	.LASF12:
 1347 03ba 696E6974 		.ascii	"init_text_area\000"
 1347      5F746578 
 1347      745F6172 
 1347      656100
 1348              	.LASF25:
 1349 03c9 5F5F7261 		.ascii	"__ram0_clear__\000"
 1349      6D305F63 
 1349      6C656172 
 1349      5F5F00
 1350              	.LASF6:
 1351 03d8 75696E74 		.ascii	"uint32_t\000"
 1351      33325F74 
 1351      00
 1352              	.LASF4:
 1353 03e1 6C6F6E67 		.ascii	"long int\000"
 1353      20696E74 
 1353      00
 1354              	.LASF30:
 1355 03ea 5F5F7261 		.ascii	"__ram1_noinit__\000"
 1355      6D315F6E 
 1355      6F696E69 
 1355      745F5F00 
 1356              	.LASF0:
 1357 03fa 7369676E 		.ascii	"signed char\000"
 1357      65642063 
 1357      68617200 
 1358              	.LASF45:
 1359 0406 5F5F7261 		.ascii	"__ram5_clear__\000"
 1359      6D355F63 
 1359      6C656172 
 1359      5F5F00
 1360              	.LASF57:
 1361 0415 2F686F6D 		.ascii	"/home/alex/Embebidos Proyecto/ChibiOS_17.6.1/demos/"
 1361      652F616C 
 1361      65782F45 
 1361      6D626562 
 1361      69646F73 
 1362 0448 53544D33 		.ascii	"STM32/RT-STM32F100-DISCOVERY\000"
 1362      322F5254 
 1362      2D53544D 
 1362      33324631 
 1362      30302D44 
 1363              		.comm	__gnu_lto_v1,1,1
 1364              		.ident	"GCC: (Sourcery CodeBench Lite 2013.11-24) 4.8.1"
ARM GAS  /tmp/ccOCr6LQ.s 			page 45


DEFINED SYMBOLS
                            *ABS*:00000000 crt1.c
     /tmp/ccOCr6LQ.s:297    .text.__core_init:00000000 $t
     /tmp/ccOCr6LQ.s:303    .text.__core_init:00000000 __core_init
     /tmp/ccOCr6LQ.s:316    .text.__early_init:00000000 $t
     /tmp/ccOCr6LQ.s:322    .text.__early_init:00000000 __early_init
     /tmp/ccOCr6LQ.s:334    .text.__late_init:00000000 $t
     /tmp/ccOCr6LQ.s:340    .text.__late_init:00000000 __late_init
     /tmp/ccOCr6LQ.s:352    .text.__default_exit:00000000 $t
     /tmp/ccOCr6LQ.s:358    .text.__default_exit:00000000 __default_exit
     /tmp/ccOCr6LQ.s:372    .text.__init_ram_areas:00000000 $t
     /tmp/ccOCr6LQ.s:378    .text.__init_ram_areas:00000000 __init_ram_areas
     /tmp/ccOCr6LQ.s:460    .text.__init_ram_areas:00000050 $d
     /tmp/ccOCr6LQ.s:465    .rodata.ram_areas:00000000 $d
     /tmp/ccOCr6LQ.s:469    .rodata.ram_areas:00000000 ram_areas
                            *COM*:00000001 __gnu_lto_v1
                     .debug_frame:00000010 $d
     /tmp/ccOCr6LQ.s:464    .text.__init_ram_areas:00000054 $t

UNDEFINED SYMBOLS
__ram0_init_text__
__ram0_init__
__ram0_clear__
__ram0_noinit__
__ram1_init_text__
__ram1_init__
__ram1_clear__
__ram1_noinit__
__ram2_init_text__
__ram2_init__
__ram2_clear__
__ram2_noinit__
__ram3_init_text__
__ram3_init__
__ram3_clear__
__ram3_noinit__
__ram4_init_text__
__ram4_init__
__ram4_clear__
__ram4_noinit__
__ram5_init_text__
__ram5_init__
__ram5_clear__
__ram5_noinit__
__ram6_init_text__
__ram6_init__
__ram6_clear__
__ram6_noinit__
__ram7_init_text__
__ram7_init__
__ram7_clear__
__ram7_noinit__
