ARM GAS  /tmp/ccNna55q.s 			page 1


   1              		.syntax unified
   2              		.cpu cortex-m3
   3              		.fpu softvfp
   4              		.eabi_attribute 20, 1
   5              		.eabi_attribute 21, 1
   6              		.eabi_attribute 23, 3
   7              		.eabi_attribute 24, 1
   8              		.eabi_attribute 25, 1
   9              		.eabi_attribute 26, 1
  10              		.eabi_attribute 30, 2
  11              		.eabi_attribute 34, 1
  12              		.eabi_attribute 18, 4
  13              		.thumb
  14              		.file	"hal_icu.c"
  15              		.text
  16              	.Ltext0:
  17              		.section	.gnu.lto_.jmpfuncs.cb3e9f9891197473,"",%progbits
  18 0000 789C6362 		.ascii	"x\234cb`b\300\006\264\2404'\020322132003\002\011\026"
  18      6062C006 
  18      B4A03427 
  18      10333232 
  18      31333230 
  19 0019 10C10A22 		.ascii	"\020\301\012\"\330@\004;\210\340\000\021\014\000\017"
  19      D840043B 
  19      88E00011 
  19      0C000F
  20 0028 11006D   		.ascii	"\021\000m"
  21              		.text
  22              		.section	.gnu.lto_.inline.cb3e9f9891197473,"",%progbits
  23 0000 789C6362 		.ascii	"x\234cb`b\300\006\036AiN\006\006\026\036F\260\"\266"
  23      6062C006 
  23      1E41694E 
  23      0606161E 
  23      46B022B6 
  24 0014 05F260B5 		.ascii	"\005\362`\265\214\\ \202\201\225\005(\314t\201\237\201"
  24      8C5C2082 
  24      81950528 
  24      CC74819F 
  24      81
  25 0025 E3831E58 		.ascii	"\343\203\036X\234\211\201S\020(\304\366A\017!\304\015"
  25      9C898153 
  25      1028C4F6 
  25      410F21C4 
  25      0D
  26 0036 5439C18F 		.ascii	"T9\301\217\031\247\014\013\003\207\000P\206\265C\235"
  26      19A70C0B 
  26      03870050 
  26      86B5439D 
  27 0046 81BD431D 		.ascii	"\201\275C\035Y\206\225\201[\030(\303\271\302\015.\303"
  27      59869581 
  27      5B1828C3 
  27      B9C20D2E 
  27      C3
  28 0057 CC039661 		.ascii	"\314\003\226a\303\251\207\235\201\235\037(\303\262@"
  28      C3A9879D 
  28      819D1F28 
  28      C3B240
ARM GAS  /tmp/ccNna55q.s 			page 2


  29 0066 1EEE58A8 		.ascii	"\036\356X\250\014\007N\031\006\000y\213\027z"
  29      0C074E19 
  29      0600798B 
  29      177A
  30              		.text
  31              		.section	.gnu.lto_.pureconst.cb3e9f9891197473,"",%progbits
  32 0000 789C6362 		.ascii	"x\234cb`b\020f\200\000N\006\011F)&+f+\026+V+6+v+\016"
  32      60621066 
  32      80004E06 
  32      09462926 
  32      2B662B16 
  33 001c 2B00126B 		.ascii	"+\000\022k\002\015"
  33      020D
  34              		.text
  35              		.section	.gnu.lto_icuInit.cb3e9f9891197473,"",%progbits
  36 0000 789C6362 		.ascii	"x\234cb`b@\007\222@\\\011\304\012@\314\310\314\300\310"
  36      60624007 
  36      92405C09 
  36      C40A40CC 
  36      C8CCC0C8 
  37 0014 34E11C03 		.ascii	"4\341\034\003C#\007\023##\210\301\300\310P\317\304X"
  37      43230713 
  37      232388C1 
  37      C0C850CF 
  37      C458
  38 0026 1FC90856 		.ascii	"\037\311\010V\273\236\351\300\203\377\377\327}\330\370"
  38      BB9EE9C0 
  38      83FFFFD7 
  38      7DD8F8
  39 0035 B01AA894 		.ascii	"\260\032\250\224\201\201\225\241\245\241a\002Pg2X>\004"
  39      818195A1 
  39      A5A16102 
  39      50673258 
  39      3E04
  40 0047 48823485 		.ascii	"H\2024\20522\201h\346\363\014\315\017~\331%2.dd\005"
  40      32328168 
  40      E6F30CCD 
  40      0F7ED925 
  40      322E6464 
  41 005c CA5633FC 		.ascii	"\312V3\374j\350h\020\310d\004\252\206\030\227\011\242"
  41      6AE86810 
  41      C86404AA 
  41      86189709 
  41      A2
  42 006d 2F32343E 		.ascii	"/24>\370\315\004S\004\001!@\011\240\001 \307\312\351"
  42      F8CD0453 
  42      04012140 
  42      09A00120 
  42      C7CAE9
  43 0080 E9E94350 		.ascii	"\351\351CP~\261~Fb\216~qQ2\210\216\317L.\325Kf\000\000"
  43      7EB17E46 
  43      628E7E71 
  43      5132888E 
  43      CF4C2ED5 
  44 0098 58DD2B23 		.ascii	"X\335+#"
  45              		.text
  46              		.section	.gnu.lto_icuObjectInit.cb3e9f9891197473,"",%progbits
ARM GAS  /tmp/ccNna55q.s 			page 3


  47 0000 789C6362 		.ascii	"x\234cb`b@\007\222@|\035\210\025\200\230\221\231\201"
  47      60624007 
  47      92407C1D 
  47      88158098 
  47      919981
  48 0013 9169C239 		.ascii	"\221i\3029\006\206F\016&FF\020\203\201\221\241\236\211"
  48      0686460E 
  48      26464610 
  48      838191A1 
  48      9E89
  49 0025 B13E9211 		.ascii	"\261>\222\021\254v=\323\201\007\377\377\257\233qlY\017"
  49      AC763DD3 
  49      8107FFFF 
  49      AF9B716C 
  49      590F
  50 0037 E34C2656 		.ascii	"\343L&V&\306\\\2608+CKC\303\004\240\001\311`n\010\220"
  50      26C65CB0 
  50      382B434B 
  50      43C304A0 
  50      01C9606E 
  51 004d 04E90D65 		.ascii	"\004\351\015ed\002\321\314g\031\232v\334x|\200)\221"
  51      6402D1CC 
  51      67199A76 
  51      DC787C80 
  51      2991
  52 005f 7121232B 		.ascii	"q!#+\2036\303\252\006 \340\317dd\230\3150\2131\223\221"
  52      8336C3AA 
  52      0620E0CF 
  52      646498CD 
  52      308B3193 
  53 0074 319D9129 		.ascii	"1\235\221)\002HC\234\226\004\261\211\001$\302\000b\203"
  53      0248439C 
  53      9604B189 
  53      0124C200 
  53      6283
  54 0086 74FFC0A2 		.ascii	"t\377\300\242\233\031\273nF\270nf\020\343\"C\343\203"
  54      9B19BB6E 
  54      46B86E66 
  54      10E32243 
  54      E383
  55 0098 19CA10BD 		.ascii	"\031\312\020\2750\020\002T\004t\027H\207\234\236\236"
  55      30100254 
  55      04741748 
  55      879C9E9E 
  56 00a8 3E04E517 		.ascii	">\004\345\027\353g$\346\350\027\027%\203\350\370\314"
  56      EB6724E6 
  56      E8171725 
  56      83E8F8CC 
  57 00b8 E452BD64 		.ascii	"\344R\275d\006\000\003\371<\360"
  57      060003F9 
  57      3CF0
  58              		.text
  59              		.section	.gnu.lto_icuStart.cb3e9f9891197473,"",%progbits
  60 0000 789C8552 		.ascii	"x\234\205RMh\023A\024~o\266\333\306\024i\257\212\244"
  60      4D681341 
  60      147E6FB6 
  60      DBC61469 
ARM GAS  /tmp/ccNna55q.s 			page 4


  60      AF8AA4
  61 0013 4B4510D4 		.ascii	"KE\020\324\254\236\274*=y\010BSAOa;.\311B\266[v\223"
  61      AC9EBC2A 
  61      3D790842 
  61      53414F61 
  61      3B2EC942 
  62 002b D2E2A19B 		.ascii	"\322\342\241\233\237\203\340\245T\0211\024\251\202b"
  62      9F83E0A5 
  62      54113114 
  62      A98262
  63 003a A17AF052 		.ascii	"\241z\360R\304\342z\361\007iD\021\024\374!\012\036\364"
  63      C4E27AF1 
  63      07694411 
  63      14FC210A 
  63      1EF4
  64 004c 50F016BC 		.ascii	"P\360\026\274\3047\273\311f\023\202\316\356\314\233"
  64      C437BBC9 
  64      661382CE 
  64      EECC9B
  65 005b F737DF9B 		.ascii	"\3677\337\233\367\015\003\006\375c\037\315\037d\376"
  65      F70D0306 
  65      FD631FCD 
  65      1F64FE
  66 006a 4E122540 		.ascii	"N\022%@\266R\007(\305\030\242\330\000\3022\303\345\013"
  66      B6520728 
  66      C518A2D8 
  66      00C232C3 
  66      E50B
  67 007c E8C73E64 		.ascii	"\350\307>d^\243\325z\360\376\371\223\317Xc\243\022\232"
  67      5EA3D57A 
  67      F0FEF993 
  67      CF5863A3 
  67      129A
  68 008e 0843B408 		.ascii	"\010C\264\010\257\014U\327]QL\244\263\270\037>C\253"
  68      AF0C55D7 
  68      5D514CA4 
  68      B3B81F3E 
  68      43AB
  69 00a0 38E31C99 		.ascii	"8\343\034\231HJ\257\240\034\003\230\204u\327]m\\\275"
  69      484AAFA0 
  69      1C039884 
  69      75D75D6D 
  69      5CBD
  70 00b2 BFF30C57 		.ascii	"\277\363\014W+\356K\267\352\265Z8a \325v\026E\352y4"
  70      2BEE4BB7 
  70      EAB55A38 
  70      6120D576 
  70      1645EA79 
  71 00c7 10155FB0 		.ascii	"\020\025_\260\241\336b\205\015\024\332\324\241\374{"
  71      A1DE6285 
  71      0D14DAD4 
  71      A1FC7B
  72 00d6 B372777F 		.ascii	"\263rw\177\033\265\003\357\335{W\223\016kx\033'\303"
  72      1BB503EF 
  72      DD7B5793 
  72      0E6B781B 
  72      27C3
ARM GAS  /tmp/ccNna55q.s 			page 5


  73 00e8 92BCA7D7 		.ascii	"\222\274\247\327\232\243\007Bm\373\372\227\261P\271"
  73      9AA30742 
  73      6DFBFA97 
  73      B150B9
  74 00f7 F2E19B04 		.ascii	"\362\341\233\004\240\341:\312\204,\320\031M\211\246"
  74      A0E13ACA 
  74      842CD019 
  74      4D89A6
  75 0106 0F8CF4BD 		.ascii	"\017\214\364\275 \225\256$\005\255K\300G\\so\2342\310"
  75      2095AE24 
  75      05AD4BC0 
  75      475C736F 
  75      9C32C8
  76 0119 1AADA7EB 		.ascii	"\032\255\247\353\377\324\366\267+\337\201\362\353\255"
  76      FFD4F6B7 
  76      2BDF81F2 
  76      EBAD
  77 0127 5D8F0518 		.ascii	"]\217\005\030G`\303\2451f\240\\\203\233\224<\234EI\034"
  77      4760C3A5 
  77      3166A05C 
  77      839B943C 
  77      9C45491C 
  78 013b 32E207CF 		.ascii	"2\342\007\317\006m\206\254\310~\003\325\306\343J<H\004"
  78      066D86AC 
  78      C87E03D5 
  78      C6E34A3C 
  78      4804
  79 014d B8047FDC 		.ascii	"\270\004\177\334\313\356\270\2011\356\353\"J2p\217\017"
  79      CBEEB881 
  79      31EEEB22 
  79      4A32708F 
  79      0F
  80 015e B1D5DC6D 		.ascii	"\261\325\334mb?D|0\004\206\235\214\213\222{Y\371Y\357"
  80      623F447C 
  80      3004869D 
  80      8C8B927B 
  80      59F959EF 
  81 0172 6745C33B 		.ascii	"gE\303;~S\376K\013\374\213\226_k\202\226G\275\264\334"
  81      7E53FE4B 
  81      0BFC8B96 
  81      5F6B8296 
  81      47BDB4DC 
  82 0186 DA9B08DF 		.ascii	"\332\233\010\337M\204\237f\204\237\257%\271\313\317"
  82      4D849F66 
  82      849FAF25 
  82      B9CBCF
  83 0195 304DFF16 		.ascii	"0M\377\026\034c\003(\322p\2036a-\035J4\334\304D`y\013"
  83      1C630328 
  83      D2708336 
  83      612D1D4A 
  83      34DCC444 
  84 01ac A5C6F6C1 		.ascii	"\245\306\366\301NG\2031C\015\241\327)B\023\311\244\032"
  84      4E478331 
  84      430DA1D7 
  84      294213C9 
  84      A41A
  85 01be FC96A3E6 		.ascii	"\374\226\243\346\264\274\352\330\\\310\214\301\213I"
ARM GAS  /tmp/ccNna55q.s 			page 6


  85      B4BCEAD8 
  85      5CC88CC1 
  85      8B49
  86 01cc 0EC7A26E 		.ascii	"\016\307\242nn\231\2465\247\316[v\301QOO\247\246R\213"
  86      6E99A635 
  86      A7CE5B76 
  86      C1514F4F 
  86      A7A6528B 
  87 01e0 2ACF71CB 		.ascii	"*\317q\313\3263\013'\315d\016\344\005-_\324O\014\310"
  87      D6330B27 
  87      CD640EE4 
  87      052D5FD4 
  87      4F0CC8
  88 01f3 D1170BEA 		.ascii	"\321\027\013\352T*}&\255\032s<_\274\250\253\334t\014"
  88      542A7D26 
  88      AD1A733C 
  88      5FBCA8AB 
  88      DC740C
  89 0206 2793E59C 		.ascii	"'\223\345\234\362&\242\031v\241\033\223s\226\234~\277"
  89      F226A219 
  89      76A11B93 
  89      73969C7E 
  89      BF
  90 0217 28D27268 		.ascii	"(\322rh\241@!\311?\236JO+\263\232\243\317\333\306Q\345"
  90      A14021C9 
  90      3F9E4A4F 
  90      2BB39AA3 
  90      CFDBC651 
  91 022c D0716036 		.ascii	"\320q`6\214\230\272i\331K\360\027\377\243\363\254"
  91      8C98BA69 
  91      D94BF017 
  91      FFA3F3AC 
  92              		.text
  93              		.section	.gnu.lto_icuStop.cb3e9f9891197473,"",%progbits
  94 0000 789C8552 		.ascii	"x\234\205ROh\323`\024\177\357\213]kE\266\253\"]\230"
  94      4F68D360 
  94      147FEF8B 
  94      5D6B45B6 
  94      AB225D98 
  95 0014 0882DAE8 		.ascii	"\010\202\332\350\311\353\306N\036\212\260N\320S\311"
  95      C9EBC64E 
  95      1E8AB04E 
  95      D053C9
  96 0023 3EC31A68 		.ascii	">\303\032h\226\221\264c\303\303\276v=\010^\306\024\031"
  96      9691B463 
  96      C3C3BE76 
  96      3D085EC6 
  96      1419
  97 0035 CE39A6A0 		.ascii	"\3169\246\2408\230\036\274\354\"\306\323\024]EO\202"
  97      38981EBC 
  97      EC22C6D3 
  97      145D454F 
  97      82
  98 0046 88F5CF45 		.ascii	"\210\365\317E\321\203\007a\354R\337\227\264I[\212~\311"
  98      D1830761 
  98      EC52DF97 
  98      B4495B8A 
ARM GAS  /tmp/ccNna55q.s 			page 7


  98      7EC9
  99 0058 CBFBFBE3 		.ascii	"\313\373\373\343\275\274\337\307\200A\3679D\362\215"
  99      BDBCDFC7 
  99      8041F739 
  99      44F28D
 100 0067 C25F48A3 		.ascii	"\302_H\243\002\310\026k\000\345\004C\224\006 \3143\234"
 100      02C8166B 
 100      00E50443 
 100      940620CC 
 100      339C
 101 0079 BF847EED 		.ascii	"\277\204~\355c\346\325\033\215G\267\267\327^\343\035"
 101      63E6D51B 
 101      8D47B7B7 
 101      D75EE31D 
 102 0089 9654D0F2 		.ascii	"\226T\320\362\3431\250\012\261\250ZH\036\367#\343\364"
 102      E331A80A 
 102      B1A85A48 
 102      1EF723E3 
 102      F4
 103 009a 95F00BC8 		.ascii	"\225\360\013\310\244V^B%\0010\004\353B,\325\257?\334"
 103      A4565E42 
 103      25013004 
 103      EB422CD5 
 103      AF3FDC
 104 00ad 798E4B0B 		.ascii	"y\216K\013\342\205\250z\215\006\016\232Hc\235G\011\275"
 104      E285A87A 
 104      8D060E9A 
 104      48639D47 
 104      09BD
 105 00bf 8826A2EA 		.ascii	"\210&\242\352+\266\257sN\031\003\225\214\032T~o.\334"
 105      2BB6AF73 
 105      4E190395 
 105      8C1A547E 
 105      6F2EDC
 106 00d2 3FDCECDA 		.ascii	"?\334\354\332j\357=x\267\242\034\327\361.\016\205#y"
 106      6AEF3D78 
 106      B7A21CD7 
 106      F12E0E85 
 106      2379
 107 00e4 CF6EEC1E 		.ascii	"\317n\354\0368\022zOo~\354\017\235k\277>+\000:\256c"
 107      38127A4F 
 107      6F7EEC0F 
 107      9D6BBF3E 
 107      2B003AAE 
 108 00f9 8C3ACBEE 		.ascii	"\214:\313\356\214D!\361\033#=\333\344\322f\224`k)x\217"
 108      8C4421F1 
 108      1B233DDB 
 108      E4D26694 
 108      606B2978 
 109 010e AB6279D8 		.ascii	"\253by\330\244h\373<Q\376C3\337\234\374\015T\353\237"
 109      A468FB3C 
 109      51FE4333 
 109      DF9CFC0D 
 109      54EB9F
 110 0121 BEC68316 		.ascii	"\276\306\203\026\000W`O\\\025\003&\306\270\357\003L"
 110      0057604F 
 110      5C150326 
ARM GAS  /tmp/ccNna55q.s 			page 8


 110      C6B8EF03 
 110      4C
 111 0132 A262621F 		.ascii	"\242bb\037\300\016T\266\226\367<\026T\236\200\015A\247"
 111      C00E54B6 
 111      96F73C16 
 111      549E800D 
 111      41A7
 112 0144 DFC4F80A 		.ascii	"\337\304\370\012\334\242.\011\252\223\335\366\373\240"
 112      DCA22E09 
 112      AA93DDF6 
 112      FBA0
 113 0152 098CF611 		.ascii	"\011\214\366\021\227\206Do\365@'{\2431D'\245\331\311"
 113      9786446F 
 113      F540277B 
 113      A3314427 
 113      A5D9C9
 114 0165 CCF75A37 		.ascii	"\314\367Z73:\336\363\027\363_j\340_\324\374X\225\324"
 114      333ADEF3 
 114      17F35F6A 
 114      E05FD4FC 
 114      5895D4
 115 0178 3CE9A466 		.ascii	"<\351\244f\355`*\274;m\034\355F\034\275\372S\216E\034"
 115      ED602ABC 
 115      3B6D1CED 
 115      461CBDFA 
 115      538E451C 
 116 018c F591F87F 		.ascii	"\365\221\370\177\3141\321\203&\0357\310\010gi\321\242"
 116      CC31D183 
 116      261D37C8 
 116      086769D1 
 116      A2
 117 019d E326A682 		.ascii	"\343&\246\202\310[(\327\177\036m\361\021\234qZ\010\335"
 117      C85B28D7 
 117      7F1E6DF1 
 117      119C715A 
 117      08DD
 118 01af 50599A4A 		.ascii	"PY\232J\247\265\340\265]-\257\0274\327\341R\347L^Js"
 118      A7B5E0B5 
 118      5D2DAF17 
 118      34D7E152 
 118      E74C5E4A 
 119 01c4 38D59EE6 		.ascii	"8\325\236\346\266e\331S\332\264\355\024]md,3\232\231"
 119      B665D953 
 119      DAB4ED14 
 119      5D6D642C 
 119      339A99
 120 01d7 D5789EDB 		.ascii	"\325x\236\333\216\221\2339k\245\363\020\233\321\013"
 120      8E919B39 
 120      6BA5F310 
 120      9BD10B
 121 01e6 25E34C0F 		.ascii	"%\343L\017\2141[\324F3\331sY\315\234\342\205\322eC\343"
 121      8C315BD4 
 121      4633D973 
 121      59CD9CE2 
 121      85D26543 
 122 01fb 966BBAB9 		.ascii	"\226k\272\271I\316\0117\330\216p\212QM\336\235s\273"
 122      49CE0937 
ARM GAS  /tmp/ccNna55q.s 			page 9


 122      D88E708A 
 122      514DDE9D 
 122      73BB
 123 020d F37248DB 		.ascii	"\363rH\333\245\017\025JM\371\201LvL\235\320]c\3321O"
 123      A50F154A 
 123      4DF9814C 
 123      764C9DD0 
 123      5D63DA31 
 124 0222 AAC74E03 		.ascii	"\252\307N\003s n\031\226\355\314\301_\373P\363\301"
 124      73206E19 
 124      96EDCCC1 
 124      5FFB50F3 
 124      C1
 125              		.text
 126              		.section	.gnu.lto_icuStartCapture.cb3e9f9891197473,"",%progbits
 127 0000 789C8552 		.ascii	"x\234\205R\317k\023A\024~o\326mRD\354\325\"\351R(\210"
 127      CF6B1341 
 127      147E6FD6 
 127      6D5244EC 
 127      D522E952 
 128 0016 3FB27AB2 		.ascii	"?\262z\262GKO\036B\241\251\240\247\260\035\227f \333"
 128      474B4F1E 
 128      42A1A9A0 
 128      A7B01D97 
 128      6620DB
 129 0029 2DBB4969 		.ascii	"-\273Ii\361\320i\232\203P\204\322\212\210\265H\025\254"
 129      F1D0699A 
 129      835084D2 
 129      8A88B548 
 129      15AC
 130 003b 0A55FC03 		.ascii	"\012U\374\003\304\010b\025iDO\202\012\2417\275y+\275"
 130      C4086215 
 130      69444F82 
 130      0AA137BD 
 130      792BBD
 131 004e C437BBC9 		.ascii	"\3047\273\311n\022\212\335\3357o\336\257\375\276\375"
 131      6E128ADD 
 131      DD376FDE 
 131      AFFDBEFD 
 132 005e 661930E8 		.ascii	"f\0310\350\276N\221=\244\364\036y\324\000\331J\015`"
 132      BE4E913D 
 132      A4F41E79 
 132      D400D94A 
 132      0D60
 133 0070 31C910D5 		.ascii	"1\311\020\325\006\020\026\030.\334\300\240\367\025\253"
 133      06101618 
 133      2EDCC0A0 
 133      F715AB
 134 007f D61B8D97 		.ascii	"\326\033\215\227\007;[?\361\031\353\325\320\011\362"
 134      073B5B3F 
 134      F119EBD5 
 134      D009F2
 135 008e 3A54A45C 		.ascii	":T\244\\1\034\244\210\007\231\011Z\325\3705d\312k\237"
 135      311CA488 
 135      0799095A 
 135      D5F83564 
 135      CA6B9F
ARM GAS  /tmp/ccNna55q.s 			page 10


 136 00a1 A09C0418 		.ascii	"\240\234\004\030\204M)W\353k\317w\337\341\352\222\374"
 136      844D2957 
 136      EB6BCF77 
 136      DFE1EA92 
 136      FC
 137 00b2 282BD546 		.ascii	"(+\325F\003\007\004\022\2551T\243\327Q \032\201c\307"
 137      03070412 
 137      AD3154A3 
 137      D751201A 
 137      8163C7
 138 00c5 3A79AA1C 		.ascii	":y\252\034\030\264\251A\371\357\366\322\323\376&j\013"
 138      18B4A941 
 138      F9EFF6D2 
 138      D3FE266A 
 138      0B
 139 00d6 BEBAF56D 		.ascii	"\276\272\365m];c\341c\034\214(U\337\336\335?~:\212\336"
 139      5D3B63E1 
 139      631C8C28 
 139      55DFDEDD 
 139      3F7E3A8A 
 140 00eb DCFB7532 		.ascii	"\334\373u2\012>\277\337\323\000,\334D\235\220\025:#"
 140      0A3EBFDF 
 140      D3002CDC 
 140      449D9015 
 140      3A23
 141 00fd D3C80260 		.ascii	"\323\310\002`\244{\207BRF\013UK\301w\334\220\367\257"
 141      A47B8742 
 141      52460B55 
 141      4BC177DC 
 141      90F7AF
 142 0110 08CAB6F3 		.ascii	"\010\312\266\363\211\353?\232\365&\363/P\251/\333!\002"
 142      89EB3F9A 
 142      F526F32F 
 142      50A92FDB 
 142      2102
 143 0122 C02D3890 		.ascii	"\300-8\220\267e\237@\235\0071\300\024j\002{\000v\241"
 143      B7659F40 
 143      9D0731C0 
 143      146A027B 
 143      0076A1
 144 0135 3C1C769D 		.ascii	"<\034v\235\203\263\002\023\353\360\200\336\235\244\262"
 144      83B30213 
 144      EBF080DE 
 144      9DA4B2
 145 0144 C2E80D7A 		.ascii	"\302\350\015z'1V!\241\360;\025\375]\353V\324\302'\301"
 145      27315621 
 145      A1F03B15 
 145      FD5DEB56 
 145      D4C227C1 
 146 0158 071D2929 		.ascii	"\007\035))\374O\322?\033J\322\327\235\222>:\221\212"
 146      FC4FD23F 
 146      1B4AD2D7 
 146      9D923E3A 
 146      918A
 147 016a CEBC4DDB 		.ascii	"\316\274M\333\375X\333\345\017e=\326\266\207,\241`8"
 147      FD58DBE5 
 147      0F653DD6 
ARM GAS  /tmp/ccNna55q.s 			page 11


 147      B6872CA1 
 147      6038
 148 017c 260F91D7 		.ascii	"&\017\221\327\302\027\264\211\270\264\344\264p\033S"
 148      C217B489 
 148      B8B4E4B4 
 148      701B53
 149 018b 61E62B2C 		.ascii	"a\346+,\326\357\014\265\204\014\257\011:2\372\263Tk"
 149      D6EF0CB5 
 149      840CAF09 
 149      3A32FAB3 
 149      546B
 150 019d 2A9D36C3 		.ascii	"*\2356\303\307\365\315\274U0}\217+\237\023\274\224\346"
 150      C7F5CDBC 
 150      55307D8F 
 150      2B9F13BC 
 150      94E6
 151 01af 70A1BDCC 		.ascii	"p\241\275\314]\307q\247\315\031\327+\372\346\310xf4"
 151      5DC771A7 
 151      CD19D72B 
 151      FAE6C878 
 151      6634
 152 01c1 3367F23C 		.ascii	"3g\362<w=;7{\331I\347A\237\265\012%\373\322!3\366\\"
 152      773D3B37 
 152      7BD949E7 
 152      419FB50A 
 152      25FBD221 
 153 01d8 D11CCD64 		.ascii	"\321\034\315d\257fM1\315\013\245\233\266\311\035_\370"
 153      AF664D31 
 153      CD0BA59B 
 153      B6C91D5F 
 153      F8
 154 01e9 B929CE69 		.ascii	"\271)\316in\240}\302+\306=y\177\336\357\256+\222\256"
 154      6EA07DC2 
 154      2BC63D79 
 154      7FDEEFAE 
 154      2B92AE
 155 01fc 4F0B352A 		.ascii	"O\0135*O\365\276Lv\334\230\264|{\306\023\347\215\241"
 155      4FF5BE4C 
 155      76DC98B4 
 155      7C7BC613 
 155      E78DA1
 156 020f 8BC03C48 		.ascii	"\213\300<H8\266\343z\363\360\017\232\212\340\035"
 156      38B6E37A 
 156      F3F00F9A 
 156      8AE01D
 157              		.text
 158              		.section	.gnu.lto_icuWaitCapture.cb3e9f9891197473,"",%progbits
 159 0000 789C8552 		.ascii	"x\234\205RMh\023Q\020\236y\273Ij\253\264x\021D\322X"
 159      4D681351 
 159      109E79BB 
 159      496AABB4 
 159      781144D2 
 160 0015 1014355B 		.ascii	"\020\0245[\275xUz\352!\227\376\200^,\333\347\232,d\233"
 160      BD78557A 
 160      EA2197FE 
 160      805E2CDB 
 160      E79A2C64 
ARM GAS  /tmp/ccNna55q.s 			page 12


 161 002a B29B9416 		.ascii	"\262\233\224\026\205\276\246\001E=\224b\251X\212\226"
 161      85BEA601 
 161      453D9462 
 161      A9588A96 
 162 003a 62451145 		.ascii	"bE\021EAP\364\220\036\012-\265\221b\025zPBA\304\237"
 162      4150F490 
 162      1E0A2DB5 
 162      9162157A 
 162      504241C4 
 163 004f 4B6F558A 		.ascii	"KoU\212q\336n\232\237*\366%o\347\315\274\371f\276\235"
 163      71DE6E9A 
 163      9F2AF625 
 163      6FE7CDBC 
 163      F966BE9D 
 164 0063 6F1930D8 		.ascii	"o\0310\330\276N\322\276\242\000\254\223E\037 \033\311"
 164      BE4ED2BE 
 164      A200AC93 
 164      451F201B 
 164      C9
 165 0074 010CD530 		.ascii	"\001\014\3250\246\276\016\202\250UV4\020\273\025T\275"
 165      A6BE0E82 
 165      A8555634 
 165      10BB1554 
 165      BD
 166 0085 B08A280F 		.ascii	"\260\212(\017\2000\310\024\025\007\317\241\254\301\232"
 166      8030C814 
 166      1507CFA1 
 166      ACC19A
 167 0094 604A88D1 		.ascii	"`J\210\321\374\334\263\2378~3;tWl\026\012\210&R\277"
 167      FCDCB39F 
 167      387E333B 
 167      74576C16 
 167      0A882652 
 168 00a9 83081CE1 		.ascii	"\203\010\034\341,9X\343\032\206\325\004<lv\375\332\215"
 168      2C3958E3 
 168      1A86D504 
 168      3C6C76FD 
 168      DA8D
 169 00bb 7D222F46 		.ascii	"}\"/F\304o\202\232\25008\262\023\362\011\313\346\013"
 169      C46F829A 
 169      A83038B2 
 169      13F209CB 
 169      E60B
 170 00cd 85CDF72F 		.ascii	"\205\315\367/\326r\270\267\016A\307)l\002\025-\004?"
 170      D672B8B7 
 170      0E41C729 
 170      6C02152D 
 170      043F
 171 00df 39D3E4D0 		.ascii	"9\323\344\320\362AF\210\221\220\347[H5\270[\247\203"
 171      F2414688 
 171      9190E75B 
 171      4835B85B 
 171      A783
 172 00f1 9EF25D3A 		.ascii	"\236\362]:\221I\253,@\272f\213M~\371\301\322,\216\016"
 172      9149AB2C 
 172      40BA668B 
 172      4D7EF9C1 
ARM GAS  /tmp/ccNna55q.s 			page 13


 172      D22C8E0E 
 173 0105 8B7991C9 		.ascii	"\213y\221\311\022\237F\023U\006\347\313\204B\036!\265"
 173      129F4613 
 173      5506E7CB 
 173      84421E21 
 173      B5
 174 0116 9A908CA9 		.ascii	"\232\220\214\251!:\344 \275\376fxf\177\261\367\026\211"
 174      213AE420 
 174      BDFE6678 
 174      667FB1F7 
 174      1689
 175 0128 ECF4BB09 		.ascii	"\354\364\273\011\345\260\2163.\263b\354\325\330F\335"
 175      E5B08E33 
 175      2EB362EC 
 175      D5D846DD 
 176 0138 8192F772 		.ascii	"\201\222\367r\374c}\311\271\376i\215\224\321\361\036"
 176      FC637DC9 
 176      B9FE698D 
 176      94D1F11E 
 177 0148 09C35176 		.ascii	"\011\303Qvg\264\025\332nc\244\337\007rIT\305S6\010_"
 177      67B415DA 
 177      6E63A4DF 
 177      07724954 
 177      C5533608 
 178 015d 7052DC3A 		.ascii	"pR\334:m\022\240\222O\371\376[\361\336\3571~\013\231"
 178      6D12A092 
 178      4FF9FE5B 
 178      F1DEEF31 
 178      7E0B99
 179 0170 FCC29CDF 		.ascii	"\374\302\234\337k\021E\377%\370%\256\212\006\023\003"
 179      6B1145FF 
 179      25F825AE 
 179      8A061303 
 180 0180 DC2B4141 		.ascii	"\334+AA\325\244\371\303\0020/\313\033dTV\230\207\314"
 180      D5A4F9C3 
 180      02302FCB 
 180      1B645456 
 180      9887CC
 181 0193 8FD9B1C5 		.ascii	"\217\331\261\305\372\022\\6T*'\322A\356\212\246t\022"
 181      FA125C36 
 181      542A27D2 
 181      41EE8AA6 
 181      7412
 182 01a5 6139E325 		.ascii	"a9\343%H\267z\311G\341\241\240UO\337\310\004\334&\330"
 182      48B77AC9 
 182      47E1A1A0 
 182      554FDFC8 
 182      04DC26D8 
 183 01b9 2E6A24E1 		.ascii	".j$\341\265.\256\273(uT\352U\255\314\327\334vet\274"
 183      B52EAEBB 
 183      287554EA 
 183      55ADCCD7 
 183      DC766574 
 184 01ce EF0E6647 		.ascii	"\357\016fGi\340\177\322|\237\224\322<\257\226\346\316"
 184      69E07FD2 
 184      7C9F94D2 
 184      3CAF96E6 
ARM GAS  /tmp/ccNna55q.s 			page 14


 184      CE
 185 01df 9E60E90B 		.ascii	"\236`\351\013\252\320h\243\254\321\342\347\264\257\254"
 185      AAD068A3 
 185      ACD1E2E7 
 185      B4AFAC
 186 01ee 919F7640 		.ascii	"\221\237v@\266\3414\263\277e\322\3611\035J\\\266d\321"
 186      B6E134B3 
 186      BF65D2F1 
 186      311D4A5C 
 186      B664D1
 187 0201 F129063D 		.ascii	"\361)\006=\236\3130\224_2J\003\225\241U@\211\220\311"
 187      9ECB3094 
 187      5F324A03 
 187      95A15540 
 187      8990C9
 188 0214 8F562FBB 		.ascii	"\217V/\273G\025\024w\270(\247*K\004\303a\315\373'\034"
 188      47151477 
 188      B828A72A 
 188      4B04C361 
 188      CDFB271C 
 189 0228 2DA6C735 		.ascii	"-\246\3075\307\346\322v\231<\025\346\0200/&\255\336"
 189      C7E6D276 
 189      993C15E6 
 189      10302F26 
 189      ADDE
 190 023a 70B3DF36 		.ascii	"p\263\3376\234T<y\2742\233',+\321\243\365&\354\244\243"
 190      9C543C79 
 190      BC329B27 
 190      2C2BD1A3 
 190      F526ECA4 
 191 024f 9D698BB4 		.ascii	"\235i\213\264D\3725\036\343\011\333\350\352;e\205c\340"
 191      44FA351E 
 191      E309DBE8 
 191      EA3B6585 
 191      63E0
 192 0261 EBD3E329 		.ascii	"\353\323\343)\343\304?0F\177Rk\211\264\267\266kf\017"
 192      E3C43F30 
 192      467F526B 
 192      89B4B7B6 
 192      6B660F
 193 0274 8FA72E18 		.ascii	"\217\247.\030\032\267\034\323\351\212rN\270\306J\204"
 193      1AB71CD3 
 193      E98A724E 
 193      B8C64A84 
 194 0284 9D2CE7C4 		.ascii	"\235,\347\304\234\001g\373\275\344\234p\350A\211\322"
 194      9C0167FB 
 194      BDE49C70 
 194      E84189D2 
 195 0294 D27D43A4 		.ascii	"\322}C\244\275-\324\255;F\257m\036\013\035j\006fC\300"
 195      BD2DD4AD 
 195      3B46AF6D 
 195      1E0B1D6A 
 195      066643C0 
 196 02a8 32AC843D 		.ascii	"2\254\204=\000\177\000\223\006!>"
 196      007F0093 
 196      06213E
 197              		.text
ARM GAS  /tmp/ccNna55q.s 			page 15


 198              		.section	.gnu.lto_icuStopCapture.cb3e9f9891197473,"",%progbits
 199 0000 789C8552 		.ascii	"x\234\205R\317k\023A\024~o\326mRD\354\325\"\351R(\210"
 199      CF6B1341 
 199      147E6FD6 
 199      6D5244EC 
 199      D522E952 
 200 0016 3F327AB2 		.ascii	"?2z\262GKO\036B\241\251\240\247\260\035\227f \333-\273"
 200      474B4F1E 
 200      42A1A9A0 
 200      A7B01D97 
 200      6620DB2D 
 201 002b 4969F1D0 		.ascii	"Ii\361\320m\232\203\320K\251E\304\266H\025,\012\265"
 201      6D9A83D0 
 201      4BA945C4 
 201      B648152C 
 201      0AB5
 202 003d F807A8F1 		.ascii	"\370\007\250\361\244\"\215\350I\020!\364\246\027\361"
 202      A4228DE8 
 202      491021F4 
 202      A617F1
 203 004c 205411E2 		.ascii	" T\021\342\233\335d7\011\305\356\356\2337\357\327~\337"
 203      9BDD6437 
 203      09C5EEEE 
 203      9B37EFD7 
 203      7EDF
 204 005e 7EB30C18 		.ascii	"~\263\014\030t_\247\3106(\275O\0365@\266R\003XL2D\265"
 204      745FA7C8 
 204      3628BD4F 
 204      1E3540B6 
 204      5203584C 
 205 0075 01840586 		.ascii	"\001\204\005\206\01370\350\335e\325z\243\361\354\345"
 205      0B3730E8 
 205      DD65D57A 
 205      A3F1ECE5 
 206 0085 F2F606EE 		.ascii	"\362\366\006\356\262^\015\355 \257C\305\367W\014\033"
 206      B25E0DED 
 206      20AF43C5 
 206      F7570C1B 
 207 0095 29124166 		.ascii	")\022Af\202V5~\015\231\362\332;('\001\006a\313\367W"
 207      8256357E 
 207      0D99F2DA 
 207      3B282701 
 207      0661CBF7 
 208 00aa EB779EEC 		.ascii	"\353w\236\354\275\306\325%\377\255_\2516\0328 \221h"
 208      BDC6D525 
 208      FFAD5FA9 
 208      361A3820 
 208      9168
 209 00bc 8DA11ABD 		.ascii	"\215\241\032\275\216\022\321\010\034;\326\311S\345\300"
 209      8E12D108 
 209      1C3BD6C9 
 209      53E5C0
 210 00cb A04D0DCA 		.ascii	"\240M\015\312?w\226\036\3677Q[\360\325\355O\353\332"
 210      3F77961E 
 210      F737515B 
 210      F0D5ED4F 
 210      EBDA
ARM GAS  /tmp/ccNna55q.s 			page 16


 211 00dd 19131FE2 		.ascii	"\031\023\037\342`D\251\372j\355\340\370\351(zq\367\353"
 211      6044A9FA 
 211      6AEDE0F8 
 211      E9287A71 
 211      F7EB
 212 00ef C92878FF 		.ascii	"\311(x\377k_\0030q\013uBV\350\214L#\013\200\221\356"
 212      6B5F0330 
 212      710B7542 
 212      56E88C4C 
 212      230B8091 
 213 0104 37149232 		.ascii	"7\024\2222Z\250Z\012>\343\246\177\357\212\244l;\237"
 213      5AA85A0A 
 213      3EE3A67F 
 213      EF8AA46C 
 213      3B9F
 214 0116 B8FEA559 		.ascii	"\270\376\245Yo2\377\000\225\372\017+D\000\270\005\177"
 214      6F32FF00 
 214      95FA0F2B 
 214      4400B805 
 214      7F
 215 0127 FCDB7E9F 		.ascii	"\374\333~\237D]\0041\300\024j\022{\000\366\240<\034"
 215      445D0431 
 215      C0146A12 
 215      7B00F6A0 
 215      3C1C
 216 0139 769D83B3 		.ascii	"v\235\203\263\022\023\353p\237\336\235\244\262\302\350"
 216      1213EB70 
 216      9FDE9DA4 
 216      B2C2E8
 217 0148 0D7A2731 		.ascii	"\015z'1V!\241\340:\025\375V\353V\324\304G\301\007\035"
 217      5621A1E0 
 217      3A15FD56 
 217      EB56D4C4 
 217      47C1071D 
 218 015c 2929FC4F 		.ascii	"))\374O\322\357\233J\322\347\235\222>8\221\212\316\274"
 218      D2EF9B4A 
 218      D2E79D92 
 218      3E38918A 
 218      CEBC
 219 016e 4DDB8358 		.ascii	"M\333\203X\333\345\277e=\326\266\207,\241`\004&\017"
 219      DBE5BF65 
 219      3DD6B687 
 219      2CA16004 
 219      260F
 220 0180 91D7C4A7 		.ascii	"\221\327\304\247\264\211\270\264\3444q\007Sa\346#,\326"
 220      B489B8B4 
 220      E4347107 
 220      5361E623 
 220      2CD6
 221 0192 7F0FB584 		.ascii	"\177\017\265\204\014\257\011:2\372\263Tk*\235\346\341"
 221      0CAF093A 
 221      32FAB354 
 221      6B2A9DE6 
 221      E1
 222 01a3 E3783C6F 		.ascii	"\343x<o\026\270\347\012\345sR\224\322\002.\264\227\205"
 222      16B8E70A 
 222      E5735294 
ARM GAS  /tmp/ccNna55q.s 			page 17


 222      D2022EB4 
 222      9785
 223 01b5 63DBCE34 		.ascii	"c\333\3164\237q\334\242\307G\3063\243\2319.\362\302"
 223      9F71DCA2 
 223      C747C633 
 223      A399392E 
 223      F2C2
 224 01c7 71ADDCEC 		.ascii	"q\255\334\354e;\235\007}\326,\224\254K\207\314XsE>\232"
 224      653B9D07 
 224      7DD62C94 
 224      AC4B87CC 
 224      5873453E 
 225 01dc C95ECD72 		.ascii	"\311^\315r9-\012\245\233\026\027\266'\275\334\224\020"
 225      392D0AA5 
 225      9B1617B6 
 225      27BDDC94 
 225      10
 226 01ed 3437D03E 		.ascii	"47\320>\341\026\343\236\2747\357u\327\025I\307\243\205"
 226      E116E39E 
 226      BC37EF75 
 226      D71549C7 
 226      A385
 227 01ff 1A95A77A 		.ascii	"\032\225\247z_&;nL\232\2365\343\312\363\306\320E`.$"
 227      5F263B6E 
 227      4C9A9E35 
 227      E3CAF3C6 
 227      D045602E 
 228 0214 6CCB76DC 		.ascii	"l\313v\334y\370\007OE\340\242"
 228      79F8074F 
 228      45E0A2
 229              		.text
 230              		.section	.gnu.lto_icuEnableNotifications.cb3e9f9891197473,"",%progbits
 231 0000 789C8592 		.ascii	"x\234\205\222Ah\023A\024\206\337\233u\333\200\210\275"
 231      41681341 
 231      1486DF9B 
 231      75DB8088 
 231      BD
 232 0011 2A922E05 		.ascii	"*\222.\005\321\203f\364\344U\351\311C\020\232\012z\012"
 232      D18366F4 
 232      E455E9C9 
 232      43109A0A 
 232      7A0A
 233 0023 EBB82403 		.ascii	"\353\270$\003\331n\331IJ\213\207N\233\034\004AJ\025"
 233      D96ED949 
 233      4A8B874E 
 233      9B1C0441 
 233      4A15
 234 0035 29942055 		.ascii	")\224 UP\024j\316\036\304xRA#z\022T\010z\322\233\267"
 234      50146ACE 
 234      1EC47852 
 234      41237A12 
 234      54087AD2 
 235 004b E225BED9 		.ascii	"\342%\276\331M6\233Ptv\337\274y\357\315\343\375|\273"
 235      4D369B50 
 235      7476DFBC 
 235      79EFCDE3 
 235      FD7CBB
ARM GAS  /tmp/ccNna55q.s 			page 18


 236 005e 0C188CAF 		.ascii	"\014\030\214\257#d%J\177'\217\026 \333\350\000\254e"
 236      2364254A 
 236      7F278F16 
 236      20DBE800 
 236      AC65
 237 0070 18A23900 		.ascii	"\030\2429\000\302*\303\325\253\030\335m\261v\267\327"
 237      C22AC3D5 
 237      AB18DD6D 
 237      B176B7D7 
 238 0080 7BB675BB 		.ascii	"{\266u\273\365\025\237\263\214\205~\224\267\241\241"
 238      F5159FB3 
 238      8C857E94 
 238      B7A1A1
 239 008f F586E323 		.ascii	"\365\206\343#E\"\312\314\323n\332/#3\336z\013\353\031"
 239      4522CACC 
 239      D36EDA2F 
 239      2333DE7A 
 239      0BEB19
 240 00a2 8019D8D1 		.ascii	"\200\031\330\321z\263{\347\311\373W\270Y\327ot\243\335"
 240      7AB37BE7 
 240      C9FB57B8 
 240      59D76F74 
 240      A3DD
 241 00b4 EBE1B444 		.ascii	"\353\341\264D\222u\011M\353\025\224\210N\344\330\201"
 241      9275094D 
 241      EB159488 
 241      4EE4D881 
 242 00c4 519D2607 		.ascii	"Q\235&\007\016\035:\260\376{\267\376\350h\177\352`|"
 242      0E1D3AB0 
 242      FE7BB7FE 
 242      E8687FEA 
 242      607C
 243 00d6 FBF1A76D 		.ascii	"\373\361\247m\353\244\213\017p&\221\324~yw\357\340\261"
 243      EBA48B0F 
 243      702691D4 
 243      7E7977EF 
 243      E0B1
 244 00e8 247A71EF 		.ascii	"$zq\357\333\341$\270\365\356\207\005\340\342\016\332"
 244      DBE124B8 
 244      F5EE8705 
 244      E0E20EDA 
 245 00f8 34D94C67 		.ascii	"4\331Lgd\026Y4\030\351yM!\221\261bjY\370\214M\275u^"
 245      64165934 
 245      18E9794D 
 245      2191B162 
 245      6A59F88C 
 246 0110 5236AD67 		.ascii	"R6\255gX\377\322\257\367\225\177\200Fw\273\024O\000"
 246      58FFD2AF 
 246      F7957F80 
 246      4677BB14 
 246      4F00
 247 0122 B8017FF4 		.ascii	"\270\001\177\364M=%\321\026QL\324\321\2228\0010\012"
 247      4D3D25D1 
 247      16514CD4 
 247      D1923801 
 247      300A
 248 0134 E767671C 		.ascii	"\347gg\034\216\213\017#m\377\245\003\377\242\363\253"
ARM GAS  /tmp/ccNna55q.s 			page 19


 248      8E8B0F23 
 248      6DFFA503 
 248      FFA2F3AB 
 249 0144 69E8B446 		.ascii	"i\350\264F\351\334?\224M>_\012\323^\012S\247n\0171M"
 249      E9DC3F94 
 249      4D3E5F0A 
 249      D35E0A53 
 249      A76E0F31 
 250 0159 904D9A31 		.ascii	"\220M\2321\0023\373\220r\361)\035\022-\0032.\356b6\316"
 250      0233FB90 
 250      72F1291D 
 250      122D0332 
 250      2EEE6236 
 251 016e 7C84B56E 		.ascii	"|\204\265n\363\304\200I\274\346\211>\375$\346j6\227"
 251      F3C48049 
 251      BCE6893E 
 251      FD24E66A 
 251      3697
 252 0180 E3F11B28 		.ascii	"\343\361\033(^v+\\\205\302\370\242\024\265\234\200\323"
 252      5E762B5C 
 252      85C2F8A2 
 252      14B59C80 
 252      D3
 253 0191 E9B2087C 		.ascii	"\351\262\010|?X\340\213AXU\374\302\\~6\277\314EY\004"
 253      3F58E08B 
 253      415855FC 
 253      C25C7E36 
 253      BFCC4559 
 254 01a6 A1575C3A 		.ascii	"\241W\\:\347\347\312`/\271\225\232wv\237\036o\271\312"
 254      E7E7CA60 
 254      2FB9959A 
 254      77769F1E 
 254      6FB9CA
 255 01b9 67F3858B 		.ascii	"g\363\205\213\005.\027D\245v\335\343\302WR\025KBP\337"
 255      052E1744 
 255      A576DDE3 
 255      C2575215 
 255      4B4250DF 
 256 01cd 74BA23AC 		.ascii	"t\272#\254\016\357\224\325\212\032\257\033\221\201\242"
 256      0EEF94D5 
 256      8A1AAF1B 
 256      9181A2
 257 01dc 8D2E1A4F 		.ascii	"\215.\032O\365\251|a\316\271\346*o1\224\247\234\343"
 257      F5A97C61 
 257      CEB9E62A 
 257      6F3194A7 
 257      9CE3
 258 01ee 67808530 		.ascii	"g\200\2050\351{~\020\256\300_\2121\327\364"
 258      E97B7E10 
 258      AEC05F8A 
 258      31D7F4
 259              		.text
 260              		.section	.gnu.lto_icuDisableNotifications.cb3e9f9891197473,"",%progbits
 261 0000 789C8592 		.ascii	"x\234\205\222Ak\023A\024\307\337\233u\333\200\210\275"
 261      416B1341 
 261      14C7DF9B 
 261      75DB8088 
ARM GAS  /tmp/ccNna55q.s 			page 20


 261      BD
 262 0011 2A922E05 		.ascii	"*\222.\005\321\203f\364\344U\351\311C\020\232\012z\012"
 262      D18366F4 
 262      E455E9C9 
 262      43109A0A 
 262      7A0A
 263 0023 EBB82403 		.ascii	"\353\270$\003\331n\331IJK\017\23569\010^J\025\021\264"
 263      D96ED949 
 263      4A4B0F9D 
 263      3639085E 
 263      4A1511B4 
 264 0037 48151485 		.ascii	"H\025\024\205\232/\2404\236\264\007#z\022D\011\352E"
 264      9A2FA034 
 264      9EB40723 
 264      7A124409 
 264      EA45
 265 0049 4F7A2B5E 		.ascii	"Oz+^\342\233\335d\263\011Eg\367\315\233\367\336<\336"
 265      E29BDD64 
 265      B3094567 
 265      F7CD9BF7 
 265      DE3CDE
 266 005c 9FDF2E03 		.ascii	"\237\337.\003\006\243\353\010Y\211\322_\311\243\005"
 266      06A3EB08 
 266      5989D25F 
 266      C9A305
 267 006b C8D6DB00 		.ascii	"\310\326\333\000\253\031\206h\016\200\260\302p\345*"
 267      AB198668 
 267      0E80B0C2 
 267      70E52A
 268 007a 46779BAC 		.ascii	"Fw\233\254\325\351v\237\377j7\357\343\013\226\261\320"
 268      D5E9769F 
 268      FF6A37EF 
 268      E30B96B1 
 268      D0
 269 008b 8FF23634 		.ascii	"\217\36264\264^w|\244HD\231Y\332M\373ed\306[\273\260"
 269      B45E777C 
 269      A4484499 
 269      59DA4DFB 
 269      6564C65B 
 270 00a1 96019882 		.ascii	"\226\001\230\202-\2557:\267\236\276}\205\033u\375F7"
 270      2DAD373A 
 270      B79EBE7D 
 270      851B75FD 
 270      4637
 271 00b3 5ADD2E4E 		.ascii	"Z\335.NJ$Y\227\320\264^A\211\350D\216\035\030\326ir"
 271      4A245997 
 271      D0B45E41 
 271      89E8448E 
 271      1D18D669 
 272 00c8 E0D0A10D 		.ascii	"\340\320\241\015k\277\267\353\217\217\366\246\366\307"
 272      6BBFB7EB 
 272      8F8FF6A6 
 272      F6C7
 273 00d6 B79E7CB8 		.ascii	"\267\236|\270g\235t\361!N%\222Z;\267\367\016\036K\242"
 273      679D74F1 
 273      214E2592 
 273      5A3BB7F7 
ARM GAS  /tmp/ccNna55q.s 			page 21


 273      0E1E4BA2 
 274 00ea 97773E1F 		.ascii	"\227w>\037N\202\233_\276Y\000.n\241M\223\315tFf\221"
 274      4E829B5F 
 274      BE59002E 
 274      6EA14D93 
 274      CD744666 
 275 00ff 4583919E 		.ascii	"E\203\221\236\327\024\022\031+\246\226\205\217\270\251"
 275      D7141219 
 275      2BA69685 
 275      8FB8A9
 276 010e EF9E9794 		.ascii	"\357\236\227\224M\353\031\324?\365\352=\345\357\240"
 276      4DEB19D4 
 276      3FF5EA3D 
 276      E5EFA0
 277 011d D1D929C5 		.ascii	"\321\331)\305\023\000\226\341\217\276\241'$\332\"\212"
 277      130096E1 
 277      8FBEA127 
 277      24DA228A 
 278 012d 893A5A12 		.ascii	"\211:Z\022\307\000\206\341\374h\217\302q\361Q\244\355"
 278      C70086E1 
 278      FC688FC2 
 278      71F151A4 
 278      ED
 279 013e BF74E05F 		.ascii	"\277t\340_t~n\032:\315a:\017\016e\223\317\227\302\264"
 279      747E6E1A 
 279      3ACD613A 
 279      0F0E6593 
 279      CF97C2B4 
 280 0152 97C2F4BD 		.ascii	"\227\302\364\275n\0170\215\221\215\2331\0023\373\220"
 280      6E0F308D 
 280      918D9B31 
 280      0233FB90 
 281 0162 72F1191D 		.ascii	"r\361\031\035\022-}2.nc6\316\274\207\325\316\356\211"
 281      122D7D32 
 281      2E6E6336 
 281      CEBC87D5 
 281      CEEE89
 282 0175 3E9378CD 		.ascii	">\223x\315\022}\372I\314\325l.\307\3437P\274\354V\270"
 282      127DFA49 
 282      CCD56C2E 
 282      C7E33750 
 282      BCEC56B8 
 283 0189 0A85F145 		.ascii	"\012\205\361E)j9\001\247\323e\021\370~0\307\347\203"
 283      296A3901 
 283      A7D36511 
 283      F87E30C7 
 283      E783
 284 019b B0AAF885 		.ascii	"\260\252\370\205\231\374t~\221\213\262\010B\257\270"
 284      99FC747E 
 284      918BB208 
 284      42AFB8
 285 01aa 70CECF95 		.ascii	"p\316\317\225\301^p+5\357\354>=\336b\225O\347\013\027"
 285      C15E702B 
 285      35EFEC3E 
 285      3DDE6295 
 285      4FE70B17 
 286 01be 0B5CCE89 		.ascii	"\013\\\316\211J\355\272\307\205\257\244*\226\204\240"
ARM GAS  /tmp/ccNna55q.s 			page 22


 286      4AEDBAC7 
 286      85AFA42A 
 286      9684A0
 287 01cd BEC97447 		.ascii	"\276\311tGX\035\334)\253%5Z7\"\003E\033]4\236\352\023"
 287      581DDC29 
 287      AB25355A 
 287      37220345 
 287      1B5D349E 
 288 01e3 F9C28C73 		.ascii	"\371\302\214s\315U\336|(O9\307\317\000\013a\334\367"
 288      CD55DE7C 
 288      284F39C7 
 288      CF000B61 
 288      DCF7
 289 01f5 FC205C82 		.ascii	"\374 \\\202\277o7\330\307"
 289      BF6F37D8 
 289      C7
 290              		.text
 291              		.section	.gnu.lto_.symbol_nodes.cb3e9f9891197473,"",%progbits
 292 0000 789C4DC7 		.ascii	"x\234M\307I\012\002A\020D\321\214\252\236\347\353x\272"
 292      490A0241 
 292      1044D18C 
 292      AA9EE7EB 
 292      78BA
 293 0012 6870E3D2 		.ascii	"hp\343\322\023x\031\367\356\235[\033DD\304\023\210\264"
 293      137819F7 
 293      EE9D5B1B 
 293      4444C413 
 293      88B4
 294 0024 0566FECD 		.ascii	"\005f\376\315\3479q2\203\204\334\026\024YnD\310\325"
 294      E7397132 
 294      8384DC16 
 294      14596E44 
 294      C8D5
 295 0036 026E07C2 		.ascii	"\002n\007\302p\017:\303\003\350\015\217`dx\002c\303"
 295      700F3AC3 
 295      03E80D8F 
 295      60647802 
 295      63C3
 296 0048 3398180E 		.ascii	"3\230\030\016`jx\0013%\256`\036\330\367\300\010\026"
 296      606A7801 
 296      3325AE60 
 296      1ED8F7C0 
 296      0816
 297 005a AA1B58AA 		.ascii	"\252\033X\252\356`\245z\200\265\352\0116\252\027\330"
 297      EE60A57A 
 297      80B5EA09 
 297      36AA17D8 
 298 006a AADE60F7 		.ascii	"\252\336`\367\227\227\\\346\303\007\336\0252N\367\245"
 298      97975CE6 
 298      C307DE15 
 298      324EF7A5 
 299 007a ACA74755 		.ascii	"\254\247GUx\\\207'Mx\332\206g\335\357\362\005\177\240"
 299      785C8727 
 299      4D78DA86 
 299      67DDEFF2 
 299      057FA0
 300 008d 6487     		.ascii	"d\207"
ARM GAS  /tmp/ccNna55q.s 			page 23


 301              		.text
 302              		.section	.gnu.lto_.refs.cb3e9f9891197473,"",%progbits
 303 0000 789C6362 		.ascii	"x\234cb`b`d\200\002\000\000F\000\006"
 303      60626064 
 303      80020000 
 303      460006
 304              		.text
 305              		.section	.gnu.lto_.decls.cb3e9f9891197473,"",%progbits
 306 0000 789CA55A 		.ascii	"x\234\245Z\017p\024\325\031\177o7!9\022\342\237\221"
 306      0F7014D5 
 306      197F6F37 
 306      213912E2 
 306      9F91
 307 0012 3F9DDA12 		.ascii	"?\235\332\022\234\332\261\316H$\250\265\355h\015GJ2"
 307      9CDAB1CE 
 307      4824A8B5 
 307      ED680D47 
 307      4A32
 308 0024 43027309 		.ascii	"C\002s\011hm\207es\271\230\323\313]\274\273\360\247"
 308      686D8765 
 308      73B998D3 
 308      CB5DBCBB 
 308      F0A7
 309 0036 33AD1B42 		.ascii	"3\255\033B@\254X \203F\204\030@\020,H\360/-\242\207"
 309      40AC5820 
 309      83468418 
 309      40102C48 
 309      F02F2DA2 
 310 004b 2D7FC654 		.ascii	"-\177\306T\344\237\207\025K\257*\026\025G\202\200\030"
 310      E49F8715 
 310      4BAF2A16 
 310      15478280 
 310      18
 311 005c 94EBF7DE 		.ascii	"\224\353\367\336\356\336\275}\3676\331Kw\362\336\276"
 311      EEDEBD7D 
 311      F736D94B 
 311      77F2DEBE 
 312 006c 7DFBBDDF 		.ascii	"}\373\275\337\367\373\276\367\355\267o\337EB\022\032"
 312      F7FBBEF7 
 312      EDB76FDF 
 312      4542121A 
 313 007c 93835012 		.ascii	"\223\203P\022\216[~\202\220'\027\241\341\010\241;Q\372"
 313      8E5B7E82 
 313      902717A1 
 313      E108A13B 
 313      51FA
 314 008e B80ACA5A 		.ascii	"\270\012\312Z(\033\241\334\212\021\272\003J\031\224"
 314      281BA1DC 
 314      8A11BA03 
 314      4A1994
 315 009d 7228D550 		.ascii	"r(\325P<PfB\271\027\312o\241\314\2022\033J\035\224z"
 315      3C506642 
 315      B917CA6F 
 315      A1CC8232 
 315      1B4A1D94 
 316 00b2 280D501A 		.ascii	"(\015P\0321\3128\010\246\004\345~\270\267\316\350\223"
 316      31CA3808 
ARM GAS  /tmp/ccNna55q.s 			page 24


 316      A604E57E 
 316      B8B7CEE8 
 316      93
 317 00c3 8CFE7B05 		.ascii	"\214\376{\005\362D?PE=P\236\203\262\031\312nc\3146("
 317      F2443F50 
 317      453D509E 
 317      83B219CA 
 317      6E63CC36 
 318 00d8 3128D890 		.ascii	"1(\330\220#\347R\016\203p/\200s\034J\021\224B(\017@"
 318      23E7520E 
 318      83702F80 
 318      731C4A11 
 318      9442280F 
 319 00ed 5F08EB38 		.ascii	"_\010\3538&\346\011(\317\032z$\003\227\340\273\014\214"
 319      26E60928 
 319      CF1A7A24 
 319      0397E0BB 
 319      0C8C
 320 00ff 07A144A1 		.ascii	"\007\241D\241\314\205\362;\303\3466(\213\240,\201\""
 320      CC85F23B 
 320      C3E63628 
 320      8BA02C81 
 320      22
 321 0110 83DCCFE1 		.ascii	"\203\334\317\341\374\013(\217r\034\356\030\200\203\251"
 321      FC0B288F 
 321      721CEE18 
 321      8083A9
 322 011f 97E522E2 		.ascii	"\227\345\"\342p\207\200\303,\216\003\031\363K8wp\372"
 322      708780C3 
 322      2C8E0319 
 322      F34B3877 
 322      70FA
 323 0131 C9BC0D1F 		.ascii	"\311\274\015\037D?\353_\314\350-\023\350\235-\320\353"
 323      443FEB5F 
 323      CCE82D13 
 323      E89D2DD0 
 323      EB
 324 0142 867327A7 		.ascii	"\206s'\247\267\334\260\273\207\321;\005\353<L\375k\240"
 324      B7DCB0BB 
 324      87D13B05 
 324      EB3C4CFD 
 324      6BA0
 325 0154 FC0A8B75 		.ascii	"\374\012\213u\227\013t\327\011tO\205s\027\247\273\372"
 325      970B74D7 
 325      09744F85 
 325      7317A7BB 
 325      FA
 326 0165 FFB0B95A 		.ascii	"\377\260\271Z\240\267^\240w:\234\327sz\311s\2217\210"
 326      A0B75EA0 
 326      773A9CD7 
 326      737AC973 
 326      913788
 327 0178 5E64E8F1 		.ascii	"^d\350\361\010\3644\010\364\324\302y\003\247gf\026z"
 327      08F43408 
 327      F4D4C279 
 327      03A76766 
 327      167A
ARM GAS  /tmp/ccNna55q.s 			page 25


 328 018a 660AF434 		.ascii	"f\012\3644\012\364\334C\346\201\3233\026ui\335\211D"
 328      0AF4DC43 
 328      E681D333 
 328      167569DD 
 328      8944
 329 019c 7B572FD6 		.ascii	"{W/\326Vh\337&\2232\032\205Vjpt/\3224\034U\361\235#"
 329      5668DF26 
 329      93321A85 
 329      566A7074 
 329      2FD2341C 
 330 01b4 61A08A8B 		.ascii	"a\240\212\213\\\250\2306\012]\364\201EH\305\353\360"
 330      5CA89836 
 330      0A5DF481 
 330      4548C5EB 
 330      F0
 331 01c5 28A33543 		.ascii	"(\2435C\326\341$4\016\243\033\321f\030\277L\323\326"
 331      D6E12434 
 331      0EA31BD1 
 331      6618BF4C 
 331      D3D6
 332 01d7 8D42A2E3 		.ascii	"\215B\242\343\307h\003Q\240m\322d\012O\000\326\342\261"
 332      C7680351 
 332      A06DD264 
 332      0A4F00D6 
 332      E2B1
 333 01e9 AC888AD7 		.ascii	"\254\210\212\327c)\223g\254so\341\262\326D29\3269\311"
 333      63299367 
 333      AC736FE1 
 333      B2D64432 
 333      39D639C9 
 334 01fd 670D9232 		.ascii	"g\015\2222\365\001\004\354#\232\266\200\014\254\330"
 334      F50104EC 
 334      239AB680 
 334      0CACD8
 335 020c 5F74355A 		.ascii	"_t5ZNP\212\367\027!s|\014\233\000c@\372z\364\014X\222"
 335      4E508AF7 
 335      1721737C 
 335      0C9B0063 
 335      40FA7AF4 
 336 0223 38D47744 		.ascii	"8\324wD\326\264|\025?\207\257\006\230\032\014\270\317"
 336      D6B47C15 
 336      3F87AF06 
 336      981A0CB8 
 336      CF
 337 0234 E01B0D6E 		.ascii	"\340\033\015n\203\242\250x\013X\243\342\2550Z\037Hq"
 337      83A2A878 
 337      0B58A3E2 
 337      AD305A1F 
 337      4871
 338 0246 B5C4A5BD 		.ascii	"\265\304\245\275_\264\343V0A\277\207,\260\226c\034\352"
 338      5FB4E356 
 338      3041BF87 
 338      2CB09663 
 338      1CEA
 339 0258 06DAB137 		.ascii	"\006\332\2617\216u\215\326\0221\234\207\026\021+\022"
 339      8E758DD6 
 339      12319C87 
ARM GAS  /tmp/ccNna55q.s 			page 26


 339      16112B12 
 340 0268 ED0BC674 		.ascii	"\355\013\306t\246\265\346\233J1C}\327\367\265\034\025"
 340      A6B5E69B 
 340      4A31437D 
 340      D7F7B51C 
 340      15
 341 0279 F7C01009 		.ascii	"\367\300\020\011\255\300V\346\016`\010\247\027a0\313"
 341      ADC056E6 
 341      0E6008A7 
 341      176130CB 
 342 0289 3B76647E 		.ascii	";vd~\261\336;\000c\352o\011\022\200\356\212\034W\272"
 342      B1DE3B00 
 342      63EA6F09 
 342      1280EE8A 
 342      1C57BA
 343 029c 6F53BA0F 		.ascii	"oS\272\0173\242\333\323\335\022\323\2753\335-3\335\373"
 343      33A2DBD3 
 343      DD12D3BD 
 343      33DD2D33 
 343      DDFB
 344 02ae D2DD3986 		.ascii	"\322\3359\206Jr\211]\351F\322\032\354\254!*~\011_\017"
 344      4A72895D 
 344      E946D21A 
 344      ECAC212A 
 344      7E095F0F 
 345 02c2 F5CB5816 		.ascii	"\365\313X\026\016\223\320a\352+2-\"\267\030\315\264"
 345      0E93D061 
 345      EA2B322D 
 345      22B718CD 
 345      B4
 346 02d3 DE22F3C2 		.ascii	"\336\"\363\302\230*\230\333\363'qG\233\266\377fQ\310"
 346      982A98DB 
 346      F3277147 
 346      9BB6FF66 
 346      51C8
 347 02e5 810866E2 		.ascii	"\201\010f\342%\221\212\227kSS\027[s\014\027\013b\313"
 347      25918A97 
 347      6B535317 
 347      5B730C17 
 347      0B62CB
 348 02f8 2AABE2BF 		.ascii	"*\253\342\277\201!\203\212\021\301=\\\370\305\236\210"
 348      8121838A 
 348      11C13D5C 
 348      F8C59E88 
 349 0308 1792D8D8 		.ascii	"\027\222\330\330\343(\364\236\216g\031z\261W\217`\010"
 349      E328F49E 
 349      8E67197A 
 349      B1578F60 
 349      08
 350 0319 93FD34F2 		.ascii	"\223\3754\362\336\033Z\344\365\362\221\267\275\343\012"
 350      DE1B5AE4 
 350      F5F291B7 
 350      BDE30A
 351 0328 42B9D751 		.ascii	"B\271\327Q\354}(\210\275\213\\\3549\011\233^&l\376A"
 351      EC7D2888 
 351      BD8B5CEC 
 351      39099B5E 
ARM GAS  /tmp/ccNna55q.s 			page 27


 351      266CFE41 
 352 033c C3E66DDB 		.ascii	"\303\346m\333\260Y*a\303\325C\012\233\330\316x\327\367"
 352      B0592A61 
 352      C3D5430A 
 352      9BD8CE78 
 352      D7F7
 353 034e B4EE3701 		.ascii	"\264\3567\001\357\341t\320\244d-\331\315p\363\241\216"
 353      EFE174D0 
 353      A4642DD9 
 353      CD70F3A1 
 353      8E
 354 035f 91C42547 		.ascii	"\221\304%G0ylVHV?;\206I|\263\342h\037^@sQ\234B]\342"
 354      30796C56 
 354      48563F3B 
 354      86497CB3 
 354      E2681F5E 
 355 037a A0549C97 		.ascii	"\240T\234\227\"\233\2726\005\010^\236+\335 k\317+P\266"
 355      229BBA36 
 355      05085E9E 
 355      2BDD206B 
 355      CF2B50B6 
 356 038e E2125A28 		.ascii	"\342\022Z(s\356\263P\025\271\257\230u\037<uG\337\025"
 356      73EEB350 
 356      15B9AF98 
 356      751F3C75 
 356      47DF15
 357 03a1 3C75FA6B 		.ascii	"<u\372k`\000\353\017m}\364\006\232\341\217\343\002\240"
 357      6000EB0F 
 357      6D7DF406 
 357      9AE18FE3 
 357      02A0
 358 03b3 F1986CB5 		.ascii	"\361\230l\265\335!\030\261\362\004\000\210\0033\343"
 358      DD2118B1 
 358      F2040088 
 358      0333E3
 359 03c2 9E84563B 		.ascii	"\236\204V;17\3376Z\300\334\270a\256\311|C\326\210\026"
 359      3137DF36 
 359      5AC0DCB8 
 359      61AEC97C 
 359      43D68816 
 360 03d6 07C6CEC6 		.ascii	"\007\306\316\306\013\227\251&\3306'`W\332\007\363\345"
 360      0B97A926 
 360      D8362760 
 360      57DA07F3 
 360      E5
 361 03e7 7841CF6C 		.ascii	"xA\317l\347\011\243\217&\214\2234a\354\224\207\2240"
 361      E709A38F 
 361      268C9334 
 361      61EC9487 
 361      9430
 362 03f9 4EF109E3 		.ascii	"N\361\011\343\270\2360N9J\030\373\345\314\204\021\227"
 362      B89E304E 
 362      394A18FB 
 362      E5CC8411 
 362      97
 363 040a B34F18A7 		.ascii	"\263O\030\247\230\204\361)M\030\237\331&\214\217y\037"
 363      9884F129 
ARM GAS  /tmp/ccNna55q.s 			page 28


 363      4D189FD9 
 363      268C8F79 
 363      1F
 364 041b 8B1286C5 		.ascii	"\213\022\206\305\307\326\011{\352\230\2360\314\307\366"
 364      C7D6097B 
 364      EA989E30 
 364      CCC7F6
 365 042a B493391B 		.ascii	"\264\2239\033#\2303\206\277\316|/e\276\017\217\203\372"
 365      23983386 
 365      BFCE7C2F 
 365      65BE0F8F 
 365      83FA
 366 043c 30ADDFA7 		.ascii	"0\255\337\247u\202\326\037\322\372cZ\177\011u\352\220"
 366      7582D61F 
 366      D2FA635A 
 366      7F0975EA 
 366      90
 367 044d 509FCC67 		.ascii	"P\237\314g\016\375\025\303hH\277\213\320Pt\330=|\273"
 367      0EFD15C3 
 367      6848BF8B 
 367      D05074D8 
 367      3D7CBB
 368 0460 71419AC6 		.ascii	"qA\232\306%\231{\203g\227Kb\027\216\321GAw\353\202\034"
 368      25997B83 
 368      67974B62 
 368      178ED147 
 368      4177EB82 
 369 0475 0760F64F 		.ascii	"\007`\366Oj,\371\304\323t\232\006[\177j\303L\260\331"
 369      6A2CF9C4 
 369      D3749A06 
 369      5B7F6AC3 
 369      4CB0D9
 370 0488 28959DB6 		.ascii	"(\225\235\266\177x&\330FS\363\327t\001\2723g\320\025"
 370      7F7826D8 
 370      4653F3D7 
 370      7401BA33 
 370      67D015
 371 049b A81587F8 		.ascii	"\250\025\207\370\246\237\177\375w\034\247\257\377\376"
 371      A69F7FFD 
 371      771CA7AF 
 371      FFFE
 372 04a9 C15FFF0B 		.ascii	"\301_\377\013\333b+\217\257N\277\227\332\006|\241\250"
 372      DB622B8F 
 372      AF4EBF97 
 372      DA067CA1 
 372      A8
 373 04ba F8188D1C 		.ascii	"\370\030\215\034'\371~\037\265\244?\2139\262\322z\374"
 373      27F97E1F 
 373      B5A43F8B 
 373      39B2D27A 
 373      FC
 374 04cb 389DA3EF 		.ascii	"8\235\243\357\350\034\365f\015Vl\001\353d\301\336q\002"
 374      E81CF566 
 374      0D566C01 
 374      EB64C1DE 
 374      7102
 375 04dd 6637E100 		.ascii	"f7\341\000\266\212\005;\2325\230\225\331j\026\354\237"
ARM GAS  /tmp/ccNna55q.s 			page 29


 375      B68A053B 
 375      9A359895 
 375      D96A16EC 
 375      9F
 376 04ee 4EC0ECB2 		.ascii	"N\300\354\2622\200u\261`\037d\015fe\326\303\202%\234"
 376      328075B1 
 376      601F640D 
 376      6665D6C3 
 376      82259C
 377 0501 8089728F 		.ascii	"\200\211r\217\001\366\002\013\366I\326`Vf/\261`\247"
 377      01F6020B 
 377      F649D660 
 377      56662FB1 
 377      60A7
 378 0513 9D8015DB 		.ascii	"\235\200\025\3333{\205\005\353\313\032\314\312l\007"
 378      337B8505 
 378      EBCB1ACC 
 378      CA6C07
 379 0522 0B76DE09 		.ascii	"\013v\336\011\330\015\366\314\376\312\202}\2235\230"
 379      D80DF6CC 
 379      FECA827D 
 379      933598
 380 0531 95D96B2C 		.ascii	"\225\331k,\330wN\300n\266c\326\032{\3757\313\324\253"
 380      D8774EC0 
 380      6EB663D6 
 380      1A7BFD37 
 380      CBD4AB
 381 0544 D0322333 		.ascii	"\3202#3\351\250fv\302\326\320b\305\342\366b*~R\272\212"
 381      E9A86676 
 381      C2D6D062 
 381      C5E2F662 
 381      2A7E52BA 
 382 0559 B6681AD2 		.ascii	"\266h\032\322R\013\262B\227\220#\031\261Jr\245(\026"
 382      520BB242 
 382      97902319 
 382      B14A72A5 
 382      2816
 383 056b BAD20D19 		.ascii	"\272\322\015\031\245\217\264\024\230\335\232\313\231"
 383      A58FB414 
 383      98DD9ACB 
 383      99
 384 0578 6D6521B2 		.ascii	"me!\262\333\352\304\203\254\023\333y4\221\023\357\262"
 384      DBEAC483 
 384      AC13DB79 
 384      349113EF 
 384      B2
 385 0589 073BCC82 		.ascii	"\007;\314\202=\342\004\254\302>V\216\262`\217e\015f"
 385      3DE204AC 
 385      C23E568E 
 385      B2608F65 
 385      0D66
 386 059b 651667C1 		.ascii	"e\026g\301:\234\200M\267g\366\036\013\366x\326`,\263"
 386      3A9C804D 
 386      B767F61E 
 386      0BF678D6 
 386      602CB3
 387 05ae D6D8FBE9 		.ascii	"\326\330\373\351\300\353\276\213\213\274\273\254\331"
ARM GAS  /tmp/ccNna55q.s 			page 30


 387      C0EBBE8B 
 387      8BBCBBAC 
 387      D9
 388 05bb D62216B7 		.ascii	"\326\"\026\267\025S\361\246\254\003o\263M\340\261\213"
 388      1553F1A6 
 388      AC036FB3 
 388      4DE0B18B 
 389 05cb C5B414F9 		.ascii	"\305\264\024\371\030\340\315\266\2200\232\367\010|("
 389      18E0CDB6 
 389      90309AF7 
 389      087C28
 390 05da 3AD8F7BD 		.ascii	":\330\367\275\212/\321\027\362\267t!\225\244u\253D\352"
 390      8A2FD117 
 390      F2B77421 
 390      95A475AB 
 390      44EA
 391 05ec 365AB7D3 		.ascii	"6Z\267\323z1\255\227\320\372\217\264^J\353?\321z9\255"
 391      7A31AD97 
 391      D0FA8FB4 
 391      5E4AEB3F 
 391      D17A39AD 
 392 0600 3B68BD92 		.ascii	";h\275\222\326O\320z5\255\273h\335M\353u\264~\206\326"
 392      D64FD07A 
 392      35ADBB68 
 392      DD4DEB75 
 392      B47E86D6 
 393 0614 1B25078B 		.ascii	"\033%\007\213\266\013\354\242mmn\266\353,f\356\351\027"
 393      B60BECA2 
 393      6D6D6EB6 
 393      EB2C66EE 
 393      E917
 394 0626 D19E4F84 		.ascii	"\321\236O\204\037\200L\014d0\330*1\01468a0\300GO\327"
 394      1F804C0C 
 394      6430D82A 
 394      310C3638 
 394      6130C047 
 395 063c FB349409 		.ascii	"\3734\224\011\246\204\376\2345X\361@s\272\225\231\323"
 395      A684FE9C 
 395      3558F140 
 395      73BA9599 
 395      D3
 396 064d E7E99C6E 		.ascii	"\347\351\234n\243\263\031\243\365W\264>O\353-\324\377"
 396      A3B319A3 
 396      F557B43E 
 396      4FEB2DD4 
 396      FF
 397 065e DB9CF87F 		.ascii	"\333\234\370\177s\332\377\351\235\\\352\212\355\271"
 397      73DAFFE9 
 397      9D5CEA8A 
 397      EDB9
 398 066c D675E68F 		.ascii	"\326u\346\217\320zM[\221h\377\350\242\374\244\026\313"
 398      D07A4D5B 
 398      9168FFE8 
 398      A2FCA416 
 398      CB
 399 067d D1874AE8 		.ascii	"\321\207J\350\015*\266\021\217\265Y\016\032\012\214"
 399      0D2AB611 
ARM GAS  /tmp/ccNna55q.s 			page 31


 399      8FB5590E 
 399      1A0A8C
 400 068c 7DDFA55A 		.ascii	"}\337\245Z\373\2258\265\361\273\221\337\370\335.\211"
 400      FB9538B5 
 400      F1BB91DF 
 400      F8DD2E89 
 401 069c 367E8F66 		.ascii	"6~\217f\277\361\373\212d\331\370\325i\244.\214/\005"
 401      BFF1FB8A 
 401      64D9F8D5 
 401      69A42E8C 
 401      2F05
 402 06ae CEE0BF0B 		.ascii	"\316\340\277\013\015\326\316\327W\350\303U\374\242D"
 402      0DD6CED7 
 402      57E8C355 
 402      FCA244
 403 06bd 76725F96 		.ascii	"vr_\226\006\264\325\030v\304W\241+R\361Y<\360\260\335"
 403      06B4D518 
 403      76C457A1 
 403      2B52F159 
 403      3CF0B0DD 
 404 06d1 03B8888C 		.ascii	"\003\270\210\214\262\270\350/B\027\255\336g\270H\337"
 404      B2B8E82F 
 404      4217ADDE 
 404      67B848DF 
 405 06e1 9F90D0DB 		.ascii	"\237\220\320\333bc\276\342\215\3315\26016\254v\361\254"
 405      6263BEE2 
 405      8DD935B0 
 405      3136AC76 
 405      F1AC
 406 06f3 5E17B2EA 		.ascii	"^\027\262\352\347Y\275+f\325\341\343X\355\036\022\253"
 406      E759BD2B 
 406      66D5E1E3 
 406      58ED1E12 
 406      AB
 407 0704 DD3CAB37 		.ascii	"\335<\2537\205\254N\274%\012\247|\264X\337c\320Z\361"
 407      85AC4EBC 
 407      250AA77C 
 407      B458DF63 
 407      D05AF1
 408 0717 8303EC54 		.ascii	"\203\003\354T\220\3376$\370j\225\362\301\236\223\271"
 408      90DF3624 
 408      F86A95F2 
 408      C19E93B9 
 409 0727 DC4F2A69 		.ascii	"\334O*i\335D\200\034d\274\3366[\330\376i\334+\012[."
 409      DD44801C 
 409      64BCDE36 
 409      5BD8FE69 
 409      DC2B0A5B 
 410 073c 4C3F17FB 		.ascii	"L?\027\373p9\357\303=\216|\270@\373\242\235\372P\347"
 410      7039EFC3 
 410      3D8E7CB8 
 410      40FBA29D 
 410      FA50E7
 411 074f 6819C66D 		.ascii	"h\031\306m\260\320\333\275B\227\276\336\313Mt\277C\222"
 411      B0D0DBBD 
 411      4297BEDE 
 411      CB4D74BF 
ARM GAS  /tmp/ccNna55q.s 			page 32


 411      4392
 412 0761 078634D1 		.ascii	"\007\2064\321\007\370\211~G\310\252\363\000\307j\311"
 412      07F8897E 
 412      47C8AAF3 
 412      00C76AC9 
 413 0771 3021ABED 		.ascii	"0!\253\355<\253\303Cbu\230guD\310\352\014\317\252[\314"
 413      3CABC343 
 413      62759867 
 413      7544C8EA 
 413      0CCFAA5B 
 414 0786 EA459E55 		.ascii	"\352E\236U|H\254\342<\253c\231\254\022\313\022\227\026"
 414      7C48ACE2 
 414      3CAB6399 
 414      AC12CB12 
 414      9716
 415 0798 1D5B8C97 		.ascii	"\035[\214\227\267u\357\327\316\220\257s\375\367=\011"
 415      B775EFD7 
 415      CE90AF73 
 415      FDF73D09 
 416 07a8 EDE0B899 		.ascii	"\355\340\270\231 \307E \261\023'\036\325\260\325\270"
 416      20C74520 
 416      B113271E 
 416      D5B0D5B8 
 417 07b8 3D3600FF 		.ascii	"=6\000\377\022\002\234\311\0048b\003\360o!\300\331L"
 417      12029CC9 
 417      04386203 
 417      F06F21C0 
 417      D94C
 418 07ca 80840DC0 		.ascii	"\200\204\015\300\177\204"
 418      7F84
 419 07d0 00E75800 		.ascii	"\000\347X\000\3628J\350\202\015\300GB\200\013\231\014"
 419      F2384AE8 
 419      820DC047 
 419      42800B99 
 419      0C
 420 07e1 FE982706 		.ascii	"\376\230'\0068)\004\270\230\011\320m\003\360_!@\177"
 420      382904B8 
 420      9809D06D 
 420      03F05F21 
 420      407F
 421 07f3 26C02E1B 		.ascii	"&\300.\033\200O\255\000\334\252i\335\000;\335\237I\226"
 421      804FAD00 
 421      DCAA69DD 
 421      003BDD9F 
 421      4996
 422 0805 DDECD452 		.ascii	"\335\354\324R\272\263\310\370\325!\261A\0333f\360<z"
 422      BAB3C8F8 
 422      D521B141 
 422      1B3366F0 
 422      3C7A
 423 0817 5A228BFE 		.ascii	"Z\"\213\376\343y\266y\3644\263\222\326\333f+\231N\244"
 423      E379B679 
 423      F434B392 
 423      D6DB662B 
 423      994EA4
 424 082a 579AF092 		.ascii	"W\232\360\2221\352sc\305\316\254\261\315\317\314\316"
 424      31EA7363 
ARM GAS  /tmp/ccNna55q.s 			page 33


 424      C5CEACB1 
 424      CDCFCCCE 
 425 083a 227DB831 		.ascii	"\"}\2701\364vsh\2361\340\313\254\027\373gl\026\373\303"
 425      F4767368 
 425      9E31E0CB 
 425      AC17FB67 
 425      6C16FBC3 
 426 084e 9879899D 		.ascii	"\230y\211\235I,O\276\367\373-/h\332\022\355r\362\241"
 426      492C4FBE 
 426      F7FB2D2F 
 426      68DA12ED 
 426      72F2A1
 427 0861 D685D87C 		.ascii	"\326\205\330|\306\264|~rD?\222\367\361\317\361\331\314"
 427      C6B47C7E 
 427      72443F92 
 427      F7F1CFF1 
 427      D9CC
 428 0873 C907253B 		.ascii	"\311\007%;\326\365\315\202\345\331B-\231|h\234\251a"
 428      D6F5CD82 
 428      E5D9422D 
 428      997C689C 
 428      A961
 429 0885 8B230DE7 		.ascii	"\213#\015\347x\015\347\205\032>X\177h\025d\012M\317"
 429      780DE785 
 429      1A3E587F 
 429      6815640A 
 429      4DCF
 430 0897 14DDF9A6 		.ascii	"\024\335\371\246\222\217\035)\371\232WrQ\250d\327\263"
 430      928F1D29 
 430      F99A5772 
 430      51A864D7 
 430      B3
 431 08a8 7D15DFA4 		.ascii	"}\025\337\244}5\316\371\312\357\022\377\012%\037v\334"
 431      7D35CEF9 
 431      CAEF12FF 
 431      0A251F76 
 431      DC
 432 08b9 2BB4DBC5 		.ascii	"+\264\333\305R5\366\372\237w\0311h\344\337C\260\352"
 432      5235F6FA 
 432      9F771931 
 432      68E4DF43 
 432      B0EA
 433 08cb C4E60EF0 		.ascii	"\304\346\016\360ktD\277m\006\216\323\275}\323\342\257"
 433      6B7444BF 
 433      6D068ED3 
 433      BD7DD3E2 
 433      AF
 434 08dc 5AA78F49 		.ascii	"Z\247\217IY\334\317[\374\235\320\342\345\3113\177\020"
 434      59DCCF5B 
 434      FC9DD0E2 
 434      E5C9337F 
 434      10
 435 08ed 45C79B2E 		.ascii	"E\307\233.'nm\2239%\013eqt\034j\314\210\216\203\216"
 435      276E6D93 
 435      39250B65 
 435      71741C6A 
 435      CC888E83 
ARM GAS  /tmp/ccNna55q.s 			page 34


 436 0902 342CE235 		.ascii	"4,\3425,\026j\200\350X#\212\216\017\034)Y\302+y\304"
 436      2C166A80 
 436      E858238A 
 436      8E0F1C29 
 436      59C22B79 
 437 0917 AAE43AB4 		.ascii	"\252\344:\264V;x0\321\376y'~8\001\031\344r2\211\323"
 437      563B7830 
 437      D1FE7927 
 437      7E380119 
 437      E4723289 
 438 092c CF752AF3 		.ascii	"\317u*\363\304l\177&R\361\027\322\365N\263J\2059R\227"
 438      C46C7F26 
 438      52F117D2 
 438      F54EB34A 
 438      85395297 
 439 0940 B549209C 		.ascii	"\265I \234\024|3\313\331&\220e\2628\201\344[|aJ\201"
 439      147C33CB 
 439      D9269065 
 439      B23881E4 
 439      5B7C614A 
 440 0955 374F516F 		.ascii	"7OQo2_\024\034\011\011\365\271\314_\305\206c\323o\261"
 440      325F141C 
 440      0909F5B9 
 440      CC5FC586 
 440      63D36FB1 
 441 0969 9E7D5A7E 		.ascii	"\236}Z~\217\3660\231}&a\253\3701y\320-\022\316\350\214"
 441      8FF63099 
 441      7D2661AB 
 441      F83179D0 
 441      2D12CEE8 
 442 097e 2D929559 		.ascii	"-\222\225Y\033\375\270\215\321y\026\243M)h.\227\271"
 442      1BFDB88D 
 442      D17916A3 
 442      4D29682E 
 442      97B9
 443 0990 0F168E84 		.ascii	"\017\026\216\204\204\222\"\243/g\030]\314\331l\267!"
 443      849222A3 
 443      2F67185D 
 443      CCD96CB7 
 443      21
 444 09a1 C9D99CB9 		.ascii	"\311\331\234\271!\271*k\243\237\2621\232\375\271<-\225"
 444      21B92A6B 
 444      A39FB231 
 444      9AFDB93C 
 444      2D95
 445 09b3 329AF91E 		.ascii	"2\232\371\036\342YHh\351p\326j\356\035N\2260vd\326\310"
 445      E2594868 
 445      E970D66A 
 445      EE1D4E96 
 445      307664D6 
 446 09c8 A96F7FC3 		.ascii	"\251o\177\303W\347\336\032\314W\363\254\214m\\\305I"
 446      57E7DE1A 
 446      CC57F3AC 
 446      8C6D5CC5 
 446      49
 447 09d9 A9B83B6B 		.ascii	"\251\270;kO\255\265\361T\221\305SkyO1\237/\034\011\011"
 447      4FADB5F1 
ARM GAS  /tmp/ccNna55q.s 			page 35


 447      5491C553 
 447      6B794F31 
 447      9F2F1C09 
 448 09ee 3D355C10 		.ascii	"=5\\\020\036\207{S&\253\370i\240i\"\035\030\000i\263"
 448      1E877B53 
 448      26ABF869 
 448      A069221D 
 448      180069B3 
 449 0a02 0869F581 		.ascii	"\010i\365\201\301\234\267#5w\243\007\362\036/\006\253"
 449      C19CB723 
 449      3577A307 
 449      F21E2F06 
 449      AB
 450 0a13 B8ACDDB7 		.ascii	"\270\254\335\267\311\306}\354\177\345\245\245RF3_><"
 450      C9C67DEC 
 450      7FE5A5A5 
 450      5246335F 
 450      3E3C
 451 0a25 0B09BD2A 		.ascii	"\013\011\275*\262\372\334\240V[\377\037\316\326j^L\305"
 451      B2FADCA0 
 451      565BFF1F 
 451      CED66A5E 
 451      4CC5
 452 0a37 5BB2B67A 		.ascii	"[\262\266z\253\215\325\243-Vo\345\255f\276\254x\026"
 452      AB8DD5A3 
 452      2D566FE5 
 452      AD66BEAC 
 452      7816
 453 0a49 F00563B1 		.ascii	"\360\005c\261\032\375p\374\370\022\375/\024)iT\003%"
 453      1AFD70FC 
 453      F812FD2F 
 453      14296954 
 453      0325
 454 0a5b 91B0979C 		.ascii	"\221\260\227\234\025\277\267e\274\027\345\301\2512\350"
 454      15BFB765 
 454      BC17E5C1 
 454      A932E8
 455 0a6a 8F0E9B52 		.ascii	"\217\016\233R=\243\330\215\256\343\245\375Ao\240\245"
 455      3DA3D88D 
 455      AEE3A5FD 
 455      416FA0A5 
 456 0a7a DE971AD1 		.ascii	"\336\227\032\321\210\\\225\356\031\223\303\3769\276"
 456      885C95EE 
 456      1993C3FE 
 456      39BE
 457 0a88 F02DBC70 		.ascii	"\360-\274ps(\034\215\224\324\324VM,-\231:urIme\325\234"
 457      73281C8D 
 457      94D4D456 
 457      4D2C2D99 
 457      3A757249 
 458 0aa0 09E65025 		.ascii	"\011\346P%\020\250\207\341\303\241\031\211\252Q\237"
 458      10A887E1 
 458      C3A11989 
 458      AA519F
 459 0aaf 121D0E48 		.ascii	"\022\035\016H\312\214\352\312\352\312\332|\322\254\251"
 459      CA8CEACA 
 459      EACADA7C 
ARM GAS  /tmp/ccNna55q.s 			page 36


 459      D2ACA9
 460 0abe 9D369DA0 		.ascii	"\2356\235\240+\236\362\262\311\277. \255\273\313*k+"
 460      2B9EF2B2 
 460      C9BF2E20 
 460      ADBBCB2A 
 460      6B2B
 461 0ad0 ABA750C9 		.ascii	"\253\247P\3112wm\345\314\362\\:\330\005(M\241z\000\031"
 461      32776DE5 
 461      CCF25C3A 
 461      D805284D 
 461      A17A0019 
 462 0ae4 496E5556 		.ascii	"InUVO\237Qk\010(\025\225S*\256\311\350\235:\355\356"
 462      4F9F516B 
 462      08281595 
 462      532AAEC9 
 462      E89D3AED 
 463 0af9 1C32828C 		.ascii	"\0342\202\214l\010\373\036T\242\263J\032CM\276\0225"
 463      6C08FB1E 
 463      54A2B34A 
 463      1A434DBE 
 463      1235
 464 0b0b E09B5752 		.ascii	"\340\233WR\345\013FC\341)a\265\271\321\357\005\023B"
 464      E50B4643 
 464      E12961B5 
 464      B9D1EF05 
 464      1342
 465 0b1d 2D61AF2F 		.ascii	"-a\257/<_q\303\210I\276\240\267Q\231\352\007\312\015"
 465      3C5F71C3 
 465      8849BEA0 
 465      B75199EA 
 465      07CA0D
 466 0b30 A1B052E6 		.ascii	"\241\260R\346\251R\312\313&U\226\250\341\246\233\202"
 466      A952CACB 
 466      265596A8 
 466      E1A69B82 
 467 0b40 A1A0EF26 		.ascii	"\241\240\357&\237Z\347O9*\022\255\367\007\243`h~\013"
 467      9F5AE74F 
 467      392A12AD 
 467      F707A360 
 467      687E0B
 468 0b53 9C27962A 		.ascii	"\234'\226*Q\027Q\327\002 \363G\200n\257\032\010\324"
 468      511751D7 
 468      0220F347 
 468      806EAF1A 
 468      08D4
 469 0b65 A9DE0794 		.ascii	"\251\336\007\224h\376\\\177}\264Q\361\326\271\232}a"
 469      68FE5C7F 
 469      7DB451F1 
 469      D6B99A7D 
 469      61
 470 0b76 7FA81E5A 		.ascii	"\177\250\036Z\005!pkC 4\027\332\205D\270Q\015\006}\001"
 470      0521706B 
 470      43203417 
 470      DA8544B8 
 470      510D067D 
 471 0b8b 253A82D8 		.ascii	"%:\202\330\343\256(\253\256.\237\252L\260\\\225\346"
 471      E3AE28AB 
ARM GAS  /tmp/ccNna55q.s 			page 37


 471      AE2E9FAA 
 471      4CB05C95 
 471      E6
 472 0b9c 195239F5 		.ascii	"\031R9\365~_\230\370\317\035\0126\370\357\033\346\245"
 472      7E5F98F8 
 472      CF1D0A36 
 472      F8EF1BE6 
 472      A5
 473 0bad A75C6F20 		.ascii	"\247\\o \344}\240\324\331TE\242M\204\261\277\011\370"
 473      E47DA0D4 
 473      D95445A2 
 473      4D84B1BF 
 473      09F8
 474 0bbf 17A42E94 		.ascii	"\027\244.\224\250\354\366L\200R\232SS\345\366\344L\256"
 474      A8ECF64C 
 474      80529A53 
 474      53E5F6E4 
 474      4CAE
 475 0bd1 2CF74835 		.ascii	",\367H5\036\271|\212'\327\355\256\362L\240ui\216\333"
 475      1EB97C8A 
 475      27D7EDAE 
 475      F24CA075 
 475      698EDB
 476 0be4 5DEE91DD 		.ascii	"]\356\221\335\325\265\362\364\032\267\\\346\361\310"
 476      D5B5F2F4 
 476      1AB75CE6 
 476      F1C8
 477 0bf2 1E375CC3 		.ascii	"\0367\\\303\200I\223k=\362d2\262\252\314#M\323GM\004"
 477      8049936B 
 477      3DF26432 
 477      B2AACC23 
 477      4DD3474D 
 478 0c07 F97B3C32 		.ascii	"\371{<2\340\347\316\365z\303\315\271\315\244&.\232V"
 478      E0E7CEF5 
 478      7AC3CDB9 
 478      CDA4262E 
 478      9A56
 479 0c19 77BFCF1B 		.ascii	"w\277\317\033%Q\231\003W\315\371P\325D\325p4\2176B\315"
 479      25519903 
 479      57CDF950 
 479      D544D570 
 479      348F3642 
 480 0c2e 57981D6E 		.ascii	"W\230\035n\2659\332\022\366\345*\223B\241@\021\364\336"
 480      B539DA12 
 480      F6E52A93 
 480      42A14011 
 480      F4DE
 481 0c40 ADFACDCE 		.ascii	"\255\372\315\316\"C\330\270\034\005\227\345A\265.\340"
 481      2243D8B8 
 481      1C0597E5 
 481      41B52EE0 
 482 0c50 AB0E45FD 		.ascii	"\253\016E\375\015~\257\032\365\207\202\221\321\320="
 482      0D7EAF1A 
 482      F5878291 
 482      D1D03D
 483 0c5f D91FC9E8 		.ascii	"\331\037\311\350/4\002V\361\003\213\021\346E\204(-L"
 483      2F340256 
ARM GAS  /tmp/ccNna55q.s 			page 38


 483      F1038B11 
 483      E6458428 
 483      2D4C
 484 0c71 5F859A47 		.ascii	"_\205\232GZn)^]\3315f\357\\\340\223\321I\306\231\235"
 484      5A6E295E 
 484      5DD93566 
 484      EF5CE093 
 484      D149C699 
 485 0c86 D79A9D3E 		.ascii	"\327\232\235>\312M\011\262$~`\336\254\327\031Z\357\346"
 485      CA4D09B2 
 485      247E60DE 
 485      ACD7195A 
 485      EFE6
 486 0c98 C0B487C7 		.ascii	"\300\264\207\307\362\363\032\212@\025\216\3223\231D"
 486      F2F31A8A 
 486      40158ED2 
 486      339944
 487 0ca7 72AE991F 		.ascii	"r\256\231\037\231\0121`\221\005\0213b\275\215\221\371"
 487      990A3160 
 487      91051133 
 487      62BD8D91 
 487      F9
 488 0cb8 11F2607B 		.ascii	"\021\362`{\033\015\311\233XIo\250\251)\0244\002\006"
 488      1B0DC99B 
 488      58496FA8 
 488      A9291434 
 488      0206
 489 0cca 82DF5D35 		.ascii	"\202\337]5\017\206xCa\2372\347\247$P\\\344\226B\242"
 489      0F867843 
 489      619F32E7 
 489      A724505C 
 489      E49642A2 
 490 0cde 6C82609C 		.ascii	"l\202`\234o^\264\304]USY\223\326\327\024\361G\224\373"
 490      6F5EB4C4 
 490      5D555359 
 490      93D6D714 
 490      F14794FB 
 491 0cf2 BC5E183B 		.ascii	"\274^\030;BQ\"\276\2502\251\254\246|\272\247r\204\032"
 491      425122BE 
 491      A832A9AC 
 491      A67CBAA7 
 491      72841A
 492 0d05 98ABCE8F 		.ascii	"\230\253\316\217\200\323\003\376\240/w\216\032h\361"
 492      80D303FE 
 492      A02F778E 
 492      1A68F1
 493 0d14 8D302C98 		.ascii	"\2150,\230\021$\032\012(G\243M\365\266\320v\276\242"
 493      11241A0A 
 493      2847A34D 
 493      F5B6D076 
 493      BEA2
 494 0d26 34B404BD 		.ascii	"4\264\004\275\2122\302l\214\277\355\266\322\333\331"
 494      8A32C26C 
 494      8CBFEDB6 
 494      D2DBD9
 495 0d35 AB89A596 		.ascii	"\253\211\245\226\253\333\330\253[&X\256n\265\\\375\214"
 495      ABDBD8AB 
ARM GAS  /tmp/ccNna55q.s 			page 39


 495      5B2658AE 
 495      6EB55CFD 
 495      8C
 496 0d46 BDBA75E2 		.ascii	"\275\272u\342\377\000_\004\245&"
 496      FF005F04 
 496      A526
 497              		.text
 498              		.section	.gnu.lto_.symtab.cb3e9f9891197473,"",%progbits
 499 0000 69637549 		.ascii	"icuInit\000\000\000\000\000\000\000\000\000\000\000"
 499      6E697400 
 499      00000000 
 499      00000000 
 499      0000
 500 0012 00A10000 		.ascii	"\000\241\000\000\000icuObjectInit\000\000\000\000\000"
 500      00696375 
 500      4F626A65 
 500      6374496E 
 500      69740000 
 501 0029 00000000 		.ascii	"\000\000\000\000\000\000\000\246\000\000\000icuStar"
 501      000000A6 
 501      00000069 
 501      63755374 
 501      6172
 502 003b 74000000 		.ascii	"t\000\000\000\000\000\000\000\000\000\000\000\0005\001"
 502      00000000 
 502      00000000 
 502      003501
 503 004a 00006963 		.ascii	"\000\000icuStop\000\000\000\000\000\000\000\000\000"
 503      7553746F 
 503      70000000 
 503      00000000 
 503      0000
 504 005c 0000003D 		.ascii	"\000\000\000=\001\000\000icuStartCapture\000\000\000"
 504      01000069 
 504      63755374 
 504      61727443 
 504      61707475 
 505 0075 00000000 		.ascii	"\000\000\000\000\000\000\000\000\000A\001\000\000ic"
 505      00000000 
 505      00410100 
 505      006963
 506 0084 75576169 		.ascii	"uWaitCapture\000\000\000\000\000\000\000\000\000\000"
 506      74436170 
 506      74757265 
 506      00000000 
 506      00000000 
 507 009a 00004501 		.ascii	"\000\000E\001\000\000icuStopCapture\000\000\000\000"
 507      00006963 
 507      7553746F 
 507      70436170 
 507      74757265 
 508 00b2 00000000 		.ascii	"\000\000\000\000\000\000\000\000N\001\000\000icuEna"
 508      00000000 
 508      4E010000 
 508      69637545 
 508      6E61
 509 00c4 626C654E 		.ascii	"bleNotifications\000\000\000\000\000\000\000\000\000"
ARM GAS  /tmp/ccNna55q.s 			page 40


 509      6F746966 
 509      69636174 
 509      696F6E73 
 509      00000000 
 510 00dd 00000052 		.ascii	"\000\000\000R\001\000\000icuDisableNotifications\000"
 510      01000069 
 510      63754469 
 510      7361626C 
 510      654E6F74 
 511 00fc 00000000 		.ascii	"\000\000\000\000\000\000\000\000\000\000\000V\001\000"
 511      00000000 
 511      00000056 
 511      0100
 512 010a 00696375 		.ascii	"\000icu_lld_init\000\000\002\000\000\000\000\000\000"
 512      5F6C6C64 
 512      5F696E69 
 512      74000002 
 512      00000000 
 513 0120 0000005A 		.ascii	"\000\000\000Z\001\000\000icu_lld_start\000\000\002\000"
 513      01000069 
 513      63755F6C 
 513      6C645F73 
 513      74617274 
 514 0138 00000000 		.ascii	"\000\000\000\000\000\000\000\000\\\001\000\000icu_l"
 514      00000000 
 514      5C010000 
 514      6963755F 
 514      6C
 515 0149 6C645F73 		.ascii	"ld_stop\000\000\002\000\000\000\000\000\000\000\000"
 515      746F7000 
 515      00020000 
 515      00000000 
 515      0000
 516 015b 005E0100 		.ascii	"\000^\001\000\000icu_lld_start_capture\000\000\002\000"
 516      00696375 
 516      5F6C6C64 
 516      5F737461 
 516      72745F63 
 517 0179 00000000 		.ascii	"\000\000\000\000\000\000\000\000`\001\000\000icu_ll"
 517      00000000 
 517      60010000 
 517      6963755F 
 517      6C6C
 518 018b 645F7761 		.ascii	"d_wait_capture\000\000\002\000\000\000\000\000\000\000"
 518      69745F63 
 518      61707475 
 518      72650000 
 518      02000000 
 519 01a3 00006201 		.ascii	"\000\000b\001\000\000icu_lld_stop_capture\000\000\002"
 519      00006963 
 519      755F6C6C 
 519      645F7374 
 519      6F705F63 
 520 01c0 00000000 		.ascii	"\000\000\000\000\000\000\000\000\000d\001\000\000ic"
 520      00000000 
 520      00640100 
 520      006963
ARM GAS  /tmp/ccNna55q.s 			page 41


 521 01cf 755F6C6C 		.ascii	"u_lld_enable_notifications\000\000\002\000\000\000\000"
 521      645F656E 
 521      61626C65 
 521      5F6E6F74 
 521      69666963 
 522 01f0 00000000 		.ascii	"\000\000\000\000\000f\001\000\000icu_lld_disable_no"
 522      00660100 
 522      00696375 
 522      5F6C6C64 
 522      5F646973 
 523 020b 74696669 		.ascii	"tifications\000\000\002\000\000\000\000\000\000\000"
 523      63617469 
 523      6F6E7300 
 523      00020000 
 523      00000000 
 524 0220 00006801 		.ascii	"\000\000h\001\000\000"
 524      0000
 525              		.text
 526              		.section	.gnu.lto_.opts,"",%progbits
 527 0000 272D6D63 		.ascii	"'-mcpu=cortex-m3' '-mno-thumb-interwork' '-mthumb' "
 527      70753D63 
 527      6F727465 
 527      782D6D33 
 527      2720272D 
 528 0033 272D6767 		.ascii	"'-ggdb' '-O2' '-fomit-frame-pointer' '-falign-funct"
 528      64622720 
 528      272D4F32 
 528      2720272D 
 528      666F6D69 
 529 0066 696F6E73 		.ascii	"ions=16' '-ffunction-sections' '-fdata-sections' '-"
 529      3D313627 
 529      20272D66 
 529      66756E63 
 529      74696F6E 
 530 0099 666E6F2D 		.ascii	"fno-common' '-flto'\000"
 530      636F6D6D 
 530      6F6E2720 
 530      272D666C 
 530      746F2700 
 531              		.text
 532              		.cfi_sections	.debug_frame
 533              		.section	.text.icuInit,"ax",%progbits
 534              		.align	2
 535              		.p2align 4,,15
 536              		.global	icuInit
 537              		.thumb
 538              		.thumb_func
 539              		.type	icuInit, %function
 540              	icuInit:
 541              	.LFB217:
 542              		.file 1 "../../../os/hal/src/hal_icu.c"
 543              		.loc 1 56 0
 544              		.cfi_startproc
 545              		@ args = 0, pretend = 0, frame = 0
 546              		@ frame_needed = 0, uses_anonymous_args = 0
 547              		@ link register save eliminated.
 548              		.loc 1 58 0
ARM GAS  /tmp/ccNna55q.s 			page 42


 549 0000 FFF7FEBF 		b	icu_lld_init
 550              	.LVL0:
 551              		.cfi_endproc
 552              	.LFE217:
 553              		.size	icuInit, .-icuInit
 554 0004 AFF30080 		.section	.text.icuObjectInit,"ax",%progbits
 554      AFF30080 
 554      AFF30080 
 555              		.align	2
 556              		.p2align 4,,15
 557              		.global	icuObjectInit
 558              		.thumb
 559              		.thumb_func
 560              		.type	icuObjectInit, %function
 561              	icuObjectInit:
 562              	.LFB218:
 563              		.loc 1 68 0
 564              		.cfi_startproc
 565              		@ args = 0, pretend = 0, frame = 0
 566              		@ frame_needed = 0, uses_anonymous_args = 0
 567              		@ link register save eliminated.
 568              	.LVL1:
 569              		.loc 1 70 0
 570 0000 0122     		movs	r2, #1
 571              		.loc 1 71 0
 572 0002 0023     		movs	r3, #0
 573              		.loc 1 70 0
 574 0004 0270     		strb	r2, [r0]
 575              		.loc 1 71 0
 576 0006 4360     		str	r3, [r0, #4]
 577 0008 7047     		bx	lr
 578              		.cfi_endproc
 579              	.LFE218:
 580              		.size	icuObjectInit, .-icuObjectInit
 581 000a 00BFAFF3 		.section	.text.icuStart,"ax",%progbits
 581      0080
 582              		.align	2
 583              		.p2align 4,,15
 584              		.global	icuStart
 585              		.thumb
 586              		.thumb_func
 587              		.type	icuStart, %function
 588              	icuStart:
 589              	.LFB219:
 590              		.loc 1 82 0
 591              		.cfi_startproc
 592              		@ args = 0, pretend = 0, frame = 0
 593              		@ frame_needed = 0, uses_anonymous_args = 0
 594              	.LVL2:
 595 0000 10B5     		push	{r4, lr}
 596              		.cfi_def_cfa_offset 8
 597              		.cfi_offset 4, -8
 598              		.cfi_offset 14, -4
 599              	.LBB115:
 600              	.LBB116:
 601              	.LBB117:
 602              	.LBB118:
ARM GAS  /tmp/ccNna55q.s 			page 43


 603              	.LBB119:
 604              		.file 2 "../../../os/common/ext/CMSIS/include/cmsis_gcc.h"
 605              		.loc 2 264 0
 606 0002 2023     		movs	r3, #32
 607              	.LBE119:
 608              	.LBE118:
 609              	.LBE117:
 610              	.LBE116:
 611              	.LBE115:
 612              		.loc 1 82 0
 613 0004 0446     		mov	r4, r0
 614              	.LBB124:
 615              	.LBB123:
 616              	.LBB122:
 617              	.LBB121:
 618              	.LBB120:
 619              		.loc 2 264 0
 620              	@ 264 "../../../os/common/ext/CMSIS/include/cmsis_gcc.h" 1
 621 0006 83F31188 		MSR basepri, r3
 622              	@ 0 "" 2
 623              		.thumb
 624              	.LBE120:
 625              	.LBE121:
 626              	.LBE122:
 627              	.LBE123:
 628              	.LBE124:
 629              		.loc 1 89 0
 630 000a 4160     		str	r1, [r0, #4]
 631              		.loc 1 90 0
 632 000c FFF7FEFF 		bl	icu_lld_start
 633              	.LVL3:
 634              		.loc 1 91 0
 635 0010 0223     		movs	r3, #2
 636 0012 2370     		strb	r3, [r4]
 637              	.LVL4:
 638              	.LBB125:
 639              	.LBB126:
 640              	.LBB127:
 641              	.LBB128:
 642              	.LBB129:
 643              	.LBB130:
 644              		.loc 2 264 0
 645 0014 0023     		movs	r3, #0
 646              	@ 264 "../../../os/common/ext/CMSIS/include/cmsis_gcc.h" 1
 647 0016 83F31188 		MSR basepri, r3
 648              	@ 0 "" 2
 649              		.thumb
 650 001a 10BD     		pop	{r4, pc}
 651              	.LBE130:
 652              	.LBE129:
 653              	.LBE128:
 654              	.LBE127:
 655              	.LBE126:
 656              	.LBE125:
 657              		.cfi_endproc
 658              	.LFE219:
 659              		.size	icuStart, .-icuStart
ARM GAS  /tmp/ccNna55q.s 			page 44


 660 001c AFF30080 		.section	.text.icuStop,"ax",%progbits
 661              		.align	2
 662              		.p2align 4,,15
 663              		.global	icuStop
 664              		.thumb
 665              		.thumb_func
 666              		.type	icuStop, %function
 667              	icuStop:
 668              	.LFB220:
 669              		.loc 1 102 0
 670              		.cfi_startproc
 671              		@ args = 0, pretend = 0, frame = 0
 672              		@ frame_needed = 0, uses_anonymous_args = 0
 673              	.LVL5:
 674 0000 10B5     		push	{r4, lr}
 675              		.cfi_def_cfa_offset 8
 676              		.cfi_offset 4, -8
 677              		.cfi_offset 14, -4
 678              	.LBB131:
 679              	.LBB132:
 680              	.LBB133:
 681              	.LBB134:
 682              	.LBB135:
 683              		.loc 2 264 0
 684 0002 2023     		movs	r3, #32
 685              	.LBE135:
 686              	.LBE134:
 687              	.LBE133:
 688              	.LBE132:
 689              	.LBE131:
 690              		.loc 1 102 0
 691 0004 0446     		mov	r4, r0
 692              	.LBB140:
 693              	.LBB139:
 694              	.LBB138:
 695              	.LBB137:
 696              	.LBB136:
 697              		.loc 2 264 0
 698              	@ 264 "../../../os/common/ext/CMSIS/include/cmsis_gcc.h" 1
 699 0006 83F31188 		MSR basepri, r3
 700              	@ 0 "" 2
 701              		.thumb
 702              	.LBE136:
 703              	.LBE137:
 704              	.LBE138:
 705              	.LBE139:
 706              	.LBE140:
 707              		.loc 1 111 0
 708 000a FFF7FEFF 		bl	icu_lld_stop
 709              	.LVL6:
 710              		.loc 1 113 0
 711 000e 0122     		movs	r2, #1
 712              		.loc 1 112 0
 713 0010 0023     		movs	r3, #0
 714              		.loc 1 113 0
 715 0012 2270     		strb	r2, [r4]
 716              	.LVL7:
ARM GAS  /tmp/ccNna55q.s 			page 45


 717              		.loc 1 112 0
 718 0014 6360     		str	r3, [r4, #4]
 719              	.LBB141:
 720              	.LBB142:
 721              	.LBB143:
 722              	.LBB144:
 723              	.LBB145:
 724              	.LBB146:
 725              		.loc 2 264 0
 726              	@ 264 "../../../os/common/ext/CMSIS/include/cmsis_gcc.h" 1
 727 0016 83F31188 		MSR basepri, r3
 728              	@ 0 "" 2
 729              		.thumb
 730 001a 10BD     		pop	{r4, pc}
 731              	.LBE146:
 732              	.LBE145:
 733              	.LBE144:
 734              	.LBE143:
 735              	.LBE142:
 736              	.LBE141:
 737              		.cfi_endproc
 738              	.LFE220:
 739              		.size	icuStop, .-icuStop
 740 001c AFF30080 		.section	.text.icuStartCapture,"ax",%progbits
 741              		.align	2
 742              		.p2align 4,,15
 743              		.global	icuStartCapture
 744              		.thumb
 745              		.thumb_func
 746              		.type	icuStartCapture, %function
 747              	icuStartCapture:
 748              	.LFB221:
 749              		.loc 1 125 0
 750              		.cfi_startproc
 751              		@ args = 0, pretend = 0, frame = 0
 752              		@ frame_needed = 0, uses_anonymous_args = 0
 753              	.LVL8:
 754 0000 10B5     		push	{r4, lr}
 755              		.cfi_def_cfa_offset 8
 756              		.cfi_offset 4, -8
 757              		.cfi_offset 14, -4
 758              	.LBB147:
 759              	.LBB148:
 760              	.LBB149:
 761              	.LBB150:
 762              	.LBB151:
 763              		.loc 2 264 0
 764 0002 2023     		movs	r3, #32
 765              	.LBE151:
 766              	.LBE150:
 767              	.LBE149:
 768              	.LBE148:
 769              	.LBE147:
 770              		.loc 1 125 0
 771 0004 0446     		mov	r4, r0
 772              	.LBB156:
 773              	.LBB155:
ARM GAS  /tmp/ccNna55q.s 			page 46


 774              	.LBB154:
 775              	.LBB153:
 776              	.LBB152:
 777              		.loc 2 264 0
 778              	@ 264 "../../../os/common/ext/CMSIS/include/cmsis_gcc.h" 1
 779 0006 83F31188 		MSR basepri, r3
 780              	@ 0 "" 2
 781              		.thumb
 782              	.LBE152:
 783              	.LBE153:
 784              	.LBE154:
 785              	.LBE155:
 786              	.LBE156:
 787              		.loc 1 131 0
 788 000a FFF7FEFF 		bl	icu_lld_start_capture
 789              	.LVL9:
 790 000e 0323     		movs	r3, #3
 791 0010 2370     		strb	r3, [r4]
 792              	.LVL10:
 793              	.LBB157:
 794              	.LBB158:
 795              	.LBB159:
 796              	.LBB160:
 797              	.LBB161:
 798              	.LBB162:
 799              		.loc 2 264 0
 800 0012 0023     		movs	r3, #0
 801              	@ 264 "../../../os/common/ext/CMSIS/include/cmsis_gcc.h" 1
 802 0014 83F31188 		MSR basepri, r3
 803              	@ 0 "" 2
 804              		.thumb
 805 0018 10BD     		pop	{r4, pc}
 806              	.LBE162:
 807              	.LBE161:
 808              	.LBE160:
 809              	.LBE159:
 810              	.LBE158:
 811              	.LBE157:
 812              		.cfi_endproc
 813              	.LFE221:
 814              		.size	icuStartCapture, .-icuStartCapture
 815 001a 00BFAFF3 		.section	.text.icuWaitCapture,"ax",%progbits
 815      0080
 816              		.align	2
 817              		.p2align 4,,15
 818              		.global	icuWaitCapture
 819              		.thumb
 820              		.thumb_func
 821              		.type	icuWaitCapture, %function
 822              	icuWaitCapture:
 823              	.LFB222:
 824              		.loc 1 151 0
 825              		.cfi_startproc
 826              		@ args = 0, pretend = 0, frame = 0
 827              		@ frame_needed = 0, uses_anonymous_args = 0
 828              	.LVL11:
 829 0000 10B5     		push	{r4, lr}
ARM GAS  /tmp/ccNna55q.s 			page 47


 830              		.cfi_def_cfa_offset 8
 831              		.cfi_offset 4, -8
 832              		.cfi_offset 14, -4
 833              	.LBB163:
 834              	.LBB164:
 835              	.LBB165:
 836              	.LBB166:
 837              	.LBB167:
 838              		.loc 2 264 0
 839 0002 2023     		movs	r3, #32
 840              	.LBE167:
 841              	.LBE166:
 842              	.LBE165:
 843              	.LBE164:
 844              	.LBE163:
 845              		.loc 1 151 0
 846 0004 0446     		mov	r4, r0
 847              	.LBB172:
 848              	.LBB171:
 849              	.LBB170:
 850              	.LBB169:
 851              	.LBB168:
 852              		.loc 2 264 0
 853              	@ 264 "../../../os/common/ext/CMSIS/include/cmsis_gcc.h" 1
 854 0006 83F31188 		MSR basepri, r3
 855              	@ 0 "" 2
 856              		.thumb
 857              	.LBE168:
 858              	.LBE169:
 859              	.LBE170:
 860              	.LBE171:
 861              	.LBE172:
 862              		.loc 1 161 0
 863 000a FFF7FEFF 		bl	icu_lld_wait_capture
 864              	.LVL12:
 865              		.loc 1 162 0
 866 000e 0028     		cmp	r0, #0
 867 0010 0CBF     		ite	eq
 868 0012 0423     		moveq	r3, #4
 869 0014 0323     		movne	r3, #3
 870 0016 2370     		strb	r3, [r4]
 871              	.LVL13:
 872              	.LBB173:
 873              	.LBB174:
 874              	.LBB175:
 875              	.LBB176:
 876              	.LBB177:
 877              	.LBB178:
 878              		.loc 2 264 0
 879 0018 0023     		movs	r3, #0
 880              	@ 264 "../../../os/common/ext/CMSIS/include/cmsis_gcc.h" 1
 881 001a 83F31188 		MSR basepri, r3
 882              	@ 0 "" 2
 883              		.thumb
 884              	.LBE178:
 885              	.LBE177:
 886              	.LBE176:
ARM GAS  /tmp/ccNna55q.s 			page 48


 887              	.LBE175:
 888              	.LBE174:
 889              	.LBE173:
 890              		.loc 1 166 0
 891 001e 10BD     		pop	{r4, pc}
 892              		.cfi_endproc
 893              	.LFE222:
 894              		.size	icuWaitCapture, .-icuWaitCapture
 895              		.section	.text.icuStopCapture,"ax",%progbits
 896              		.align	2
 897              		.p2align 4,,15
 898              		.global	icuStopCapture
 899              		.thumb
 900              		.thumb_func
 901              		.type	icuStopCapture, %function
 902              	icuStopCapture:
 903              	.LFB223:
 904              		.loc 1 175 0
 905              		.cfi_startproc
 906              		@ args = 0, pretend = 0, frame = 0
 907              		@ frame_needed = 0, uses_anonymous_args = 0
 908              	.LVL14:
 909 0000 10B5     		push	{r4, lr}
 910              		.cfi_def_cfa_offset 8
 911              		.cfi_offset 4, -8
 912              		.cfi_offset 14, -4
 913              	.LBB179:
 914              	.LBB180:
 915              	.LBB181:
 916              	.LBB182:
 917              	.LBB183:
 918              		.loc 2 264 0
 919 0002 2023     		movs	r3, #32
 920              	.LBE183:
 921              	.LBE182:
 922              	.LBE181:
 923              	.LBE180:
 924              	.LBE179:
 925              		.loc 1 175 0
 926 0004 0446     		mov	r4, r0
 927              	.LBB188:
 928              	.LBB187:
 929              	.LBB186:
 930              	.LBB185:
 931              	.LBB184:
 932              		.loc 2 264 0
 933              	@ 264 "../../../os/common/ext/CMSIS/include/cmsis_gcc.h" 1
 934 0006 83F31188 		MSR basepri, r3
 935              	@ 0 "" 2
 936              		.thumb
 937              	.LBE184:
 938              	.LBE185:
 939              	.LBE186:
 940              	.LBE187:
 941              	.LBE188:
 942              		.loc 1 183 0
 943 000a FFF7FEFF 		bl	icu_lld_stop_capture
ARM GAS  /tmp/ccNna55q.s 			page 49


 944              	.LVL15:
 945 000e 0223     		movs	r3, #2
 946 0010 2370     		strb	r3, [r4]
 947              	.LVL16:
 948              	.LBB189:
 949              	.LBB190:
 950              	.LBB191:
 951              	.LBB192:
 952              	.LBB193:
 953              	.LBB194:
 954              		.loc 2 264 0
 955 0012 0023     		movs	r3, #0
 956              	@ 264 "../../../os/common/ext/CMSIS/include/cmsis_gcc.h" 1
 957 0014 83F31188 		MSR basepri, r3
 958              	@ 0 "" 2
 959              		.thumb
 960 0018 10BD     		pop	{r4, pc}
 961              	.LBE194:
 962              	.LBE193:
 963              	.LBE192:
 964              	.LBE191:
 965              	.LBE190:
 966              	.LBE189:
 967              		.cfi_endproc
 968              	.LFE223:
 969              		.size	icuStopCapture, .-icuStopCapture
 970 001a 00BFAFF3 		.section	.text.icuEnableNotifications,"ax",%progbits
 970      0080
 971              		.align	2
 972              		.p2align 4,,15
 973              		.global	icuEnableNotifications
 974              		.thumb
 975              		.thumb_func
 976              		.type	icuEnableNotifications, %function
 977              	icuEnableNotifications:
 978              	.LFB224:
 979              		.loc 1 196 0
 980              		.cfi_startproc
 981              		@ args = 0, pretend = 0, frame = 0
 982              		@ frame_needed = 0, uses_anonymous_args = 0
 983              	.LVL17:
 984 0000 08B5     		push	{r3, lr}
 985              		.cfi_def_cfa_offset 8
 986              		.cfi_offset 3, -8
 987              		.cfi_offset 14, -4
 988              	.LBB195:
 989              	.LBB196:
 990              	.LBB197:
 991              	.LBB198:
 992              	.LBB199:
 993              		.loc 2 264 0
 994 0002 2023     		movs	r3, #32
 995              	@ 264 "../../../os/common/ext/CMSIS/include/cmsis_gcc.h" 1
 996 0004 83F31188 		MSR basepri, r3
 997              	@ 0 "" 2
 998              		.thumb
 999              	.LBE199:
ARM GAS  /tmp/ccNna55q.s 			page 50


 1000              	.LBE198:
 1001              	.LBE197:
 1002              	.LBE196:
 1003              	.LBE195:
 1004              		.loc 1 203 0
 1005 0008 FFF7FEFF 		bl	icu_lld_enable_notifications
 1006              	.LVL18:
 1007              	.LBB200:
 1008              	.LBB201:
 1009              	.LBB202:
 1010              	.LBB203:
 1011              	.LBB204:
 1012              	.LBB205:
 1013              		.loc 2 264 0
 1014 000c 0023     		movs	r3, #0
 1015              	@ 264 "../../../os/common/ext/CMSIS/include/cmsis_gcc.h" 1
 1016 000e 83F31188 		MSR basepri, r3
 1017              	@ 0 "" 2
 1018              		.thumb
 1019 0012 08BD     		pop	{r3, pc}
 1020              	.LBE205:
 1021              	.LBE204:
 1022              	.LBE203:
 1023              	.LBE202:
 1024              	.LBE201:
 1025              	.LBE200:
 1026              		.cfi_endproc
 1027              	.LFE224:
 1028              		.size	icuEnableNotifications, .-icuEnableNotifications
 1029 0014 AFF30080 		.section	.text.icuDisableNotifications,"ax",%progbits
 1029      AFF30080 
 1029      AFF30080 
 1030              		.align	2
 1031              		.p2align 4,,15
 1032              		.global	icuDisableNotifications
 1033              		.thumb
 1034              		.thumb_func
 1035              		.type	icuDisableNotifications, %function
 1036              	icuDisableNotifications:
 1037              	.LFB225:
 1038              		.loc 1 216 0
 1039              		.cfi_startproc
 1040              		@ args = 0, pretend = 0, frame = 0
 1041              		@ frame_needed = 0, uses_anonymous_args = 0
 1042              	.LVL19:
 1043 0000 08B5     		push	{r3, lr}
 1044              		.cfi_def_cfa_offset 8
 1045              		.cfi_offset 3, -8
 1046              		.cfi_offset 14, -4
 1047              	.LBB206:
 1048              	.LBB207:
 1049              	.LBB208:
 1050              	.LBB209:
 1051              	.LBB210:
 1052              		.loc 2 264 0
 1053 0002 2023     		movs	r3, #32
 1054              	@ 264 "../../../os/common/ext/CMSIS/include/cmsis_gcc.h" 1
ARM GAS  /tmp/ccNna55q.s 			page 51


 1055 0004 83F31188 		MSR basepri, r3
 1056              	@ 0 "" 2
 1057              		.thumb
 1058              	.LBE210:
 1059              	.LBE209:
 1060              	.LBE208:
 1061              	.LBE207:
 1062              	.LBE206:
 1063              		.loc 1 223 0
 1064 0008 FFF7FEFF 		bl	icu_lld_disable_notifications
 1065              	.LVL20:
 1066              	.LBB211:
 1067              	.LBB212:
 1068              	.LBB213:
 1069              	.LBB214:
 1070              	.LBB215:
 1071              	.LBB216:
 1072              		.loc 2 264 0
 1073 000c 0023     		movs	r3, #0
 1074              	@ 264 "../../../os/common/ext/CMSIS/include/cmsis_gcc.h" 1
 1075 000e 83F31188 		MSR basepri, r3
 1076              	@ 0 "" 2
 1077              		.thumb
 1078 0012 08BD     		pop	{r3, pc}
 1079              	.LBE216:
 1080              	.LBE215:
 1081              	.LBE214:
 1082              	.LBE213:
 1083              	.LBE212:
 1084              	.LBE211:
 1085              		.cfi_endproc
 1086              	.LFE225:
 1087              		.size	icuDisableNotifications, .-icuDisableNotifications
 1088 0014 AFF30080 		.text
 1088      AFF30080 
 1088      AFF30080 
 1089              	.Letext0:
 1090              		.file 3 "/home/alex/MentorGraphics/Sourcery_CodeBench_Lite_for_ARM_EABI/arm-none-eabi/include/stdi
 1091              		.file 4 "../../../os/common/ports/ARMCMx/compilers/GCC/chtypes.h"
 1092              		.file 5 "../../../os/rt/include/chsystypes.h"
 1093              		.file 6 "../../../os/rt/include/chschd.h"
 1094              		.file 7 "../../../os/common/ports/ARMCMx/chcore.h"
 1095              		.file 8 "../../../os/common/ports/ARMCMx/chcore_v7m.h"
 1096              		.file 9 "../../../os/hal/ports/STM32/LLD/TIMv1/stm32_tim.h"
 1097              		.file 10 "../../../os/rt/include/chtm.h"
 1098              		.file 11 "../../../os/rt/include/chsem.h"
 1099              		.file 12 "../../../os/rt/include/chmtx.h"
 1100              		.file 13 "../../../os/hal/include/hal_icu.h"
 1101              		.file 14 "../../../os/hal/ports/STM32/LLD/TIMv1/hal_icu_lld.h"
 1102              		.file 15 "../../../os/rt/include/chsys.h"
 1103              		.file 16 "../../../os/hal/osal/rt/osal.h"
 1104              		.file 17 "../../../os/common/ext/CMSIS/include/core_cm3.h"