ARM GAS  /tmp/ccO3i0OC.s 			page 1


   1              		.syntax unified
   2              		.cpu cortex-m3
   3              		.fpu softvfp
   4              		.eabi_attribute 20, 1
   5              		.eabi_attribute 21, 1
   6              		.eabi_attribute 23, 3
   7              		.eabi_attribute 24, 1
   8              		.eabi_attribute 25, 1
   9              		.eabi_attribute 26, 1
  10              		.eabi_attribute 30, 2
  11              		.eabi_attribute 34, 1
  12              		.eabi_attribute 18, 4
  13              		.thumb
  14              		.file	"hal_gpt.c"
  15              		.text
  16              	.Ltext0:
  17              		.section	.gnu.lto_.jmpfuncs.8caed59ffdfd1a23,"",%progbits
  18 0000 789C758B 		.ascii	"x\234u\213\331\021\200P\010\0037\301[\013\264\005\033"
  18      D9118050 
  18      080337C1 
  18      5B0BB405 
  18      1B
  19 0011 785559A4 		.ascii	"xUY\244|\250\343\011C`6\301\230\257Z\367=\345H\016A"
  19      7CA8E309 
  19      436036C1 
  19      98AF5AF7 
  19      3DE5480E 
  20 0026 28A58A3A 		.ascii	"(\245\212:\234\204Y\213\210lT\240\011\347Ey;\355%^\035"
  20      9C84598B 
  20      886C54A0 
  20      09E74579 
  20      3BED255E 
  21 003b B07BC64F 		.ascii	"\260{\306O\247Or@3H\367\234\031\177_\331\000\215$\012"
  21      A74F7240 
  21      3348F79C 
  21      197F5FD9 
  21      008D240A 
  22 004f E5       		.ascii	"\345"
  23              		.text
  24              		.section	.gnu.lto_.inline.8caed59ffdfd1a23,"",%progbits
  25 0000 789C6362 		.ascii	"x\234cb`b\300\006l\031!4\017\003\003\013\017#X\021\333"
  25      6062C006 
  25      6C192134 
  25      0F03030B 
  25      0F235811 
  26 0015 0279B05A 		.ascii	"\002y\260ZF.\020\301\300\312\002\024f\272\300\317\300"
  26      462E10C1 
  26      C0CA0214 
  26      66BAC0CF 
  26      C0
  27 0026 F1410F2C 		.ascii	"\361A\017,\316\304\300)\010\024b\373\240\207\020\342"
  27      CEC4C029 
  27      081462FB 
  27      A08710E2 
  28 0036 06AA9CE0 		.ascii	"\006\252\234\340\307\214S\206\205\201\203\235\021\010"
  28      C78C5386 
  28      8581839D 
ARM GAS  /tmp/ccO3i0OC.s 			page 2


  28      1108
  29 0044 8022CCEC 		.ascii	"\200\"\314\3547\314\030\330;\324\231\030\200\206\262"
  29      37CC18D8 
  29      3BD49918 
  29      8086B2
  30 0053 80D4B042 		.ascii	"\200\324\260B\264\261v\250C\304A\212\200\356a\232\340"
  30      B4B176A8 
  30      43C4418A 
  30      80EE619A 
  30      E0
  31 0064 37C18F8D 		.ascii	"7\301\217\215\201\235\037(\307\370\202\035S\216\035"
  31      819D1F28 
  31      C7F8821D 
  31      538E1D
  32 0073 8F3E0E3C 		.ascii	"\217>\016<\3728\0318\004\320\364A\235\311\305\300\306"
  32      FA381938 
  32      04D0F441 
  32      9DC9C5C0 
  32      C6
  33 0084 87A60B2A 		.ascii	"\207\246\013*\303\015\321\203\034\016p\363\030\000\357"
  33      C30DD183 
  33      1C0E70F3 
  33      1800EF
  34 0093 D723D4   		.ascii	"\327#\324"
  35              		.text
  36              		.section	.gnu.lto_.pureconst.8caed59ffdfd1a23,"",%progbits
  37 0000 789C6362 		.ascii	"x\234cb`b\220d\200\000\036\006\011F)&+f+\026+V+6)v+"
  37      60629064 
  37      80001E06 
  37      09462926 
  37      2B662B16 
  38 001b 0E294E2B 		.ascii	"\016)N+.)n)\000\037\210\002b"
  38      2E296E29 
  38      001F8802 
  38      62
  39              		.text
  40              		.section	.gnu.lto_gptInit.8caed59ffdfd1a23,"",%progbits
  41 0000 789C6362 		.ascii	"x\234cb`b@\007\222@\\\011\304\012@\314\310\314\300\310"
  41      60624007 
  41      92405C09 
  41      C40A40CC 
  41      C8CCC0C8 
  42 0014 34E11C03 		.ascii	"4\341\034\003C#\007\023##\210\301\300\310P\317\304X"
  42      43230713 
  42      232388C1 
  42      C0C850CF 
  42      C458
  43 0026 1FC90856 		.ascii	"\037\311\010V\273\236\351\300\203\377\377\327}\330\370"
  43      BB9EE9C0 
  43      83FFFFD7 
  43      7DD8F8
  44 0035 B01AA894 		.ascii	"\260\032\250\224\201\201\225\241\245\241a\002Pg2X>\004"
  44      818195A1 
  44      A5A16102 
  44      50673258 
  44      3E04
  45 0047 48823485 		.ascii	"H\2024\20522\201h\346\363\014\315\017~\331%2.dd\005"
ARM GAS  /tmp/ccO3i0OC.s 			page 3


  45      32328168 
  45      E6F30CCD 
  45      0F7ED925 
  45      322E6464 
  46 005c CA5633FC 		.ascii	"\312V3\374j\350h\020\310d\004\252\206\030\227\011\242"
  46      6AE86810 
  46      C86404AA 
  46      86189709 
  46      A2
  47 006d 2F32343E 		.ascii	"/24>\370\315\004S\004\001!@\011\240\001 \307\312\351"
  47      F8CD0453 
  47      04012140 
  47      09A00120 
  47      C7CAE9
  48 0080 E9E94350 		.ascii	"\351\351CP~\261~Fb\216~qQ2\210\216O/(\321Kf\000\000"
  48      7EB17E46 
  48      628E7E71 
  48      5132888E 
  48      4F2F28D1 
  49 0098 590E2B2D 		.ascii	"Y\016+-"
  50              		.text
  51              		.section	.gnu.lto_gptObjectInit.8caed59ffdfd1a23,"",%progbits
  52 0000 789C6362 		.ascii	"x\234cb`b@\007\222@|\035\210\025\200\230\221\231\201"
  52      60624007 
  52      92407C1D 
  52      88158098 
  52      919981
  53 0013 9169C239 		.ascii	"\221i\3029\006\206F\016&FF\020\203\201\221\241\236\211"
  53      0686460E 
  53      26464610 
  53      838191A1 
  53      9E89
  54 0025 B13E9211 		.ascii	"\261>\222\021\254v=\323\201\007\377\377\257\233qlY\017"
  54      AC763DD3 
  54      8107FFFF 
  54      AF9B716C 
  54      590F
  55 0037 E34C2656 		.ascii	"\343L&V&\306\\\2608+CKC\303\004\240\001\311`n\010\220"
  55      26C65CB0 
  55      382B434B 
  55      43C304A0 
  55      01C9606E 
  56 004d 04E90D65 		.ascii	"\004\351\015ed\002\321\314g\031\232v\334x|\200)\221"
  56      6402D1CC 
  56      67199A76 
  56      DC787C80 
  56      2991
  57 005f 7121232B 		.ascii	"q!#+\2036\303\252\006 \340\317dd\230\3150\2131\223\221"
  57      8336C3AA 
  57      0620E0CF 
  57      646498CD 
  57      308B3193 
  58 0074 319D9129 		.ascii	"1\235\221)\002HC\234\226\004\261\211\001$\302\000b\203"
  58      0248439C 
  58      9604B189 
  58      0124C200 
  58      6283
ARM GAS  /tmp/ccO3i0OC.s 			page 4


  59 0086 74FFC0A2 		.ascii	"t\377\300\242\233\031\273nF\270nf\020\343\"C\343\203"
  59      9B19BB6E 
  59      46B86E66 
  59      10E32243 
  59      E383
  60 0098 19CA10BD 		.ascii	"\031\312\020\2750\020\002T\004t\027H\207\234\236\236"
  60      30100254 
  60      04741748 
  60      879C9E9E 
  61 00a8 3E04E517 		.ascii	">\004\345\027\353g$\346\350\027\027%\203\350\370\364"
  61      EB6724E6 
  61      E8171725 
  61      83E8F8F4 
  62 00b8 8212BD64 		.ascii	"\202\022\275d\006\000\004*<\372"
  62      0600042A 
  62      3CFA
  63              		.text
  64              		.section	.gnu.lto_gptStart.8caed59ffdfd1a23,"",%progbits
  65 0000 789C8552 		.ascii	"x\234\205RMh\023A\024~o\266\333\306\024i\257\212\244"
  65      4D681341 
  65      147E6FB6 
  65      DBC61469 
  65      AF8AA4
  66 0013 4B4510D4 		.ascii	"KE\020\324\254\236\274*=y\010BSAOa;.\311B\266\033v\323"
  66      AC9EBC2A 
  66      3D790842 
  66      53414F61 
  66      3B2EC942 
  67 002b D2E2A19B 		.ascii	"\322\342\241\233\237\203\340\245T\0211\024\251\202b"
  67      9F83E0A5 
  67      54113114 
  67      A98262
  68 003a A17AF052 		.ascii	"\241z\360R\304\342z\361\007iD\021\024\374!\012\036\364"
  68      C4E27AF1 
  68      07694411 
  68      14FC210A 
  68      1EF4
  69 004c 50F016BC 		.ascii	"P\360\026\274\3047\273\311f\023\202\316\356\314\233"
  69      C437BBC9 
  69      661382CE 
  69      EECC9B
  70 005b F737DF9B 		.ascii	"\3677\337\233\367\015\003\006\375c\037\315\037d\376"
  70      F70D0306 
  70      FD631FCD 
  70      1F64FE
  71 006a 4E122540 		.ascii	"N\022%@\266R\007(\305\030\242\330\000\3022\303\345\013"
  71      B6520728 
  71      C518A2D8 
  71      00C232C3 
  71      E50B
  72 007c E8C73E64 		.ascii	"\350\307>d^\243\325z\360\376\371\223\317Xc\243\022\232"
  72      5EA3D57A 
  72      F0FEF993 
  72      CF5863A3 
  72      129A
  73 008e 0843B408 		.ascii	"\010C\264\010\257\014U\327]QL\244\263\270\037>C\253"
  73      AF0C55D7 
ARM GAS  /tmp/ccO3i0OC.s 			page 5


  73      5D514CA4 
  73      B3B81F3E 
  73      43AB
  74 00a0 38E31C99 		.ascii	"8\343\034\231HJ\257\240\034\003\230\204u\327]m\\\275"
  74      484AAFA0 
  74      1C039884 
  74      75D75D6D 
  74      5CBD
  75 00b2 BFF30C57 		.ascii	"\277\363\014W+\356K\267\352\265Z8a \325v\026E\352y4"
  75      2BEE4BB7 
  75      EAB55A38 
  75      6120D576 
  75      1645EA79 
  76 00c7 10155FB0 		.ascii	"\020\025_\260\241\336b\205\015\024\332\324\241\374{"
  76      A1DE6285 
  76      0D14DAD4 
  76      A1FC7B
  77 00d6 B372777F 		.ascii	"\263rw\177\033\265\003\357\335{W\223\016kx\033'\303"
  77      1BB503EF 
  77      DD7B5793 
  77      0E6B781B 
  77      27C3
  78 00e8 92BCA7D7 		.ascii	"\222\274\247\327\232\243\007Bm\373\372\227\261P\271"
  78      9AA30742 
  78      6DFBFA97 
  78      B150B9
  79 00f7 F2E19B04 		.ascii	"\362\341\233\004\240\341:\312\204,\320\031M\211\246"
  79      A0E13ACA 
  79      842CD019 
  79      4D89A6
  80 0106 0F8CF4BD 		.ascii	"\017\214\364\275 \225\256$\005\255K\300G\\so\2342\310"
  80      2095AE24 
  80      05AD4BC0 
  80      475C736F 
  80      9C32C8
  81 0119 1AADA7EB 		.ascii	"\032\255\247\353\377\324\366\267+\337\201\362\353\255"
  81      FFD4F6B7 
  81      2BDF81F2 
  81      EBAD
  82 0127 5D8F0518 		.ascii	"]\217\005\030G`\303\2451f\240\\\203\233\224<\234EI\034"
  82      4760C3A5 
  82      3166A05C 
  82      839B943C 
  82      9C45491C 
  83 013b 32E207CF 		.ascii	"2\342\007\317\006m\206\254\310~\003\325\306\343J<H\004"
  83      066D86AC 
  83      C87E03D5 
  83      C6E34A3C 
  83      4804
  84 014d B8047FDC 		.ascii	"\270\004\177\334\313\356\270\2011\356\353\"J2p\217\017"
  84      CBEEB881 
  84      31EEEB22 
  84      4A32708F 
  84      0F
  85 015e B1D5DC6D 		.ascii	"\261\325\334mb?D|0\004\206\235\214\213\222{Y\371Y\357"
  85      623F447C 
  85      3004869D 
ARM GAS  /tmp/ccO3i0OC.s 			page 6


  85      8C8B927B 
  85      59F959EF 
  86 0172 6745C33B 		.ascii	"gE\303;~S\376K\013\374\213\226_k\202\226G\275\264\334"
  86      7E53FE4B 
  86      0BFC8B96 
  86      5F6B8296 
  86      47BDB4DC 
  87 0186 DA9B08DF 		.ascii	"\332\233\010\337M\204\237f\204\237\257%\271\313\317"
  87      4D849F66 
  87      849FAF25 
  87      B9CBCF
  88 0195 304DFF16 		.ascii	"0M\377\026\034c\003(\322p\2036a-\035J4\334\304D`y\013"
  88      1C630328 
  88      D2708336 
  88      612D1D4A 
  88      34DCC444 
  89 01ac A5C6F6C1 		.ascii	"\245\306\366\301NG\2031C\015\241\327)B\023\311\244\032"
  89      4E478331 
  89      430DA1D7 
  89      294213C9 
  89      A41A
  90 01be FC96A3E6 		.ascii	"\374\226\243\346\264\274\352\330\\\310L\266PLr8\026"
  90      B4BCEAD8 
  90      5CC84CB6 
  90      504C7238 
  90      16
  91 01cf 7573CB34 		.ascii	"us\3134\2559\265`\331EG==\235\232J-\252<\307-[\317,"
  91      AD39B560 
  91      D945473D 
  91      3D9D9A4A 
  91      2DAA3CC7 
  92 01e7 9C349339 		.ascii	"\2344\2239\220\027\264\374\274~b@\216\276XT\247R\351"
  92      9017B4FC 
  92      BC7E6240 
  92      8EBE5854 
  92      A752E9
  93 01fa 3369D598 		.ascii	"3i\325\230\343\371\371\213\272\312M\307p2Y\316)o\"\232"
  93      E3F9F98B 
  93      BACA4DC7 
  93      703259CE 
  93      296F229A 
  94 020e 6117BB31 		.ascii	"a\027\27319g\311\351\367\213\"-\207\026\012\024\222"
  94      3967C9E9 
  94      F78B222D 
  94      87160A14 
  94      92
  95 021f FCE3A9F4 		.ascii	"\374\343\251\364\2642\2539z\3016\216*\207\216\003\263"
  95      B432AB39 
  95      7AC1368E 
  95      2A878E03 
  95      B3
  96 0230 61C4D44D 		.ascii	"a\304\324M\313^\202\277\007w\363\266"
  96      CB5E82BF 
  96      0777F3B6 
  97              		.text
  98              		.section	.gnu.lto_gptStop.8caed59ffdfd1a23,"",%progbits
  99 0000 789C8552 		.ascii	"x\234\205ROh\323`\024\177\357\213]kE\266\253\"]\230"
ARM GAS  /tmp/ccO3i0OC.s 			page 7


  99      4F68D360 
  99      147FEF8B 
  99      5D6B45B6 
  99      AB225D98 
 100 0014 0882DAE8 		.ascii	"\010\202\332\350\311\253\262\223\207\"\254\023\364T"
 100      C9ABB293 
 100      8722AC13 
 100      F454
 101 0022 B2CFD006 		.ascii	"\262\317\320\006\232\245$\335\330\360\260\257]\017\202"
 101      9AA524DD 
 101      D8F0B0AF 
 101      5D0F82
 102 0031 97314586 		.ascii	"\2271E\206s\216)(\016\246\007/\273\210\3614EW\321\223"
 102      738E2928 
 102      0EA6072F 
 102      BB88F134 
 102      4557D193 
 103 0045 2062FD73 		.ascii	" b\375sQ\364\340A\030\273\324\367%m\322\226\242_\362"
 103      51F4E041 
 103      18BBD4F7 
 103      256DD296 
 103      A25FF2
 104 0058 F2FEFE78 		.ascii	"\362\376\376x/\357\3671`\320{\016\220|\243\360\027\322"
 104      2FEFF731 
 104      60D07B0E 
 104      907CA3F0 
 104      17D2
 105 006a A800B285 		.ascii	"\250\000\262\205:@%\301\020\245\001\010s\014\347.\241"
 105      3A4025C1 
 105      10A50108 
 105      730CE72E 
 105      A1
 106 007b 5FFB9879 		.ascii	"_\373\230y\215f\363\321\355\255\325\327x\207%\025\264"
 106      8D66F3D1 
 106      EDADD5D7 
 106      78872515 
 106      B4
 107 008c FC780C6A 		.ascii	"\374x\014jB,\250\026\222\307\375\3108}%\374\0022\251"
 107      422CA816 
 107      92C7FDC8 
 107      387D25FC 
 107      0232A9
 108 009f 9597504D 		.ascii	"\225\227PM\000\214\300\232\020\213\215\353\017\267\237"
 108      008CC09A 
 108      108B8DEB 
 108      0FB79F
 109 00ae E3E2BC78 		.ascii	"\343\342\274x!j^\263\211\303&\322X\347QB/\242\211\250"
 109      216A5EB3 
 109      89C326D2 
 109      58E75142 
 109      2FA289A8 
 110 00c2 FA8AEDE9 		.ascii	"\372\212\355\351\236S\306@%\243\016\325\337\033\363"
 110      9E53C640 
 110      25A30ED5 
 110      DF1BF3
 111 00d1 F70FB6BA 		.ascii	"\367\017\266\272\266\333{\017\336-+Gu\274\213#\341H"
 111      B6DB7B0F 
ARM GAS  /tmp/ccO3i0OC.s 			page 8


 111      DE2D2B47 
 111      75BC8B23 
 111      E148
 112 00e3 DEB31B3B 		.ascii	"\336\263\033;\373\016\205\336\323\233\037\007C\347\332"
 112      FB0E85DE 
 112      D39B1F07 
 112      43E7DA
 113 00f2 AFCF0A80 		.ascii	"\257\317\012\200\216k\030\243\316\262;#QH\374\306H\317"
 113      8E6B18A3 
 113      CEB23B23 
 113      5148FCC6 
 113      48CF
 114 0104 16B9B419 		.ascii	"\026\271\264\031%\330Z\012\336\343\212X:cR\264s\236"
 114      25D85A0A 
 114      DEE38A58 
 114      3A6352B4 
 114      739E
 115 0116 28FFA195 		.ascii	"(\377\241\225oM\376\006j\215O_\343A\013\200+\260+\256"
 115      6F4DFE06 
 115      6A8D4F5F 
 115      E3410B80 
 115      2BB02BAE 
 116 012a 8A211363 		.ascii	"\212!\023c\334\367\001\362\250\2308\000\260\015\325"
 116      DCF701F2 
 116      A8983800 
 116      B00DD5
 117 0139 CDA55D8F 		.ascii	"\315\245]\217\005\225\307`]\320\03141\276\014\267\250"
 117      0595C760 
 117      5DD01934 
 117      31BE0CB7 
 117      A8
 118 014a 4B82EA64 		.ascii	"K\202\352d\267\275>h\002\243}\304\245!\321\233}\320"
 118      B7BD3E68 
 118      02A37DC4 
 118      A521D19B 
 118      7DD0
 119 015c C9FE680C 		.ascii	"\311\376h\014\321Iiv3\363\275\336\313\214\216\367\374"
 119      D1496976 
 119      33F3BDDE 
 119      CB8C8EF7 
 119      FC
 120 016d C5FC971A 		.ascii	"\305\374\227\032\370\0275?V$5O\272\251Y\335\237\012"
 120      F817353F 
 120      5624354F 
 120      BAA959DD 
 120      9F0A
 121 017f EF4E0747 		.ascii	"\357N\007G;\021G\257\376Tb\021G\003$\376\037sL\364\241"
 121      3B1147AF 
 121      FE546211 
 121      470324FE 
 121      1F734CF4 
 122 0194 49C77532 		.ascii	"I\307u2\302Y\332\264\350\270\201\251 \362\026*\215\237"
 122      C259DAB4 
 122      E8B881A9 
 122      20F2162A 
 122      8D9F
 123 01a6 87DB7C04 		.ascii	"\207\333|\004g\234\026B7T\226\246\322i-xmW+\350E\315"
ARM GAS  /tmp/ccO3i0OC.s 			page 9


 123      679C1642 
 123      375496A6 
 123      D2692D78 
 123      6D572BE8 
 124 01bc 75B8D4B9 		.ascii	"u\270\324\271|\251\234\346p\2423\315m\313\262'\265\222"
 124      7CA99CE6 
 124      70A233CD 
 124      6DCBB227 
 124      B592
 125 01ce ED945DED 		.ascii	"\355\224]\355\354Xf43\243\361\002\267\035#7}\332J\027"
 125      EC586634 
 125      33A3F102 
 125      B71D2337 
 125      7DDA4A17 
 126 01e2 2036AD17 		.ascii	" 6\255\027\247\214S}0\306LY\033\315d\317e5s\222\027"
 126      A78C537D 
 126      30C64C59 
 126      1BCD64CF 
 126      65357392 
 127 01f7 A72E1B1A 		.ascii	"\247.\033\032\267\\\323\315\3459'\334p'\302)G5\005w"
 127      B75CD3CD 
 127      E53927DC 
 127      7027C229 
 127      47350577 
 128 020b D6EDCDCB 		.ascii	"\326\355\315\313!m\227>T(5\345\2072\3311uBw\215\222"
 128      216D973E 
 128      542835E5 
 128      8732D931 
 128      7542778D 
 129 0220 631E578F 		.ascii	"c\036W\217\234\004\346@\3342,\333\231\205\277\003$\363"
 129      9C04E640 
 129      DC322CDB 
 129      9985BF03 
 129      24F3
 130 0232 CB       		.ascii	"\313"
 131              		.text
 132              		.section	.gnu.lto_gptChangeInterval.8caed59ffdfd1a23,"",%progbits
 133 0000 789C8552 		.ascii	"x\234\205RMh\023A\024~o6\233D\213\324k\213\244\241P"
 133      4D681341 
 133      147E6F36 
 133      9B448BD4 
 133      6B8BA4A1 
 134 0015 10AB597B 		.ascii	"\020\253Y{\362\252\364\324C\020\232\012z\012\333q\331"
 134      F2AAF4D4 
 134      43109A0A 
 134      7A0ADB71 
 134      D9
 135 0026 2C64BB61 		.ascii	",d\273a7-\355\251\333$\207\342\251D\221\322R\244\012"
 135      372DEDA9 
 135      DB2487E2 
 135      A94491D2 
 135      52A40A
 136 0039 9516ABE0 		.ascii	"\225\026\253\340]\215\036\374A\023P<\210\"\204\336\364"
 136      5D8D1EFC 
 136      4113503C 
 136      882284DE 
 136      F4
ARM GAS  /tmp/ccO3i0OC.s 			page 10


 137 004a E6ADB7F5 		.ascii	"\346\255\267\365\315n\262\331\204\242\263;\363\336\314"
 137      CD6EB2D9 
 137      84A2B33B 
 137      F3DECC
 138 0059 FBFBE67B 		.ascii	"\373\373\346{\303\200\301\340\030\241\371\225\216\217"
 138      C380C1E0 
 138      18A1F995 
 138      8E8F
 139 0067 48A204C8 		.ascii	"H\242\004\3106Z\000kI\206(\024@Xe\270z\013}\337g\254"
 139      365A006B 
 139      49862814 
 139      405865B8 
 139      7A0B7DDF 
 140 007d D1F6BCA7 		.ascii	"\321\366\274\247\365;/\237\340>\033\222\320D\210\201"
 140      F53B2F9F 
 140      E03E1B92 
 140      D0448881 
 141 008d 81209386 		.ascii	"\201 \223\206q\322\204\237\0145\327\335H\233HY\271\037"
 141      71D2849F 
 141      0C35D7DD 
 141      489B4859 
 141      B91F
 142 009f 3847ABC8 		.ascii	"8G\253\310v\203\216HJ\037\240\222\004\030\207]\327\255"
 142      76838E48 
 142      4A1FA092 
 142      0418875D 
 142      D7AD
 143 00b1 B7EFEE37 		.ascii	"\267\357\3567_c\275\352\276wk\015\317\3031\003\031\203"
 143      5F63BDEA 
 143      BE776B0D 
 143      CFC33103 
 143      1983
 144 00c3 EB28426F 		.ascii	"\353(Bo\242\201R\332\027\261X?lq\306\322\244\264\240"
 144      A28152DA 
 144      17B1583F 
 144      6C71C6D2 
 144      A4B4A0
 145 00d6 F2E7B0BA 		.ascii	"\362\347\260\2727\332\251\332-\337x\374e[:\257\342C"
 145      37DAA9DA 
 145      2DDF78FC 
 145      655B3AAF 
 145      E243
 146 00e8 1C0F2135 		.ascii	"\034\017!5^\335;\036:\027\356^\334\3779\034n>\276=\222"
 146      5EDD3B1E 
 146      3A17EE5E 
 146      DCFF391C 
 146      6E3EBE3D 
 147 00fd 0054DC45 		.ascii	"\000T\334E\231*\213\352\214\246D\323/\214\364\275\243"
 147      992A8BEA 
 147      8CA644D3 
 147      2F8CF4BD 
 147      A3
 148 010e 2D5D490A 		.ascii	"-]I\012HL\3017\334q7\257\032\024\020\305\323\263\377"
 148      484CC137 
 148      DC7137AF 
 148      1A1410C5 
 148      D3B3FF
ARM GAS  /tmp/ccO3i0OC.s 			page 11


 149 0121 E8D8E301 		.ascii	"\350\330\343\001\342&T\276o\356\215\004%t\214M\302\005"
 149      E22654BE 
 149      6FEE8D04 
 149      25748C4D 
 149      C205
 150 0133 626E1BB6 		.ascii	"bn\033\266(2\241\243$2$}\317y\354\336\262\011\325u\251"
 150      2832A1A3 
 150      2432247D 
 150      CF79ECDE 
 150      B209D575 
 151 0148 1B11D751 		.ascii	"\033\021\327Q\026N\350\321\030\366\255of\002\343$\034"
 151      164EE8D1 
 151      18F6AD6F 
 151      6602E324 
 151      1C
 152 0159 B835329D 		.ascii	"\27052\235\012\322\235\246\364\302\023:\351\002E\027"
 152      0AD29DA6 
 152      F4C2133A 
 152      E9024517 
 153 0169 48FAA9FF 		.ascii	"H\372\251\377\325\032\244^\305G\376\315\377\313=\374"
 153      D51AA45E 
 153      C547FECD 
 153      FFCB3DFC 
 154 0179 8BFBDF3B 		.ascii	"\213\373\337;\202\373\347\375\334?8\223\012\037G\244"
 154      82FBE7FD 
 154      DC3F3893 
 154      0A1F47A4 
 155 0189 09C79126 		.ascii	"\011\307\221&|\252\310\275&\210\351s\3071qB\037T< %"
 155      7CAAC8BD 
 155      2688E973 
 155      C7317142 
 155      1F543C20 
 156 019e C4D2E55D 		.ascii	"\304\322\345]\305CL\0058?\303Z{k\"H\327\035sD\006=A"
 156      C5434C05 
 156      383FC35A 
 156      7B6B2248 
 156      D71D7344 
 157 01b5 E19ACA64 		.ascii	"\341\232\312d\224\340\267\034\245\240\026\025\307\346"
 157      94E0B71C 
 157      A5A01615 
 157      C7E6
 158 01c3 42E6F552 		.ascii	"B\346\365R9\303\341R\324\314-\323\264\026\224\222e\227"
 158      39C3E152 
 158      D4CC2DD3 
 158      B4169492 
 158      6597
 159 01d5 1DE5DA6C 		.ascii	"\035\345\332lv:\273\254\360\002\267l-\277t\305\314\024"
 159      763ABBAC 
 159      F002B76C 
 159      2DBF74C5 
 159      CC14
 160 01e7 405E528B 		.ascii	"@^R\213\213\332\324\0111\332rY\231\316\346fr\212\261"
 160      8BDAD409 
 160      31DA7259 
 160      99CEE666 
 160      728AB1
 161 01fa C08B8BB7 		.ascii	"\300\213\213\2675\205\233\216\341\344u\316)n,\032a\227"
ARM GAS  /tmp/ccO3i0OC.s 			page 12


 161      35859B8E 
 161      E1E475CE 
 161      296E2C1A 
 161      6197
 162 020c 7B3E0567 		.ascii	"{>\005g\305\031\264\013\220\226C\0139\012I\366\263\331"
 162      C519B40B 
 162      9096430B 
 162      390A49F6 
 162      B3D9
 163 021e DC6C7A5E 		.ascii	"\334lz^u\264\222m\\LO\\\006fC\302\324L\313^\201\277"
 163      75B4926D 
 163      5C4C4F5C 
 163      066643C2 
 163      D44CCB5E 
 164 0234 E323EB6E 		.ascii	"\343#\353n"
 165              		.text
 166              		.section	.gnu.lto_gptStartContinuous.8caed59ffdfd1a23,"",%progbits
 167 0000 789C8D53 		.ascii	"x\234\215SMh\023A\024~o6i\022\203\264WE\322P(\010jV"
 167      4D681341 
 167      147E6F36 
 167      691283B4 
 167      5745D250 
 168 0018 4F5E959E 		.ascii	"O^\225\236<\004\241\251\240\247\260]\227f!\333\015\273"
 168      3C04A1A9 
 168      A0A7B05D 
 168      976621DB 
 168      0DBB
 169 002a 6969F1D0 		.ascii	"ii\361\320IZA\364RR\025\261\026\255\202b\245U*\376\035"
 169      495A41F4 
 169      525215B1 
 169      16AD8262 
 169      A5552AFE 
 170 003f B4EB41FC 		.ascii	"\264\353A\374)\215\350\305J\025\202^\324S\275U\021\326"
 170      298DE8C5 
 170      4A15825E 
 170      D453BD55 
 170      11D6
 171 0051 379B34D9 		.ascii	"7\2334\331\206b\335\335\2317\363~\346}\357\315\267\014"
 171      8662DDDD 
 171      9937F37E 
 171      E67DEFCD 
 171      B70C
 172 0063 18343F3B 		.ascii	"\0304?;hd$\200U\222(\001\262\3612@!\314\020\305\002"
 172      68642480 
 172      55922801 
 172      B2F13240 
 172      21CC10C5 
 173 0078 1046188E 		.ascii	"\020F\030\216\234@\317\367.s*\256;\267\374\346\331\025"
 173      9C40CFF7 
 173      2E732AAE 
 173      3BB7FCE6 
 173      D915
 174 008a BCC3A212 		.ascii	"\274\303\242\022\032\010\001\232\2045\010c\234\217\307"
 174      1A08019A 
 174      84350863 
 174      9C8FC7
 175 0099 0154CFB7 		.ascii	"\001T\317\267\207fq\3001dBJ\257\241\030\006\350\200"
ARM GAS  /tmp/ccO3i0OC.s 			page 13


 175      876671C0 
 175      3164424A 
 175      AFA11806 
 175      E880
 176 00ab 69CE4B95 		.ascii	"i\316K\225\211\333K\317\2614\312_\3611\307u\261]G\002"
 176      89DB4BCF 
 176      B134CA5F 
 176      F131C775 
 176      B15D4702 
 177 00bf 761445E8 		.ascii	"v\024E\350q\324\021\343\236`\201\215H\205\016(\001\224"
 177      71D411E3 
 177      9E60818D 
 177      48850E28 
 177      0194
 178 00d1 A1F87376 		.ascii	"\241\370sv\364\346\316z\312\352\302\271\365~R\332\255"
 178      F4E6CE7A 
 178      CAEAC2B9 
 178      F57E52DA 
 178      AD
 179 00e2 E075ECA8 		.ascii	"\340u\354\250\343q\026\316\257Ew\325wO/~n\255o\316}"
 179      E37116CE 
 179      AF4577D5 
 179      774F2F7E 
 179      6EAD6FCE 
 180 00f7 F842752B 		.ascii	"\370Bu+8\215A\312,\2623\032\022\015/1\322\373\222\266"
 180      388D41CA 
 180      2CB2331A 
 180      120D2F31 
 180      D2FB92B6 
 181 010b D432A9DA 		.ascii	"\3242\251\332\267\030,\343\024\277tH'\255\037O\303\276"
 181      B7182CE3 
 181      14BF7448 
 181      27AD1F4F 
 181      C3BE
 182 011d 52B3D790 		.ascii	"R\263\327\220\373\213v>\236]D^\342\205U\327m\3251\310"
 182      FB8B763E 
 182      9E5D445E 
 182      E28555D7 
 182      6DD531C8 
 183 0131 E02B6E55 		.ascii	"\340+nUq\237H\344?\204\317s\036\271\306\377\270\256"
 183      719F48E4 
 183      3F84CF73 
 183      1EB9C6FF 
 183      B8AE
 184 0143 A4630B83 		.ascii	"\244c\013\203o\377q\004)\226\240\370x\371\341/lj\030"
 184      6FFF7104 
 184      2996A0F8 
 184      78F9E12F 
 184      6C6A18
 185 0156 5FB89050 		.ascii	"_\270\220P\360\036\265K\3019\257i\353\315\010\212\320"
 185      F01EB54B 
 185      C139AF69 
 185      EBCD088A 
 185      D0
 186 0167 3D30C339 		.ascii	"=0\3039w\036,R\256\320$\\.p\336\246c\230@\211D\236\013"
 186      771E2C52 
 186      AED0245C 
ARM GAS  /tmp/ccO3i0OC.s 			page 14


 186      2E70DEA6 
 186      63984089 
 187 017e F4A21775 		.ascii	"\364\242\027u_l\2056$:\363\026NWV^D\025\234\367\274"
 187      5F6C8536 
 187      243AF316 
 187      4E57565E 
 187      44159CF7 
 188 0193 4EC16F7E 		.ascii	"N\301o~F\204FTl\251\371z\265\0216\035\267m\254\2602"
 188      46844654 
 188      6CA9F97A 
 188      B511361D 
 188      B76DACB0 
 189 01a8 F1BDDCCC 		.ascii	"\361\275\334\314\015\005oxW\263%9\340_\344\3701%\310"
 189      0D056F78 
 189      57B32539 
 189      E05FE4F8 
 189      3125C8
 190 01bb F1682339 		.ascii	"\361h#9\256n\217\371\250[g\311\232\217%\237\212\301"
 190      AE6E8FF9 
 190      A85B67C9 
 190      9A8F259F 
 190      8AC1
 191 01cd 46634234 		.ascii	"FcB4\302\"\215\212\221M\210\242\340\014-\352X\326\211"
 191      C2228D8A 
 191      914D88A2 
 191      E00C2DEA 
 191      58D689
 192 01e0 A1E02CC6 		.ascii	"\241\340,\306\252\232wP\250<\351\254\036\267\376\364"
 192      AA9A7750 
 192      A83CE9AC 
 192      1EB7FEF4 
 193 01f0 D02DD23F 		.ascii	"\320-\322?\"\\c\211\204\\\375L[\316(Y\331\266T!\323"
 193      225C6389 
 193      845CFD4C 
 193      5BCE2859 
 193      D9B65421 
 194 0205 7DB97C42 		.ascii	"}\271|B\205}~\263j\032\206\331/\347L+o\313\207\273\223"
 194      857D7EB3 
 194      6A1A86D9 
 194      2FE74C2B 
 194      6FCB87BB 
 195 021a 5DC92159 		.ascii	"]\311!Y\315\250\246\245\245\007\017\032\211\014\004"
 195      CDA8A6A5 
 195      A5070F1A 
 195      890C04
 196 0229 0795EC80 		.ascii	"\007\225\354\200v`\223\030m(/w%SGR\262\336\257f\007"
 196      76609318 
 196      6D282F77 
 196      25534752 
 196      B2DEAF66 
 197 023e 4E6AB26A 		.ascii	"Nj\262j\330\272\235\356SU\212k\367GX\371\206O\306\036"
 197      D8BA9DEE 
 197      53558A6B 
 197      F74758F9 
 197      864FC61E 
 198 0252 B69BED02 		.ascii	"\266\233\355\002\244i\323D\216B\222\275-\231\352\216"
 198      A469D344 
ARM GAS  /tmp/ccO3i0OC.s 			page 15


 198      8E4292BD 
 198      2D99EA8E 
 199 0262 F72AB696 		.ascii	"\367*\266\226\263\364\275\361\316\375\300,\010\031\232"
 199      B3F4BDF1 
 199      CEFDC02C 
 199      08199A
 200 0271 615AC310 		.ascii	"aZ\303\020\240Bra\275?\257Y\204\356/<\372\027\343"
 200      A0427261 
 200      BD3FAF59 
 200      84EE2F3C 
 200      FA17E3
 201              		.text
 202              		.section	.gnu.lto_gptStartContinuousI.8caed59ffdfd1a23,"",%progbits
 203 0000 789C6362 		.ascii	"x\234cb`b@\007\222@|\026\210\025\200\230\221\231\201"
 203      60624007 
 203      92407C16 
 203      88158098 
 203      919981
 204 0013 9169C239 		.ascii	"\221i\3029\006\206F\016&FF\020\203\201\221\241\236\211"
 204      0686460E 
 204      26464610 
 204      838191A1 
 204      9E89
 205 0025 B13E9211 		.ascii	"\261>\222\021\254v=\323\201\007\377\377\257\233\326"
 205      AC763DD3 
 205      8107FFFF 
 205      AF9BD6
 206 0034 BDFF0CE3 		.ascii	"\275\377\014\343Z&6&\306\\F\006\026 \001\222eehih\230"
 206      5A263626 
 206      C65C4606 
 206      16200192 
 206      65656869 
 207 004a A090CB08 		.ascii	"\240\220\313\010\264\"\031\254<\004H\202\314\010\005"
 207      B42219AC 
 207      3C044882 
 207      CC0805
 208 0059 0A0169E6 		.ascii	"\012\001i\346\263\014M;nl\373\311\230\310\270\220\221"
 208      B30C4D3B 
 208      6E6CFBC9 
 208      98C8B890 
 208      91
 209 006a 95419B61 		.ascii	"\225A\233aU\003\020\360g22\314f\230\305\230\311\310"
 209      550310F0 
 209      673232CC 
 209      6698C598 
 209      C9C8
 210 007c 98CEC814 		.ascii	"\230\316\310\024\001\244!NL\202\330\310\000\022a`\006"
 210      01A4214E 
 210      4C82D8C8 
 210      00126160 
 210      06
 211 008d 32CE33B4 		.ascii	"2\3163\264>\270}\224\033\242\231\201\241\232\341WCG"
 211      3EB87D94 
 211      1BA29981 
 211      A19AE157 
 211      4347
 212 009f 83402623 		.ascii	"\203@&#s2#D)P{:#K&#\013\003\303E\206\306\007wTaJ! \004"
ARM GAS  /tmp/ccO3i0OC.s 			page 16


 212      73322344 
 212      29507B3A 
 212      234B2623 
 212      0B03C345 
 213 00bd A80CE80A 		.ascii	"\250\014\350\012\220\351rzz\372\020\224_\254\237\221"
 213      90E9727A 
 213      7AFA1094 
 213      5FAC9F91 
 214 00cd 98A35F5C 		.ascii	"\230\243_\\\224\014\242\343\323\013J\364\222\031\000"
 214      940CA2E3 
 214      D30B4AF4 
 214      921900
 215 00dc 4D763B6B 		.ascii	"Mv;k"
 216              		.text
 217              		.section	.gnu.lto_gptStartOneShot.8caed59ffdfd1a23,"",%progbits
 218 0000 789C8D53 		.ascii	"x\234\215SOH\024a\024\177\357\033\307][B\257E\254\213"
 218      4F481461 
 218      147FEF1B 
 218      C75D5B42 
 218      AF45AC8B 
 219 0014 2004D64E 		.ascii	" \004\326N\235\272\026\236:,\201\032\324I\306i\330\035"
 219      9DBA169E 
 219      3A2C811A 
 219      D449C669 
 219      D81D
 220 0026 709C6566 		.ascii	"p\234ef\025\245\203\337\256\006\201\027Y\243\"\261\262"
 220      15A583DF 
 220      AE068117 
 220      59A322B1 
 220      B2
 221 0037 A04850C3 		.ascii	"\240HP\303\016\011%m'\213p\243NA\011K\035\254Nv\263"
 221      0E09256D 
 221      278B70A3 
 221      4E41094B 
 221      1DAC4E76 
 222 004c 32A6F7CD 		.ascii	"2\246\367\315\356\316\316.\222\315\356\367\357\375\371"
 222      EECECE2E 
 222      92CDEEF7 
 222      EFFDF9
 223 005b 7EBFF7E6 		.ascii	"~\277\367\3467\014\0304>\207h\244$\200mZQ\002d\323E"
 223      370C1834 
 223      3E8768A4 
 223      24806D5A 
 223      510264D3 
 224 0070 806C9821 		.ascii	"\200l\230!\212\015 \2143\034\277\210^\3542+\224\\w\351"
 224      8A0D208C 
 224      331CBF88 
 224      5EEC322B 
 224      945C77E9 
 225 0084 D3D4DA73 		.ascii	"\323\324\332s\\f\021\011M\204&\232\204W\206I\316\247"
 225      5C661109 
 225      4D84269A 
 225      84578649 
 225      CEA7
 226 0096 63009A17 		.ascii	"c\000\232\027\333G\263\270\340<2\261J\257!\027\006\350"
 226      DB47B3B8 
 226      E03C32B1 
ARM GAS  /tmp/ccO3i0OC.s 			page 17


 226      4AAF2117 
 226      06E8
 227 00a8 8079CEF3 		.ascii	"\200y\316\363\245\231G\033/1?\301_\361\311\202\353b"
 227      A599471B 
 227      2F313FC1 
 227      5FF1C982 
 227      EB62
 228 00ba BB8144EC 		.ascii	"\273\201D\354\034\212\324\013h \306\274\2055\3253\025"
 228      1C8AD40B 
 228      6820C6BC 
 228      8535D533 
 228      15
 229 00cb 36200028 		.ascii	"6 \000(B\356\307\342\304\203\303>dySx\370~V:\252\342"
 229      42EEC7E2 
 229      C483C33E 
 229      64795378 
 229      F87E563A 
 230 00e1 3DECF0F9 		.ascii	"=\354\360\371\024^\\\333\211\034\361Ok\3277[\375\303"
 230      145E5CDB 
 230      891CF14F 
 230      6BD7375B 
 230      FDC3
 231 00f3 D4EE67AA 		.ascii	"\324\356g\252[\305y\224\011Y\2403\032\022\015\017\030"
 231      5BC57994 
 231      0959A033 
 231      1A120D0F 
 231      18
 232 0104 E9B74E47 		.ascii	"\351\267NGj\231T\356[\024>\340\034\277y\332 k\220O\315"
 232      6A9954EE 
 232      5B143EE0 
 232      1CBF79DA 
 232      206B904F 
 233 0119 FFB1E2AF 		.ascii	"\377\261\342\2570\017\026]\330\234z\203<\317\263\333"
 233      300F165D 
 233      D89C7A83 
 233      3CCFB3DB 
 234 0129 AEDB6AA0 		.ascii	"\256\333j\240\314\340\013\356WqR\000\005/\341+\234\267"
 234      CCE00BEE 
 234      57715200 
 234      052FE12B 
 234      9CB7
 235 013b DCE5BBAE 		.ascii	"\334\345\273\256+\031\330\314\340\353\177\\A\206\015"
 235      2B19D8CC 
 235      E0EB7F5C 
 235      41860D
 236 014a C8ADAE6E 		.ascii	"\310\255\256n\375\304\206\206\361\255\033]*>\246v\251"
 236      FDC48686 
 236      F1AD1B5D 
 236      2A3EA676 
 236      A9
 237 015b B8E435AD 		.ascii	"\270\3445\255\332\014Y\244v\301\002\347\274\360\254"
 237      DA0C59A4 
 237      76C102E7 
 237      BCF0AC
 238 016a 4858A159 		.ascii	"HX\241Y\270\225\345\274\315\3000\221\022@^\010\014\240"
 238      B895E5BC 
 238      CDC03091 
ARM GAS  /tmp/ccO3i0OC.s 			page 18


 238      12405E08 
 238      0CA0
 239 017c 97F5441C 		.ascii	"\227\365D\034\2055$\340\337\302\225\322\355\365\210"
 239      853524E0 
 239      DFC295D2 
 239      EDF588
 240 018b 8A2B5ED4 		.ascii	"\212+^\324e\370\305\257\212\324\026\015\233+\261^m\304"
 240      65F8C5AF 
 240      8AD4160D 
 240      9B2BB15E 
 240      6DC4
 241 019d CDC003F5 		.ascii	"\315\300\003\365\025\226f\276\025\033\265\241\342}\357"
 241      159666BE 
 241      151BB5A1 
 241      E27DEF
 242 01ac D5EC2B0E 		.ascii	"\325\354+\016\370\2278\276\317\011q<\255\027\307\235"
 242      F89738BE 
 242      CF09713C 
 242      AD17C79D 
 243 01bc 83D18074 		.ascii	"\203\321\200t}\225\354\004T\362''\327\032\023\242\021"
 243      7D95EC04 
 243      54F22727 
 243      D71A13A2 
 243      11
 244 01cd 16301AB6 		.ascii	"\0260\032\266\354!\024\025\027h\343s\251\012C\305E\214"
 244      EC211415 
 244      1768E373 
 244      A90A43C5 
 244      458C
 245 01df 962DEF20 		.ascii	"\226-\357 [\372\335Y\276\256\372\364\321[\244oD\204"
 245      5BFADD59 
 245      BEAEFAF4 
 245      D15BA46F 
 245      4484
 246 01f1 46E371A5 		.ascii	"F\343q\245\374\267\034%\245\016*\216\255\211\265?\231"
 246      FCB71C25 
 246      A50E2A8E 
 246      AD89B53F 
 246      99
 247 0202 CEC43538 		.ascii	"\316\30458\036tk\226iZCJ\332\2623\216r\246'\321\235"
 247      1E746B96 
 247      695A434A 
 247      DAB2338E 
 247      72A627D1 
 248 0217 1855B494 		.ascii	"\030U\264\224f\331z\377\310)3\236\002yD\035\034\326"
 248      66D97AFF 
 248      C829339E 
 248      0279441D 
 248      1CD6
 249 0229 4FEE91A3 		.ascii	"O\356\221\243\217f\224\356D\357\331^\305\030\322\006"
 249      8F6694EE 
 249      44EFD95E 
 249      C518D206 
 250 0239 872FE98A 		.ascii	"\207/\351\212f:\206\323\237\3244\312k\017f\330\231Z"
 250      663A86D3 
 250      9FD434CA 
 250      6B0F66D8 
ARM GAS  /tmp/ccO3i0OC.s 			page 19


 250      995A
 251 024b 4CCA1973 		.ascii	"L\312\031s\032\375\202\244\345\320D\201b%\177[\242\267"
 251      1AFD82A4 
 251      E5D04481 
 251      62257F5B 
 251      A2B7
 252 025d 2736A03A 		.ascii	"'6\240:z\3326\216\305:O\000\263!d\352\246e\217A\023"
 252      7ADA368E 
 252      C53A4F00 
 252      B32164EA 
 252      A6658F41 
 253 0272 15920E1B 		.ascii	"\025\222\016\033C\031\335&v\177\001\376v\030_"
 253      4319DD26 
 253      767F01FE 
 253      76185F
 254              		.text
 255              		.section	.gnu.lto_gptStartOneShotI.8caed59ffdfd1a23,"",%progbits
 256 0000 789C5D4E 		.ascii	"x\234]N=k\002Q\020\234\331;E\260\320\326F\354,\204\273"
 256      3D6B0251 
 256      109CD93B 
 256      45B0D0D6 
 256      46EC2C84 
 257 0015 3FA360AA 		.ascii	"?\243`\252`\256\270\034D\024\265\263\360)\012)\255\015"
 257      60AEB81C 
 257      4414B5B3 
 257      F0290A29 
 257      AD0D
 258 0027 44D2A630 		.ascii	"D\322\2460\255)\204tV*\371\007\327\371\033\"\001\335"
 258      AD298474 
 258      562AF907 
 258      D7F91B22 
 258      01DD
 259 0039 E7C3C6E1 		.ascii	"\347\303\306\341\315\316\262o\366C \270GI\271SV\224"
 259      CDCEB26F 
 259      F64320B8 
 259      4749B953 
 259      5694
 260 004b F44099EF 		.ascii	"\364@\231\357\201qNH\233\200\030\011G\017\274z\277\344"
 260      81714E48 
 260      9B801809 
 260      470FBC7A 
 260      BFE4
 261 005d 273D9F57 		.ascii	"'=\237W\213\375\346\237\337\222\025\266\011_\203\375"
 261      8BFDE69F 
 261      DF9215B6 
 261      095F83FD 
 262 006d CD606ACC 		.ascii	"\315`j\314\274\322\246\256\210\256\366\272F;\243\241"
 262      BCD2A6AE 
 262      88AEF6BA 
 262      463BA3A1 
 263 007d 25556F87 		.ascii	"%Uo\207\311z}\374c\213\037\314\240\206O\243($\304\033"
 263      C97A7DFC 
 263      638B1FCC 
 263      A0864FA3 
 263      2824C41B 
 264 0091 164CC898 		.ascii	"\026L\310\230\322Tu'>\271\215\260\025\370\232\0340K"
 264      D2547527 
ARM GAS  /tmp/ccO3i0OC.s 			page 20


 264      3EB98DB0 
 264      15F89A1C 
 264      304B
 265 00a3 DFB779D7 		.ascii	"\337\267y\327\014\014q2\257\246\230\320\213\350\254"
 265      0C0C7132 
 265      AFA698D0 
 265      8BE8AC
 266 00b2 DA1ED34F 		.ascii	"\332\036\323O\250\346_\214\323e\365fu\250\253M\257\260"
 266      A8E65F8C 
 266      D365F566 
 266      75A8AB4D 
 266      AFB0
 267 00c4 D3CB4110 		.ascii	"\323\313A\020\272\327\351\207\317\255\227\260\337\213"
 267      BAD7E987 
 267      CFAD97B0 
 267      DF8B
 268 00d2 AC3EC6DD 		.ascii	"\254>\306\335A\020\341\002\243\007;\210"
 268      4110E102 
 268      A3073B88 
 269              		.text
 270              		.section	.gnu.lto_gptStopTimer.8caed59ffdfd1a23,"",%progbits
 271 0000 789C8552 		.ascii	"x\234\205ROh\323`\024\177/Y\332\352\220\355&\212te "
 271      4F68D360 
 271      147F2F59 
 271      DAEA90ED 
 271      268A7465 
 272 0015 0A6AA327 		.ascii	"\012j\243'\257\312N\036\212\260N\320S\311bh\003\315"
 272      AFCA4E1E 
 272      8AB04ED0 
 272      53C96268 
 272      03CD
 273 0027 52926E6C 		.ascii	"R\222nlx\330\327v\007A\030\243\023\021G\221)l8\330\324"
 273      78D8D776 
 273      074118A3 
 273      13114791 
 273      296C38D8 
 274 003c 83204831 		.ascii	"\203 H1\236Td\035z\032\350\264\260\203\350\305\355\344"
 274      9E54641D 
 274      7A1AE8B4 
 274      B083E8C5 
 274      EDE4
 275 004e F412DF97 		.ascii	"\364\022\337\227\266iZ\305%\371\362\276\367/\357\367"
 275      B6695AC5 
 275      25F9F2BE 
 275      F72FEFF7 
 276 005e FB7E1140 		.ascii	"\373~\021@\200\356\353\010\255\303\"\300W\262(\002\012"
 276      80EEEB08 
 276      ADC322C0 
 276      57B22802 
 276      0A
 277 006f 73358042 		.ascii	"s5\200BD@\344\033@\230\026p\372\032z\265\217\005\247"
 277      4440E41B 
 277      40981670 
 277      FA1A7AB5 
 277      8F05A7
 278 0082 EEBA6B3B 		.ascii	"\356\272k;\263K\237\360\205pPD\303\213K0\303\330\\\014"
 278      B34B9FF0 
ARM GAS  /tmp/ccO3i0OC.s 			page 21


 278      85705044 
 278      C38B4B30 
 278      C3D85C0C 
 279 0096 40F5DC11 		.ascii	"@\365\334\021z\363\336+(p+\276\205b\004`\020\026\031"
 279      7AF3DE2B 
 279      28702BBE 
 279      85620460 
 279      101619
 280 00a9 2BD7E71F 		.ascii	"+\327\347\037\255\277\302r\211\275a3\216\353\342\200"
 280      ADBFC272 
 280      89BD6133 
 280      8EEBE280 
 281 00b9 8E84E932 		.ascii	"\216\204\3512\362\326\253\250#\306<#\364t\202\3441\240"
 281      F2D6ABA8 
 281      23C63C23 
 281      F47482E4 
 281      31A0
 282 00cb 015083E2 		.ascii	"\001P\203\342\356ji\351\250?\262\261q\226?,\210'\025"
 282      EE6A69E9 
 282      A83FB2B1 
 282      71963F2C 
 282      882715
 283 00de 7C80833E 		.ascii	"|\200\203>\036\347\345\355\275\336c\276W\275\263\325"
 283      1EE7E5ED 
 283      BDDE63BE 
 283      57BDB3D5 
 284 00ee E73BB7B6 		.ascii	"\347;\267\266\266\211\262\202\213(\321d>]\240%\322\362"
 284      B689B282 
 284      8B28D164 
 284      3E5DA025 
 284      D2F2
 285 0100 0623DDAF 		.ascii	"\006#\335\257\311\245\323\022\033G\026\205M\254\260"
 285      C9A5D312 
 285      1B471685 
 285      4DACB0
 286 010f BB17748A 		.ascii	"\273\027t\212\006\361\264\363\037\233\371&\362 igw\366"
 286      06F1B4F3 
 286      1F9BF926 
 286      F2206967 
 286      77F6
 287 0121 1DB2322B 		.ascii	"\035\2622+\354\270n\237\216\222\000\333\270\037\343"
 287      ECB86E9F 
 287      8E9200DB 
 287      B81FE3
 288 0130 341FB40E 		.ascii	"4\037\264\016\305\347\233?\177a\027[\366\243B\\\327"
 288      C5E79B3F 
 288      7F61175B 
 288      F6A3425C 
 288      D7
 289 0141 3CAE2D0E 		.ascii	"<\256-\016\022o:\005+\2141\247\272!\352\030Z\200{\005"
 289      126F3A05 
 289      2B8C31A7 
 289      BA21EA18 
 289      5A807B05 
 290 0155 C6FA750C 		.ascii	"\306\372u\014\323\267\370\010\257\004F\321\353z\312"
 290      D3B7F808 
 290      AF0446D1 
ARM GAS  /tmp/ccO3i0OC.s 			page 22


 290      EB7ACA
 291 0164 5D1E0D71 		.ascii	"]\036\015q\374\0330S\377\262\334\253\340\023\257\352"
 291      FC1B3053 
 291      FFB2DCAB 
 291      E013AFEA 
 292 0174 06FC6637 		.ascii	"\006\374f7ykD\305P\263\326\203\244\343\201Nj\365\371"
 292      796B44C5 
 292      50B3D683 
 292      A4E3814E 
 292      6AF5F9
 293 0187 6FB56E3D 		.ascii	"o\265n=\025|\350\035\347\276\202\302\377\004\375^\341"
 293      157CE81D 
 293      E7BE82C2 
 293      FF04FD5E 
 293      E1
 294 0198 823EEB14 		.ascii	"\202>\353\024\364\376\241h\340w\363\225\335\013(\373"
 294      F4FEA168 
 294      E077F395 
 294      DD0B28FB 
 295 01a8 B924B54F 		.ascii	"\271$\265O%L+\302\307\250\004\374oq\025\\\241\215\217"
 295      254C2BC2 
 295      C7A804FC 
 295      6F71155C 
 295      A18D8F
 296 01bb A525A682 		.ascii	"\245%\246\202\253\030mD\336C\241^=\321\370\\\353\032"
 296      AB186D44 
 296      DE43A15E 
 296      3DD1F85C 
 296      EB1A
 297 01cd 21F1E8BF 		.ascii	"!\361\350\277\346\245\321x\\n<\246-g\224\254l[*\267"
 297      E6A5D178 
 297      5C6E3CA6 
 297      2D6794AC 
 297      6C5B2AB7 
 298 01e1 A9742E1F 		.ascii	"\251t.\037W\341L0\255\232\206a\216\3119\323\312\333"
 298      57E14C30 
 298      AD9A8661 
 298      8EC939D3 
 298      CADB
 299 01f3 F2C5E1C4 		.ascii	"\362\305\341\304PbRV3\252ii\251\211\363F<\003\322\204"
 299      50625256 
 299      33AA6969 
 299      A989F346 
 299      3C03D284 
 300 0207 921DD7CE 		.ascii	"\222\035\327\316\375\243G\233\314\313C\211\344\245\244"
 300      FDA3479B 
 300      CCCB4389 
 300      E4A5A4
 301 0216 AC8FA9D9 		.ascii	"\254\217\251\331\361\353\232\254\032\266n\247\322\252"
 301      F1EB9AAC 
 301      1AB66EA7 
 301      D2AA
 302 0224 4A7D03C1 		.ascii	"J}\003\301\016+\337\256\311\330Svw\236\2034mzQ!\267"
 302      0E2BDFAE 
 302      C9D85376 
 302      779E8334 
 302      6D7A5121 
ARM GAS  /tmp/ccO3i0OC.s 			page 23


 303 0239 94EF4F24 		.ascii	"\224\357O$\207c\243\212\255\345,\375t\354\370Y\020,"
 303      8763A38A 
 303      ADE52CFD 
 303      74ECF859 
 303      102C
 304 024b 081B9A61 		.ascii	"\010\033\232aZS\320CDr\177\0001\215\004\303"
 304      5A53D043 
 304      44727F00 
 304      318D04C3 
 305              		.text
 306              		.section	.gnu.lto_gptStopTimerI.8caed59ffdfd1a23,"",%progbits
 307 0000 789C6362 		.ascii	"x\234cb`b@\007\222@|\024\210\025\200\230\221\231\201"
 307      60624007 
 307      92407C14 
 307      88158098 
 307      919981
 308 0013 9169C239 		.ascii	"\221i\3029\006\206F\016&FF\020\203\201\221\241\236\211"
 308      0686460E 
 308      26464610 
 308      838191A1 
 308      9E89
 309 0025 B13E9211 		.ascii	"\261>\222\021\254v=\323\201\007\377\377\257\233s~Y\017"
 309      AC763DD3 
 309      8107FFFF 
 309      AF9B737E 
 309      590F
 310 0037 E33E2656 		.ascii	"\343>&V&\306\\\2608+CKC\303\004\205\\F /\031,\022\002"
 310      26C65CB0 
 310      382B434B 
 310      43C30485 
 310      5C46202F 
 311 004f 2441DA43 		.ascii	"$A\332C\031\231@4\363Y\206\246\0357\276\377dLd\\\310"
 311      19994034 
 311      F35986A6 
 311      1D37BEFF 
 311      644C645C 
 312 0064 C8CAA0CD 		.ascii	"\310\312\240\315\260\252\001\010\3703\031\031f3\314"
 312      B0AA0108 
 312      F8331919 
 312      6633CC
 313 0073 62CC6464 		.ascii	"b\314ddLgd\212\000\322\020\327%A,c\000\211\200\035|"
 313      4C67648A 
 313      00D210D7 
 313      25412C63 
 313      0089801D 
 314 0088 9EA1E5C1 		.ascii	"\236\241\345\301\375\345\334\020\315\014\014\325\014"
 314      FDE5DC10 
 314      CD0C0CD5 
 314      0C
 315 0095 BF1A3A1A 		.ascii	"\277\032:\032\0042\031\231\223\031!J\201\3323\031Y\030"
 315      04321999 
 315      9319214A 
 315      81DA3319 
 315      5918
 316 00a7 182E3234 		.ascii	"\030.24>x\241\016S\007\001!@5@'\200\314\221\323\323"
 316      3E78A10E 
 316      53070121 
ARM GAS  /tmp/ccO3i0OC.s 			page 24


 316      40354027 
 316      80CC91D3 
 317 00bc D387A0FC 		.ascii	"\323\207\240\374b\375\214\304\034\375\342\242d\020\035"
 317      62FD8CC4 
 317      1CFDE2A2 
 317      64101D
 318 00cb 9F5E50A2 		.ascii	"\237^P\242\227\314\000\000!\":\266"
 318      97CC0000 
 318      21223AB6 
 319              		.text
 320              		.section	.gnu.lto_gptPolledDelay.8caed59ffdfd1a23,"",%progbits
 321 0000 789C6362 		.ascii	"x\234cb`b@\007\222@\314\315\310\300\240\000\244\031"
 321      60624007 
 321      9240CCCD 
 321      C8C0A000 
 321      A419
 322 0012 99191899 		.ascii	"\231\031\030\231&\234c`h\344`bd\0041\030\030\031\352"
 322      269C6360 
 322      68E46062 
 322      64043118 
 322      1819EA
 323 0025 9918EB23 		.ascii	"\231\030\353#\031\301j\3273\035x\360\377\377\272?\347"
 323      19C16AD7 
 323      331D78F0 
 323      FFFFBA3F 
 323      E7
 324 0036 F7BC613C 		.ascii	"\367\274a<\301\304\316\304\230\313\310\300\002$@\262"
 324      C1C4CEC4 
 324      98CBC8C0 
 324      022440B2 
 325 0046 AC0C2D0D 		.ascii	"\254\014-\015\015\023\024r\031\201V$\203\225\207\000"
 325      0D131472 
 325      19815624 
 325      83958700 
 326 0056 499019A1 		.ascii	"I\220\031\241@! \315|\226\241i\307\217E\277\030\023"
 326      402120CD 
 326      7C96A169 
 326      C78F45BF 
 326      1813
 327 0068 191732B2 		.ascii	"\031\0272\2622h3\254j\000\002\376LF\206\331\014\263"
 327      326833AC 
 327      6A0002FE 
 327      4C4686D9 
 327      0CB3
 328 007a 18331919 		.ascii	"\0303\031\031\323\031\231\"\2004\304\211I\020\033\031"
 328      D3199922 
 328      8034C489 
 328      49101B19 
 329 008a 40220C2C 		.ascii	"@\"\014,@\306y\206\326\007=/\271!\232\031\030\252\031"
 329      40C67986 
 329      D6073D2F 
 329      B9219A19 
 329      18AA19
 330 009d 7E357434 		.ascii	"~5t4\010d22'3B\224\002\265\2473\262d2\002\025\203l\332"
 330      08643232 
 330      27334294 
 330      02B5A733 
ARM GAS  /tmp/ccO3i0OC.s 			page 25


 330      B2643202 
 331 00b5 B1981C9B 		.ascii	"\261\230\034\233@B\027\031\032\037\364i\302,\202\200"
 331      40421719 
 331      1A1FF469 
 331      C22C8280 
 332 00c5 10A02540 		.ascii	"\020\240%@?\200\244\345\364\364\364!(\277X?#1G\277\270"
 332      3F80A4E5 
 332      F4F4F421 
 332      28BF583F 
 332      233147BF 
 333 00da 281944C7 		.ascii	"(\031D\307\247\027\224\350%3\000\000,\244G\322"
 333      A71794E8 
 333      25330000 
 333      2CA447D2 
 334              		.text
 335              		.section	.gnu.lto_.symbol_nodes.8caed59ffdfd1a23,"",%progbits
 336 0000 789C4DC7 		.ascii	"x\234M\307;\016\202P\024E\321{\036\362\007\201\3519"
 336      3B0E8250 
 336      1445D17B 
 336      1EF20781 
 336      E939
 337 0012 99434263 		.ascii	"\231CBc\351\010l\034\212\275\275\177\0205111N\300\010"
 337      E9086C1C 
 337      8ABDBD7F 
 337      10353131 
 337      314EC008 
 338 0026 427C7737 		.ascii	"B|w7;\313\210\221\031d\310lA\221\305F\204\\\316av \024"
 338      3BCB8891 
 338      1964C86C 
 338      4191C546 
 338      845CCE61 
 339 003d F7A0513C 		.ascii	"\367\240Q<\200\216\342\021\234(\236@W\361\014z\2125"
 339      808EE211 
 339      9C289E40 
 339      57F10C7A 
 339      8A35
 340 004f E82B3660 		.ascii	"\350+6`\240x\001C\305\026\214\024\257`l\211\033\230"
 340      A0780143 
 340      C5168C14 
 340      AF606C89 
 340      1B98
 341 0061 0C2C4BE0 		.ascii	"\014,K\340\016\246V\017pj\365\0043\253\027\230[\275"
 341      0EA6560F 
 341      706AF504 
 341      33AB1798 
 341      5BBD
 342 0073 C1E22F47 		.ascii	"\301\342/G\022\251\352\017\034\223J\333\337\231\312"
 342      12A9EA0F 
 342      1C934ADB 
 342      DF99CA
 343 0082 BABF9BC9 		.ascii	"\272\277\233\311\252\351\356u\357\355\217\016F\207\271"
 343      AAE9EE75 
 343      EFED8F0E 
 343      4687B9
 344 0091 54BDA37C 		.ascii	"T\275\243|p\\\374._\331\261o\203"
 344      705CFC2E 
 344      5FD9B16F 
ARM GAS  /tmp/ccO3i0OC.s 			page 26


 344      83
 345              		.text
 346              		.section	.gnu.lto_.refs.8caed59ffdfd1a23,"",%progbits
 347 0000 789C6362 		.ascii	"x\234cb`b`d\200\002\000\000F\000\006"
 347      60626064 
 347      80020000 
 347      460006
 348              		.text
 349              		.section	.gnu.lto_.decls.8caed59ffdfd1a23,"",%progbits
 350 0000 789CA55A 		.ascii	"x\234\245Z\015pT\325\025\276\367\355\206\354\222\037"
 350      0D7054D5 
 350      15BEF7ED 
 350      86EC921F 
 351 0010 017F8A9D 		.ascii	"\001\177\212\235Q\026G:\216S\010\004\001\307i\205\260"
 351      5116473A 
 351      8E530804 
 351      01C76985 
 351      B0
 352 0021 49495AF2 		.ascii	"IIZ\362\343n2\325q\352\366\261Y\310\352f7\356n(\231"
 352      E36E32D5 
 352      71EAF6B1 
 352      59C8EA66 
 352      37EE6E28 
 353 0036 69EB0B44 		.ascii	"i\353\013D\211\177\230\020\240\341/\006\001\245\243"
 353      897F9810 
 353      A0E12F06 
 353      01A5A3
 354 0045 D381D430 		.ascii	"\323\201\3240\212\324,V$\022\013\0210  \331\211\"m\035"
 354      8AD42C56 
 354      24120B11 
 354      302020D9 
 354      89226D1D 
 355 0059 340E05B4 		.ascii	"4\016\005\264\240\351\271\367\275\267\373\336\315}\233"
 355      A0E9B9F7 
 355      BDB7FBDE 
 355      CD7D9B
 356 0068 B7768773 		.ascii	"\267v\207s\337}7\367|\347|\347\234w\367\276\273\010"
 356      DF7D37F7 
 356      7CE77CE7 
 356      9C77F7BE 
 356      BB08
 357 007a 4840B60C 		.ascii	"H@\266\014\204F\340\363\370]\010\035\260\"\224\203\020"
 357      8446E0F3 
 357      F85D081D 
 357      B0229483 
 357      10
 358 008b BA1F0483 		.ascii	"\272\037\004\203lC\362g\022\310\036\220n\220\311\360"
 358      6C43F267 
 358      12C81E90 
 358      6E90C9F0 
 359 009b 0707C89D 		.ascii	"\007\007\310\235 3A\346\200\334\0072\037\244\020\244"
 359      203341E6 
 359      80DC0732 
 359      1FA410A4 
 360 00ab 186431C8 		.ascii	"\030d1\310\003 n\220*\220_\203<\004\3620F\243>\004W"
 360      03206E90 
 360      2A905F83 
ARM GAS  /tmp/ccO3i0OC.s 			page 27


 360      3C04F230 
 360      46A33E04 
 361 00c0 00F90DFC 		.ascii	"\000\371\015\374\255K\031\023\224\361\0078\363\211\017"
 361      AD4B1913 
 361      94F10738 
 361      F3890F
 362 00cf 56C5B737 		.ascii	"V\305\2677A\336\0009\240\350\274\015\022S|\357V\256"
 362      41DE0039 
 362      A0E8BC0D 
 362      12537CEF 
 362      56AE
 363 00e1 373318C4 		.ascii	"73\030\304\377,\270\366\201\344\202d\203<\002cK\260"
 363      FF2CB8F6 
 363      81E48264 
 363      833C0263 
 363      4BB0
 364 00f3 8CA3621E 		.ascii	"\214\243b\036\007\331\253\330\021\024\\\202oW0\252A"
 364      07D9ABD8 
 364      11145C82 
 364      6F5730AA 
 364      41
 365 0104 96813C0A 		.ascii	"\226\201<\012R\253p]\016\322\000\362{\020\013\314\273"
 365      52AB705D 
 365      0ED200F2 
 365      7B100BCC 
 365      BB
 366 0115 0DAEB783 		.ascii	"\015\256\267\203<\301\370\340H\341\203jW\353\013\317"
 366      3CC1F8E0 
 366      48E1836A 
 366      57EB0BCF 
 367 0125 0707C787 		.ascii	"\007\007\307\207*\306\007\242s\007\\\237b\354\337\251"
 367      2AC607A2 
 367      73075C9F 
 367      62ECDFA9 
 368 0135 D83F0792 		.ascii	"\330?\007\222i\340\207j\373<\310\240b\377\023\220k "
 368      69E0876A 
 368      FB3CC8A0 
 368      62FF1390 
 368      6B20
 369 0147 360583B5 		.ascii	"6\005\203\265\317\362\377)\\\247\203<\313\330\237\231"
 369      CFF2FF29 
 369      5CA7833C 
 369      CBD89F99 
 370 0157 823FB179 		.ascii	"\202?\261y\027N\346\267\005\372\323\260\234K\302}\274"
 370      174EE6B7 
 370      05FAD3B0 
 370      9C4BC27D 
 370      BC
 371 0168 A2CFDA9E 		.ascii	"\242\317\332\236\243\324\031\313?\037\256\263\031\373"
 371      A3D419CB 
 371      3F1FAEB3 
 371      19FB
 372 0176 646E06D2 		.ascii	"dn\006\322\327\020kG@IL\302e\036\\\357\005ie\260\356"
 372      D7106B47 
 372      40494CC2 
 372      651E5CEF 
 372      056965B0 
ARM GAS  /tmp/ccO3i0OC.s 			page 28


 373 018b FB3FB9DC 		.ascii	"\373?\271\334\307\3412\337\200\313\317\340\372s\306"
 373      C7E132DF 
 373      80CBCFE0 
 373      FA73C6
 374 019a FE7C935C 		.ascii	"\376|\223\\\346k\270\024\300u!\310\006\006\213<\277"
 374      E66BB814 
 374      C07521C8 
 374      06068B3C 
 374      BF
 375 01ab E3537051 		.ascii	"\343SpQm\2505\252\345Q\310\341Q\254<\367Z\036D\347\027"
 375      6DA835AA 
 375      E551C8E1 
 375      51AC3CF7 
 375      5A1E44E7 
 376 01c0 8CDD620E 		.ascii	"\214\335b\016\007\326\206\200\222x\244\377K\270nfp\026"
 376      07D68680 
 376      9278A4FF 
 376      4BB86E66 
 376      7016
 377 01d2 9B8C0599 		.ascii	"\233\214\005\231\367\260\022\2132\270\226\203t2X\231"
 377      F7B0128B 
 377      32B89683 
 377      74325899 
 378 01e2 E829495A 		.ascii	"\350)IZ)\305\237\\9\271\035b\361 \026q\256\035*\237"
 378      29C59F5C 
 378      39B91D62 
 378      F1201671 
 378      AE1D2A9F 
 379 01f6 74B2ED14 		.ascii	"t\262\355\024n\032\332!I-\361\363g\260C\304\333p&`\203"
 379      6E1ADA21 
 379      492DF1F3 
 379      67B043C4 
 379      DB702660 
 380 020b A5BBD19F 		.ascii	"\245\273\321\237%\030\006\345\037\243\321\037\023\260"
 380      251806E5 
 380      1FA3D11F 
 380      13B0
 381 0219 08897827 		.ascii	"\010\211x'\240\211x\007\276[6\"\305\21678\344Q\244\214"
 381      A0897807 
 381      BE5B3622 
 381      C58E3738 
 381      E451A48C 
 382 022d 733E1642 		.ascii	"s>\026BN \225J\320\254\366\344\320\302\304\020\326L"
 382      4E20954A 
 382      D0ACF6E4 
 382      D0C2C410 
 382      D64C
 383 023f FC556254 		.ascii	"\374UbT\320\214V%F-\232\321\352\304\250U\261Fn\261="
 383      D08C5625 
 383      462D9AD1 
 383      EAC4A855 
 383      B1466EB1 
 384 0254 D919D107 		.ascii	"\331\031\321\007P\313A\304/\343i\320\276\202-\\\265"
 384      50CB41C4 
 384      2FE369D0 
 384      BE822D5C 
 384      B5
ARM GAS  /tmp/ccO3i0OC.s 			page 29


 385 0265 29A843EA 		.ascii	")\250C\352\214\307?\\\275\177\334F)\326$\215\214<\201"
 385      8CC73F5C 
 385      BD7FDC46 
 385      29D6248D 
 385      8C3C81
 386 0278 6E41EB81 		.ascii	"nA\353\201\267\324\011\341\302Q\021\337\177\263\032"
 386      B7D409E1 
 386      C25111DF 
 386      7FB31A
 387 0287 2B871A2B 		.ascii	"+\207\032+\253b\247\013\337\242\364\252,\262m\001\275"
 387      AB62A70B 
 387      DFA2F4AA 
 387      2CB26D01 
 387      BD
 388 0298 803113A7 		.ascii	"\2001\023\247\237\240\235\004O\332%Y(\032\231\277\007"
 388      9FA09D04 
 388      4FDA2559 
 388      281A99BF 
 388      07
 389 02a9 4FD1BBFC 		.ascii	"O\321\273\374W,h\007d\277b\355\357e\2674\306GF\246\230"
 389      572C6807 
 389      64BF62ED 
 389      EF65B734 
 389      C64746A6 
 390 02be F769AFE2 		.ascii	"\367i\257\342\223E\016m\026z\206d\035\024\213{s'\241"
 390      93450E6D 
 390      167A8664 
 390      1D148B7B 
 390      7327A1
 391 02d1 5682E2E8 		.ascii	"V\202\342\350M\346_\302*\300\204d]=\371\342m\222U\304"
 391      4DE65FC2 
 391      2AC08464 
 391      5D3DF9E2 
 391      6D9255C4 
 392 02e5 6FE24900 		.ascii	"o\342I\000\362'\206\320\230 \"~\013\310\210x?\250k+"
 392      F22786D0 
 392      9820227E 
 392      0BC88878 
 392      3FA86B2B 
 393 02f9 29DED677 		.ascii	")\336\326w}5n\004\006\362\337R\324\323T\324\011^\307"
 393      7D356E04 
 393      06F2DF52 
 393      D4D354D4 
 393      095EC7
 394 030c AE0D76FC 		.ascii	"\256\015v\374H\212\307\260Z\343\003\324\025\242\313"
 394      488AC7B0 
 394      5AE303D4 
 394      15A2CB
 395 031b AB5EA59B 		.ascii	"\253^\245\233\254\221\\;\203\32764l!i\266\360\242\002"
 395      AC915C3B 
 395      83D73634 
 395      6C2169B6 
 395      F0A202
 396 032e 33F01881 		.ascii	"3\360\030\201\211}<\210\035&\370\377\035jn\314id\342"
 396      897D3C88 
 396      1D26F8FF 
 396      1D6A6ECC 
ARM GAS  /tmp/ccO3i0OC.s 			page 30


 396      6964E2
 397 0341 412644B1 		.ascii	"A&D\261\313\347\262I\344\017\232\012O\353`\307\255R"
 397      CBE7B249 
 397      E40F9A0A 
 397      4FEB60C7 
 397      AD52
 398 0353 E73B50CA 		.ascii	"\347;P\312\315I6\210[\031\212\377=\0357\023\370^L\036"
 398      CD493688 
 398      5B198AFF 
 398      3D1D3713 
 398      F85E4C1E 
 399 0367 BCB34C62 		.ascii	"\274\263LbM\303\304\267\276p\342k\274\222&\262\217B"
 399      4DC3C4B7 
 399      BE70E26B 
 399      BC9226B2 
 399      8F42
 400 0379 1D14F450 		.ascii	"\035\024\364P\"\316\264k\035\246\367\352\004\202\227"
 400      22CEB46B 
 400      1DA6F7EA 
 400      048297
 401 0388 694F76C8 		.ascii	"iOv\310\036\360\006\224\356t\001\035\241F\017&\253A"
 401      1EF00694 
 401      EE74011D 
 401      A1460F26 
 401      AB41
 402 039a E7EA98D5 		.ascii	"\347\352\230\325\000\345x\341$n[%\365\316\324\225\203"
 402      00E578E1 
 402      246E5B25 
 402      F5CED495 
 402      83
 403 03ab FC08A560 		.ascii	"\374\010\245`\177~(&H\222M\304\3758\013\3348\305p7\011"
 403      7F7E2826 
 403      48924DC4 
 403      FD380BDC 
 403      38C57037 
 404 03c0 46581E07 		.ascii	"FX\036\007\000~\222G\375M@\237\247M\327\301\320\375"
 404      007E9247 
 404      FD4D409F 
 404      A74DD7C1 
 404      D0FD
 405 03d2 52A1AB66 		.ascii	"R\241\253f\355+3\2106\343\307i`0\273ET\301.\245\015"
 405      ED2B3388 
 405      36E3C769 
 405      6030BB45 
 405      54C12EA5 
 406 03e7 E618C559 		.ascii	"\346\030\305Y^\261\337\243+\366!<\025\332\243\264\375"
 406      5EB1DFA3 
 406      2BF6213C 
 406      15DAA3B4 
 406      FD
 407 03f8 88B627A1 		.ascii	"\210\266'\241M|\004\364\315\250\232\223\237\032\015"
 407      4D7C04F4 
 407      CDA89A93 
 407      9F1A0D
 408 0407 5EF2F142 		.ascii	"^\362\361Bc#\032%\351\000\316J\032]iaV\240\364\222\020"
 408      63231A25 
 408      E900CE4A 
ARM GAS  /tmp/ccO3i0OC.s 			page 31


 408      1A5D6961 
 408      56A0F492 
 409 041c EB1AEAC5 		.ascii	"\353\032\352\305\322\332l5hO\233\201K\221\201\267R-"
 409      D2DA6C35 
 409      684F9B81 
 409      4B9181B7 
 409      522D
 410 042e 68BAA567 		.ascii	"h\272\245g\234\212\366[\224(\344\236MW\347\322B\036"
 410      9C8AF65B 
 410      9428E49E 
 410      4D57E7D2 
 410      421E
 411 0440 A40BFD3B 		.ascii	"\244\013\375;\226\261\027z\035\014\211\316\020\273\202"
 411      96B1177A 
 411      1D0C89CE 
 411      10BB82
 412 044f B59DA12B 		.ascii	"\265\235\241+\330\320\330+X\323\252\330\3723[\222+\330"
 412      D8D0D82B 
 412      58D3AAD8 
 412      FA335B92 
 412      2BD8
 413 0461 AA944B8F 		.ascii	"\252\224K\217\210?\240uaje\240L\206~\330\312\000nm8"
 413      883FA075 
 413      616A65A0 
 413      4C867ED8 
 413      CA006E6D 
 414 0476 430BFB3C 		.ascii	"C\013\373<\315\321\261\264\301\034:\260v-\330\200\031"
 414      CDD1B1B4 
 414      C11C3AB0 
 414      762DD880 
 414      19
 415 0487 30A38403 		.ascii	"0\243\204\003\330&-\330\231\264\301\364\236m\321\202"
 415      D8262DD8 
 415      99B4C1F4 
 415      9E6DD182 
 416 0497 C5CD804D 		.ascii	"\305\315\200M0\366\254C\013\366i\332`z\317vk\301.\230"
 416      30F6AC43 
 416      0BF669DA 
 416      607ACF76 
 416      6BC12E98 
 417 04ab 019B6CEC 		.ascii	"\001\233l\354Y\227\026\354b\332`z\317^\327\202]2\003"
 417      599716EC 
 417      62DA607A 
 417      CF5ED782 
 417      5D3203
 418 04be E630F66C 		.ascii	"\3460\366l\257\026\354\233\264\301\364\236\275\241\005"
 418      AF16EC9B 
 418      B4C1F49E 
 418      BDA105
 419 04cd BB6E06EC 		.ascii	"\273n\006\354.c\317\366i\301$k\272`z\317\366k\301\232"
 419      2E63CFF6 
 419      69C1246B 
 419      BA607ACF 
 419      F66BC19A 
 420 04e1 CC80CD34 		.ascii	"\314\200\3154\362\2541\366\366\303-\342D\324\242\254"
 420      F2AC31F6 
 420      F6C32DE2 
ARM GAS  /tmp/ccO3i0OC.s 			page 32


 420      44D4A2AC 
 421 04f1 4C32AAC1 		.ascii	"L2\252\301\376J;\255\317x\232\210\033\205\211\264G\227"
 421      FE4A3BAD 
 421      CF789A88 
 421      1B8589B4 
 421      4797
 422 0503 2129F1D5 		.ascii	"!)\361\325\235m\347\372H4V\012\366\204\213\331\366d"
 422      9D6DE7FA 
 422      4834560A 
 422      F6848BD9 
 422      F664
 423 0515 C782929F 		.ascii	"\307\202\222\237\344,\240\335\314\322\326{\301\343\255"
 423      E42CA0DD 
 423      CCD2D67B 
 423      C1E3AD
 424 0524 0F62BF36 		.ascii	"\017b\2776\210\317\231\011\342\002c\260cZ\260V3`\305"
 424      88CF9909 
 424      E20263B0 
 424      635AB056 
 424      3360C5
 425 0537 C6B57242 		.ascii	"\306\265rB\013\266>m0\275g\003Z\260Mf\300*\214=;\245"
 425      0BB63E6D 
 425      30BD6703 
 425      5AB04D66 
 425      C02A8C3D 
 426 054d 05DB9A36 		.ascii	"\005\333\2326\230\326\263\306\330\351d\341u.`*o\201"
 426      98D6B3C6 
 426      D8E964E1 
 426      752E602A 
 426      6F81
 427 055f 7EB5D54D 		.ascii	"~\265\325M\3533\234&\342\226\264\013\257\325\240\360"
 427      EB339C26 
 427      E296B40B 
 427      AFD5A0F0 
 428 056f B4AFC0C9 		.ascii	"\264\257\300\311Y@{;K[\347\204\322}\220\023C\336G\373"
 428      59407B3B 
 428      4B5BE784 
 428      D27D9013 
 428      43DE47FB 
 429 0583 7D2FE24F 		.ascii	"}/\342O\351\027\362gt+u\201\266\377\242\355\027\264"
 429      E917F267 
 429      742B7581 
 429      B6FFA2ED 
 429      17B4
 430 0595 BD48DBAF 		.ascii	"\275H\333\257h\3735m/\321\3662m\257\322\366[\332^\243"
 430      68FB356D 
 430      2FD1F632 
 430      6DAFD2F6 
 430      5BDA5EA3 
 431 05a9 ED77B41D 		.ascii	"\355w\264\035\241m\223@\332\247h\333L\333gh\373\034"
 431      A16D9340 
 431      DAA768DB 
 431      4CDB6768 
 431      FB1C
 432 05bb 6DD70826 		.ascii	"m\327\010&\266m\347\264\333\266]\326t\367Y\216TA\330"
 432      B66DE7B4 
 432      DBB65DD6 
ARM GAS  /tmp/ccO3i0OC.s 			page 33


 432      74F7598E 
 432      5441D8
 433 05ce AF09C2DF 		.ascii	"\257\011\302\337h\020\336\246n\307h{\206\266\237\230"
 433      6810DEA6 
 433      6EC7687B 
 433      86B69F98 
 434 05de D95BBE91 		.ascii	"\331[\276\221t2y\206@=~\315\252\337\214\335\211\266"
 434      74327986 
 434      403D7ECD 
 434      AADF8CDD 
 434      89B6
 435 05f0 4BD2DAF8 		.ascii	"K\322\332\370\207\253\337\373\232l\342\213e]\001\355"
 435      87ABDFFB 
 435      9A6CE28B 
 435      655D01ED 
 436 0600 A3F3BAF1 		.ascii	"\243\363\272\361\024\203M\223bA9\203x^zr\002N\034Bt"
 436      14834D93 
 436      62413983 
 436      785E7A72 
 436      024E1C42 
 437 0615 B38710EB 		.ascii	"\263\207\020\353\004\336!\304\211\364\017!6\012\272"
 437      04DE21C4 
 437      89F40F21 
 437      360ABA
 438 0624 4308D98D 		.ascii	"C\010\331\215\304\215\262\243f\030\367p\031K\227\253"
 438      C48DB2A3 
 438      6618F770 
 438      194B97AB 
 439 0634 15AE22DE 		.ascii	"\025\256\"\336 \220c\205v!%WE\355\270\257X6$\342\323"
 439      20906385 
 439      76212557 
 439      45EDB8AF 
 439      583624E2 
 440 0649 38B5DA81 		.ascii	"8\265\332\201\024!\"Z\272\020m\341\206h\313!%D\362\373"
 440      1421225A 
 440      BA106DE1 
 440      8668CB21 
 440      2544F2FB 
 441 065d 9E807AF9 		.ascii	"\236\200z\371d.\261d:S\2231\360\252\223\365j\033\327"
 441      642EB164 
 441      3A539331 
 441      F0AA93F5 
 441      6A1BD7
 442 0670 ABB587D3 		.ascii	"\253\265\207\323N\334\316\024\2113\177>\320\366\354"
 442      4EDCCE14 
 442      89337F3E 
 442      D0F6EC
 443 067f C02BCAF9 		.ascii	"\300+\312\371\300.\201\254\275\375L8\344UQG\301\324"
 443      C02E81AC 
 443      BDFD4C38 
 443      E4555147 
 443      C1D4
 444 0691 01015332 		.ascii	"\001\001S2\037\033<$\207\336\355\302\353\022\017\211"
 444      1F1B3C24 
 444      87DEEDC2 
 444      EB120F89 
 445 06a1 1AEB1DA6 		.ascii	"\032\353\035\246\012\347#R8\262\327_\310\360\206j\273"
ARM GAS  /tmp/ccO3i0OC.s 			page 34


 445      0AE72352 
 445      38B2D75F 
 445      C8F0866A 
 445      BB
 446 06b2 E455969B 		.ascii	"\344U\226\233\242\035l\212^\345\246\350\324\341D\341"
 446      A21D6C8A 
 446      5EE5A6E8 
 446      D4E144E1 
 447 06c2 90D00BE8 		.ascii	"\220\320\013\350?\374\302\331\350c\310\3546E\346\244"
 447      3FFCC2D9 
 447      E863C8EC 
 447      3645E6A4 
 448 06d2 4A46C47F 		.ascii	"JF\304\177\031C-\025\231\335,\231=\243\311\304\207c"
 448      19432D15 
 448      99DD2C99 
 448      3DA3C9C4 
 448      8763
 449 06e4 1BFA6432 		.ascii	"\033\372d2/.P\331\254\316\340\262\331\314\262\3516\305"
 449      2F2E50D9 
 449      ACCEE0B2 
 449      D9CCB2E9 
 449      36C5
 450 06f6 E663968D 		.ascii	"\346c\226\215\261Z*6\335,\233\275\334\324\234\355cR"
 450      B15A2A36 
 450      DD2C9BBD 
 450      DCD49CED 
 450      6352
 451 0708 B3994FA6 		.ascii	"\263\231O\246\215%\263\317\024\231\017Y2\306j\251\310"
 451      8D25B3CF 
 451      14990F59 
 451      32C66AA9 
 451      C8
 452 0719 EC63C9BC 		.ascii	"\354c\311\274\305M\315\246#lj^\345\263Y\317\262\351"
 452      C54DCDA6 
 452      236C6A5E 
 452      E5B359CF 
 452      B2E9
 453 072b 31BFDC6A 		.ascii	"1\277\334j\331\030\253\245b\323\303\262\211qS3|\204"
 453      D918ABA5 
 453      62D3C3B2 
 453      89715333 
 453      7C84
 454 073d 596EF7F3 		.ascii	"Yn\367\363\311|\307.\267\357\376\240\345\366]\326\253"
 454      C97CC72E 
 454      B7EFFEA0 
 454      E5F65DD6 
 454      AB
 455 074e 83DC186F 		.ascii	"\203\334\030o9\232\214\261\354\326\373|\267FX\267z\177"
 455      399A8CB1 
 455      ECD6FB7C 
 455      B74658B7 
 455      7A7F
 456 0760 905BBDAC 		.ascii	"\220[\275\254[\357s\203u\375(S\307'\371^\265\262\231"
 456      5BEF7383 
 456      75FD2853 
 456      C727F95E 
 456      B5B299
ARM GAS  /tmp/ccO3i0OC.s 			page 35


 457 0773 FFC054E6 		.ascii	"\377\300T\346{\330\314\033\253\245\312\374\007,\231"
 457      7BD8CC1B 
 457      ABA5CAFC 
 457      072C99
 458 0782 7F70624C 		.ascii	"\177pbL\276Y.\337\332\336%5=-}?\362\004\226\177\201"
 458      BE592EDF 
 458      DADE2535 
 458      3D2D7D3F 
 458      F204967F 
 459 0797 11D0E70C 		.ascii	"\021\320\347\014#\025\343\030\017#6p\241\0277\257\225"
 459      2315E318 
 459      0F233670 
 459      A11737AF 
 459      95
 460 07a8 AE8F8C58 		.ascii	"\256\217\214X\220\232\251K\006\010'\270\010\2478\010"
 460      909AA94B 
 460      060827B8 
 460      08A73808 
 461 07b8 8DE3F808 		.ascii	"\215\343\370\010\003\\\204\323:\0049/k\014\020Nq\021"
 461      035C84D3 
 461      3A04392F 
 461      6B0C104E 
 461      7111
 462 07ca CE727C78 		.ascii	"\316r|x\311\000"
 462      C900
 463 07d0 E13417E1 		.ascii	"\3414\027\341\034\307\207n\003\204\263z\004\346\214"
 463      1CC7876E 
 463      0384B37A 
 463      04E68C
 464 07df BB2BC519 		.ascii	"\273+\305\031\367'\202\356\034;\361j\324\236\253\354"
 464      F72782EE 
 464      1C3BF16A 
 464      D49EABEC 
 465 07ef 27E23BA5 		.ascii	"'\342;\245\311\223\023\333\211\321?s\222\0374\005\021"
 465      C99313DB 
 465      89D13F73 
 465      921F3405 
 465      11
 466 0800 0FD2AFE4 		.ascii	"\017\322\257\344\303\343\230\037K\223.\016j\336\214"
 466      C3E3981F 
 466      4B932E0E 
 466      6ADE8C
 467 080f E4BEDA23 		.ascii	"\344\276\332#?\364)\360\023TxA\321:\247\274\201i\336"
 467      3FF429F0 
 467      13547841 
 467      D13AA7BC 
 467      8169DE
 468 0822 99D46383 		.ascii	"\231\324c\203\366\\Y]Q\275WU\315T\024\206\322~y\373"
 468      F65C595D 
 468      51BD5755 
 468      CD541486 
 468      D27E79FB 
 469 0836 D4E0E56D 		.ascii	"\324\340\345m\234&1\261\341x\317\225S\177x\255K\222"
 469      9C2631B1 
 469      E178CF95 
 469      537F78AD 
 469      4B92
ARM GAS  /tmp/ccO3i0OC.s 			page 36


 470 0848 68913736 		.ascii	"h\22176%\312\374\253Q\311\341\375\264\370\031\373$\235"
 470      25CAFCAB 
 470      51C9E1FD 
 470      B4F819FB 
 470      249D
 471 085a 1F9D7D30 		.ascii	"\037\235}0r\345\352\360#\352O\236SU\013\2333\315X\270"
 471      72E5EAF0 
 471      23EA4F9E 
 471      53550B9B 
 471      33CD58B8 
 472 086e C05AF827 		.ascii	"\300Z\370'\327\302\246k\375\233p\353*\251W\032\206\375"
 472      D7C2A66B 
 472      FD9B70EB 
 472      2AA9571A 
 472      86FD
 473 0880 5BA74D35 		.ascii	"[\247M5r\334\224\221\177\263F\276\340\032\271\366\375"
 473      72DC9491 
 473      7FB346BE 
 473      E01AB9F6 
 473      FD
 474 0891 70F1B7C9 		.ascii	"p\361\267\311XM5\277\325\375\222\335\352\222-)\263\301"
 474      584D35BF 
 474      D5FD92DD 
 474      EA922D29 
 474      B3C1
 475 08a3 7CC1A675 		.ascii	"|\301\246uU\371Az\253M\251A\365\233\034\336\217\260"
 475      55F9417A 
 475      AB4DA941 
 475      F59B1CDE 
 475      8FB0
 476 08b5 7AA2FF2A 		.ascii	"z\242\377*\325\270h\270\006*\373^\205\361\245\306\212"
 476      D5B868B8 
 476      062AFB5E 
 476      85F1A5C6 
 476      8A
 477 08c6 C909C617 		.ascii	"\311\011\306\027Y\306\303\\\306=W\206\377\310\253\216"
 477      59C6C35C 
 477      C63D5786 
 477      FFC8AB8E 
 478 08d6 3D363361 		.ascii	"=63a\275\302\032\271jP\035\3755\243\252\243\307\224"
 478      BDC21AB9 
 478      6A501DFD 
 478      35A3AAA3 
 478      C794
 479 08e8 856F590B 		.ascii	"\205oY\013\3775\252\216\255\274\352\3503e\344:k\344"
 479      FF35AA8E 
 479      ADBCEAE8 
 479      3365E43A 
 479      6BE4
 480 08fa 3BBD913B 		.ascii	";\275\221;\3206\251\277\037^\227\007f5\266\304\032;"
 480      D036A9BF 
 480      1F5E9707 
 480      6635B6C4 
 480      1A3B
 481 090c C92A8771 		.ascii	"\311*\207q\362\311N\254=1\303\377\014!\342\2700\315"
 481      F2C94EAC 
 481      3D31C3FF 
ARM GAS  /tmp/ccO3i0OC.s 			page 37


 481      0C21E2B8 
 481      30CD
 482 091e ECBA52AC 		.ascii	"\354\272R\254j\312s\015\226\020f\226\210WZ\322]BVY\370"
 482      6ACA730D 
 482      96106696 
 482      88575AD2 
 482      5D425659 
 483 0933 4B884D17 		.ascii	"K\210M\027\015u\026\371\266\247\361\324\274\3752N\010"
 483      0D7516F9 
 483      B6A7F1D4 
 483      BCFD324E 
 483      08
 484 0944 286E53FF 		.ascii	"(nS\377\357\307x\254F.\266\373\220d\333-5\223\374k\226"
 484      EFC778AC 
 484      462EB6FB 
 484      9064DB2D 
 484      3593FC6B 
 485 0959 6C11375A 		.ascii	"l\0217Z\306<\364bH\217:\364jN\233\364\323\006\2443u"
 485      C63CF462 
 485      488F3AF4 
 485      6A4E9BF4 
 485      D306A433 
 486 096e A4D559D0 		.ascii	"\244\325Y\320m\2620/\327\214\023\002\372\222Gz\303a"
 486      6DB2302F 
 486      D78C1302 
 486      FA92477A 
 486      C361
 487 0980 96B483E1 		.ascii	"\226\264\203\341\334\2228\265\235\224*\321\3544\021"
 487      DC9238B5 
 487      9D942AD1 
 487      EC3411
 488 098f 3F9F36E9 		.ascii	"?\2376\3515\006\244'\352H\257aIk^WY/\004t]\307\232\371"
 488      3506A427 
 488      EA48AF61 
 488      496B5E57 
 488      592F0474 
 489 09a7 16273B00 		.ascii	"\026';\000#gZ,\211\203*%V[\372\306\212Ug\302\374M\251"
 489      23675A2C 
 489      89832A25 
 489      565BFAC6 
 489      8A5567C2 
 490 09be 62C54E13 		.ascii	"b\305N\023q[\332\261Zg\020\253\033u\261Z\307\306J\363"
 490      715BDAB1 
 490      5A6710AB 
 490      1B75B15A 
 490      C7C64AF3 
 491 09d2 FEC87A21 		.ascii	"\376\310z!\240g\354\274\307\342\310X\254\233\261>Q\006"
 491      A067ECBC 
 491      C7E2C858 
 491      AC9BB13E 
 491      5106
 492 09e4 ACD969F0 		.ascii	"\254\331i\360\210\246\315z\243\001\353\011:\326\033"
 492      88A6CD7A 
 492      A301EB09 
 492      3AD61B
 493 09f3 59D69A57 		.ascii	"Y\326\232W3\326\013\001\265\363Xw\035\035\213u\235\212"
 493      33D60B01 
ARM GAS  /tmp/ccO3i0OC.s 			page 38


 493      B5F35877 
 493      1D1D8B75 
 493      9D8A
 494 0a05 939B8A34 		.ascii	"\223\233\21243K\304[\323\346\334a\3009G\307\271\203"
 494      334BC45B 
 494      D3E6DC61 
 494      C03947C7 
 494      B983
 495 0a17 E5AC79C3 		.ascii	"\345\254y\303b\234\020\320\313<\312-\307\306\242\274"
 495      629C10D0 
 495      CB3CCA2D 
 495      C7C6A2BC 
 496 0a27 42C5B921 		.ascii	"B\305\271!\025ef\226\210_J\233\362v\003\312\271:\312"
 496      15656696 
 496      885F4A9B 
 496      F27603CA 
 496      B93ACA
 497 0a3a DB59CA9A 		.ascii	"\333Y\312\232\3670\306\011\001\275\256\243\214\356\230"
 497      F730C609 
 497      01BDAEA3 
 497      8CEE98
 498 0a49 31234FFE 		.ascii	"1#O\376\027\212\344\325\210\201<\177\320\033\250\257"
 498      178AE4D5 
 498      88813C7F 
 498      D01BA8AF 
 499 0a59 F691BE67 		.ascii	"\366\221\276gY]tF\015\032\017\227HT\214\372<\321q\213"
 499      595D7446 
 499      0D1A0F97 
 499      48548CFA 
 499      3CD1718B 
 500 0a6d CAAA1C4E 		.ascii	"\312\252\034N4~QE\245\247\252\254\244\254\244\322F\272"
 500      347E5145 
 500      A5A7AAAC 
 500      A4ACA4D2 
 500      46BA
 501 0a7f EECAF20A 		.ascii	"\356\312\362\012;\351\270\212\012\012\037\312%=gyYe"
 501      3BE9B88A 
 501      0A0A1FCA 
 501      253D6779 
 501      5965
 502 0a91 49595579 		.ascii	"IYUy\225;\213\334\226\227\025\271\213\313+og\255E\302"
 502      953B8BDC 
 502      969715B9 
 502      8BCB2B6F 
 502      67AD45C2 
 503 0aa5 DE84252F 		.ascii	"\336\204%/\312\204KI\320\037%X\205a\377r_\370\036V\241"
 503      CA844B49 
 503      D01F2558 
 503      8561FF72 
 503      5FF81E56 
 504 0aba 2E148E46 		.ascii	".\024\216F\362\334\225\245\263\363\363\026/.\314\253"
 504      F2DC95A5 
 504      B3F3F316 
 504      2F2ECCAB 
 505 0aca 2C295D3E 		.ascii	",)]>K\205\360\004\002\325\340p\006\365\326\016\003K"
 505      4B85F004 
 505      02D5E070 
ARM GAS  /tmp/ccO3i0OC.s 			page 39


 505      06F5D60E 
 505      034B
 506 0adc C3BEC73D 		.ascii	"\303\276\307=\321G\362jB\265\276<1\340[\221W\352\013"
 506      D147F26A 
 506      42B5BE3C 
 506      31E05B91 
 506      57EA0B
 507 0aef 4643E145 		.ascii	"FC\341Ea\261\256\306\357\005\240P}\330\353\0137x\234"
 507      61B1AEC6 
 507      EF05A050 
 507      7DD8EB0B 
 507      37789C
 508 0b02 A16ADF42 		.ascii	"\241j\337B_\320[\343Y\354\007\246KCaO\201\253\324ST"
 508      5FD05BE3 
 508      59EC07A6 
 508      4B43614F 
 508      81ABD453 
 509 0b17 B0B0244F 		.ascii	"\260\260$O\014\327N\017\206\202\276\351>q\211?\021\240"
 509      0CD74E0F 
 509      8682BEE9 
 509      3E71893F 
 509      11A0
 510 0b29 48B4DA1F 		.ascii	"H\264\332\037$\361\261\325\303uv\276'j'\346\352\001"
 510      24F1B1D5 
 510      C37576BE 
 510      276A27E6 
 510      EA01
 511 0b3b A421076C 		.ascii	"\244!\007l{\305@`\211\350}\314\023\265\251]\2137\234"
 511      7BC54060 
 511      89E87DCC 
 511      13B5A95D 
 511      8B379C
 512 0b4e 6FADF6FB 		.ascii	"o\255\366\373\302\204\2403\024\\\352_6\316K/\031\336"
 512      C284A033 
 512      145CEA5F 
 512      36CE4B2F 
 512      19DE
 513 0b60 40C8FB58 		.ascii	"@\310\373X\2769\266\221h-1\347\257\005\343Y\211\033"
 513      BE39B691 
 513      682D31E7 
 513      AF05E359 
 513      891B
 514 0b72 4FD4E274 		.ascii	"O\324\342t\315\002\311\267\272K\235.kaI\221Kp\273,E"
 514      CD02C9B7 
 514      BA4B9D2E 
 514      6B614991 
 514      4B70BB2C 
 515 0b87 8B5C194E 		.ascii	"\213\\\031Ng\251k\026m\363\255Ng\221\313\342,\253\264"
 515      67A96B16 
 515      6DF3AD4E 
 515      6791CBE2 
 515      2CABB4
 516 0b9a 54B89D96 		.ascii	"T\270\235\226\002\227\313\342r\302=(,,\254tY\012\211"
 516      0297CBE2 
 516      72C23D28 
 516      2C2CAC74 
 516      590A89
ARM GAS  /tmp/ccO3i0OC.s 			page 40


 517 0bad 6669814B 		.ascii	"fi\201K(\227\265f\303\374\007]\026\300'\234\312\227"
 517      2897B566 
 517      C3FC075D 
 517      16C0279C 
 517      CA97
 518 0bbf 3CEAF3D2 		.ascii	"<\352\363\322\024Y\341\256\316\006\215;*\206\243\231"
 518      1459E1AE 
 518      CE068D3B 
 518      2A86A399 
 519 0bcf B413A203 		.ascii	"\264\023\242\003\336`\324\023\235\010\035g\215\030\\"
 519      DE60D413 
 519      9D081D67 
 519      8D185C
 520 0bde E62B0946 		.ascii	"\346+\011F}\341\345b\300\346W:\223T%\010@\324\037\254"
 520      7DE1E562 
 520      C0E6573A 
 520      93542508 
 520      40D41FAC 
 521 0bf2 0FD5476E 		.ascii	"\017\325Gn\034=Tr\203:V\036\364\271kB\321\011\314}I"
 521      1C3D5472 
 521      833A561E 
 521      F4B96B42 
 521      D109CC7D 
 522 0c07 B662B3D2 		.ascii	"\266b\263\322_\353\013\347hoJr\341\256\"\024\010\370"
 522      5FEB0BE7 
 522      686F4A72 
 522      E1AE2214 
 522      08F8
 523 0c19 AA0B7D01 		.ascii	"\252\013}\001\261![)\015\217\037\034\317Qo\"\004,;y"
 523      B1215B29 
 523      0D8F1F1C 
 523      CF516F22 
 523      042C3B79 
 524 0c2d 17AABB51 		.ascii	"\027\252\273Q\367'\022S_x\222v\202<t\223:TGMx\252\211"
 524      F7271253 
 524      5F789276 
 524      823C7493 
 524      3A54474D 
 525 0c44 0DABB746 		.ascii	"\015\253\267F\014Oa\363\027\212@\023\216\322+I\026\271"
 525      0C4F61F3 
 525      178A4013 
 525      8ED22B49 
 525      16B9
 526 0c56 BA1B228B 		.ascii	"\272\033\"\213!\327\272\2710E-+oM\244!\002s\355\336"
 526      21D7BAB9 
 526      30452D2B 
 526      6F4DA421 
 526      0273EDDE 
 527 0c6a 1A65E674 		.ascii	"\032e\346t\355Lo\250\2666\024T\012\003*\324Y\272\002"
 527      ED4C6FA8 
 527      B6361454 
 527      0A032AD4 
 527      59BA02
 528 0c7d 54BCA1B0 		.ascii	"T\274\241\260\317\263|\036)\010;\371\223\207T\323,\216"
 528      CFB37C1E 
 528      29083BF9 
 528      938754D3 
ARM GAS  /tmp/ccO3i0OC.s 			page 41


 528      2C8E
 529 0c8f 9E6F4534 		.ascii	"\236oE4\317Y\352.q'\355\325F\374\021\3172\257\027ts"
 529      CF59EA2E 
 529      7127EDD5 
 529      46FC11CF 
 529      32AF1774 
 530 0ca4 3C9E882F 		.ascii	"<\236\210/\352YX\340.\252p\225\344\210\201\337\211\015"
 530      EA5958E0 
 530      2EAA7095 
 530      E48881DF 
 530      890D
 531 0cb6 11885AC0 		.ascii	"\021\210Z\300\037\364e@\352\352}9\012\203\252 \261\220"
 531      1FF46540 
 531      EAEA7D39 
 531      0A83AA20 
 531      B190
 532 0cc8 457D54FA 		.ascii	"E}T\372\324n=\355\333<\236\245\365A\257\307\223\243"
 532      D46E3DED 
 532      DB3C9EA5 
 532      F541AFC7 
 532      93A3
 533 0cda 7666CC9D 		.ascii	"vf\314\235\233\177\257\366nv\276\356n\236\366\356\236"
 533      9B7FAFF6 
 533      6E76BEEE 
 533      6E9EF6EE 
 533      9E
 534 0ceb B9DABB39 		.ascii	"\271\332\2739s\264wsuzs\347\375\017\241\271nG"
 534      73B47773 
 534      757A73E7 
 534      FD0FA1B9 
 534      6E47
 535              		.text
 536              		.section	.gnu.lto_.symtab.8caed59ffdfd1a23,"",%progbits
 537 0000 67707449 		.ascii	"gptInit\000\000\000\000\000\000\000\000\000\000\000"
 537      6E697400 
 537      00000000 
 537      00000000 
 537      0000
 538 0012 00B10000 		.ascii	"\000\261\000\000\000gptObjectInit\000\000\000\000\000"
 538      00677074 
 538      4F626A65 
 538      6374496E 
 538      69740000 
 539 0029 00000000 		.ascii	"\000\000\000\000\000\000\000\265\000\000\000gptStar"
 539      000000B5 
 539      00000067 
 539      70745374 
 539      6172
 540 003b 74000000 		.ascii	"t\000\000\000\000\000\000\000\000\000\000\000\000\030"
 540      00000000 
 540      00000000 
 540      0018
 541 0049 01000067 		.ascii	"\001\000\000gptStop\000\000\000\000\000\000\000\000"
 541      70745374 
 541      6F700000 
 541      00000000 
 541      0000
ARM GAS  /tmp/ccO3i0OC.s 			page 42


 542 005b 00000000 		.ascii	"\000\000\000\000 \001\000\000gptChangeInterval\000\000"
 542      20010000 
 542      67707443 
 542      68616E67 
 542      65496E74 
 543 0076 00000000 		.ascii	"\000\000\000\000\000\000\000\000\000\000$\001\000\000"
 543      00000000 
 543      00002401 
 543      0000
 544 0084 67707453 		.ascii	"gptStartContinuous\000\000\000\000\000\000\000\000\000"
 544      74617274 
 544      436F6E74 
 544      696E756F 
 544      75730000 
 545 009f 00000030 		.ascii	"\000\000\0000\001\000\000gptStartContinuousI\000\000"
 545      01000067 
 545      70745374 
 545      61727443 
 545      6F6E7469 
 546 00bb 00000000 		.ascii	"\000\000\000\000\000\000\000\000\000\0005\001\000\000"
 546      00000000 
 546      00003501 
 546      0000
 547 00c9 67707453 		.ascii	"gptStartOneShot\000\000\000\000\000\000\000\000\000"
 547      74617274 
 547      4F6E6553 
 547      686F7400 
 547      00000000 
 548 00e1 0000003A 		.ascii	"\000\000\000:\001\000\000gptStartOneShotI\000\000\000"
 548      01000067 
 548      70745374 
 548      6172744F 
 548      6E655368 
 549 00fb 00000000 		.ascii	"\000\000\000\000\000\000\000\000\000?\001\000\000gp"
 549      00000000 
 549      003F0100 
 549      006770
 550 010a 7453746F 		.ascii	"tStopTimer\000\000\000\000\000\000\000\000\000\000\000"
 550      7054696D 
 550      65720000 
 550      00000000 
 550      00000000 
 551 011f 00440100 		.ascii	"\000D\001\000\000gptStopTimerI\000\000\000\000\000\000"
 551      00677074 
 551      53746F70 
 551      54696D65 
 551      72490000 
 552 0137 00000000 		.ascii	"\000\000\000\000\000\000H\001\000\000gptPolledDelay"
 552      00004801 
 552      00006770 
 552      74506F6C 
 552      6C656444 
 553 014f 00000000 		.ascii	"\000\000\000\000\000\000\000\000\000\000\000\000L\001"
 553      00000000 
 553      00000000 
 553      4C01
 554 015d 00006770 		.ascii	"\000\000gpt_lld_init\000\000\002\000\000\000\000\000"
ARM GAS  /tmp/ccO3i0OC.s 			page 43


 554      745F6C6C 
 554      645F696E 
 554      69740000 
 554      02000000 
 555 0173 00000000 		.ascii	"\000\000\000\000Q\001\000\000gpt_lld_start\000\000\002"
 555      51010000 
 555      6770745F 
 555      6C6C645F 
 555      73746172 
 556 018b 00000000 		.ascii	"\000\000\000\000\000\000\000\000\000S\001\000\000gp"
 556      00000000 
 556      00530100 
 556      006770
 557 019a 745F6C6C 		.ascii	"t_lld_stop\000\000\002\000\000\000\000\000\000\000\000"
 557      645F7374 
 557      6F700000 
 557      02000000 
 557      00000000 
 558 01af 00550100 		.ascii	"\000U\001\000\000gpt_lld_start_timer\000\000\002\000"
 558      00677074 
 558      5F6C6C64 
 558      5F737461 
 558      72745F74 
 559 01cb 00000000 		.ascii	"\000\000\000\000\000\000\000\000W\001\000\000gpt_ll"
 559      00000000 
 559      57010000 
 559      6770745F 
 559      6C6C
 560 01dd 645F7374 		.ascii	"d_stop_timer\000\000\002\000\000\000\000\000\000\000"
 560      6F705F74 
 560      696D6572 
 560      00000200 
 560      00000000 
 561 01f3 00005901 		.ascii	"\000\000Y\001\000\000gpt_lld_polled_delay\000\000\002"
 561      00006770 
 561      745F6C6C 
 561      645F706F 
 561      6C6C6564 
 562 0210 00000000 		.ascii	"\000\000\000\000\000\000\000\000\000[\001\000\000"
 562      00000000 
 562      005B0100 
 562      00
 563              		.text
 564              		.section	.gnu.lto_.opts,"",%progbits
 565 0000 272D6D63 		.ascii	"'-mcpu=cortex-m3' '-mno-thumb-interwork' '-mthumb' "
 565      70753D63 
 565      6F727465 
 565      782D6D33 
 565      2720272D 
 566 0033 272D6767 		.ascii	"'-ggdb' '-O2' '-fomit-frame-pointer' '-falign-funct"
 566      64622720 
 566      272D4F32 
 566      2720272D 
 566      666F6D69 
 567 0066 696F6E73 		.ascii	"ions=16' '-ffunction-sections' '-fdata-sections' '-"
 567      3D313627 
 567      20272D66 
ARM GAS  /tmp/ccO3i0OC.s 			page 44


 567      66756E63 
 567      74696F6E 
 568 0099 666E6F2D 		.ascii	"fno-common' '-flto'\000"
 568      636F6D6D 
 568      6F6E2720 
 568      272D666C 
 568      746F2700 
 569              		.text
 570              		.cfi_sections	.debug_frame
 571              		.section	.text.gptInit,"ax",%progbits
 572              		.align	2
 573              		.p2align 4,,15
 574              		.global	gptInit
 575              		.thumb
 576              		.thumb_func
 577              		.type	gptInit, %function
 578              	gptInit:
 579              	.LFB217:
 580              		.file 1 "../../../os/hal/src/hal_gpt.c"
 581              		.loc 1 56 0
 582              		.cfi_startproc
 583              		@ args = 0, pretend = 0, frame = 0
 584              		@ frame_needed = 0, uses_anonymous_args = 0
 585              		@ link register save eliminated.
 586              		.loc 1 58 0
 587 0000 FFF7FEBF 		b	gpt_lld_init
 588              	.LVL0:
 589              		.cfi_endproc
 590              	.LFE217:
 591              		.size	gptInit, .-gptInit
 592 0004 AFF30080 		.section	.text.gptObjectInit,"ax",%progbits
 592      AFF30080 
 592      AFF30080 
 593              		.align	2
 594              		.p2align 4,,15
 595              		.global	gptObjectInit
 596              		.thumb
 597              		.thumb_func
 598              		.type	gptObjectInit, %function
 599              	gptObjectInit:
 600              	.LFB218:
 601              		.loc 1 68 0
 602              		.cfi_startproc
 603              		@ args = 0, pretend = 0, frame = 0
 604              		@ frame_needed = 0, uses_anonymous_args = 0
 605              		@ link register save eliminated.
 606              	.LVL1:
 607              		.loc 1 70 0
 608 0000 0122     		movs	r2, #1
 609              		.loc 1 71 0
 610 0002 0023     		movs	r3, #0
 611              		.loc 1 70 0
 612 0004 0270     		strb	r2, [r0]
 613              		.loc 1 71 0
 614 0006 4360     		str	r3, [r0, #4]
 615 0008 7047     		bx	lr
 616              		.cfi_endproc
ARM GAS  /tmp/ccO3i0OC.s 			page 45


 617              	.LFE218:
 618              		.size	gptObjectInit, .-gptObjectInit
 619 000a 00BFAFF3 		.section	.text.gptStart,"ax",%progbits
 619      0080
 620              		.align	2
 621              		.p2align 4,,15
 622              		.global	gptStart
 623              		.thumb
 624              		.thumb_func
 625              		.type	gptStart, %function
 626              	gptStart:
 627              	.LFB219:
 628              		.loc 1 82 0
 629              		.cfi_startproc
 630              		@ args = 0, pretend = 0, frame = 0
 631              		@ frame_needed = 0, uses_anonymous_args = 0
 632              	.LVL2:
 633 0000 10B5     		push	{r4, lr}
 634              		.cfi_def_cfa_offset 8
 635              		.cfi_offset 4, -8
 636              		.cfi_offset 14, -4
 637              	.LBB108:
 638              	.LBB109:
 639              	.LBB110:
 640              	.LBB111:
 641              	.LBB112:
 642              		.file 2 "../../../os/common/ext/CMSIS/include/cmsis_gcc.h"
 643              		.loc 2 264 0
 644 0002 2023     		movs	r3, #32
 645              	.LBE112:
 646              	.LBE111:
 647              	.LBE110:
 648              	.LBE109:
 649              	.LBE108:
 650              		.loc 1 82 0
 651 0004 0446     		mov	r4, r0
 652              	.LBB117:
 653              	.LBB116:
 654              	.LBB115:
 655              	.LBB114:
 656              	.LBB113:
 657              		.loc 2 264 0
 658              	@ 264 "../../../os/common/ext/CMSIS/include/cmsis_gcc.h" 1
 659 0006 83F31188 		MSR basepri, r3
 660              	@ 0 "" 2
 661              		.thumb
 662              	.LBE113:
 663              	.LBE114:
 664              	.LBE115:
 665              	.LBE116:
 666              	.LBE117:
 667              		.loc 1 89 0
 668 000a 4160     		str	r1, [r0, #4]
 669              		.loc 1 90 0
 670 000c FFF7FEFF 		bl	gpt_lld_start
 671              	.LVL3:
 672              		.loc 1 91 0
ARM GAS  /tmp/ccO3i0OC.s 			page 46


 673 0010 0223     		movs	r3, #2
 674 0012 2370     		strb	r3, [r4]
 675              	.LVL4:
 676              	.LBB118:
 677              	.LBB119:
 678              	.LBB120:
 679              	.LBB121:
 680              	.LBB122:
 681              	.LBB123:
 682              		.loc 2 264 0
 683 0014 0023     		movs	r3, #0
 684              	@ 264 "../../../os/common/ext/CMSIS/include/cmsis_gcc.h" 1
 685 0016 83F31188 		MSR basepri, r3
 686              	@ 0 "" 2
 687              		.thumb
 688 001a 10BD     		pop	{r4, pc}
 689              	.LBE123:
 690              	.LBE122:
 691              	.LBE121:
 692              	.LBE120:
 693              	.LBE119:
 694              	.LBE118:
 695              		.cfi_endproc
 696              	.LFE219:
 697              		.size	gptStart, .-gptStart
 698 001c AFF30080 		.section	.text.gptStop,"ax",%progbits
 699              		.align	2
 700              		.p2align 4,,15
 701              		.global	gptStop
 702              		.thumb
 703              		.thumb_func
 704              		.type	gptStop, %function
 705              	gptStop:
 706              	.LFB220:
 707              		.loc 1 102 0
 708              		.cfi_startproc
 709              		@ args = 0, pretend = 0, frame = 0
 710              		@ frame_needed = 0, uses_anonymous_args = 0
 711              	.LVL5:
 712 0000 10B5     		push	{r4, lr}
 713              		.cfi_def_cfa_offset 8
 714              		.cfi_offset 4, -8
 715              		.cfi_offset 14, -4
 716              	.LBB124:
 717              	.LBB125:
 718              	.LBB126:
 719              	.LBB127:
 720              	.LBB128:
 721              		.loc 2 264 0
 722 0002 2023     		movs	r3, #32
 723              	.LBE128:
 724              	.LBE127:
 725              	.LBE126:
 726              	.LBE125:
 727              	.LBE124:
 728              		.loc 1 102 0
 729 0004 0446     		mov	r4, r0
ARM GAS  /tmp/ccO3i0OC.s 			page 47


 730              	.LBB133:
 731              	.LBB132:
 732              	.LBB131:
 733              	.LBB130:
 734              	.LBB129:
 735              		.loc 2 264 0
 736              	@ 264 "../../../os/common/ext/CMSIS/include/cmsis_gcc.h" 1
 737 0006 83F31188 		MSR basepri, r3
 738              	@ 0 "" 2
 739              		.thumb
 740              	.LBE129:
 741              	.LBE130:
 742              	.LBE131:
 743              	.LBE132:
 744              	.LBE133:
 745              		.loc 1 111 0
 746 000a FFF7FEFF 		bl	gpt_lld_stop
 747              	.LVL6:
 748              		.loc 1 113 0
 749 000e 0122     		movs	r2, #1
 750              		.loc 1 112 0
 751 0010 0023     		movs	r3, #0
 752              		.loc 1 113 0
 753 0012 2270     		strb	r2, [r4]
 754              	.LVL7:
 755              		.loc 1 112 0
 756 0014 6360     		str	r3, [r4, #4]
 757              	.LBB134:
 758              	.LBB135:
 759              	.LBB136:
 760              	.LBB137:
 761              	.LBB138:
 762              	.LBB139:
 763              		.loc 2 264 0
 764              	@ 264 "../../../os/common/ext/CMSIS/include/cmsis_gcc.h" 1
 765 0016 83F31188 		MSR basepri, r3
 766              	@ 0 "" 2
 767              		.thumb
 768 001a 10BD     		pop	{r4, pc}
 769              	.LBE139:
 770              	.LBE138:
 771              	.LBE137:
 772              	.LBE136:
 773              	.LBE135:
 774              	.LBE134:
 775              		.cfi_endproc
 776              	.LFE220:
 777              		.size	gptStop, .-gptStop
 778 001c AFF30080 		.section	.text.gptChangeInterval,"ax",%progbits
 779              		.align	2
 780              		.p2align 4,,15
 781              		.global	gptChangeInterval
 782              		.thumb
 783              		.thumb_func
 784              		.type	gptChangeInterval, %function
 785              	gptChangeInterval:
 786              	.LFB221:
ARM GAS  /tmp/ccO3i0OC.s 			page 48


 787              		.loc 1 129 0
 788              		.cfi_startproc
 789              		@ args = 0, pretend = 0, frame = 0
 790              		@ frame_needed = 0, uses_anonymous_args = 0
 791              		@ link register save eliminated.
 792              	.LVL8:
 793              	.LBB140:
 794              	.LBB141:
 795              	.LBB142:
 796              	.LBB143:
 797              	.LBB144:
 798              		.loc 2 264 0
 799 0000 2023     		movs	r3, #32
 800              	@ 264 "../../../os/common/ext/CMSIS/include/cmsis_gcc.h" 1
 801 0002 83F31188 		MSR basepri, r3
 802              	@ 0 "" 2
 803              		.thumb
 804              	.LBE144:
 805              	.LBE143:
 806              	.LBE142:
 807              	.LBE141:
 808              	.LBE140:
 809              		.loc 1 136 0
 810 0006 C368     		ldr	r3, [r0, #12]
 811 0008 0139     		subs	r1, r1, #1
 812              	.LVL9:
 813 000a D962     		str	r1, [r3, #44]
 814              	.LVL10:
 815              	.LBB145:
 816              	.LBB146:
 817              	.LBB147:
 818              	.LBB148:
 819              	.LBB149:
 820              	.LBB150:
 821              		.loc 2 264 0
 822 000c 0023     		movs	r3, #0
 823              	@ 264 "../../../os/common/ext/CMSIS/include/cmsis_gcc.h" 1
 824 000e 83F31188 		MSR basepri, r3
 825              	@ 0 "" 2
 826              		.thumb
 827 0012 7047     		bx	lr
 828              	.LBE150:
 829              	.LBE149:
 830              	.LBE148:
 831              	.LBE147:
 832              	.LBE146:
 833              	.LBE145:
 834              		.cfi_endproc
 835              	.LFE221:
 836              		.size	gptChangeInterval, .-gptChangeInterval
 837 0014 AFF30080 		.section	.text.gptStartContinuous,"ax",%progbits
 837      AFF30080 
 837      AFF30080 
 838              		.align	2
 839              		.p2align 4,,15
 840              		.global	gptStartContinuous
 841              		.thumb
ARM GAS  /tmp/ccO3i0OC.s 			page 49


 842              		.thumb_func
 843              		.type	gptStartContinuous, %function
 844              	gptStartContinuous:
 845              	.LFB222:
 846              		.loc 1 148 0
 847              		.cfi_startproc
 848              		@ args = 0, pretend = 0, frame = 0
 849              		@ frame_needed = 0, uses_anonymous_args = 0
 850              	.LVL11:
 851 0000 08B5     		push	{r3, lr}
 852              		.cfi_def_cfa_offset 8
 853              		.cfi_offset 3, -8
 854              		.cfi_offset 14, -4
 855              	.LBB151:
 856              	.LBB152:
 857              	.LBB153:
 858              	.LBB154:
 859              	.LBB155:
 860              		.loc 2 264 0
 861 0002 2023     		movs	r3, #32
 862              	@ 264 "../../../os/common/ext/CMSIS/include/cmsis_gcc.h" 1
 863 0004 83F31188 		MSR basepri, r3
 864              	@ 0 "" 2
 865              	.LVL12:
 866              		.thumb
 867              	.LBE155:
 868              	.LBE154:
 869              	.LBE153:
 870              	.LBE152:
 871              	.LBE151:
 872              	.LBB156:
 873              	.LBB157:
 874              		.loc 1 170 0
 875 0008 0323     		movs	r3, #3
 876 000a 0370     		strb	r3, [r0]
 877              		.loc 1 171 0
 878 000c FFF7FEFF 		bl	gpt_lld_start_timer
 879              	.LVL13:
 880              	.LBE157:
 881              	.LBE156:
 882              	.LBB158:
 883              	.LBB159:
 884              	.LBB160:
 885              	.LBB161:
 886              	.LBB162:
 887              	.LBB163:
 888              		.loc 2 264 0
 889 0010 0023     		movs	r3, #0
 890              	@ 264 "../../../os/common/ext/CMSIS/include/cmsis_gcc.h" 1
 891 0012 83F31188 		MSR basepri, r3
 892              	@ 0 "" 2
 893              		.thumb
 894 0016 08BD     		pop	{r3, pc}
 895              	.LBE163:
 896              	.LBE162:
 897              	.LBE161:
 898              	.LBE160:
ARM GAS  /tmp/ccO3i0OC.s 			page 50


 899              	.LBE159:
 900              	.LBE158:
 901              		.cfi_endproc
 902              	.LFE222:
 903              		.size	gptStartContinuous, .-gptStartContinuous
 904 0018 AFF30080 		.section	.text.gptStartContinuousI,"ax",%progbits
 904      AFF30080 
 905              		.align	2
 906              		.p2align 4,,15
 907              		.global	gptStartContinuousI
 908              		.thumb
 909              		.thumb_func
 910              		.type	gptStartContinuousI, %function
 911              	gptStartContinuousI:
 912              	.LFB223:
 913              		.loc 1 163 0
 914              		.cfi_startproc
 915              		@ args = 0, pretend = 0, frame = 0
 916              		@ frame_needed = 0, uses_anonymous_args = 0
 917              		@ link register save eliminated.
 918              	.LVL14:
 919              		.loc 1 170 0
 920 0000 0323     		movs	r3, #3
 921 0002 0370     		strb	r3, [r0]
 922              		.loc 1 171 0
 923 0004 FFF7FEBF 		b	gpt_lld_start_timer
 924              	.LVL15:
 925              		.cfi_endproc
 926              	.LFE223:
 927              		.size	gptStartContinuousI, .-gptStartContinuousI
 928 0008 AFF30080 		.section	.text.gptStartOneShot,"ax",%progbits
 928      AFF30080 
 929              		.align	2
 930              		.p2align 4,,15
 931              		.global	gptStartOneShot
 932              		.thumb
 933              		.thumb_func
 934              		.type	gptStartOneShot, %function
 935              	gptStartOneShot:
 936              	.LFB224:
 937              		.loc 1 182 0
 938              		.cfi_startproc
 939              		@ args = 0, pretend = 0, frame = 0
 940              		@ frame_needed = 0, uses_anonymous_args = 0
 941              	.LVL16:
 942 0000 08B5     		push	{r3, lr}
 943              		.cfi_def_cfa_offset 8
 944              		.cfi_offset 3, -8
 945              		.cfi_offset 14, -4
 946              	.LBB164:
 947              	.LBB165:
 948              	.LBB166:
 949              	.LBB167:
 950              	.LBB168:
 951              		.loc 2 264 0
 952 0002 2023     		movs	r3, #32
 953              	@ 264 "../../../os/common/ext/CMSIS/include/cmsis_gcc.h" 1
ARM GAS  /tmp/ccO3i0OC.s 			page 51


 954 0004 83F31188 		MSR basepri, r3
 955              	@ 0 "" 2
 956              	.LVL17:
 957              		.thumb
 958              	.LBE168:
 959              	.LBE167:
 960              	.LBE166:
 961              	.LBE165:
 962              	.LBE164:
 963              	.LBB169:
 964              	.LBB170:
 965              		.loc 1 205 0
 966 0008 0423     		movs	r3, #4
 967 000a 0370     		strb	r3, [r0]
 968              		.loc 1 206 0
 969 000c FFF7FEFF 		bl	gpt_lld_start_timer
 970              	.LVL18:
 971              	.LBE170:
 972              	.LBE169:
 973              	.LBB171:
 974              	.LBB172:
 975              	.LBB173:
 976              	.LBB174:
 977              	.LBB175:
 978              	.LBB176:
 979              		.loc 2 264 0
 980 0010 0023     		movs	r3, #0
 981              	@ 264 "../../../os/common/ext/CMSIS/include/cmsis_gcc.h" 1
 982 0012 83F31188 		MSR basepri, r3
 983              	@ 0 "" 2
 984              		.thumb
 985 0016 08BD     		pop	{r3, pc}
 986              	.LBE176:
 987              	.LBE175:
 988              	.LBE174:
 989              	.LBE173:
 990              	.LBE172:
 991              	.LBE171:
 992              		.cfi_endproc
 993              	.LFE224:
 994              		.size	gptStartOneShot, .-gptStartOneShot
 995 0018 AFF30080 		.section	.text.gptStartOneShotI,"ax",%progbits
 995      AFF30080 
 996              		.align	2
 997              		.p2align 4,,15
 998              		.global	gptStartOneShotI
 999              		.thumb
 1000              		.thumb_func
 1001              		.type	gptStartOneShotI, %function
 1002              	gptStartOneShotI:
 1003              	.LFB225:
 1004              		.loc 1 197 0
 1005              		.cfi_startproc
 1006              		@ args = 0, pretend = 0, frame = 0
 1007              		@ frame_needed = 0, uses_anonymous_args = 0
 1008              		@ link register save eliminated.
 1009              	.LVL19:
ARM GAS  /tmp/ccO3i0OC.s 			page 52


 1010              		.loc 1 205 0
 1011 0000 0423     		movs	r3, #4
 1012 0002 0370     		strb	r3, [r0]
 1013              		.loc 1 206 0
 1014 0004 FFF7FEBF 		b	gpt_lld_start_timer
 1015              	.LVL20:
 1016              		.cfi_endproc
 1017              	.LFE225:
 1018              		.size	gptStartOneShotI, .-gptStartOneShotI
 1019 0008 AFF30080 		.section	.text.gptStopTimer,"ax",%progbits
 1019      AFF30080 
 1020              		.align	2
 1021              		.p2align 4,,15
 1022              		.global	gptStopTimer
 1023              		.thumb
 1024              		.thumb_func
 1025              		.type	gptStopTimer, %function
 1026              	gptStopTimer:
 1027              	.LFB226:
 1028              		.loc 1 216 0
 1029              		.cfi_startproc
 1030              		@ args = 0, pretend = 0, frame = 0
 1031              		@ frame_needed = 0, uses_anonymous_args = 0
 1032              	.LVL21:
 1033 0000 08B5     		push	{r3, lr}
 1034              		.cfi_def_cfa_offset 8
 1035              		.cfi_offset 3, -8
 1036              		.cfi_offset 14, -4
 1037              	.LBB177:
 1038              	.LBB178:
 1039              	.LBB179:
 1040              	.LBB180:
 1041              	.LBB181:
 1042              		.loc 2 264 0
 1043 0002 2023     		movs	r3, #32
 1044              	@ 264 "../../../os/common/ext/CMSIS/include/cmsis_gcc.h" 1
 1045 0004 83F31188 		MSR basepri, r3
 1046              	@ 0 "" 2
 1047              	.LVL22:
 1048              		.thumb
 1049              	.LBE181:
 1050              	.LBE180:
 1051              	.LBE179:
 1052              	.LBE178:
 1053              	.LBE177:
 1054              	.LBB182:
 1055              	.LBB183:
 1056              		.loc 1 238 0
 1057 0008 0223     		movs	r3, #2
 1058 000a 0370     		strb	r3, [r0]
 1059              		.loc 1 239 0
 1060 000c FFF7FEFF 		bl	gpt_lld_stop_timer
 1061              	.LVL23:
 1062              	.LBE183:
 1063              	.LBE182:
 1064              	.LBB184:
 1065              	.LBB185:
ARM GAS  /tmp/ccO3i0OC.s 			page 53


 1066              	.LBB186:
 1067              	.LBB187:
 1068              	.LBB188:
 1069              	.LBB189:
 1070              		.loc 2 264 0
 1071 0010 0023     		movs	r3, #0
 1072              	@ 264 "../../../os/common/ext/CMSIS/include/cmsis_gcc.h" 1
 1073 0012 83F31188 		MSR basepri, r3
 1074              	@ 0 "" 2
 1075              		.thumb
 1076 0016 08BD     		pop	{r3, pc}
 1077              	.LBE189:
 1078              	.LBE188:
 1079              	.LBE187:
 1080              	.LBE186:
 1081              	.LBE185:
 1082              	.LBE184:
 1083              		.cfi_endproc
 1084              	.LFE226:
 1085              		.size	gptStopTimer, .-gptStopTimer
 1086 0018 AFF30080 		.section	.text.gptStopTimerI,"ax",%progbits
 1086      AFF30080 
 1087              		.align	2
 1088              		.p2align 4,,15
 1089              		.global	gptStopTimerI
 1090              		.thumb
 1091              		.thumb_func
 1092              		.type	gptStopTimerI, %function
 1093              	gptStopTimerI:
 1094              	.LFB227:
 1095              		.loc 1 230 0
 1096              		.cfi_startproc
 1097              		@ args = 0, pretend = 0, frame = 0
 1098              		@ frame_needed = 0, uses_anonymous_args = 0
 1099              		@ link register save eliminated.
 1100              	.LVL24:
 1101              		.loc 1 238 0
 1102 0000 0223     		movs	r3, #2
 1103 0002 0370     		strb	r3, [r0]
 1104              		.loc 1 239 0
 1105 0004 FFF7FEBF 		b	gpt_lld_stop_timer
 1106              	.LVL25:
 1107              		.cfi_endproc
 1108              	.LFE227:
 1109              		.size	gptStopTimerI, .-gptStopTimerI
 1110 0008 AFF30080 		.section	.text.gptPolledDelay,"ax",%progbits
 1110      AFF30080 
 1111              		.align	2
 1112              		.p2align 4,,15
 1113              		.global	gptPolledDelay
 1114              		.thumb
 1115              		.thumb_func
 1116              		.type	gptPolledDelay, %function
 1117              	gptPolledDelay:
 1118              	.LFB228:
 1119              		.loc 1 254 0
 1120              		.cfi_startproc
ARM GAS  /tmp/ccO3i0OC.s 			page 54


 1121              		@ args = 0, pretend = 0, frame = 0
 1122              		@ frame_needed = 0, uses_anonymous_args = 0
 1123              	.LVL26:
 1124 0000 10B5     		push	{r4, lr}
 1125              		.cfi_def_cfa_offset 8
 1126              		.cfi_offset 4, -8
 1127              		.cfi_offset 14, -4
 1128              		.loc 1 259 0
 1129 0002 0423     		movs	r3, #4
 1130 0004 0370     		strb	r3, [r0]
 1131              		.loc 1 254 0
 1132 0006 0446     		mov	r4, r0
 1133              		.loc 1 260 0
 1134 0008 FFF7FEFF 		bl	gpt_lld_polled_delay
 1135              	.LVL27:
 1136              		.loc 1 261 0
 1137 000c 0223     		movs	r3, #2
 1138 000e 2370     		strb	r3, [r4]
 1139 0010 10BD     		pop	{r4, pc}
 1140              		.cfi_endproc
 1141              	.LFE228:
 1142              		.size	gptPolledDelay, .-gptPolledDelay
 1143 0012 00BFAFF3 		.text
 1143      0080AFF3 
 1143      0080AFF3 
 1143      0080
 1144              	.Letext0:
 1145              		.file 3 "/home/alex/MentorGraphics/Sourcery_CodeBench_Lite_for_ARM_EABI/arm-none-eabi/include/stdi
 1146              		.file 4 "../../../os/common/ports/ARMCMx/compilers/GCC/chtypes.h"
 1147              		.file 5 "../../../os/rt/include/chsystypes.h"
 1148              		.file 6 "../../../os/rt/include/chschd.h"
 1149              		.file 7 "../../../os/common/ports/ARMCMx/chcore.h"
 1150              		.file 8 "../../../os/common/ports/ARMCMx/chcore_v7m.h"
 1151              		.file 9 "../../../os/hal/ports/STM32/LLD/TIMv1/stm32_tim.h"
 1152              		.file 10 "../../../os/rt/include/chtm.h"
 1153              		.file 11 "../../../os/rt/include/chsem.h"
 1154              		.file 12 "../../../os/rt/include/chmtx.h"
 1155              		.file 13 "../../../os/hal/include/hal_gpt.h"
 1156              		.file 14 "../../../os/hal/ports/STM32/LLD/TIMv1/hal_gpt_lld.h"
 1157              		.file 15 "../../../os/rt/include/chsys.h"
 1158              		.file 16 "../../../os/hal/osal/rt/osal.h"
 1159              		.file 17 "../../../os/common/ext/CMSIS/include/core_cm3.h"