ARM GAS  /tmp/ccCpqXsc.s 			page 1


   1              		.syntax unified
   2              		.cpu cortex-m3
   3              		.fpu softvfp
   4              		.eabi_attribute 20, 1
   5              		.eabi_attribute 21, 1
   6              		.eabi_attribute 23, 3
   7              		.eabi_attribute 24, 1
   8              		.eabi_attribute 25, 1
   9              		.eabi_attribute 26, 1
  10              		.eabi_attribute 30, 2
  11              		.eabi_attribute 34, 1
  12              		.eabi_attribute 18, 4
  13              		.thumb
  14              		.file	"hal_pal_lld.c"
  15              		.text
  16              	.Ltext0:
  17              		.section	.gnu.lto_.jmpfuncs.7e8c39267ffd2e05,"",%progbits
  18 0000 789C6362 		.ascii	"x\234cb`b\300\006\330\2404\023\003##;\003\000\001/\000"
  18      6062C006 
  18      D8A03413 
  18      0323233B 
  18      0300012F 
  19 0015 16       		.ascii	"\026"
  20              		.text
  21              		.section	.gnu.lto_.inline.7e8c39267ffd2e05,"",%progbits
  22 0000 789C6D91 		.ascii	"x\234m\221\261\015\3020\020E\357.\006\"\032\\\321\022"
  22      B10DC230 
  22      1045EF2E 
  22      06221A5C 
  22      D112
  23 0012 894CC000 		.ascii	"\211L\300\000\310cP\322\001[\334\012T\210\012\217\222"
  23      C86350D2 
  23      015BDC0A 
  23      54880A8F 
  23      92
  24 0023 968E0128 		.ascii	"\226\216\001((\031\003\337}'\025)\336\377gK\317\226"
  24      281903DF 
  24      7D271529 
  24      DEFF674B 
  24      CF96
  25 0035 2324F4EF 		.ascii	"#$\364\357{0\262\354\366[^Q\031\033r&g\347<:3{(b\250"
  25      7B30B2EC 
  25      F65B5E51 
  25      191B7226 
  25      67E73C3A 
  26 004e 93787C30 		.ascii	"\223x|0\345:!\006\2046\230\020\271\351\372|\027\232"
  26      E53A2106 
  26      84369810 
  26      B9E9FA7C 
  26      179A
  27 0060 E74DD9FE 		.ascii	"\347M\331\376.\002hh\275\266\206\3505\032:\257\235!"
  27      2E026868 
  27      BDB686E8 
  27      351A3AAF 
  27      9D21
  28 0072 794D0665 		.ascii	"yM\006eA8\005\003\030j8\341T\227*\254\352Z\205W]\254"
  28      41380503 
ARM GAS  /tmp/ccCpqXsc.s 			page 2


  28      186A38E1 
  28      54972AAC 
  28      EA5A8557 
  29 0088 302BD4A3 		.ascii	"0+\324\243\273\312G{\325\217\376r\000\331S\365W\346"
  29      BBCA477B 
  29      D58FFE72 
  29      00D953F5 
  29      57E6
  30 009a 999C0E7C 		.ascii	"\231\234\016|a{;9O\015kaZ\263f\357\335\356^\357H\313"
  30      617B3B39 
  30      4F0D6B61 
  30      5AB366EF 
  30      DDEE5EEF 
  31 00b0 612F14F2 		.ascii	"a/\024\362&Q\030\326\251\\\360\311\321nkA|\023;\246"
  31      265118D6 
  31      A95CF0C9 
  31      D16E6B41 
  31      7C133BA6 
  32 00c4 D07FCF0F 		.ascii	"\320\177\317\017\201\324D\242"
  32      81D444A2 
  33              		.text
  34              		.section	.gnu.lto_.pureconst.7e8c39267ffd2e05,"",%progbits
  35 0000 789C6362 		.ascii	"x\234cb`b`e\200\000&\006)F)\000\001\006\000A"
  35      60626065 
  35      80002606 
  35      29462900 
  35      01060041 
  36              		.text
  37              		.section	.gnu.lto__pal_lld_init.7e8c39267ffd2e05,"",%progbits
  38 0000 789CA596 		.ascii	"x\234\245\226\301k\023A\024\207\337\233\315n61\204\020"
  38      C16B1341 
  38      1487DF9B 
  38      CD6E3631 
  38      8410
  39 0012 42882184 		.ascii	"B\210!\204\020\275\011Y\252\210\377\200 \205\212\202"
  39      10BD0959 
  39      AA88FF80 
  39      20858A82 
  40 0022 11F450A4 		.ascii	"\021\364P\244VH\003\221\026+\336\244\023\315\301c\216"
  40      56480391 
  40      162BDEA4 
  40      13CDC163 
  40      8E
  41 0033 C516A937 		.ascii	"\305\026\2517\361P=\306\233\344 x\210\350Mz\352U\005"
  41      F1503DC6 
  41      9BE42078 
  41      88E84D7A 
  41      EA5505
  42 0046 15BD786B 		.ascii	"\025\275xk\347\355\316$\203K /\035\262\277\231ev\036"
  42      E7EDCE24 
  42      834B202F 
  42      1DB2BF99 
  42      65761E
  43 0059 DFE67B90 		.ascii	"\337\346{\220\010\020\360\3778\255\256\345\024\300%"
  43      0810F0FF 
  43      38ADAEE5 
  43      14C025
ARM GAS  /tmp/ccCpqXsc.s 			page 3


  44 0068 35A30328 		.ascii	"5\243\003(\372\237\000\272\276@\244\005 l\011\334\272"
  44      FA9F00BA 
  44      BE40A405 
  44      206C09DC 
  44      BA
  45 0079 8DE1B36F 		.ascii	"\215\341\263o\304\373\303\243\243\375\301\207\375]|"
  45      C4FBC3A3 
  45      A3FDC187 
  45      FD5D7C
  46 0088 21CE0A68 		.ascii	"!\316\012h#8\024.\336G\360h\345S\244)2\024Y\212\034"
  46      2338142E 
  46      DE47F068 
  46      E553A429 
  46      3214598A 
  47 009d 459EA240 		.ascii	"E\236\242@Q\244(Q\224)*\024U\212\032E\235B\015\027z"
  47      51A42851 
  47      94292A14 
  47      558A1A45 
  47      9D420D17 
  48 00b2 52F66B00 		.ascii	"R\366k\000\253\341mS%\001\335DA\2633\202\341\301\340"
  48      ABE16D53 
  48      2501DD44 
  48      41B33382 
  48      E1C1E0
  49 00c5 7B69055F 		.ascii	"{i\005_\242\013-\024\347\340\265\354usm\304\035x\216"
  49      A20B2D14 
  49      E7E0B5EC 
  49      75736DC4 
  49      1D788E
  50 00d8 6D14B754 		.ascii	"m\024\267T8r\357\231L@\270\014_\340.\232\327\036\301"
  50      3872EF99 
  50      4C40B80C 
  50      5FE02E9A 
  50      D71EC1
  51 00eb D3778E39 		.ascii	"\323w\2169\355\264\242\347\341q\2703\\\2146x5[t?\202"
  51      EDB4A2E7 
  51      E171B833 
  51      5C8C3678 
  51      355B743F 
  52 0100 27075F7F 		.ascii	"'\007_\177\374\036W\366\250\206\252\220\240\271/\345"
  52      FC1E57F6 
  52      A886AA90 
  52      A0B92FE5 
  53 0110 721BDDA8 		.ascii	"r\033\335\250\230\327B\227\212$u\021\324\263\030\003"
  53      98D74297 
  53      8A247511 
  53      D4B31803 
  54 0120 0E3F7E4E 		.ascii	"\016?~N\332 raL\342\323\311\224\354\3674IJ\037v4\211"
  54      DA207261 
  54      4CE2D3C9 
  54      94ECF734 
  54      494A1F76 
  55 0136 1791FCB3 		.ascii	"\027\221\374\263H|6I\342$$\256&\361#\222\355\237\023"
  55      487C3649 
  55      E22424AE 
  55      26F12392 
  55      ED9F13
ARM GAS  /tmp/ccCpqXsc.s 			page 4


  56 0149 92349BC4 		.ascii	"\2224\233\304;\011IR\223\244#\222\201E\222\231\231\304"
  56      3B094952 
  56      93A42392 
  56      81459299 
  56      99C4
  57 015b 9FC3CEF6 		.ascii	"\237\303\316\3664;\031\335'\026I\226M\302\261\023#1"
  57      343B19DD 
  57      27164996 
  57      4DC2B113 
  57      2331
  58 016d 76B2BA4F 		.ascii	"v\262\272O,\222\034\233\204c'Fb\354\344t\237\374\232"
  58      2C921C9B 
  58      84632746 
  58      62ECE474 
  58      9FFC9A
  59 0180 90E46726 		.ascii	"\220\344g&1\3058v\366\246\331\311\353>\261H\012l\022"
  59      31C53876 
  59      F6A6D9C9 
  59      EB3EB148 
  59      0A6C12
  60 0193 8E9D1889 		.ascii	"\216\235\030\211\261S\320}b\221\024\331$\034;1\022c"
  60      B153D07D 
  60      629114D9 
  60      241C3B31 
  60      1263
  61 01a5 A7A8FBC4 		.ascii	"\247\250\373\304\")\315L\222\236\303\316\253ivJ\272"
  61      2229CD4C 
  61      929EC3CE 
  61      AB69764A 
  61      BA
  62 01b6 4FFE4C48 		.ascii	"O\376LH\312l\022\216\235\030\211\261S\326}b\221T\330"
  62      CA6C128E 
  62      9D1889B1 
  62      53D67D62 
  62      9154D8
  63 01c9 241C3B31 		.ascii	"$\034;1\022c\247\242\355X$\325\231IN\315a\347\3554;"
  63      1263A7A2 
  63      ED5824D5 
  63      99494ECD 
  63      61E7ED34 
  64 01de 556DE7EF 		.ascii	"Um\347\357\204\244\306&\341\330\211\221\030;5m\307\""
  64      84A4C626 
  64      E1D88991 
  64      183B356D 
  64      C722
  65 01f0 A9B34938 		.ascii	"\251\263I8vb$\306N\035\340\013t\017\277\235\211\316"
  65      766224C6 
  65      4E1DE00B 
  65      740FBF9D 
  65      89CE
  66 0202 9BD154BF 		.ascii	"\233\321T\277n\352\217\014}\355\027\033\215 \372\254"
  66      6EEA8F0C 
  66      7DED171B 
  66      8D20FAAC 
  67 0212 6F066B2B 		.ascii	"o\006k+\235`c\375\301\303\315\340F\363\352\205\363\301"
  67      9D6063FD 
  67      C1C3CDE0 
ARM GAS  /tmp/ccCpqXsc.s 			page 5


  67      46F3EA85 
  67      F3C1
  68 0224 D2D2E5E0 		.ascii	"\322\322\345\340\312\365\305k\217\026h\353\316\206\272"
  68      CAF5C56B 
  68      8F1668EB 
  68      CE86BA
  69 0233 3A9D7B8D 		.ascii	":\235{\215U8\006M\334\014\370"
  69      5538064D 
  69      DC0CF8
  70              		.text
  71              		.section	.gnu.lto__pal_lld_setgroupmode.7e8c39267ffd2e05,"",%progbits
  72 0000 789C9556 		.ascii	"x\234\225V]h\\U\020\236\271\377w\367\356n\311\377\177"
  72      5D685C55 
  72      109EB9FF 
  72      77F7EE6E 
  72      C9FF7F
  73 0013 D2D04445 		.ascii	"\322\320DE\314R\213\320\007A\021E\305\212\202\011\350"
  73      CC528BD0 
  73      07411145 
  73      C58A8209 
  73      E8
  74 0024 93C6046F 		.ascii	"\223\306\004o\026\262\264\244\342\213\017\275\311\346"
  74      16B2B4A4 
  74      E28B0FBD 
  74      C9E6
  75 0032 A1149120 		.ascii	"\241\024\221 \270\304\237\207D\011\226\030\215\012\322"
  75      B8C49F87 
  75      44099618 
  75      8D0AD2
  76 0041 D40A6E82 		.ascii	"\324\012n\202\205\246M\205<\3055\025VE\005\023T(B\252"
  76      85A64D85 
  76      3CC53515 
  76      56450513 
  76      542842AA 
  77 0055 ADEB9CBF 		.ascii	"\255\353\234\277\273\331u%\361\222=s\356\314|3\363\315"
  77      BBD97525 
  77      F1923D73 
  77      EECC7C33 
  77      F3CD
  78 0067 9C3D1B0D 		.ascii	"\234=\033\0154\250|>\245\317\246\013\360\030I<\000\250"
  78      34A87C3E 
  78      A5CFA60B 
  78      F018493C 
  78      00A8
  79 0079 4D7D0530 		.ascii	"M}\0050\356h\232\376{=\004\021c\346(\004\236\216\226"
  79      EE689AFE 
  79      7B3D0411 
  79      63E62804 
  79      9E8E96
  80 008c 501B9AC9 		.ascii	"P\033\232\311\325\026W\233Jma\\ll\3159}\033\331]\266"
  80      D516579B 
  80      4A6D615C 
  80      6C6CCD39 
  80      7D1BD95D 
  81 00a1 7A0E4684 		.ascii	"z\016F\204\332U\233\210\026\345v\217\333\243\030\023"
  81      DA559B88 
  81      16E5768F 
ARM GAS  /tmp/ccCpqXsc.s 			page 6


  81      DBA31813 
  82 00b1 6A4F6D62 		.ascii	"jOmb\"\320\262\023\327\354\363\027\201<\023\033\016"
  82      22D0B213 
  82      D7ECF317 
  82      813C131B 
  82      0E
  83 00c2 79261099 		.ascii	"y&\020\231\036\020Ni\272aZ\266\343F\242^,\236\300S\317"
  83      1E104E69 
  83      BA615AB6 
  83      E346A25E 
  83      2C9EC053 
  84 00d7 20A361A4 		.ascii	" \243a\244\021\272a6\010^+\314}\270\252\277\021\344"
  84      11BA6136 
  84      085E2BCC 
  84      7DB8AABF 
  84      11E4
  85 00e9 2667829B 		.ascii	"&g\202\233\305\"b\012\211\365Q\204!\204\247\351\005"
  85      C522620A 
  85      89F55184 
  85      2184A7E9 
  85      05
  86 00fa BBB8D08C 		.ascii	"\273\270\320\214\3626\010lpk\370R0\231+\026\357\343"
  86      F236086C 
  86      706BF852 
  86      30992B16 
  86      EFE3
  87 010c A87BF787 		.ascii	"\250{\367\207\312\375q\346\325\346`fb*\370\233\022\246"
  87      CAFD71E6 
  87      D5E66066 
  87      622AF89B 
  87      12A6
  88 011e 50D7E0FE 		.ascii	"P\327\340\376\275\220\213Z\256P,\256\255o\177\277\205"
  88      BD908B5A 
  88      AE502CAE 
  88      AD6F7FBF 
  88      85
  89 012f 35B723A4 		.ascii	"5\267#\244\0215\030\304Y\354\006]JCJSJKJ[JGJW\312\010"
  89      113518C4 
  89      59EC065D 
  89      4A434A53 
  89      4A4B4A5B 
  90 0149 C939921E 		.ascii	"\3119\222\036\246Q\213\323\242'h\301\032H\241QK\266"
  90      A6518BD3 
  90      A22768C1 
  90      1A48A151 
  90      4BB6
  91 015b 77C95627 		.ascii	"w\311V'}\353\245l\220\262Q\312&r6\233\345K\213\224\255"
  91      7DEBA56C 
  91      90B251CA 
  91      2672369B 
  91      E54B8B94 
  92 0170 4CD9265F 		.ascii	"L\331&_\332\245\354`%w\312\224]\314\343 [\272\331r\210"
  92      DAA5EC60 
  92      2577CA94 
  92      5DCCE320 
  92      5BBAD972 
  93 0185 2D3D6CE9 		.ascii	"-=l\351e\013\3215a2\010\246\272\302!\345\256\227\267"
ARM GAS  /tmp/ccCpqXsc.s 			page 7


  93      650BD135 
  93      613208A6 
  93      BAC221E5 
  93      AE97B7
  94 0198 8C9AFDC0 		.ascii	"\214\232\375\300>G\264^6\242\207\366\211\312\227\241"
  94      3E47B45E 
  94      36A287F6 
  94      89CA97A1 
  95 01a8 1ED90B25 		.ascii	"\036\331\013%8\212\236\011\212\300\020\364\364\323J"
  95      388A9E09 
  95      8AC010F4 
  95      F4D34A
  96 01b7 477280C6 		.ascii	"Gr\200\306\265\341\350\227\340\313\237\227o\234\321"
  96      B5E1E897 
  96      E0CB9F97 
  96      6F9CD1
  97 01c6 07F13DE2 		.ascii	"\007\361=\342\351\243\307\202\231\372\256H\003\250\303"
  97      E9A3C782 
  97      99FAAE48 
  97      03A8C3
  98 01d5 394DBF0A 		.ascii	"9M\277\012+W\226\026\2275\341x'\314\007\223\343\301"
  98      2B579616 
  98      9735E178 
  98      27CC0793 
  98      E3C1
  99 01e7 91145A6F 		.ascii	"\221\024Zo\301\233\004\261}\2143\250\3031\317\243\300"
  99      C19B04B1 
  99      7D8C33A8 
  99      C331CFA3 
  99      C0
 100 01f8 FA985041 		.ascii	"\372\230PA\014\230\261D\266[\227c\345\331\214\262l&"
 100      0C98B144 
 100      B65B9763 
 100      E5D98CB2 
 100      6C26
 101 020a 149067DB 		.ascii	"\024\220g\333Y\274\201\373\314\206\225\331,\306\355"
 101      59BC81FB 
 101      CC8695D9 
 101      2CC6ED
 102 0219 2A4C5C9B 		.ascii	"*L\\\233\376D\005\361\261\346.X\010\016\244\320\245"
 102      FE4405F1 
 102      B1E62E58 
 102      080EA4D0 
 102      A5
 103 022a 20E3536C 		.ascii	" \343Sl\027y\031\376\014\246\331.\232\3461X\320\250"
 103      177919FE 
 103      0CA6D92E 
 103      9AE63158 
 103      D0A8
 104 023c 0CE68545 		.ascii	"\014\346\205EQ\240_3\035*L-E\002X\005\331\012\321cR"
 104      51A05F33 
 104      1D2A4C2D 
 104      45025805 
 104      D90AD163 
 105 0251 33DD4461 		.ascii	"3\335Da\365\307\250\322\263\011\260\200<\006\331rw("
 105      F5C7A8D2 
 105      B309B080 
ARM GAS  /tmp/ccCpqXsc.s 			page 8


 105      3C06D972 
 105      7728
 106 0263 CB42A5A5 		.ascii	"\313B\245\245UY\346+-\226\262\234\255\260\024._\014"
 106      5559E62B 
 106      2D96B29C 
 106      ADB0142E 
 106      5F0C
 107 0275 6D73D216 		.ascii	"ms\322\026\316m\000m\240\353\207Z\220\371 \263\230m"
 107      CE6D006D 
 107      A0EB875A 
 107      90F920B3 
 107      986D
 108 0287 52B5D7F9 		.ascii	"R\265\327\371h2G\317\2002\012\363\234B\035\243J\200"
 108      683247CF 
 108      80320AF3 
 108      9C421DA3 
 108      4A80
 109 0299 8F1B947F 		.ascii	"\217\033\224\177\275\217z5\377\263\334\277^\372\237"
 109      BD8F7A35 
 109      FFB3DCBF 
 109      5EFA9F
 110 02a8 CB362B40 		.ascii	"\3136+@\203\217n5\300,\0074H\300\3710A\243\217v5\377"
 110      838F6E35 
 110      C02C0734 
 110      48C0F930 
 110      41A38F76 
 111 02be 05EEDFC8 		.ascii	"\005\356\337\310\375/d\276\310v*@\223\217\310OM\300"
 111      FD2F64BE 
 111      C8762A40 
 111      938FC84F 
 111      4DC0
 112 02d0 3AC10ED4 		.ascii	":\301\016\324\370\341\320\306\015\273\277\006\003tD"
 112      F8E1D0C6 
 112      0DBBBF06 
 112      037444
 113 02df BEED666D 		.ascii	"\276\355fm8\237\371!\333\242\034\233\211+\367MTkC\263"
 113      389FF921 
 113      DBA21C9B 
 113      892BF74D 
 113      546B43B3 
 114 02f3 C2BA2176 		.ascii	"\302\272!v+\333\252\260-\234dm\025v-\012\027\341\275"
 114      2BDBAAB0 
 114      2D9C646D 
 114      15762D0A 
 114      17E1BD
 115 0306 A7193910 		.ascii	"\247\0319\020\032\035>4\256\020Y\014\311\355\267\022"
 115      1A1D3E34 
 115      AE10590C 
 115      C9EDB712 
 116 0316 B7D6905B 		.ascii	"\267\326\220[\240\375\213\\k\005\271<\030T\252\363\312"
 116      A0FD8B5C 
 116      6B05B93C 
 116      1854AAF3 
 116      CA
 117 0327 E6089171 		.ascii	"\346\010\221q?\317?\227\007\207Js\256\345\207\251\024"
 117      3FCF3F97 
 117      07874A73 
ARM GAS  /tmp/ccCpqXsc.s 			page 9


 117      AEE587A9 
 117      14
 118 0338 77617394 		.ascii	"was\224\225\022\015)\\/\321o\243\321U\243/\246\332\246"
 118      95120D29 
 118      5C2FD16F 
 118      A3D155A3 
 118      2FA6DAA6 
 119 034c 687821F6 		.ascii	"hx!\366\257\022\375v>\263\332*\303jW\270X\031}a\264"
 119      AF12FD76 
 119      3EB3DA2A 
 119      C36A57B8 
 119      58197D61 
 120 0361 4AF44516 		.ascii	"J\364E\026M\036\205b\251\254\016I\337\303\335e\321-"
 120      4D1E8562 
 120      A9AC0E49 
 120      DFC3DD65 
 120      D12D
 121 0373 4D26EE7D 		.ascii	"M&\356}:\363~6\251\274;}\214\3603\217\345$\346x\370"
 121      3AF37E36 
 121      A9BC3B7D 
 121      8CF0338F 
 121      E524E678 
 122 0388 4ED1228D 		.ascii	"N\321\"\215\350D\327X\213\352\2755\326\"\213\312\217"
 122      E844D758 
 122      8BEABD35 
 122      D6228BCA 
 122      8F
 123 0399 6EB316B5 		.ascii	"n\263\026\265{\333\242Eq\240_\346\260\\\001\217\224"
 123      7BDBA245 
 123      71A05FE6 
 123      B05C018F 
 123      94
 124 03aa CA15E373 		.ascii	"\312\025\343sK\012A\310\256\234\247Y\311PW\012\316\000"
 124      4B0A41C8 
 124      AE9CA759 
 124      C950570A 
 124      CE00
 125 03bc D93C277F 		.ascii	"\331<'\177Z~\375Jx\037\211\362\355]\023%\277\204\305"
 125      5A7EFD4A 
 125      781F89F2 
 125      ED5D1325 
 125      BF84C5
 126 03cf E8C66E6E 		.ascii	"\350\306nn\216\344A\227\337w\353\355<\035{-\206y0\225"
 126      8EE44197 
 126      DF77EBED 
 126      3C1D7B2D 
 126      86793095 
 127 03e3 6A49A723 		.ascii	"jI\247#\3044\266\322L\233\324f\246q\225f\2074\016\323"
 127      C434B6D2 
 127      4C9BD466 
 127      A6719566 
 127      87340ED3 
 128 03f7 44E4E560 		.ascii	"D\344\345`-\344\251\025\235\261\035\223\021O\210Kr\345"
 128      2DE4A915 
 128      9DB11D93 
 128      114F884B 
 128      72E5
ARM GAS  /tmp/ccCpqXsc.s 			page 10


 129 0409 9BA5CFBE 		.ascii	"\233\245\317\276\323TQ]\374\262\305\377\274j\325?`\374"
 129      D354515D 
 129      FCB2C5FF 
 129      BC6AD53F 
 129      60FC
 130 041b ECFE1272 		.ascii	"\354\376\022r9HHN\231\237\227w\302p\335\334d3\375\312"
 130      3948484E 
 130      999F9777 
 130      C270DDDC 
 130      6433FDCA 
 131 042f EA4776D9 		.ascii	"\352Gv\331}\236\330#\211\317~\265X}_\357\252\357\320"
 131      7D9ED823 
 131      89CF7EB5 
 131      587D5FEF 
 131      AAEFD0
 132 0442 1EF5E9D5 		.ascii	"\036\365\351\325\353\353!$\237QE}\275\334\344\376\317"
 132      EBEB2124 
 132      9F51457D 
 132      BDDCE4FE 
 132      CF
 133 0453 FA74595F 		.ascii	"\372tY_/\300:\214\027\266z\004N=\3754\355\015\207\221"
 133      2FC03A8C 
 133      17B67A04 
 133      4E3DFD34 
 133      ED0D8791 
 134 0467 B8A7AF2F 		.ascii	"\270\247\257/)\376\216\237L\216\014\216&O\034\037{\361"
 134      29FE8E9F 
 134      4C8E0C8E 
 134      264F1C1F 
 134      7BF1
 135 0479 64F2A9FE 		.ascii	"d\362\251\376\307\217\334\235<v\354\301\344\303O>\372"
 135      C78FDC9D 
 135      3C76ECC1 
 135      E4C34F3E 
 135      FA
 136 048a C44B8799 		.ascii	"\304K\207\231\351\331\023\364\031\035\035\356\033\002"
 136      E9D913F4 
 136      191D1DEE 
 136      1B02
 137 0498 7D686C54 		.ascii	"}hlT\037z\301\307\224\226\036\321\322\264\037\033\371"
 137      1F7AC1C7 
 137      94961ED1 
 137      D2B41F1B 
 137      F9
 138 04a9 07E87946 		.ascii	"\007\350yF\377"
 138      FF
 139              		.text
 140              		.section	.gnu.lto_.symbol_nodes.7e8c39267ffd2e05,"",%progbits
 141 0000 789C6362 		.ascii	"x\234cb`bPg\200\002\246\233\214\365\014\014\023\316"
 141      60625067 
 141      8002A69B 
 141      8CF50C0C 
 141      13CE
 142 0012 3130D4D7 		.ascii	"10\324\327\317\353`d\272\305X\317\210\340\262\336fd"
 142      CFEB6064 
 142      BAC558CF 
 142      88E0B2DE 
ARM GAS  /tmp/ccCpqXsc.s 			page 11


 142      6664
 143 0024 60A96766 		.ascii	"`\251gf\000\000\360\253\013Q"
 143      0000F0AB 
 143      0B51
 144              		.text
 145              		.section	.gnu.lto_.refs.7e8c39267ffd2e05,"",%progbits
 146 0000 789C6362 		.ascii	"x\234cb`b`e\200\000FF \007\000\000\237\000\016"
 146      60626065 
 146      80004646 
 146      20070000 
 146      9F000E
 147              		.text
 148              		.section	.gnu.lto_.decls.7e8c39267ffd2e05,"",%progbits
 149 0000 789CAD58 		.ascii	"x\234\255X}L\024G\024\237\331=>\016N\374H0\232\332z"
 149      7D4C1447 
 149      149FD93D 
 149      3E0E4EFC 
 149      48309ADA 
 150 0015 6D6AD39A 		.ascii	"mj\323\232\312\001V\352\037\215\015\034\210\264\240"
 150      CA0156EA 
 150      1F8D0D1C 
 150      88B4A0
 151 0024 64D1A67F 		.ascii	"d\321\246\1774\275\256p\300\245pG\216\245\301\377V\320"
 151      34BDAE70 
 151      C0A57047 
 151      8EA5C1FF 
 151      56D0
 152 0036 D6D2AA27 		.ascii	"\326\322\252'\"B\261\026,\032\255\022E[\265U\343i5\340"
 152      2242B116 
 152      2C1AAD12 
 152      455BB555 
 152      E36935E0 
 153 004a 47E3472D 		.ascii	"G\343G-Z4\206\330\246\222\2641\222j\255U\271\276\231"
 153      5A3486D8 
 153      A692B431 
 153      926AAD55 
 153      B9BE99
 154 005d DDBDDBBD 		.ascii	"\335\275\333\275\017n\2178\341\275Y\336\276\367\233"
 154      0F6E8F38 
 154      E1BD59DE 
 154      BEF79B
 155 006c 37F366DE 		.ascii	"7\363f\336\274=\0061\350U\214\220\017Zq*B\3571\010\261"
 155      BC3D0631 
 155      E8558C90 
 155      0F5A712A 
 155      42EF3108 
 156 0081 08A10540 		.ascii	"\010\241\005@ F\011Hj F]@\375\262\374o\244m\344]\222"
 156      20460948 
 156      6A20465D 
 156      40FDB2FC 
 156      6FA46DE4 
 157 0097 AC7F1968 		.ascii	"\254\177\031h\024\350\031P\234\001\364,\320v\370\277"
 157      14E81950 
 157      9C01F42C 
 157      D076F8BF 
 158 00a7 1BE83CD0 		.ascii	"\033\350<\320- \023\320D\220\357\206\276\027\350\032"
 158      2D2013D0 
ARM GAS  /tmp/ccCpqXsc.s 			page 12


 158      4490EF86 
 158      BE17E81A 
 159 00b7 D061A02B 		.ascii	"\320a\240+@\007\201.\001\035\001:\006t\034\350\204<"
 159      4007812E 
 159      011D013A 
 159      06741CE8 
 159      843C
 160 00c9 6E97DC9F 		.ascii	"n\227\334\237\016\032\237\3705\001h?P\212\214\037\247"
 160      0E1A9FF8 
 160      3501683F 
 160      508A8C1F 
 160      A7
 161 00da 9AC36579 		.ascii	"\232\303ey\354s@\367\201\356\001=\007/\015H\242A\240"
 161      EC7340F7 
 161      81EE013D 
 161      072F0D48 
 161      A241A0
 162 00ed 1BF2F897 		.ascii	"\033\362\370\227d\273~\371\035\231\353\035\240\273@"
 162      64BB7EF9 
 162      1D99EB1D 
 162      A0BB40
 163 00fc 7F058D3B 		.ascii	"\177\005\215;\023m\025;\207\206V\337\3367]\354l\360"
 163      136D153B 
 163      878656DF 
 163      DE375DEC 
 163      6CF0
 164 010e FA7C6FA2 		.ascii	"\372|o\242\251h\223\010\255\363cQ\304\002\217\027\244"
 164      A9689308 
 164      ADF36351 
 164      C4028F17 
 164      A4
 165 011f A277318F 		.ascii	"\242w1\217S\214\310L\037LF\012\212\020\217\267\341\251"
 165      538CC84C 
 165      1F4C460A 
 165      8A108FB7 
 165      E1A9
 166 0131 F489A5CB 		.ascii	"\364\211\245\313\213\222Q\223(6\020\303E\375)S\320\006"
 166      8B925193 
 166      283610C3 
 166      45FD2953 
 166      D006
 167 0143 8A0220FD 		.ascii	"\212\002 \3750!\031b\210U0\336\000\203Y\250[\024=C#"
 167      30211962 
 167      885530DE 
 167      008359A8 
 167      5B143D43 
 168 0158 F75B5851 		.ascii	"\367[XQL\224-\314\021\325y\274\003\317BQ\325\210\342"
 168      4C942DCC 
 168      11D579BC 
 168      03CF4251 
 168      D588E2
 169 016b 4E3C05CD 		.ascii	"N<\005\315F\273@\317#\212'_\307\2329\323aE\357H\237"
 169      46BB40CF 
 169      238A275F 
 169      C79A39D3 
 169      6145EF48 
 170 0180 493448AA 		.ascii	"I4H\252\304d\027\236\215\302\264\347Q'Q\276\337\267"
ARM GAS  /tmp/ccCpqXsc.s 			page 13


 170      C464179E 
 170      8DC2B4E7 
 170      512751BE 
 170      DFB7
 171 0192 058B9D27 		.ascii	"\005\213\235'q\230\321?P\0067\371\247\344=\336\207\315"
 171      7198D13F 
 171      500637F9 
 171      A7E43DDE 
 171      87CD
 172 01a4 3CDE03EA 		.ascii	"<\336\003\352\014\252\303\032\364h\010\304\227\275`"
 172      0CAAC31A 
 172      F46808C4 
 172      97BD60
 173 01b3 28D9C8BE 		.ascii	"(\331\310\276\366J\276\356\325\341k\203\367\273\276"
 173      F64ABEEE 
 173      D5E16B83 
 173      F7BBBE
 174 01c2 96E9C457 		.ascii	"\226\351\304W#Z\023\210\007\012\033E9\002\275MWFp\003"
 174      235A1388 
 174      070A1B45 
 174      3902BD4D 
 174      57467003 
 175 01d6 848AC7FB 		.ascii	"\204\212\307\373\301\214A\267\261\326i\036'\030\325"
 175      C18C41B7 
 175      B1D6691E 
 175      2718D5
 176 01e5 23D1FF15 		.ascii	"#\321\377\025\005\202G_\313\017\344,N$G\356.E!N\207"
 176      0582475F 
 176      CB0FE42C 
 176      4E2447EE 
 176      2E45214E 
 177 01fa 1B5B7E94 		.ascii	"\033[~\224\232\254\240\231\310\320\310\310\272W\332"
 177      9AACA099 
 177      C8D0C8C8 
 177      BA57DA
 178 0209 45EF2A56 		.ascii	"E\357*Vq\353^\314\200f\315\312\034\3553yx\005\354_="
 178      71EB5ECC 
 178      8066CDCA 
 178      1CED3379 
 178      7805EC5F 
 179 021e 608961BC 		.ascii	"`\211a\274\013\327\3241\343\361>\330\247<\356\305\317"
 179      0BD7D431 
 179      E3F13ED8 
 179      A73CEEC5 
 179      CF
 180 022f 033F48F9 		.ascii	"\003?H\371a\340\376\306\240\307t\354\235\201\2615[ "
 180      61E0FEC6 
 180      A0C774EC 
 180      9D81B135 
 180      5B20
 181 0241 DACA88DE 		.ascii	"\332\312\210\336\207\362vT\366X#\243\003O3\027\263\006"
 181      87F27654 
 181      F65823A3 
 181      034F3317 
 181      B306
 182 0253 EF713E59 		.ascii	"\357q>Y\027\011\253I\017\326\264\310\276y\336\012`m"
 182      1709AB49 
ARM GAS  /tmp/ccCpqXsc.s 			page 14


 182      0FD6B4C8 
 182      BE79DE0A 
 182      606D
 183 0265 D083658E 		.ascii	"\320\203e\216\354W\253\012\253M\017V\372X\361R\302\363"
 183      EC57AB0A 
 183      AB4D0F56 
 183      FA58F152 
 183      C2F3
 184 0277 0D0DCF6E 		.ascii	"\015\015\317n\032\230#\224\037\243\3748\345'\264\241"
 184      1A982394 
 184      1FA3FC38 
 184      E527B4A1 
 185 0287 FA8A093E 		.ascii	"\372\212\011>\012R\306P\241\356\364\207\036\351\305"
 185      0A52C650 
 185      A1EEF487 
 185      1EE9C5
 186 0296 8D9452BB 		.ascii	"\215\224R\273qr\000w\031\253\362cW\220\037/\242\257"
 186      71720077 
 186      19ABF263 
 186      57901F2F 
 186      A2AF
 187 02a8 45B11932 		.ascii	"E\261\0312\367\260\001\316\210A2e\320!\252\326\205g"
 187      F7B001CE 
 187      88413265 
 187      D021AAD6 
 187      8567
 188 02ba 861DC23F 		.ascii	"\206\035\302?\300Kh;\311Bk\305\325\2230\315\361H\266"
 188      C04B683B 
 188      C9426BC5 
 188      D59330CD 
 188      F148B6
 189 02cd D24CEC14 		.ascii	"\322L\354\024f\324\002\351\262\360\266\2345yV\016\371"
 189      66D402E9 
 189      B2F0B69C 
 189      3579560E 
 189      F9
 190 02de 7C33F5DF 		.ascii	"|3\365\337\024g\242\337\024\232\204\216\025\200\031"
 190      1467A2DF 
 190      149A848E 
 190      158019
 191 02ed C89FA49E 		.ascii	"\310\237\244\236l\374c\036\\\023<>O\267\303\003&j^\325"
 191      6CFC631E 
 191      5C133C3E 
 191      4FB7C303 
 191      266A5ED5 
 192 0301 C2103F2E 		.ascii	"\302\020?.\004'\326\007\0034\261^\210\236XW5z\037\015"
 192      0427D607 
 192      0334B15E 
 192      889E5857 
 192      357A1F0D 
 193 0315 A8126BE3 		.ascii	"\250\022k\343\230\211\225\307\007\350&\323\223&W\261"
 193      988995C7 
 193      07E826D3 
 193      932657B1 
 194 0325 58766D1C 		.ascii	"Xvm\034i\022\334z<@\263\332e\232\325\326\304\014f\326"
 194      6912DC7A 
 194      3C40B3DA 
ARM GAS  /tmp/ccCpqXsc.s 			page 15


 194      659AD5D6 
 194      C40C66D6 
 195 0339 808DAAC1 		.ascii	"\200\215\252\301>\327\003\026.E\312`\236\253*0O\314"
 195      3ED70316 
 195      2E45CA60 
 195      9EAB2A30 
 195      4FCC
 196 034b 605ACF9A 		.ascii	"`Z\317\232\325`-z\300&E\366\254E\015\326\0363\230\326"
 196      D5602D7A 
 196      C02645F6 
 196      AC450DD6 
 196      1E3398D6 
 197 035f B35635D8 		.ascii	"\263V5\330\227z\300\302\245\317pM\275cy|\221n\251K4"
 197      977AC0C2 
 197      A5CF704D 
 197      BD63797C 
 197      916EA94B 
 198 0374 9B5CA17C 		.ascii	"\233\\\241|\200\362k\224\017R~\203\362\233\321r\215"
 198      80F26B94 
 198      0F527E83 
 198      F29BD172 
 198      8D
 199 0385 527AF5B6 		.ascii	"Rz\365\266\316\247g\352\034M\036\333X\355\231\322\234"
 199      CEA767EA 
 199      1C4D1EDB 
 199      58ED99D2 
 199      9C
 200 0396 53E9E045 		.ascii	"S\351\340E:\341\267\000 \374\371\011y''\001\335\345"
 200      3AE1B700 
 200      20FCF909 
 200      79272701 
 200      DDE5
 201 03a8 89F797A6 		.ascii	"\211\367\227\246TrH\177\247\353\333\303\006\347cr\235"
 201      5472487F 
 201      A7EBDBC3 
 201      06E76372 
 201      9D
 202 03b9 6BC68B7E 		.ascii	"k\306\213~\350\306\343\305\315$\206\307\303\324\207"
 202      E8C6E3C5 
 202      CD2486C7 
 202      C3D487
 203 03c8 1F9E920F 		.ascii	"\037\236\222\017A)\376G6l\212?\275\355\241\234\342\245"
 203      4129FE47 
 203      366C8A3F 
 203      BDEDA19C 
 203      E2A5
 204 03da 28FD4AD5 		.ascii	"(\375J\325\372#\246x\242%\333z7\237\335\003)\213Q\026"
 204      FA23A678 
 204      A225DB7A 
 204      379FDD03 
 204      298B5116 
 205 03ee EF661453 		.ascii	"\357f\024S\242\245\230\266\237\335!\231Js\376-\212\351"
 205      A2A598B6 
 205      9FDD2199 
 205      4A73FE2D 
 205      8AE9
 206 0400 B0B402D2 		.ascii	"\260\264\002\322\305\342\335\324\324\330\211\305x\377"
ARM GAS  /tmp/ccCpqXsc.s 			page 16


 206      C5E2DDD4 
 206      D4D889C5 
 206      78FF
 207 040e D5D21F7C 		.ascii	"\325\322\037|\265\374\251\275Z^@]\342\305\213\336\216"
 207      B5FCA9BD 
 207      5A5E405D 
 207      E2C58BDE 
 207      8E
 208 041f 2652D734 		.ascii	"&R\3274x\304Q\237\017OF\036\232\321\333R\344 \015m\367"
 208      78C4519F 
 208      0F4F461E 
 208      9AD1DB52 
 208      E4200D6D 
 209 0434 4E6B0B04 		.ascii	"Nk\013\004)Qq\000#U%\333c\201\015\3557\020#\032\360"
 209      29517100 
 209      235525DB 
 209      63810DED 
 209      3710231A 
 210 0449 F81F7A9C 		.ascii	"\370\037z\234\2606P\330\030x\360a\022\225\341\220`\007"
 210      B03650D8 
 210      1878F061 
 210      1295E190 
 210      6007
 211 045b C73A0A84 		.ascii	"\307:\012\204<\272\307\177\033I\345C`z<~\000\252\021"
 211      3CBAC77F 
 211      1B49E543 
 211      607A3C7E 
 211      00AA11
 212 046e D478FC10 		.ascii	"\324x\374\020V\302\277UE\377i4\031#\036\306\377d\017"
 212      56C2BF55 
 212      45FF6934 
 212      19231EC6 
 212      FF640F
 213 0481 FDE95E7E 		.ascii	"\375\351^~\230\254q[\321\"\225zpp\203\275\200\373\226"
 213      98AC715B 
 213      D122957A 
 213      707083BD 
 213      80FB96
 214 0494 95BEA25E 		.ascii	"\225\276\242^C\007\3045\336\3168\036\337\003\277\374"
 214      4307C435 
 214      DECE381E 
 214      DF03BFFC 
 215 04a4 294C9EAF 		.ascii	")L\236\257A\221`E\302(\022&D\207U$\211\212\304\020\""
 215      41916045 
 215      C2281226 
 215      44875524 
 215      898AC410 
 216 04b9 89D32E29 		.ascii	"\211\323.)H\342\025\011\253H\022\024I\2026\322j\034"
 216      48E21509 
 216      AB481214 
 216      498236D2 
 216      6A1C
 217 04cb 63882429 		.ascii	"c\210$)D\222\034\"1\205H&\204HRB$\023C$\223\024I\262"
 217      44921C22 
 217      31854826 
 217      84485242 
 217      24134324 
ARM GAS  /tmp/ccCpqXsc.s 			page 17


 218 04e3 2299AC48 		.ascii	"\"\231\254HH&\010S\273\210\376o\332\364\300\356~\362"
 218      48260853 
 218      BB88FE6F 
 218      DAF4C0EE 
 218      7EF2
 219 04f5 F39D2C9A 		.ascii	"\363\235,\232\256G\245\252\337\020\265\004\322\302\220"
 219      AE47A5AA 
 219      DF10B504 
 219      D2C290
 220 0504 A8AF6482 		.ascii	"\250\257d\202J\240G\203\264\004\"\362\350%\220oP*\201"
 220      4AA04783 
 220      B40422F2 
 220      E825906F 
 220      502A81
 221 0517 94DB6E3D 		.ascii	"\224\333n=u\201\330\216\257v\361\\W]\235\3151\203\231"
 221      7581D88E 
 221      AF76F15C 
 221      575D9DCD 
 221      318399
 222 052a 3560CD6A 		.ascii	"5`\315j\260\315z\300\306\250]Z\324`\0351\203i=kU\203"
 222      B0CD7AC0 
 222      C6A85D5A 
 222      D4601D31 
 222      83693D6B 
 223 0540 75EB011B 		.ascii	"u\353\001\033\243viS\203\365\304\014\246\365\354\013"
 223      A3766953 
 223      83F5C40C 
 223      A6F5EC0B 
 224 0550 35D8B77A 		.ascii	"5\330\267z\300\"}\372\001\330\0265\330\321\230\301\264"
 224      C0227DFA 
 224      01D81635 
 224      D8D198C1 
 224      B4
 225 0561 9E6D5583 		.ascii	"\236mU\203\235\322\003f\216\354\331>5\330\231\230\301"
 225      9DD20366 
 225      8EECD93E 
 225      35D89998 
 225      C1
 226 0572 549E890D 		.ascii	"T\236\211\015\336C\035\353\344C \375\222\360\223\036"
 226      DE431DEB 
 226      E44320FD 
 226      92F0931E 
 227 0582 BC97233B 		.ascii	"\274\227#;\367\375u\355\241\272\0323\236\031El\352\023"
 227      F7FD75ED 
 227      A1BA1A33 
 227      9E19456C 
 227      EA13
 228 0594 CFE30686 		.ascii	"\317\343\006\206\334y\215\014)\022WS\376\011\345\237"
 228      DC798D0C 
 228      29125753 
 228      FE09E59F 
 229 05a4 52FE19E5 		.ascii	"R\376\031\345k)_O\371\006\3127R\276\211\362\315\224"
 229      6B295F4F 
 229      F906CA37 
 229      52BE89F2 
 229      CD94
 230 05b6 B733AA02 		.ascii	"\2673\252\0023\250L\034\035\243L\354`\374\337\267\376"
ARM GAS  /tmp/ccCpqXsc.s 			page 18


 230      33A84C1C 
 230      1DA34CEC 
 230      60FCDFB7 
 230      FE
 231 05c7 CACBFB14 		.ascii	"\312\313\373\024\276\242\302\377\334\250\371\205\200"
 231      BEA2C2FF 
 231      DCA8F985 
 231      80
 232 05d4 C73D146C 		.ascii	"\307=\024l\257\346k=\342\2174A\223R]v!\223\332\032\230"
 232      AFE66B3D 
 232      E28F3441 
 232      93525D76 
 232      2193DA1A 
 233 05e9 149A9796 		.ascii	"\024\232\227\226f\221\376\\\265\226J\276\312R\343r\013"
 233      6691FE5C 
 233      B5964ABE 
 233      CA52E372 
 233      0B
 234 05fa B59692A5 		.ascii	"\265\226\222\245Es3-\205\205\271\226\374\342\202%\037"
 234      4573332D 
 234      8585B996 
 234      FCE28225 
 234      1F
 235 060b 659057B6 		.ascii	"e\220W\266\032\240\252\252\262\264\322qYU\242\370\374"
 235      1AA0AAAA 
 235      B2B4D271 
 235      5955A2F8 
 235      FC
 236 061c C5CBCC56 		.ascii	"\305\313\314V4\245V\250\236\233i\253\250q\270l\265v"
 236      34A556A8 
 236      9E9B69AB 
 236      A871B86C 
 236      B576
 237 062e A1AEC626 		.ascii	"\241\256\306&\274o\251tU\333-|\225\275\336Rdw\012.w"
 237      BC6FA974 
 237      55DB2D7C 
 237      95BDDE52 
 237      64770A2E 
 238 0643 BE9BAFA9 		.ascii	"\276\233\257\251t\224\002\246\253\316]jw\257\260Y]e"
 238      749402A6 
 238      ABCE5D6A 
 238      77AFB059 
 238      5D65
 239 0655 F61CBBB3 		.ascii	"\366\034\273\263\264\322V\350\020\354\266r\227\333\226"
 239      B4D256E8 
 239      10ECB672 
 239      97DB96
 240 0664 CD15D9F2 		.ascii	"\315\025\331\362\262s\012,\274\273z\216\323\345\264"
 240      B2730A2C 
 240      BCBB7A8E 
 240      D3E5B4
 241 0673 CFB1F3CB 		.ascii	"\317\261\363\313\035\026\207\263\264\252\256\314n\251"
 241      1D1687B3 
 241      B4AAAECC 
 241      6EA9
 242 0681 15CA1C4E 		.ascii	"\025\312\034N\001\006N\254\203\036\206\024XW\231\233"
 242      01064EAC 
ARM GAS  /tmp/ccCpqXsc.s 			page 19


 242      831E8614 
 242      5857999B 
 243 0691 2D755701 		.ascii	"-uW\001U\306\027g\347\362\002\037_\234#uV\251\313\225"
 243      55C61767 
 243      E7F2021F 
 243      5F9C2375 
 243      56A9CB95 
 244 06a5 BA3CD219 		.ascii	"\272<\322\031\213\263\013\255.g\271\243b\2022\015\233"
 244      8BB30BAD 
 244      2E67B9A3 
 244      6282320D 
 244      9B
 245 06b6 C3E910E2 		.ascii	"\303\351\020\342K\251p\276z\025J]\325\325.\247\305^"
 245      4BA970BE 
 245      7A154A5D 
 245      D5D52EA7 
 245      C55E
 246 06c8 2F58AC45 		.ascii	"/X\254E%\005%\260\030\322z,\314\250\257\267\320)\227"
 246      250525B0 
 246      18D27A2C 
 246      CCA8AFB7 
 246      D02997
 247 06db 67A4A7D7 		.ascii	"g\244\247\327/\007\177LdylKW\324\330s\355\345\254\225"
 247      2F077F4C 
 247      64796C4B 
 247      57D4D873 
 247      EDE5AC95 
 248 06ef 2B045AC4 		.ascii	"+\004Z\304\026\344r\354\222\\\316\220S\302ql\016\307"
 248      16E472EC 
 248      925CCE90 
 248      53C2716C 
 248      0EC7
 249 0701 190AAD6F 		.ascii	"\031\012\255osI\016\027Y[G\231M0I\217\325|\355\2076"
 249      73490E17 
 249      595B4799 
 249      4D30498F 
 249      D57CED87 
 250 0716 21D1E1AA 		.ascii	"!\321\341\252\206\005\261\011\251~\317`-+\334\256\272"
 250      8605B109 
 250      A97ECF60 
 250      2D2BDCAE 
 250      BA
 251 0727 1A223710 		.ascii	"\032\"7\020M\003Q5\220\177\023\310\002\314\267\201\343"
 251      4D035135 
 251      907F13C8 
 251      02CCB781 
 251      E3
 252 0738 E51502BF 		.ascii	"\345\025\002\277<Y\352\322\262\2622\263\2229\253Uq\205"
 252      3C59EAD2 
 252      B2B232B3 
 252      9239AB55 
 252      7185
 253 074a B17206EB 		.ascii	"\261r\006\353\302|\216\265\026p\211\331\3059\231\\\311"
 253      C27C8EB5 
 253      167089D9 
 253      C539995C 
 253      C9
ARM GAS  /tmp/ccCpqXsc.s 			page 20


 254 075b 52FA9041 		.ascii	"R\372\220A\036\342\263\027\345\344-\346\022\310\013"
 254      1EE2B317 
 254      E5E42DE6 
 254      12C80B
 255 076a B9CF80DE 		.ascii	"\271\317\200\336\220\223k\005\213\022\316\310\345\225"
 255      90936B05 
 255      8B12CEC8 
 255      E595
 256 0778 E471EFE4 		.ascii	"\344q\357\344\345\246\307\021\220\314\377\001\015\277"
 256      E5A6C711 
 256      90CCFF01 
 256      0DBF
 257 0786 82A0     		.ascii	"\202\240"
 258              		.text
 259              		.section	.gnu.lto_.symtab.7e8c39267ffd2e05,"",%progbits
 260 0000 5F70616C 		.ascii	"_pal_lld_init\000\000\000\000\000\000\000\000\000\000"
 260      5F6C6C64 
 260      5F696E69 
 260      74000000 
 260      00000000 
 261 0017 0000A100 		.ascii	"\000\000\241\000\000\000_pal_lld_setgroupmode\000\000"
 261      00005F70 
 261      616C5F6C 
 261      6C645F73 
 261      65746772 
 262 0034 00000000 		.ascii	"\000\000\000\000\000\000\000\000\000\000\310\000\000"
 262      00000000 
 262      0000C800 
 262      00
 263 0041 00       		.ascii	"\000"
 264              		.text
 265              		.section	.gnu.lto_.opts,"",%progbits
 266 0000 272D6D63 		.ascii	"'-mcpu=cortex-m3' '-mno-thumb-interwork' '-mthumb' "
 266      70753D63 
 266      6F727465 
 266      782D6D33 
 266      2720272D 
 267 0033 272D6767 		.ascii	"'-ggdb' '-O2' '-fomit-frame-pointer' '-falign-funct"
 267      64622720 
 267      272D4F32 
 267      2720272D 
 267      666F6D69 
 268 0066 696F6E73 		.ascii	"ions=16' '-ffunction-sections' '-fdata-sections' '-"
 268      3D313627 
 268      20272D66 
 268      66756E63 
 268      74696F6E 
 269 0099 666E6F2D 		.ascii	"fno-common' '-flto'\000"
 269      636F6D6D 
 269      6F6E2720 
 269      272D666C 
 269      746F2700 
 270              		.text
 271              		.cfi_sections	.debug_frame
 272              		.section	.text._pal_lld_init,"ax",%progbits
 273              		.align	2
 274              		.p2align 4,,15
ARM GAS  /tmp/ccCpqXsc.s 			page 21


 275              		.global	_pal_lld_init
 276              		.thumb
 277              		.thumb_func
 278              		.type	_pal_lld_init, %function
 279              	_pal_lld_init:
 280              	.LFB217:
 281              		.file 1 "../../../os/hal/ports/STM32/LLD/GPIOv1/hal_pal_lld.c"
 282              		.loc 1 76 0
 283              		.cfi_startproc
 284              		@ args = 0, pretend = 0, frame = 0
 285              		@ frame_needed = 0, uses_anonymous_args = 0
 286              		@ link register save eliminated.
 287              	.LVL0:
 288              		.loc 1 81 0
 289 0000 4FF48053 		mov	r3, #4096
 290 0004 C4F20203 		movt	r3, 16386
 291 0008 9A69     		ldr	r2, [r3, #24]
 292              		.loc 1 76 0
 293 000a 10B4     		push	{r4}
 294              		.cfi_def_cfa_offset 4
 295              		.cfi_offset 4, -4
 296              		.loc 1 81 0
 297 000c 42F07D02 		orr	r2, r2, #125
 298 0010 9A61     		str	r2, [r3, #24]
 299              		.loc 1 86 0
 300 0012 0368     		ldr	r3, [r0]
 301 0014 4FF40062 		mov	r2, #2048
 302 0018 C4F20102 		movt	r2, 16385
 303 001c D360     		str	r3, [r2, #12]
 304              		.loc 1 87 0
 305 001e 8168     		ldr	r1, [r0, #8]
 306              		.loc 1 89 0
 307 0020 4FF44063 		mov	r3, #3072
 308              		.loc 1 87 0
 309 0024 5160     		str	r1, [r2, #4]
 310              		.loc 1 88 0
 311 0026 4168     		ldr	r1, [r0, #4]
 312              		.loc 1 89 0
 313 0028 C4F20103 		movt	r3, 16385
 314              		.loc 1 88 0
 315 002c 1160     		str	r1, [r2]
 316              		.loc 1 89 0
 317 002e C268     		ldr	r2, [r0, #12]
 318              		.loc 1 92 0
 319 0030 4FF48051 		mov	r1, #4096
 320              		.loc 1 89 0
 321 0034 DA60     		str	r2, [r3, #12]
 322              		.loc 1 90 0
 323 0036 4269     		ldr	r2, [r0, #20]
 324              		.loc 1 92 0
 325 0038 C4F20101 		movt	r1, 16385
 326              		.loc 1 90 0
 327 003c 5A60     		str	r2, [r3, #4]
 328              		.loc 1 91 0
 329 003e 0469     		ldr	r4, [r0, #16]
 330              		.loc 1 95 0
 331 0040 4FF4A052 		mov	r2, #5120
ARM GAS  /tmp/ccCpqXsc.s 			page 22


 332              		.loc 1 91 0
 333 0044 1C60     		str	r4, [r3]
 334              		.loc 1 92 0
 335 0046 8369     		ldr	r3, [r0, #24]
 336              		.loc 1 95 0
 337 0048 C4F20102 		movt	r2, 16385
 338              		.loc 1 92 0
 339 004c CB60     		str	r3, [r1, #12]
 340              		.loc 1 93 0
 341 004e 046A     		ldr	r4, [r0, #32]
 342              		.loc 1 99 0
 343 0050 4FF4C053 		mov	r3, #6144
 344              		.loc 1 93 0
 345 0054 4C60     		str	r4, [r1, #4]
 346              		.loc 1 94 0
 347 0056 C469     		ldr	r4, [r0, #28]
 348              		.loc 1 99 0
 349 0058 C4F20103 		movt	r3, 16385
 350              		.loc 1 94 0
 351 005c 0C60     		str	r4, [r1]
 352              		.loc 1 95 0
 353 005e 416A     		ldr	r1, [r0, #36]
 354              		.loc 1 113 0
 355 0060 5DF8044B 		ldr	r4, [sp], #4
 356              		.loc 1 95 0
 357 0064 D160     		str	r1, [r2, #12]
 358              		.loc 1 96 0
 359 0066 C16A     		ldr	r1, [r0, #44]
 360 0068 5160     		str	r1, [r2, #4]
 361              		.loc 1 97 0
 362 006a 816A     		ldr	r1, [r0, #40]
 363 006c 1160     		str	r1, [r2]
 364              		.loc 1 99 0
 365 006e 026B     		ldr	r2, [r0, #48]
 366 0070 DA60     		str	r2, [r3, #12]
 367              		.loc 1 100 0
 368 0072 826B     		ldr	r2, [r0, #56]
 369 0074 5A60     		str	r2, [r3, #4]
 370              		.loc 1 101 0
 371 0076 426B     		ldr	r2, [r0, #52]
 372 0078 1A60     		str	r2, [r3]
 373              		.loc 1 113 0
 374 007a 7047     		bx	lr
 375              		.cfi_endproc
 376              	.LFE217:
 377              		.size	_pal_lld_init, .-_pal_lld_init
 378 007c AFF30080 		.section	.text._pal_lld_setgroupmode,"ax",%progbits
 379              		.align	2
 380              		.p2align 4,,15
 381              		.global	_pal_lld_setgroupmode
 382              		.thumb
 383              		.thumb_func
 384              		.type	_pal_lld_setgroupmode, %function
 385              	_pal_lld_setgroupmode:
 386              	.LFB218:
 387              		.loc 1 132 0
 388              		.cfi_startproc
ARM GAS  /tmp/ccCpqXsc.s 			page 23


 389              		@ args = 0, pretend = 0, frame = 0
 390              		@ frame_needed = 0, uses_anonymous_args = 0
 391              		@ link register save eliminated.
 392              	.LVL1:
 393              		.loc 1 156 0
 394 0000 032A     		cmp	r2, #3
 395              		.loc 1 132 0
 396 0002 F0B4     		push	{r4, r5, r6, r7}
 397              		.cfi_def_cfa_offset 16
 398              		.cfi_offset 4, -16
 399              		.cfi_offset 5, -12
 400              		.cfi_offset 6, -8
 401              		.cfi_offset 7, -4
 402              		.loc 1 157 0
 403 0004 08BF     		it	eq
 404 0006 0161     		streq	r1, [r0, #16]
 405              		.loc 1 156 0
 406 0008 02D0     		beq	.L4
 407              		.loc 1 158 0
 408 000a 042A     		cmp	r2, #4
 409              		.loc 1 159 0
 410 000c 08BF     		it	eq
 411 000e 4161     		streq	r1, [r0, #20]
 412              	.L4:
 413              		.loc 1 160 0
 414 0010 40F20003 		movw	r3, #:lower16:.LANCHOR0
 415 0014 C0F20003 		movt	r3, #:upper16:.LANCHOR0
 416 0018 9F5C     		ldrb	r7, [r3, r2]	@ zero_extendqisi2
 417              	.LVL2:
 418              		.loc 1 161 0
 419 001a 0023     		movs	r3, #0
 420 001c 1C46     		mov	r4, r3
 421 001e 1A46     		mov	r2, r3
 422              	.LVL3:
 423 0020 1D46     		mov	r5, r3
 424              		.loc 1 160 0
 425 0022 0826     		movs	r6, #8
 426              	.LVL4:
 427              	.L10:
 428              		.loc 1 167 0
 429 0024 11F0800F 		tst	r1, #128
 430              		.loc 1 163 0
 431 0028 4FEA0212 		lsl	r2, r2, #4
 432              	.LVL5:
 433              		.loc 1 165 0
 434 002c 4FEA0313 		lsl	r3, r3, #4
 435              	.LVL6:
 436              		.loc 1 164 0
 437 0030 4FEA0515 		lsl	r5, r5, #4
 438              	.LVL7:
 439              		.loc 1 166 0
 440 0034 4FEA0414 		lsl	r4, r4, #4
 441              	.LVL8:
 442              		.loc 1 168 0
 443 0038 0CBF     		ite	eq
 444 003a 42F00F02 		orreq	r2, r2, #15
 445              	.LVL9:
ARM GAS  /tmp/ccCpqXsc.s 			page 24


 446              		.loc 1 170 0
 447 003e 3B43     		orrne	r3, r3, r7
 448              	.LVL10:
 449              		.loc 1 171 0
 450 0040 11F4004F 		tst	r1, #32768
 451              		.loc 1 172 0
 452 0044 0CBF     		ite	eq
 453 0046 45F00F05 		orreq	r5, r5, #15
 454              	.LVL11:
 455              		.loc 1 174 0
 456 004a 3C43     		orrne	r4, r4, r7
 457              	.LVL12:
 458              		.loc 1 162 0
 459 004c 013E     		subs	r6, r6, #1
 460              	.LVL13:
 461              		.loc 1 175 0
 462 004e 4FEA4101 		lsl	r1, r1, #1
 463              	.LVL14:
 464              		.loc 1 162 0
 465 0052 E7D1     		bne	.L10
 466              		.loc 1 177 0
 467 0054 4168     		ldr	r1, [r0, #4]
 468              	.LVL15:
 469 0056 0D40     		ands	r5, r5, r1
 470              	.LVL16:
 471 0058 2C43     		orrs	r4, r4, r5
 472              	.LVL17:
 473 005a 4460     		str	r4, [r0, #4]
 474              		.loc 1 178 0
 475 005c 0168     		ldr	r1, [r0]
 476              		.loc 1 179 0
 477 005e F0BC     		pop	{r4, r5, r6, r7}
 478              	.LVL18:
 479              		.loc 1 178 0
 480 0060 0A40     		ands	r2, r2, r1
 481              	.LVL19:
 482 0062 1343     		orrs	r3, r3, r2
 483              	.LVL20:
 484 0064 0360     		str	r3, [r0]
 485              		.loc 1 179 0
 486 0066 7047     		bx	lr
 487              		.cfi_endproc
 488              	.LFE218:
 489              		.size	_pal_lld_setgroupmode, .-_pal_lld_setgroupmode
 490 0068 AFF30080 		.section	.rodata.cfgtab.6626,"a",%progbits
 490      AFF30080 
 491              		.align	2
 492              		.set	.LANCHOR0,. + 0
 493              		.type	cfgtab.6626, %object
 494              		.size	cfgtab.6626, 18
 495              	cfgtab.6626:
 496 0000 04       		.byte	4
 497 0001 02       		.byte	2
 498 0002 04       		.byte	4
 499 0003 08       		.byte	8
 500 0004 08       		.byte	8
 501 0005 00       		.byte	0
ARM GAS  /tmp/ccCpqXsc.s 			page 25


 502 0006 03       		.byte	3
 503 0007 07       		.byte	7
 504 0008 08       		.byte	8
 505 0009 08       		.byte	8
 506 000a 08       		.byte	8
 507 000b 08       		.byte	8
 508 000c 08       		.byte	8
 509 000d 08       		.byte	8
 510 000e 08       		.byte	8
 511 000f 08       		.byte	8
 512 0010 0B       		.byte	11
 513 0011 0F       		.byte	15
 514 0012 0000     		.text
 515              	.Letext0:
 516              		.file 2 "/home/alex/MentorGraphics/Sourcery_CodeBench_Lite_for_ARM_EABI/arm-none-eabi/include/stdi
 517              		.file 3 "../../../os/common/ports/ARMCMx/compilers/GCC/chtypes.h"
 518              		.file 4 "../../../os/rt/include/chsystypes.h"
 519              		.file 5 "../../../os/rt/include/chschd.h"
 520              		.file 6 "../../../os/common/ext/CMSIS/ST/STM32F1xx/stm32f100xb.h"
 521              		.file 7 "../../../os/common/ports/ARMCMx/chcore.h"
 522              		.file 8 "../../../os/common/ports/ARMCMx/chcore_v7m.h"
 523              		.file 9 "../../../os/rt/include/chtm.h"
 524              		.file 10 "../../../os/rt/include/chsem.h"
 525              		.file 11 "../../../os/rt/include/chmtx.h"
 526              		.file 12 "../../../os/hal/ports/STM32/LLD/GPIOv1/hal_pal_lld.h"
 527              		.file 13 "../../../os/common/ext/CMSIS/include/core_cm3.h"