ARM GAS  /tmp/ccWgxlfU.s 			page 1


   1              		.syntax unified
   2              		.cpu cortex-m3
   3              		.fpu softvfp
   4              		.eabi_attribute 20, 1
   5              		.eabi_attribute 21, 1
   6              		.eabi_attribute 23, 3
   7              		.eabi_attribute 24, 1
   8              		.eabi_attribute 25, 1
   9              		.eabi_attribute 26, 1
  10              		.eabi_attribute 30, 2
  11              		.eabi_attribute 34, 1
  12              		.eabi_attribute 18, 4
  13              		.thumb
  14              		.file	"hal_st.c"
  15              		.text
  16              	.Ltext0:
  17              		.section	.gnu.lto_.jmpfuncs.a60f740eab2b18ca,"",%progbits
  18 0000 789C6362 		.ascii	"x\234cb`b\300\006x\2414+\020322103\26200\000\000\002"
  18      6062C006 
  18      78A1342B 
  18      10333232 
  18      313033B2 
  19 0019 6D0023   		.ascii	"m\000#"
  20              		.text
  21              		.section	.gnu.lto_.inline.a60f740eab2b18ca,"",%progbits
  22 0000 789C6362 		.ascii	"x\234cb`b\300\006\362\2414+\003\003\013\017#X\021\333"
  22      6062C006 
  22      F2A1342B 
  22      03030B0F 
  22      235811DB 
  23 0014 0279B05A 		.ascii	"\002y\260ZF.\020\301\300\306\312\310\010\244\030\030"
  23      462E10C1 
  23      C0C6CAC8 
  23      08A41818 
  24 0024 98D83EE8 		.ascii	"\230\330>\350\301%\231\030X\230\201\312\231.\360\303"
  24      C1259918 
  24      589881CA 
  24      992EF0C3 
  25 0034 85984142 		.ascii	"\205\230ABP\245\310\342,\230J\031\000\300\002\010{"
  25      50A5C8E2 
  25      2C984A19 
  25      00C00208 
  25      7B
  26              		.text
  27              		.section	.gnu.lto_.pureconst.a60f740eab2b18ca,"",%progbits
  28 0000 789C6362 		.ascii	"x\234cb`b\340f\200\000V\006\011F)&)f)\026)\000\004\027"
  28      6062E066 
  28      80005606 
  28      09462926 
  28      29662916 
  29 0018 009F     		.ascii	"\000\237"
  30              		.text
  31              		.section	.gnu.lto_stInit.a60f740eab2b18ca,"",%progbits
  32 0000 789C6362 		.ascii	"x\234cb`b@\007\222@\\\011\304\362@\314\310\314\300\310"
  32      60624007 
  32      92405C09 
  32      C4F240CC 
ARM GAS  /tmp/ccWgxlfU.s 			page 2


  32      C8CCC0C8 
  33 0014 34E11C03 		.ascii	"4\341\034\003C#\007\023##\210\301\300\310P\317\304X"
  33      43230713 
  33      232388C1 
  33      C0C850CF 
  33      C458
  34 0026 1FC90856 		.ascii	"\037\311\010V\273\236\351\300\203\377\377\327\375X\373"
  34      BB9EE9C0 
  34      83FFFFD7 
  34      FD58FB
  35 0035 B01EA894 		.ascii	"\260\036\250\224\201\201\225\241\245\241a\202\002\003"
  35      818195A1 
  35      A5A16182 
  35      0203
  36 0043 4332583E 		.ascii	"C2X>\004H\2024\20522\201h\346\363\014\315\017\376\331"
  36      04488234 
  36      85323281 
  36      68E6F30C 
  36      CD0FFED9 
  37 0057 24322E64 		.ascii	"$2.dd\005\312V3\374j\350h\020\310d\004\252\206\030\227"
  37      6405CA56 
  37      33FC6AE8 
  37      6810C864 
  37      04AA8618 
  38 006c 09A22F32 		.ascii	"\011\242/24>\370\317\004S\004\001!@\011\240\001 \307"
  38      343EF8CF 
  38      04530401 
  38      214009A0 
  38      0120C7
  39 007f CAEAE9E9 		.ascii	"\312\352\351\351CP~\261~Fb\216~qQ2\210\216/.\321Kf\000"
  39      43507EB1 
  39      7E46628E 
  39      7E715132 
  39      888E2F2E 
  40 0097 0032792A 		.ascii	"\0002y*\325"
  40      D5
  41              		.text
  42              		.section	.gnu.lto_stStartAlarm.a60f740eab2b18ca,"",%progbits
  43 0000 789C9D51 		.ascii	"x\234\235Q?K\303@\024\177\357r\261\335\354\352 \224"
  43      3F4BC340 
  43      147FEF72 
  43      B1DDECEA 
  43      2094
  44 0012 AE6282F6 		.ascii	"\256b\202\366\003\270\270\010\355d\004;\225X\305\036"
  44      03B8B808 
  44      ED64043B 
  44      9558C51E 
  45 0022 B4549AE0 		.ascii	"\264T\232\340\332K)\035t)\235\244\272T\024A\305Nb\005"
  45      DA4B291D 
  45      74299DA4 
  45      BA541441 
  45      C54E6205 
  46 0036 876AA70E 		.ascii	"\207j\247\016\012E'A\020\334\245\337 \336]R\244]\004"
  46      0A452741 
  46      10DCA5DF 
  46      20DE5D52 
  46      A45D04
ARM GAS  /tmp/ccWgxlfU.s 			page 3


  47 0049 1FB9BCBB 		.ascii	"\037\271\274\273\367~\177\036w\004\010L\307\234X_\010"
  47      F77E7F1E 
  47      7704084C 
  47      C79C585F 
  47      08
  48 005a B029326A 		.ascii	"\260)2j\200\244\361\002\340E\011\242\334\000B\205`%"
  48      80A4F102 
  48      E04509A2 
  48      DC004285 
  48      6025
  49 006c 830ADB21 		.ascii	"\203\012\333!\275O\337\277\351\326/N\260E\004\246\210"
  49      BD4FDFBF 
  49      E9D62F4E 
  49      B04504A6 
  49      88
  50 007d 4081A9A6 		.ascii	"@\201\251\246\0165\316\033\361\"\212SNU,\361\227\032"
  50      0E35CE1B 
  50      F1228A53 
  50      4E552CF1 
  50      971A
  51 008f 1B4864D6 		.ascii	"\033Hd\326\006P\215\002$\240\315y\263w_\357#?\340\336"
  51      06508D02 
  51      24A0CD79 
  51      B3775FEF 
  51      233FE0DE 
  52 00a3 C8F76719 		.ascii	"\310\367g\031\012D\034%m\023\031\222\230J\332\324\254"
  52      0A441C25 
  52      6D131992 
  52      984ADAD4 
  52      AC
  53 00b4 BB0204CF 		.ascii	"\273\002\004\317P\375\356\337\275_\271\241\335\330\267"
  53      50FDEEDF 
  53      BD5FB9A1 
  53      DDD8B7
  54 00c3 77F836D4 		.ascii	"w\3706\324m<\305\204@\332\330F]\250a@\243!\363i\360"
  54      6D3CC584 
  54      40DAD846 
  54      5DA86140 
  54      A321F369 
  55 00d8 F0FA518D 		.ascii	"\360\372Q\215\330x&\272\213p\315k\036\3170\244\013p"
  55      D87826BA 
  55      8B70CD6B 
  55      1ECF30A4 
  55      0B70
  56 00ea 29B72B0C 		.ascii	")\267+\014\365chy\015\036c8#'\210p\021T\015\023Q#l\241"
  56      F5636879 
  56      0D1E6338 
  56      23278870 
  56      11540D13 
  57 0102 523F177C 		.ascii	"R?\027|U\215\006\223\205\025\341\244l\272G\235G-p\371"
  57      558D0693 
  57      8515E1A4 
  57      6CBA479D 
  57      472D70F9 
  58 0116 95A67F4A 		.ascii	"\225\246\177J\343\2044\225E)\326\375\227\030\231\024"
  58      E3843495 
  58      4529D6FD 
ARM GAS  /tmp/ccWgxlfU.s 			page 4


  58      97189914 
  59 0126 93573904 		.ascii	"\223W9\004o\324\274\245\301\345\214\303\022\266\342"
  59      6FD4BCA5 
  59      C1E58CC3 
  59      12B6E2
  60 0135 6D647FDE 		.ascii	"md\177\3360\314\340+9f\336.\230N9's\326q\215\034P\227"
  60      30CCE02B 
  60      3966DE2E 
  60      984E3927 
  60      73D6718D 
  61 014c 157792D3 		.ascii	"\025w\222\323\220\275R\331u\314u+\235\\6S\251U\323Z"
  61      90BD52D9 
  61      75CC752B 
  61      9D5C3653 
  61      A955D35A 
  62 0160 4BEF2F85 		.ascii	"K\357/\205\244l\241\260m\344\341\007\310\\\220\343"
  62      A46CA1B0 
  62      6DE4E107 
  62      C85C90E3 
  63              		.text
  64              		.section	.gnu.lto_stStopAlarm.a60f740eab2b18ca,"",%progbits
  65 0000 789C6362 		.ascii	"x\234cb`b@\007\222@|\024\210\203\201\230\221\231\201"
  65      60624007 
  65      92407C14 
  65      88838198 
  65      919981
  66 0013 9169C239 		.ascii	"\221i\3029\006\206F\016&FF\020\203\201\221\241\236\211"
  66      0686460E 
  66      26464610 
  66      838191A1 
  66      9E89
  67 0025 B13E9211 		.ascii	"\261>\222\021\254v=\323\201\007\377\377\257\373\322"
  67      AC763DD3 
  67      8107FFFF 
  67      AFFBD2
  68 0034 36E70EE3 		.ascii	"6\347\016\343l&\026\240\010+CKC\303\004\005\006\206"
  68      6C2616A0 
  68      082B434B 
  68      43C30405 
  68      0686
  69 0046 64B08A10 		.ascii	"d\260\212\020 \011\322\026\312\310\004\242\231\3172"
  69      2009D216 
  69      CAC804A2 
  69      99CF32
  70 0055 1CDA31E7 		.ascii	"\034\3321\347\322\363G\254pu\020\306\201\356{\007Y\031"
  70      D2F347AC 
  70      707510C6 
  70      81EE7B07 
  70      5919
  71 0067 18121917 		.ascii	"\030\022\031\0272\262\002\265\202\365j3\254jhi|0q\357"
  71      32B202B5 
  71      82F56A33 
  71      AC6A6869 
  71      7C3071EF 
  72 007b 34F94C46 		.ascii	"4\371LF\206\331\014\263\032'4\010d22F0f225\000\001\013"
  72      86D90CB3 
  72      1A273408 
ARM GAS  /tmp/ccWgxlfU.s 			page 5


  72      64323246 
  72      30663232 
  73 0093 03980976 		.ascii	"\003\230\011vI\022HK\"\343b\240v\260(X\360\"C\343\207"
  73      4912484B 
  73      22E362A0 
  73      76B02858 
  73      F02243E3 
  74 00a8 4BDB5920 		.ascii	"K\333Y \246\302@\010\320t\240S@\332d\365\364\364!(\277"
  74      A6C24008 
  74      D074A053 
  74      40DA64F5 
  74      F4F42128 
  75 00bd 583F2331 		.ascii	"X?#1G\277\270(\031D\307\027\227\350%3\030\243\313\026"
  75      47BFB828 
  75      1944C717 
  75      97E82533 
  75      18A3CB16 
  76 00d1 E4179514 		.ascii	"\344\027\225\024\353\007\207\370\032\033\351\373\370"
  76      EB0787F8 
  76      1A1BE9FB 
  76      F8
  77 00de B8E88778 		.ascii	"\270\350\207x\372\226\031B\325\307\347\344\244\350e"
  77      FA961942 
  77      D5C7E7E4 
  77      A4E865
  78 00ed 30000080 		.ascii	"0\000\000\200\211PH"
  78      895048
  79              		.text
  80              		.section	.gnu.lto_stSetAlarm.a60f740eab2b18ca,"",%progbits
  81 0000 789C5D50 		.ascii	"x\234]P\261N\002A\020\235\267\334\001\235\264\026&\204"
  81      B14E0241 
  81      109DB7DC 
  81      019DB416 
  81      2684
  82 0012 D67817E5 		.ascii	"\326x\027\345\003llH\240\362L\240\"'\032\271\004\202"
  82      036C6C48 
  82      A0F24CA0 
  82      22271AB9 
  82      0482
  83 0024 E12EB6EC 		.ascii	"\341.\266\354\021\022\022m\210\245\306\002\242\026\306"
  83      1112126D 
  83      88A5C602 
  83      A216C6
  84 0033 A054165A 		.ascii	"\240T\026Z\020\251(4Q;c\341\027\020\032\353sw\357h\230"
  84      10A92834 
  84      513B63E1 
  84      17101AEB 
  84      7377EF68 
  85 0048 ECEECCCE 		.ascii	"\354\356\314\316\2747\363v\0311Z\266U\261s *\012\217"
  85      BC37F376 
  85      19315AB6 
  85      55B17320 
  85      2A0A8F
  86 005b 1881F5DE 		.ascii	"\030\201\365\336\211\374$\003d@\240\026C\253\004\205"
  86      89FC2403 
  86      6440A016 
  86      43AB0485 
ARM GAS  /tmp/ccWgxlfU.s 			page 6


  87 006b 7D60E3DF 		.ascii	"}`\343\337 \030>vo\177p\305\342\014u\220F\216*\352\324"
  87      20183E76 
  87      6F7F70C5 
  87      E20C7590 
  87      468E2AEA 
  88 0080 E1BC97AE 		.ascii	"\341\274\227\256C\334**c\211S\366\330\003\223>6\245"
  88      43DC2A2A 
  88      638953F6 
  88      D803933E 
  88      36A5
  89 0092 76922843 		.ascii	"v\222(C}\316\317\307\243\356\004\374\224\373\363 Xq"
  89      7DCECFC7 
  89      A3EE04FC 
  89      94FBF320 
  89      5871
  90 00a4 20106948 		.ascii	" \020iHZ\021\016XJ\271\330\222\326#\001\2427j\317&O"
  90      5A110E58 
  90      4AB9D892 
  90      D62301A2 
  90      376ACF26 
  91 00b9 DF432F1A 		.ascii	"\337C/\032\267\230;>\233\215t\033\003d\004\322F\037"
  91      B7983B3E 
  91      9B8D741B 
  91      036404D2 
  91      461F
  92 00cb BAE88690 		.ascii	"\272\350\206\220\246E\314\327\351\313\327_;a\343ZT7"
  92      A645CCD7 
  92      E9CBD75F 
  92      3B61E35A 
  92      5437
  93 00dd E89E777C 		.ascii	"\350\236w|^r\240\255\323\235\014\267\035\350\227t\341"
  93      5E72A0AD 
  93      D39D0CB7 
  93      1DE89774 
  93      E1
  94 00ee F778CA41 		.ascii	"\367x\312A\\*Hpa\232\022\223P\022\366\241\272\337\010"
  94      5C2A4870 
  94      619A1293 
  94      5012F6A1 
  94      BADF08
  95 0101 BECA2643 		.ascii	"\276\312&CeQFL\"\372 \177\376\371\254\205\022\026f\011"
  95      6551464C 
  95      22FA207F 
  95      FEF9AC85 
  95      12166609 
  96 0115 29E207E4 		.ascii	")\342\007\344\203\326\014\303\014W\3035\253v\315t\233"
  96      83D60CC3 
  96      0C57C335 
  96      AB76CD74 
  96      9B
  97 0126 15E9CBAE 		.ascii	"\025\351\313\256gTH\363\234\372av\031r\334hz\256\271"
  97      675448F3 
  97      9CFA6176 
  97      1972DC68 
  97      7AAEB9
  98 0139 6B15B25B 		.ascii	"k\025\262[f>\277cZ\271\302\311fD*\327j\007F\225\376"
  98      663EBF63 
ARM GAS  /tmp/ccWgxlfU.s 			page 7


  98      5AB9C2C9 
  98      66442AD7 
  98      6A074695 
  99 014e 01E6CB6C 		.ascii	"\001\346\313l\275"
  99      BD
 100              		.text
 101              		.section	.gnu.lto_stGetAlarm.a60f740eab2b18ca,"",%progbits
 102 0000 789C6362 		.ascii	"x\234cb`b@\007\222@\374\037\210\203\201\230\221\231"
 102      60624007 
 102      9240FC1F 
 102      88838198 
 102      9199
 103 0012 819169C2 		.ascii	"\201\221i\3029\006\206F\016&FF\020\203\201\221\241\236"
 103      39068646 
 103      0E264646 
 103      10838191 
 103      A19E
 104 0024 89B13E92 		.ascii	"\211\261>\222\021\254v=\323\201\007\377\377\257\373"
 104      11AC763D 
 104      D38107FF 
 104      FFAFFB
 105 0033 D03EEF0E 		.ascii	"\320>\357\016\343|&Vf\206LF\006\026 \001\222eehih\230"
 105      E37C2656 
 105      66864C46 
 105      06162001 
 105      92656568 
 106 004a A0900B62 		.ascii	"\240\220\013b'\203\225\207\000I\220\031\241\214L \232"
 106      27839587 
 106      00499019 
 106      A18C4C20 
 106      9A
 107 005b F92CC3A1 		.ascii	"\371,\303\241;s.\375\177\304\011U\012\323s\240\373\237"
 107      3B732EFD 
 107      7FC40955 
 107      0AD373A0 
 107      FB9F
 108 006d 21034322 		.ascii	"!\003C\"\343BFV\240N\260\326tFf]\2065\015-\215\017&"
 108      E3424656 
 108      A04EB0D6 
 108      7446665D 
 108      86350D2D 
 109 0084 FE9DEE97 		.ascii	"\376\235\356\227\311\310\244\315\260\012\310k\230\314"
 109      C9C8A4CD 
 109      B00AC86B 
 109      98CC
 110 0092 98C9C83C 		.ascii	"\230\311\310<\233aV\343\204\006\201LF\226\010 \227\265"
 110      9B6156E3 
 110      8406814C 
 110      46960820 
 110      97B5
 111 00a4 01085818 		.ascii	"\001\010X\030\300L\260#\223@&$2.\006qA\242l\020\177"
 111      C04CB023 
 111      93402624 
 111      322E0671 
 111      41A26C10 
 112 00b9 42451818 		.ascii	"BE\030\030\31624\275k\346Kd\\\004\344\2463\262\000\255"
 112      CE3234BD 
ARM GAS  /tmp/ccWgxlfU.s 			page 8


 112      6BE64B64 
 112      5C04E4A6 
 112      33B200AD 
 113 00cd 6260B8C8 		.ascii	"b`\270\310\320\270\341\220=\304\011@1\210\216\020\240"
 113      D0B8E190 
 113      3DC40940 
 113      31888E10 
 113      A0
 114 00de 5B80EE06 		.ascii	"[\200\356\006\005\231\254\236\236>\004\345\027\353g"
 114      0599AC9E 
 114      9E3E04E5 
 114      17EB67
 115 00ed 24E6E817 		.ascii	"$\346\350\027\027%\203\350\370\342\022\275d\006ct\331"
 115      172583E8 
 115      F8E212BD 
 115      64066374 
 115      D9
 116 00fe 82FCA292 		.ascii	"\202\374\242\222b\375\340\020_c#}\037\037\027\375\020"
 116      62FDE010 
 116      5F63237D 
 116      1F1F17FD 
 116      10
 117 010f 4FDF3243 		.ascii	"O\3372C\250\372\370\234\234\024\275\014\006\000\301"
 117      A8FAF89C 
 117      9C14BD0C 
 117      0600C1
 118 011e 285BC0   		.ascii	"([\300"
 119              		.text
 120              		.section	.gnu.lto_.symbol_nodes.a60f740eab2b18ca,"",%progbits
 121 0000 789C4DC7 		.ascii	"x\234M\307\271\015\2000\024D\301}\337\270R\012YK$\204"
 121      B90D8030 
 121      1444C17D 
 121      DFB8520A 
 121      594B2484 
 122 0014 544049E4 		.ascii	"T@I\344\230CT\202\010@\302\223M(\324\353\023+\226\246"
 122      98435482 
 122      0840C293 
 122      4D28D4EB 
 122      132B96A6 
 123 0028 45B2E791 		.ascii	"E\262\347\221\250\230\246\033\216\246;NM\017\334\375"
 123      A898A61B 
 123      8EA63B4E 
 123      4D0FDCFD 
 124 0038 E5C4F96D 		.ascii	"\345\304\371m)$e\015\327\215\036A>\037~"
 124      2924650D 
 124      D78D1E41 
 124      3E1F7E
 125              		.text
 126              		.section	.gnu.lto_.refs.a60f740eab2b18ca,"",%progbits
 127 0000 789C6362 		.ascii	"x\234cb`b`d\200\002\000\000F\000\006"
 127      60626064 
 127      80020000 
 127      460006
 128              		.text
 129              		.section	.gnu.lto_.decls.a60f740eab2b18ca,"",%progbits
 130 0000 789C9D58 		.ascii	"x\234\235X}L\024G\024\237\331=\371\020D\324\326\322"
 130      7D4C1447 
ARM GAS  /tmp/ccWgxlfU.s 			page 9


 130      149FD93D 
 130      F91044D4 
 130      D6D2
 131 0012 3F1AB1D1 		.ascii	"?\032\261\321\206\230\310\025hI\377\262\342A\220D\254"
 131      8698C815 
 131      6849FFB2 
 131      E2419044 
 131      AC
 132 0023 39302169 		.ascii	"90!i\322u=\316\336%pG\356\226\246\3767\200\020Z5\001"
 132      D2753DCE 
 132      DE257047 
 132      EE96A6FE 
 132      3780105A 
 133 0039 AC86B656 		.ascii	"\254\206\266V\361\243\012I\323R?\320 \325\023\203\220"
 133      F1A30A49 
 133      D3523FD0 
 133      20D51383 
 133      90
 134 004a D0462ADA 		.ascii	"\320F*\332V\351\307\265M\245M\323\024\322V\245Z\256"
 134      56E9C7B5 
 134      4DA54DD3 
 134      14D256A5 
 134      5AAE
 135 005c 6F6767EF 		.ascii	"ogg\357v\227]\274s\302{77\373\336o~\357\275\231\333"
 135      76975DBC 
 135      73C27B37 
 135      37FBDE6F 
 135      7EEFBD99 
 136 0071 1938C4A1 		.ascii	"\0318\304\241n\214P\004\332\312e\010\211\034BI\010\241"
 136      6E8C5004 
 136      DACA6508 
 136      891C4249 
 136      08A1
 137 0083 7528D6E4 		.ascii	"u(\326\344\357G@N\200\234\006\351\003\351\007\271\210"
 137      EF47404E 
 137      809C06E9 
 137      03E907B9 
 137      88
 138 0094 E636D90E 		.ascii	"\3466\331\016 P\010\344(\033\343\330\270\231\275\214"
 138      205008E4 
 138      281BE3D8 
 138      B899BD8C 
 139 00a4 990A920C 		.ascii	"\231\012\222\014\322\003\222\001\222\016r\031d\010d"
 139      D2039201 
 139      920E7219 
 139      640864
 140 00b3 04E43E88 		.ascii	"\004\344>\210\015\204\007\231\004\271\0112\316pe\377"
 140      0D840799 
 140      04B90932 
 140      CE7065FF 
 141 00c3 19D6EF05 		.ascii	"\031\326\357\005\2315\340\237f~\2275XX\343/?O\301sy"
 141      9935E09F 
 141      667E9735 
 141      5858E32F 
 141      3F4FC173 
 142 00d8 F525C00B 		.ascii	"\365%\300\0133^\034\363K\303J\377<\310b\003v?\303Tq"
 142      335E1CF3 
ARM GAS  /tmp/ccWgxlfU.s 			page 10


 142      4BC34AFF 
 142      3CC86203 
 142      763FC354 
 143 00ed 1F8527DB 		.ascii	"\037\205'\333?\201\225\261\247\014X+\320!\322\025\016"
 143      3F8195B1 
 143      A70C582B 
 143      D021D215 
 143      0E
 144 00fe 371F1EC5 		.ascii	"7\037\036\305\244\203<\214Dx\264\034\355'\320\272Z\010"
 144      A4833C8C 
 144      4478B41C 
 144      ED27D0BA 
 144      5A08
 145 0110 C19288D7 		.ascii	"\301\222\210\327=\211\252\260\2103RQ6\355\244\247\322"
 145      3D89AAB0 
 145      88335251 
 145      36EDA4A7 
 145      D2
 146 0121 09A0CCF8 		.ascii	"\011\240\314\370(^\316z[y\005\216C\331\030\255A=\340"
 146      285ECE7A 
 146      5B79058E 
 146      43D918AD 
 146      413DE0
 147 0134 DF46C84F 		.ascii	"\337F\310O\313\346&\005\332s\350Cy\002\322Mx\012/\003"
 147      CBE62605 
 147      DA73E843 
 147      7902D24D 
 147      780A2F03 
 148 0148 1CC12BB4 		.ascii	"\034\301+\264&\">\2069#\317\360T\350\374\325\364\266"
 148      26223E86 
 148      3923CFF0 
 148      54E8FCD5 
 148      F4B6
 149 015a 867024B2 		.ascii	"\206p$\262\"~\222'\031I\236\346\002\012\322JH#!-$\247"
 149      227E9227 
 149      19499EE6 
 149      020AD24A 
 149      4823212D 
 150 0170 1B0AC2BC 		.ascii	"\033\012\302\2742U/\331f5:\016\364\303\237\235\035\347"
 150      32552FD9 
 150      66353A0E 
 150      F4C39F9D 
 150      1DE7
 151 0182 08491171 		.ascii	"\010I\021q\017\226\307+0\200\035\307k\030\241\370q\036"
 151      0F96C72B 
 151      30801DC7 
 151      6B18A1F8 
 151      711E
 152 0194 B49C7B89 		.ascii	"\264\234{\211\342|Dq\006\260\036H\304|\252>t\370\256"
 152      E27C4471 
 152      06B01E48 
 152      C47CAA3E 
 152      74F8AE
 153 01a7 1AC868F4 		.ascii	"\032\310h\3641\353\310\365I\3148V\033Z\236!\303\354"
 153      31EBC8F5 
 153      49CC3856 
 153      1B5A9E21 
ARM GAS  /tmp/ccWgxlfU.s 			page 11


 153      C3EC
 154 01b9 ABD03142 		.ascii	"\253\3201B:\302\315\223\277\362\235$\304\251\301^\247"
 154      3AC2CD93 
 154      BFF29D24 
 154      C4A9C15E 
 154      A7
 155 01ca 6627A028 		.ascii	"f'\240(f\201)V\261J\356%\315\2318Z\312\023\306R~bZ\312"
 155      66812956 
 155      B14AEE25 
 155      CD99385A 
 155      CA13C652 
 156 01e2 BFD5522A 		.ascii	"\277\325R*\353\210C\267\015\324\314\027\312i#\372\031"
 156      EB8843B7 
 156      0DD4CC17 
 156      CA6923FA 
 156      19
 157 01f3 53F4DEE1 		.ascii	"S\364\336\341(\372I\212~\3074pro[\216\022\215\210?\005"
 157      28FA498A 
 157      7EC73470 
 157      726F5B8E 
 157      128D883F 
 158 0208 2011F73D 		.ascii	" \021\367=V\314}FV\347LYM\017\357}\232t5\206\"\221\227"
 158      56CC7D46 
 158      56E74C59 
 158      4D0FEF7D 
 158      9A743586 
 159 021f 8DDB4C46 		.ascii	"\215\333LF\267Z\302\027L\366\331\264y\266\032Io7Y\240"
 159      B75AC217 
 159      4CF6D9B4 
 159      79B61A49 
 159      6F3759A0 
 160 0233 921571BF 		.ascii	"\222\025q\277E8\014o\300\204f[x\346\332\177\015\270"
 160      45380C6F 
 160      C084665B 
 160      78E6DA7F 
 160      0DB8
 161 0245 BDA96B84 		.ascii	"\275\251k\204LE\"\213\221Z\240^\3168\245\002rI\017\222"
 161      4C45228B 
 161      915AA05E 
 161      CE38A502 
 161      72490F92 
 162 0259 86DE9679 		.ascii	"\206\336\226y@`\033G2\024_\253\300B8M\213H\367T\023"
 162      40601B47 
 162      32145FAB 
 162      C042384D 
 162      8B48F754 
 163 026e F344A65E 		.ascii	"\363D\246^\321=uc\032\303\356\303l\033\316\347\"\342"
 163      D13D7563 
 163      1AC3EEC3 
 163      6C1BCEE7 
 163      22E2
 164 0280 41BC1A74 		.ascii	"A\274\032t\262~\247$\247\306:\362\233k\261\234\325\001"
 164      B27EA724 
 164      A7C63AF2 
 164      9B6BB19C 
 164      D501
 165 0292 CEB83993 		.ascii	"\316\2709\223\015\233\363\321(KP\233\\\330l9\370\313"
ARM GAS  /tmp/ccWgxlfU.s 			page 12


 165      0D9BF3D1 
 165      284B509B 
 165      5CD86C39 
 165      F8CB
 166 02a4 B1AA12AC 		.ascii	"\261\252\022\254\222\312\244PZ\263+\326f\"\276\212\227"
 166      92CAA450 
 166      5AB32BD6 
 166      6622BE8A 
 166      97
 167 02b5 C4B243A2 		.ascii	"\304\262C\242yM\267^/\303\312JU\207\243\035^\027\211"
 167      794DB75E 
 167      2FC3CA4A 
 167      5587A31D 
 167      5E1789
 168 02c8 6A8596A2 		.ascii	"j\205\226\242v\306$\232@\222\244\372l\213%\375\375\003"
 168      76C6249A 
 168      4092A4FA 
 168      6C8B25FD 
 168      FD03
 169 02da F70AE90F 		.ascii	"\367\012\351\017\331\010^\012\271\272o\310\325#a\344"
 169      D9085E0A 
 169      B9BA6FC8 
 169      D52361E4 
 170 02ea 4947C155 		.ascii	"IG\301Uq\242\240$\264o\"\235\330\224qd\262\272X[\211"
 170      71A2A024 
 170      B46F229D 
 170      D8947164 
 170      B2BA585B 
 171 02ff BAC8AEA6 		.ascii	"\272\310\256\246\320\376\211\203\260\177\006\261\222"
 171      D0FE8983 
 171      B07F06B1 
 171      92
 172 030c 580EEDE2 		.ascii	"X\016\355\3421\3034KE4|5\027\031\251\006\274\003\023"
 172      31C3344B 
 172      45347C35 
 172      1719A906 
 172      BC0313
 173 031f E96DA20A 		.ascii	"\351m\242\012\326\2320X\266\016\254S\013\266'\036\260"
 173      D69A3058 
 173      B60EAC53 
 173      0BB6271E 
 173      B0
 174 0330 146B66EF 		.ascii	"\024kf\357i\301\332\023\006\3233;\250\005;\020\017X"
 174      69C1DA13 
 174      06D3333B 
 174      A8053B10 
 174      0F58
 175 0342 A635B343 		.ascii	"\2465\263CZ\260w\023\006\3233\353\325\202}\020\017X"
 175      5AB07713 
 175      06D333EB 
 175      D5827D10 
 175      0F58
 176 0354 9635B353 		.ascii	"\2265\263SZ\260c\011\203\351\231\235\321\202\365\304"
 176      5AB06309 
 176      83E9999D 
 176      D182F5C4 
 177 0364 03966DCD 		.ascii	"\003\226m\315\254O\013\366q\302`zf\347\265`\247\342"
ARM GAS  /tmp/ccWgxlfU.s 			page 13


 177      AC4F0BF6 
 177      71C2607A 
 177      66E7B560 
 177      A7E2
 178 0376 01CBB166 		.ascii	"\001\313\261f\326\257\005\353K\030L\317l@\013\326\037"
 178      D6AF05EB 
 178      4B184CCF 
 178      6C400BD6 
 178      1F
 179 0387 0FD8F356 		.ascii	"\017\330\363V\314\032B\027_\225\261\206\340\307\217"
 179      CC1A4217 
 179      5F95B186 
 179      E0C78F
 180 0396 43178D58 		.ascii	"C\027\215X\372_I30=\2631-\263\301x\230\255\267\006\273"
 180      FA5F4933 
 180      303DB331 
 180      2DB3C178 
 180      98ADB706 
 181 03ab AE051B8E 		.ascii	"\256\005\033\216\007l\243u\001nh\301F\023\006\3233\373"
 181      076CA375 
 181      016E68C1 
 181      461306D3 
 181      33FB
 182 03bd 4A0B3616 		.ascii	"J\0136\026\017\330\026kf\337h\301\306\023\006\3232k"
 182      0FD8166B 
 182      66DF68C1 
 182      C61306D3 
 182      326B
 183 03cf 08DD866A 		.ascii	"\010\335\206j\2627^\327z\303\233q\275\376'Lgv\305\322"
 183      B2375ED7 
 183      7AC39B71 
 183      BDFE274C 
 183      6776C5D2 
 184 03e3 4CC4FF24 		.ascii	"L\304\377$\374b\274k\361b\324^\212bV\020\366-c\330:"
 184      FC62BC6B 
 184      F162D45E 
 184      8A625610 
 184      F62D63D8 
 185 03f8 12AC5B65 		.ascii	"\022\254[e\222C\263\246}\373\211\370sz(\371\002\257"
 185      9243B3A6 
 185      7DFB89F8 
 185      737A28F9 
 185      02AF
 186 040a 047D8DEA 		.ascii	"\004}\215\352/\251\036\247\372&\325_S}\213\352\011\252"
 186      2FA91EA7 
 186      FA26D55F 
 186      537D8BEA 
 186      09AA
 187 041c BFA3FA07 		.ascii	"\277\243\372\007\252\177\244\372g\252\177\241z\222\352"
 187      AA7FA4FA 
 187      67AA7FA1 
 187      7A92EA
 188 042b DFA8FE9D 		.ascii	"\337\250\376\235\352?\250\376\223\352i\252\377\002\035"
 188      EA3FA8FE 
 188      93EA69AA 
 188      FF021D
 189 043a 6D86B3DA 		.ascii	"m\206\263\332\210E}e\356\367\341\254\306\232|L\014M"
ARM GAS  /tmp/ccWgxlfU.s 			page 14


 189      88457D65 
 189      EEF7E1AC 
 189      C69A7C4C 
 189      0C4D
 190 044c C131F1DB 		.ascii	"\3011\361\333A\334\321D\224cbW\212z\324\376\2367=j\217"
 190      41DCD144 
 190      94636257 
 190      8A7AD4FE 
 190      9E373D6A 
 191 0461 8B39EAF5 		.ascii	"\2139\352\365b\232Z\314\304y\324\276E\266dEO\3323\306"
 191      629A5ACC 
 191      C479D4BE 
 191      45B66445 
 191      4FDA33C6 
 192 0475 93F6BFFA 		.ascii	"\223\366\277\372\323\347\263\350\010\031\033\013\017"
 192      D3E7B3E8 
 192      08191B0B 
 192      0F
 193 0482 4D76E2D6 		.ascii	"Mv\342\3260\\Bg#\021\254\036\265:3\330q1\374a(\2533"
 193      305C4267 
 193      2311AC1E 
 193      B53A33D8 
 193      7131FC61 
 194 0499 764C49D1 		.ascii	"vLI\321\256\003\345\\\002\016\\\324\230de\231\333\212"
 194      AE03E55C 
 194      020E5CD4 
 194      98646599 
 194      DB8A
 195 04ab B88193AB 		.ascii	"\270\201\223\253\330\310\305\326\225\322W{\021z\217"
 195      D8C8C5D6 
 195      95D2577B 
 195      117A8F
 196 04ba BFCB9BFC 		.ascii	"\277\313\233\374{@\241?\277+\233\324\243N\272\210\332"
 196      7B40A13F 
 196      BF2B9BD4 
 196      A34EBA88 
 196      DA
 197 04cb C6E2512C 		.ascii	"\306\342Q,\315\255D\274\213Kt\2034s\346\033$]\307Y\265"
 197      CDAD44BC 
 197      8B4B7483 
 197      3473E61B 
 197      245DC759 
 198 04e0 82C81EF0 		.ascii	"\202\310\036\360\206\213\242\201\004\234\321l\230\271"
 198      868BA281 
 198      049CD16C 
 198      98B9
 199 04ee 2DC49AA5 		.ascii	"-\304\232\245s\307\260t\224+F\207-\236;`+gX\003oqs\256"
 199      73C7B074 
 199      942B4687 
 199      2D9E3B60 
 199      2B675803 
 200 0506 31A1A9D0 		.ascii	"1\241\251\320\365Q\345\016x8\224\251.\315\3436\323\245"
 200      F551E50E 
 200      783894A9 
 200      2ECDE336 
 200      D3A5
 201 0518 79498CDE 		.ascii	"yI\214\336\002\037\322[\340n\3561\226\346n#\255=\234"
ARM GAS  /tmp/ccWgxlfU.s 			page 15


 201      021FD25B 
 201      E06EEE31 
 201      96E66E23 
 201      AD3D9C
 202 052b E9D2BC6B 		.ascii	"\351\322\274k\2724ELb\245\254R'M\233\257\340\006+\021"
 202      BA34454C 
 202      62A5AC52 
 202      274D9BAF 
 202      E0062B11 
 203 053f B7275CF0 		.ascii	"\267'\\\360\016\213\202/\324\005\242ZA\267\2053\334"
 203      0E8B822F 
 203      D405A25A 
 203      41B78533 
 203      DC
 204 0550 920D2438 		.ascii	"\222\015$8t\326\274\340\263\035x\237\266\340\027hA\256"
 204      74D6BCE0 
 204      B31D789F 
 204      B6E01768 
 204      41AE
 205 0562 9817DC78 		.ascii	"\230\027\334x\215}\307\242\036l\242\375\346\211\236"
 205      8D7DC7A2 
 205      1E6CA2FD 
 205      E6899E
 206 0571 D5245AC4 		.ascii	"\325$Z\304m\220\034\225\177\377<\374o\350\370\243gr"
 206      6D901C95 
 206      7FFF3CFC 
 206      6FE8F8A3 
 206      6772
 207 0583 73EDCA9F 		.ascii	"s\355\312\237?h\367\2105\366`\300%\177\012A)\327\205"
 207      3F68F788 
 207      35F660C0 
 207      257F0A41 
 207      29D785
 208 0596 92825299 		.ascii	"\222\202R\231\317+%\225n\336\232\355@\253\264\266\001"
 208      CF2B2595 
 208      6EDE9AED 
 208      40ABB4B6 
 208      01
 209 05a7 C9EEF5B9 		.ascii	"\311\356\365\271j\352\253\335v\227'\2703(\355\254s\007"
 209      6AEAABDD 
 209      769727B8 
 209      3328EDAC 
 209      7307
 210 05b9 733D2855 		.ascii	"s=(U\356{k\335\202\364\232\335\343\257u\333\305\032"
 210      EE7B6BDD 
 210      82F49ADD 
 210      E3AF75DB 
 210      C51A
 211 05cb F79BF672 		.ascii	"\367\233\366r\267O\362\007J\003b\235\307\353\012\332"
 211      B74FF207 
 211      4A03629D 
 211      C7EB0ADA 
 212 05db 2BFCF501 		.ascii	"+\374\365\001\227;\260Sp\370\253\335\033\334>\227G\330"
 212      973BB053 
 212      70F8ABDD 
 212      1BDC3E97 
 212      47D8
ARM GAS  /tmp/ccWgxlfU.s 			page 16


 213 05ed E495DCC2 		.ascii	"\344\225\334\302\016\177@(r\226\013%E\033\312\354b\240"
 213      0E7F4028 
 213      72960B25 
 213      451BCAEC 
 213      62A0
 214 05ff 76ADCFEF 		.ascii	"v\255\317\357s\257u\213\333\275\321\311\202R\265\327"
 214      73AF758B 
 214      DBBDD1C9 
 214      8252B5D7 
 215 060f 27C14429 		.ascii	"'\301D)\365\360\231W(H\351A\251B\022\003RQ\015x$\213"
 215      F5F09957 
 215      2848E941 
 215      A9421203 
 215      52510D78 
 216 0625 DBE9F469 		.ascii	"\333\351\364i\362\240\277\216\216-\204\276[R\273\245"
 216      F2A0BF8E 
 216      8E2D84BE 
 216      5B52BBA5 
 217 0635 AC5B608C 		.ascii	"\254[`\214\274\316\037\220\200ZeyA\276}\323\246b{eY"
 217      BCCE1F90 
 217      805A6579 
 217      41BE7DD3 
 217      A6627B65 
 218 064a F91B792C 		.ascii	"\371\033y,\027BMM5\314\231\246\364\004/$\205\316_\220"
 218      17424D4D 
 218      35CC99A6 
 218      F4042F24 
 218      85CE5F90 
 219 065e 2F48F9F1 		.ascii	"/H\371\361\001\005\245Z\331\332[\253\340\260/\202\304"
 219      0105A55A 
 219      D9DA5BAB 
 219      E0B02F82 
 219      C4
 220 066f 3B9C7920 		.ascii	";\234y \371\266\212r\207\323V\\V\342\344*\234|I\251"
 220      F9B68A72 
 220      87D3565C 
 220      56E2E42A 
 220      9C7C49A9 
 221 0683 7381C351 		.ascii	"s\201\303Q\356\314\243:\337\346p\2248y\307\346J~K\205"
 221      EECCA33A 
 221      DFE67094 
 221      3879C7E6 
 221      4A7E4B85 
 222 0697 832F723A 		.ascii	"\203/r:y\247\003\276\203\303\206\342J'_,{\226\0279\271"
 222      79A703BE 
 222      83C386E2 
 222      4A275F2C 
 222      7B961739 
 223 06ac 5714AF02 		.ascii	"W\024\257\002\260\257r.el\203rv\004Q\016\332&\347\306"
 223      B0AF722E 
 223      656C8372 
 223      7604510E 
 223      DA26E7C6 
 224 06c0 E6F28881 		.ascii	"\346\362\210\201\024A\330Q\357s\011\302\"\265\223[X"
 224      1441D851 
 224      EF7309C2 
 224      22B5935B 
ARM GAS  /tmp/ccWgxlfU.s 			page 17


 224      58
 225 06d1 98FFC292 		.ascii	"\230\377\302\222\250\217\277Nq\311TG\334\014C\353P\220"
 225      A88FBF4E 
 225      71C95447 
 225      DC0C43EB 
 225      5090
 226 06e3 A73E7EDD 		.ascii	"\247>~\335\364\361\213\377\003)\265j\227"
 226      F4F18BFF 
 226      0329B56A 
 226      97
 227              		.text
 228              		.section	.gnu.lto_.symtab.a60f740eab2b18ca,"",%progbits
 229 0000 7374496E 		.ascii	"stInit\000\000\000\000\000\000\000\000\000\000\000\000"
 229      69740000 
 229      00000000 
 229      00000000 
 229      0000
 230 0012 A1000000 		.ascii	"\241\000\000\000stStartAlarm\000\000\000\000\000\000"
 230      73745374 
 230      61727441 
 230      6C61726D 
 230      00000000 
 231 0028 00000000 		.ascii	"\000\000\000\000\000\000\246\000\000\000stStopAlarm"
 231      0000A600 
 231      00007374 
 231      53746F70 
 231      416C6172 
 232 003d 00000000 		.ascii	"\000\000\000\000\000\000\000\000\000\000\000\000\263"
 232      00000000 
 232      00000000 
 232      B3
 233 004a 00000073 		.ascii	"\000\000\000stSetAlarm\000\000\000\000\000\000\000\000"
 233      74536574 
 233      416C6172 
 233      6D000000 
 233      00000000 
 234 005f 00000000 		.ascii	"\000\000\000\000\266\000\000\000stGetAlarm\000\000\000"
 234      B6000000 
 234      73744765 
 234      74416C61 
 234      726D0000 
 235 0074 00000000 		.ascii	"\000\000\000\000\000\000\000\000\000\272\000\000\000"
 235      00000000 
 235      00BA0000 
 235      00
 236 0081 73745F6C 		.ascii	"st_lld_init\000\000\002\000\000\000\000\000\000\000"
 236      6C645F69 
 236      6E697400 
 236      00020000 
 236      00000000 
 237 0096 0000BE00 		.ascii	"\000\000\276\000\000\000"
 237      0000
 238              		.text
 239              		.section	.gnu.lto_.opts,"",%progbits
 240 0000 272D6D63 		.ascii	"'-mcpu=cortex-m3' '-mno-thumb-interwork' '-mthumb' "
 240      70753D63 
 240      6F727465 
ARM GAS  /tmp/ccWgxlfU.s 			page 18


 240      782D6D33 
 240      2720272D 
 241 0033 272D6767 		.ascii	"'-ggdb' '-O2' '-fomit-frame-pointer' '-falign-funct"
 241      64622720 
 241      272D4F32 
 241      2720272D 
 241      666F6D69 
 242 0066 696F6E73 		.ascii	"ions=16' '-ffunction-sections' '-fdata-sections' '-"
 242      3D313627 
 242      20272D66 
 242      66756E63 
 242      74696F6E 
 243 0099 666E6F2D 		.ascii	"fno-common' '-flto'\000"
 243      636F6D6D 
 243      6F6E2720 
 243      272D666C 
 243      746F2700 
 244              		.text
 245              		.cfi_sections	.debug_frame
 246              		.section	.text.stInit,"ax",%progbits
 247              		.align	2
 248              		.p2align 4,,15
 249              		.global	stInit
 250              		.thumb
 251              		.thumb_func
 252              		.type	stInit, %function
 253              	stInit:
 254              	.LFB217:
 255              		.file 1 "../../../os/hal/src/hal_st.c"
 256              		.loc 1 60 0
 257              		.cfi_startproc
 258              		@ args = 0, pretend = 0, frame = 0
 259              		@ frame_needed = 0, uses_anonymous_args = 0
 260              		@ link register save eliminated.
 261              		.loc 1 62 0
 262 0000 FFF7FEBF 		b	st_lld_init
 263              	.LVL0:
 264              		.cfi_endproc
 265              	.LFE217:
 266              		.size	stInit, .-stInit
 267 0004 AFF30080 		.section	.text.stStartAlarm,"ax",%progbits
 267      AFF30080 
 267      AFF30080 
 268              		.align	2
 269              		.p2align 4,,15
 270              		.global	stStartAlarm
 271              		.thumb
 272              		.thumb_func
 273              		.type	stStartAlarm, %function
 274              	stStartAlarm:
 275              	.LFB218:
 276              		.loc 1 76 0
 277              		.cfi_startproc
 278              		@ args = 0, pretend = 0, frame = 0
 279              		@ frame_needed = 0, uses_anonymous_args = 0
 280              		@ link register save eliminated.
 281              	.LVL1:
ARM GAS  /tmp/ccWgxlfU.s 			page 19


 282              	.LBB10:
 283              	.LBB11:
 284              		.file 2 "../../../os/hal/ports/STM32/LLD/TIMv1/hal_st_lld.h"
 285              		.loc 2 155 0
 286 0000 4FF08043 		mov	r3, #1073741824
 287              		.loc 2 156 0
 288 0004 0021     		movs	r1, #0
 289              		.loc 2 157 0
 290 0006 0222     		movs	r2, #2
 291              		.loc 2 155 0
 292 0008 5863     		str	r0, [r3, #52]
 293              		.loc 2 156 0
 294 000a 1961     		str	r1, [r3, #16]
 295              		.loc 2 157 0
 296 000c DA60     		str	r2, [r3, #12]
 297 000e 7047     		bx	lr
 298              	.LBE11:
 299              	.LBE10:
 300              		.cfi_endproc
 301              	.LFE218:
 302              		.size	stStartAlarm, .-stStartAlarm
 303              		.section	.text.stStopAlarm,"ax",%progbits
 304              		.align	2
 305              		.p2align 4,,15
 306              		.global	stStopAlarm
 307              		.thumb
 308              		.thumb_func
 309              		.type	stStopAlarm, %function
 310              	stStopAlarm:
 311              	.LFB219:
 312              		.loc 1 90 0
 313              		.cfi_startproc
 314              		@ args = 0, pretend = 0, frame = 0
 315              		@ frame_needed = 0, uses_anonymous_args = 0
 316              		@ link register save eliminated.
 317              	.LBB12:
 318              	.LBB13:
 319              		.loc 2 167 0
 320 0000 4FF08043 		mov	r3, #1073741824
 321 0004 0022     		movs	r2, #0
 322 0006 DA60     		str	r2, [r3, #12]
 323 0008 7047     		bx	lr
 324              	.LBE13:
 325              	.LBE12:
 326              		.cfi_endproc
 327              	.LFE219:
 328              		.size	stStopAlarm, .-stStopAlarm
 329 000a 00BFAFF3 		.section	.text.stSetAlarm,"ax",%progbits
 329      0080
 330              		.align	2
 331              		.p2align 4,,15
 332              		.global	stSetAlarm
 333              		.thumb
 334              		.thumb_func
 335              		.type	stSetAlarm, %function
 336              	stSetAlarm:
 337              	.LFB220:
ARM GAS  /tmp/ccWgxlfU.s 			page 20


 338              		.loc 1 104 0
 339              		.cfi_startproc
 340              		@ args = 0, pretend = 0, frame = 0
 341              		@ frame_needed = 0, uses_anonymous_args = 0
 342              		@ link register save eliminated.
 343              	.LVL2:
 344              	.LBB14:
 345              	.LBB15:
 346              		.loc 2 179 0
 347 0000 4FF08043 		mov	r3, #1073741824
 348 0004 5863     		str	r0, [r3, #52]
 349 0006 7047     		bx	lr
 350              	.LBE15:
 351              	.LBE14:
 352              		.cfi_endproc
 353              	.LFE220:
 354              		.size	stSetAlarm, .-stSetAlarm
 355 0008 AFF30080 		.section	.text.stGetAlarm,"ax",%progbits
 355      AFF30080 
 356              		.align	2
 357              		.p2align 4,,15
 358              		.global	stGetAlarm
 359              		.thumb
 360              		.thumb_func
 361              		.type	stGetAlarm, %function
 362              	stGetAlarm:
 363              	.LFB221:
 364              		.loc 1 120 0
 365              		.cfi_startproc
 366              		@ args = 0, pretend = 0, frame = 0
 367              		@ frame_needed = 0, uses_anonymous_args = 0
 368              		@ link register save eliminated.
 369              	.LBB16:
 370              	.LBB17:
 371              		.loc 2 191 0
 372 0000 4FF08043 		mov	r3, #1073741824
 373 0004 586B     		ldr	r0, [r3, #52]
 374              	.LBE17:
 375              	.LBE16:
 376              		.loc 1 125 0
 377 0006 80B2     		uxth	r0, r0
 378 0008 7047     		bx	lr
 379              		.cfi_endproc
 380              	.LFE221:
 381              		.size	stGetAlarm, .-stGetAlarm
 382 000a 00BFAFF3 		.text
 382      0080
 383              	.Letext0:
 384              		.file 3 "/home/alex/MentorGraphics/Sourcery_CodeBench_Lite_for_ARM_EABI/arm-none-eabi/include/stdi
 385              		.file 4 "../../../os/common/ports/ARMCMx/compilers/GCC/chtypes.h"
 386              		.file 5 "../../../os/rt/include/chsystypes.h"
 387              		.file 6 "../../../os/rt/include/chschd.h"
 388              		.file 7 "../../../os/common/ports/ARMCMx/chcore.h"
 389              		.file 8 "../../../os/common/ports/ARMCMx/chcore_v7m.h"
 390              		.file 9 "../../../os/hal/ports/STM32/LLD/TIMv1/stm32_tim.h"
 391              		.file 10 "../../../os/rt/include/chtm.h"
 392              		.file 11 "../../../os/rt/include/chsem.h"
ARM GAS  /tmp/ccWgxlfU.s 			page 21


 393              		.file 12 "../../../os/rt/include/chmtx.h"
 394              		.file 13 "../../../os/common/ext/CMSIS/include/core_cm3.h"