ARM GAS  /tmp/ccqx83oc.s 			page 1


   1              		.syntax unified
   2              		.cpu cortex-m3
   3              		.fpu softvfp
   4              		.eabi_attribute 20, 1
   5              		.eabi_attribute 21, 1
   6              		.eabi_attribute 23, 3
   7              		.eabi_attribute 24, 1
   8              		.eabi_attribute 25, 1
   9              		.eabi_attribute 26, 1
  10              		.eabi_attribute 30, 2
  11              		.eabi_attribute 34, 1
  12              		.eabi_attribute 18, 4
  13              		.thumb
  14              		.file	"hal_gpt_lld.c"
  15              		.text
  16              	.Ltext0:
  17              		.section	.gnu.lto_.jmpfuncs.8a26bab04331f49d,"",%progbits
  18 0000 789C6362 		.ascii	"x\234cb`b\300\006\012\2414'\003\003#S\004c&#\203$\220"
  18      6062C006 
  18      0AA13427 
  18      03032353 
  18      04632623 
  19 0017 05645733 		.ascii	"\005dW3\374j\350h\020\310dd\314e\004)`dL\000I35\334"
  19      FC6AE868 
  19      10C86464 
  19      CC650429 
  19      60644C00 
  20 002f 68696061 		.ascii	"hi`a`fd\202\253\2060\330\031\030X\030\031X\231\331\030"
  20      60666482 
  20      AB8630D8 
  20      19185818 
  20      195899D9 
  21 0044 D9993918 		.ascii	"\331\2319\030\031\231\201Z\312\030\030\352\241&\243"
  21      1999815A 
  21      CA1818EA 
  21      A126A3
  22 0053 9BC6C000 		.ascii	"\233\306\300\000\000\270\232\017\221"
  22      00B89A0F 
  22      91
  23              		.text
  24              		.section	.gnu.lto_.inline.8a26bab04331f49d,"",%progbits
  25 0000 789C6D92 		.ascii	"x\234m\222=O\002A\020\206\337\331[\226;\0209\215\321"
  25      3D4F0241 
  25      1086DFD9 
  25      5B963B10 
  25      398DD1
  26 0013 1813391B 		.ascii	"\030\0239\033\355\270\250hi(lL\200F\012;$\232\200\021"
  26      EDB8A868 
  26      69286C4C 
  26      80460A3B 
  26      249A8011 
  27 0027 03116243 		.ascii	"\003\021bCCaAa\301O@\033\377\203\2051\2611\261\320\322"
  27      43614161 
  27      C14F401B 
  27      FF838531 
  27      B131B1D0 
  28 003c C2C292D2 		.ascii	"\302\302\222\322NCa\334\335;8P\356cvvfv\236\235\311"
ARM GAS  /tmp/ccqx83oc.s 			page 2


  28      4E4361DC 
  28      DD3B3850 
  28      EE637676 
  28      66769E9D 
  29 0051 30304C7A 		.ascii	"00Lzv\244yK\256\026`\332\004&>\223\020\335\204\016f"
  29      76A4794B 
  29      AE1660DA 
  29      04263E93 
  29      10DD840E 
  30 0066 5180E42B 		.ascii	"Q\200\344+\246\245\203\275\306\3778\014\254,\223@\351"
  30      A6A583BD 
  30      C6FF380C 
  30      AC2C9340 
  30      E9
  31 0077 804EC850 		.ascii	"\200N\310P[\224\003\265\324D\277\325n}<~=K\033\235\221"
  31      5B9403B5 
  31      D444BFD5 
  31      6E7D3C7E 
  31      3D4B1B9D 
  32 008c 872B17E9 		.ascii	"\207+\027\351\232\232P\307U\224\262\206\027\277_\030"
  32      9A9A50C7 
  32      5594B286 
  32      17BF5F18 
  33 009c ACB76D06 		.ascii	"\254\267m\006\352\205\323\014\241\366Z\032\274\027m"
  33      EA85D30C 
  33      A1F65A1A 
  33      BC176D
  34 00ab 1147FC8E 		.ascii	"\021G\374\216\333\034\264js\0156\246 \267R\345\210\231"
  34      DB1CB46A 
  34      730D36A6 
  34      20B752E5 
  34      8899
  35 00bd 14F6D92C 		.ascii	"\024\366\331,`\263\021\366\303\317\3518\371f\234l\034"
  35      60B311F6 
  35      C3CFE938 
  35      F9669C6C 
  35      1C
  36 00ce 6ABE297F 		.ascii	"j\276)\177]\330\010\235\372L\322\231\277B\274\317p}"
  36      5DD8089D 
  36      FA4CD299 
  36      BF42BCCF 
  36      707D
  37 00e0 23C6552A 		.ascii	"#\306U*\212\250[ \004;N,\310d8b\376\352\226\206\311"
  37      8AA85B20 
  37      043B4E2C 
  37      C8643862 
  37      FEEA9686 
  38 00f5 B8279530 		.ascii	"\270'\2250\265\252H\020\260L\"\357\024\217tr\377\302"
  38      B5AA4810 
  38      B04C22EF 
  38      148F7472 
  38      FFC2
  39 0107 554B104B 		.ascii	"UK\020K\015cf\237.\305\244 \023sK\024\362[\300\203\026"
  39      0D63669F 
  39      2EC5A420 
  39      13734B14 
  39      F25BC083 
ARM GAS  /tmp/ccqx83oc.s 			page 3


  40 011c F0B1F27C 		.ascii	"\360\261\362|\335\211\360nb\230\305\366\244\022\216"
  40      DD89F06E 
  40      6298C5F6 
  40      A4128E
  41 012b AED85195 		.ascii	"\256\330Q\225\312\334\321{\207\373}PRa\270-3tr\026\304"
  41      CADCD17B 
  41      87FB7D50 
  41      5261B82D 
  41      33747216 
  42 0140 02E9191A 		.ascii	"\002\351\031\032\014\201\354\302`\022\220J&]\357\253"
  42      0C81ECC2 
  42      6012904A 
  42      265DEFAB 
  43 0150 D6DD72B1 		.ascii	"\326\335r\261\342\326\252\347\215\272\273\237\317nn"
  43      E2D6AAE7 
  43      8DBABB9F 
  43      CF6E6E
  44 015f B899CCAE 		.ascii	"\270\231\314\256\233\337\313^\254+O\241Tk\024*\225\343"
  44      9BDFCB5E 
  44      AC2B4FA1 
  44      546B142A 
  44      95E3
  45 0171 E4117E01 		.ascii	"\344\021~\001\363\355Z\340"
  45      F3ED5AE0 
  46              		.text
  47              		.section	.gnu.lto_.pureconst.8a26bab04331f49d,"",%progbits
  48 0000 789C6362 		.ascii	"x\234cb`b\020f\200\000N\006)F\011f)\026)V)6)v)\016)"
  48      60621066 
  48      80004E06 
  48      29460966 
  48      29162956 
  49 001b 4E09000C 		.ascii	"N\011\000\014\205\0012"
  49      850132
  50              		.text
  51              		.section	.gnu.lto_gpt_lld_stop.part.0.8a26bab04331f49d,"",%progbits
  52 0000 789C954F 		.ascii	"x\234\225O;H\003A\020\235\267\273\371U\332\332\005\333"
  52      3B480341 
  52      109DB7BB 
  52      F955DADA 
  52      05DB
  53 0012 400E3F60 		.ascii	"@\016?`ak\023H*\023\320*\304\0101\220\220`\202\215E"
  53      616B1348 
  53      2A13D02A 
  53      C4083190 
  53      9060828D 
  54 0027 F6F48A58 		.ascii	"\366\364\212XD\202\235\332$\010\0266v\212\244\221t)"
  54      44829DDA 
  54      24081636 
  54      768AA491 
  54      7429
  55 0039 542C4D75 		.ascii	"T,Mu\010\326\266\"\3029{\347\025\3329\354\356\314\356"
  55      08D6B622 
  55      C2397BE7 
  55      15DA39EC 
  55      EECCEE
  56 004c 7BF3669F 		.ascii	"{\363f\237 A\177#\305\373\022D\253\234\021!\250\376"
  56      20417F23 
ARM GAS  /tmp/ccqx83oc.s 			page 4


  56      C5FB1244 
  56      AB9C1121 
  56      A8FE
  57 005e 23170AC2 		.ascii	"#\027\012\302\317\002\322d;.\001S\020\250\243\204Dg"
  57      CF02D264 
  57      3B2E0153 
  57      10A8A384 
  57      4467
  58 0070 13A619F3 		.ascii	"\023\246\031\3634\324\372\304}\033\365\242\247\372\336"
  58      34D4FAC4 
  58      7D1BF5A2 
  58      A7FADE
  59 007f 19E82FCF 		.ascii	"\031\350/\317\003\252\340A+\2402h\203/H\372I\250\337"
  59      03AAE041 
  59      2BA03268 
  59      832F48FA 
  59      49A8DF
  60 0092 93AF8576 		.ascii	"\223\257\205v=\357\345\346\030QP\025R\230\203\337#\344"
  60      3DEFE5E6 
  60      18515015 
  60      529883DF 
  60      23E4
  61 00a4 68DD4F96 		.ascii	"h\335O\2260dy2\"\034y>\315\007\012P&\313\011\215\343"
  61      30647932 
  61      221C793E 
  61      CD070A50 
  61      26CB098D 
  62 00b9 4475F062 		.ascii	"Du\360bdB\007|\013:\352\370\321/@\370\324'r\334\243"
  62      6442077C 
  62      0B3AEAF8 
  62      D12F40F8 
  62      D42772DC 
  63 00ce 5B17255C 		.ascii	"[\027%\\\260A\242}\372\324]=[\205*#\340\232\337E\346"
  63      B041A27D 
  63      FAD45D3D 
  63      5B852A23 
  63      E09ADF45 
  64 00e3 787C94E8 		.ascii	"x|\224\350\201\306\323\217\327^,`W\200\024]i\307fz\354"
  64      81C6D38F 
  64      D75E2C60 
  64      5780145D 
  64      69C7667A 
  65 00f8 9CCEECBE 		.ascii	"\234\316\354\276i\214\233\206\204\036t\265\362{\023"
  65      698C9B86 
  65      841E74B5 
  65      F27B13
  66 0107 BECA5638 		.ascii	"\276\312V8\2305\016G2\024\020\254aH\322{\367\274\031"
  66      98350E47 
  66      321410AC 
  66      6148D27B 
  66      F7BC19
  67 011a 1F1D6702 		.ascii	"\037\035g\002\360\337\322\254\026z\223\276\267g\262"
  67      F0DFD2AC 
  67      167A93BE 
  67      B767B2
  68 0129 DDE99D0A 		.ascii	"\335\351\235\012\255\005\221g[\014\032\352r:m\005\253"
  68      AD059167 
ARM GAS  /tmp/ccqx83oc.s 			page 5


  68      5B0C1AEA 
  68      723A6D05 
  68      AB
  69 013a D1B2764A 		.ascii	"\321\262vJ5\253\331\330m\267\254\365|ni\321\312f\327"
  69      35ABD9D8 
  69      6DB7ACF5 
  69      7C6E69D1 
  69      CA66D7
  70 014d AC7C26B7 		.ascii	"\254|&\267\267`\220b\245\331.\326j\333\3512).\233\337"
  70      B7609062 
  70      A5D92ED6 
  70      6ADBE932 
  70      292E9BDF 
  71 0161 4B7F77F8 		.ascii	"K\177w\370"
  72              		.text
  73              		.section	.gnu.lto_gpt_lld_init.8a26bab04331f49d,"",%progbits
  74 0000 789C6362 		.ascii	"x\234cb`b@\007\222@\374\000\210\315\200\230\221\231"
  74      60624007 
  74      9240FC00 
  74      88CD8098 
  74      9199
  75 0012 819169C2 		.ascii	"\201\221i\3029\006\206F\016&FF\020\203\201\221\241\236"
  75      39068646 
  75      0E264646 
  75      10838191 
  75      A19E
  76 0024 89B13E92 		.ascii	"\211\261>\222\021\254v=\323\201\007\377\377\257\273"
  76      11AC763D 
  76      D38107FF 
  76      FFAFBB
  77 0033 736BCE1F 		.ascii	"sk\316\037\306\337L,@\021V\206\226\206\206\011\012\014"
  77      C6DF4C2C 
  77      40115686 
  77      96868609 
  77      0A0C
  78 0045 0CC96015 		.ascii	"\014\311`\025!@\022\244-\224\221\011D3\237eh\332qc\335"
  78      214012A4 
  78      2D949109 
  78      44339F65 
  78      68DA7163 
  79 005a 6BC644C6 		.ascii	"k\306D\306\205\214\254\014\332\014\253\032\200\3000"
  79      858CAC0C 
  79      DA0CAB1A 
  79      80C030
  80 0069 93916136 		.ascii	"\223\221a6\303\254\306\206\006\201LF\306j\206_\015\035"
  80      C3ACC686 
  80      06814C46 
  80      C66A865F 
  80      0D1D
  81 007b 2016532E 		.ascii	" \026S.\330\210\010F \023l[\022\304R\260\010C\303\215"
  81      D8880846 
  81      20136C5B 
  81      12C452B0 
  81      0843C38D 
  82 008f 96069085 		.ascii	"\226\006\220\205\347\031Z\036\354\356\345\202\030\310"
  82      E7195A1E 
  82      ECEEE582 
ARM GAS  /tmp/ccqx83oc.s 			page 6


  82      18C8
  83 009d C000D7CD 		.ascii	"\300\000\327\315\234\314\010Q\016\022\341\200\230\006"
  83      9CCC0851 
  83      0E12E180 
  83      9806
  84 00ab 5594C908 		.ascii	"U\224\311\010\324x\221\241\361\301~}\2306\010\010\001"
  84      D47891A1 
  84      F1C17E7D 
  84      98360808 
  84      01
  85 00bc 6A01BA12 		.ascii	"j\001\272\022d\233\211\236\236>\004\345\027\353g$\346"
  85      649B899E 
  85      9E3E04E5 
  85      17EB6724 
  85      E6
  86 00cd E817E417 		.ascii	"\350\027\344\027\225\024\353\007\207\370\032\033\351"
  86      9514EB07 
  86      87F81A1B 
  86      E9
  87 00da FBF8B8E8 		.ascii	"\373\370\270\350\207x\372\226\031\202d\342\323\013J"
  87      8778FA96 
  87      198264E2 
  87      D30B4A
  88 00e9 E2737252 		.ascii	"\342srR\364\222\031\000g\255L4"
  88      F4921900 
  88      67AD4C34 
  89              		.text
  90              		.section	.gnu.lto_gpt_lld_start.8a26bab04331f49d,"",%progbits
  91 0000 789CA553 		.ascii	"x\234\245SKHTa\024>\347\277\367\316{\234\031\035\314"
  91      4B485461 
  91      143EE7BF 
  91      F7CE7B9C 
  91      191DCC
  92 0013 F041B42B 		.ascii	"\360A\264+\301\251\014\314\332E\213\004]5B\255\304&"
  92      C1A90CCC 
  92      DA458B04 
  92      5D3542AD 
  92      C426
  93 0025 9A061425 		.ascii	"\232\006\024%\245M\013\377q\014f\321\200\264\022]\244"
  93      A54D0BFF 
  93      710C66D1 
  93      80B4125D 
  93      A4
  94 0036 442DDA04 		.ascii	"D-\332\004\2016\021\201IH\006\366\330\264\030A\206Z"
  94      81361181 
  94      494806F6 
  94      D8B41841 
  94      865A
  95 0048 0419E526 		.ascii	"\004\031\345&\0334\272\235s\0373\243\0152\321e\346\374"
  95      1B34BA9D 
  95      731F33A3 
  95      0D32D165 
  95      E6FC
  96 005a AFF37DE7 		.ascii	"\257\363}\347;\347\377\217\000\001{\277\263\364\217"
  96      3BE7FF8F 
  96      00017BBF 
  96      B3F48F
ARM GAS  /tmp/ccqx83oc.s 			page 7


  97 0069 3B004ED3 		.ascii	";\000N\323\210\016@1\371\006 \351\022BYn\006\351\321"
  97      880E4031 
  97      F90620E9 
  97      1242596E 
  97      06E9D1
  98 007c 5E1F03E9 		.ascii	"^\037\003\351S\204\372\303\311\253\231e\240\245\212"
  98      5384FAC3 
  98      C9AB9965 
  98      A0A58A
  99 008b 9AE9A521 		.ascii	"\232\351\245!\362\004\020\306\204\242j8v\011\231\023"
  99      F20410C6 
  99      84A26A38 
  99      76099913 
 100 009b 0FC39C94 		.ascii	"\017\303\234\224w\362\367\267>\341\224\\\034\237\225"
 100      77F2F7B7 
 100      3EE1945C 
 100      1C9F95
 101 00aa BF741D31 		.ascii	"\277t\0351\201\024\277\003!\206p\221\026\0304\006\261"
 101      8114BF03 
 101      21867091 
 101      16183406 
 101      B1
 102 00bb 47D323B1 		.ascii	"G\323#\261\230\327\365\333;\363\037\327qZ\264(8\210"
 102      98D7F5DB 
 102      3BF31FD7 
 102      715AB428 
 102      3888
 103 00cd A0420215 		.ascii	"\240B\002\025\215\214\352`\343b\343fS\303&@F\013\362"
 103      8D8CEA60 
 103      E362E366 
 103      53C32640 
 103      460BF2
 104 00e0 2CC4A696 		.ascii	",\304\246\226\214\243\016\372q\216t\204i\341\254\347"
 104      8CA30EFA 
 104      718E7484 
 104      69E1ACE7 
 105 00f0 ED06368D 		.ascii	"\355\0066\215l\232\330P$\015&\244\234<d:\016\"I\217"
 105      6C9AD850 
 105      240D26A4 
 105      9C3C643A 
 105      0E22498F 
 106 0104 19F2A364 		.ascii	"\031\362\243d9\255^\024<*\2530\236+l\255a?\336C\015"
 106      39AD5E14 
 106      3C2AAB30 
 106      9E2B6CAD 
 106      613FDE43 
 107 0119 E2A8B6C2 		.ascii	"\342\250\266\302\321\004\272f`\232\344\273\343\250p"
 107      D104BA66 
 107      609AE4BB 
 107      E3A870
 108 0128 1A1E43FC 		.ascii	"\032\036C\374e\264\323x\005/?'\375E\010\273\270\260"
 108      65B4D378 
 108      052F3F27 
 108      FD4508BB 
 108      B8B0
 109 013a 2CCD5E54 		.ascii	",\315^T`\271Ya\267\027\317\357\372lG\345&l\313\264\224"
 109      60B95961 
ARM GAS  /tmp/ccqx83oc.s 			page 8


 109      B717CFEF 
 109      FA6C47E5 
 109      266CCBB4 
 110 014f EDC43888 		.ascii	"\355\3048\210\273K\323K\252uAr\226r\205\237gl\204\326"
 110      BB4BD34B 
 110      AA754172 
 110      9672859F 
 110      676C84D6 
 111 0163 0A0FE544 		.ascii	"\012\017\345D2\230@\257\251\310\307\261\374r6-U\243"
 111      329840AF 
 111      A9C8C7B1 
 111      FC72362D 
 111      55A3
 112 0175 C07E4B99 		.ascii	"\300~K\231\035}\025RO\025\033\355 \002vRe\3208Z\352"
 112      1D7D1552 
 112      4F151BED 
 112      20027652 
 112      65D0385A 
 113 018a 324FFE8D 		.ascii	"2O\376\215\224x\014p.\275]dvUK!*\351\242\262\272\376"
 113      94780C70 
 113      2EBD5D64 
 113      76554B21 
 113      2AE9A2B2 
 114 01a0 4797B074 		.ascii	"G\227\260t\271\015\360\25120V\211\345\035/O\336\302"
 114      B90DF0A9 
 114      32305689 
 114      E51D2F4F 
 114      DEC2
 115 01b2 ADFC97EF 		.ascii	"\255\374\227\357^\223\002\300\274 RP\023\263\262g\317"
 115      5E9302C0 
 115      BC205250 
 115      13B3B267 
 115      CF
 116 01c3 C0417370 		.ascii	"\300Asp\322\333\012r\314\361lagM\224\342\322\327A\347"
 116      D2DB0A72 
 116      CCF16C61 
 116      674D94E2 
 116      D2D741E7 
 117 01d7 951F8D52 		.ascii	"\225\037\215R\342\221_\263\336\342}k\245\367\3678\323"
 117      E2915FB3 
 117      DEE27D6B 
 117      A5F7F738 
 117      D3
 118 01e8 69D7A6C6 		.ascii	"i\327\246\306x\177\373R\031\012r\233u6$`@\264\312\020"
 118      787FFB52 
 118      190A729B 
 118      75362460 
 118      40B4CA10 
 119 01fc B51C72C0 		.ascii	"\265\034r\300\206\004Y5\245\0312A\265D\302 \315\002"
 119      86045935 
 119      A5193241 
 119      B544C220 
 119      CD02
 120 020e 69A55BCB 		.ascii	"i\245[\313\244\036\010\033\025\"yq\253\002\033\251\253"
 120      A41E081B 
 120      15227971 
 120      AB021BA9 
ARM GAS  /tmp/ccqx83oc.s 			page 9


 120      AB
 121 021f F636A143 		.ascii	"\3666\241C\206o:\325b\357\325\32163:t\235E\257\200E"
 121      866F3AD5 
 121      62EFD5D1 
 121      36333A74 
 121      9D45AF80 
 122 0234 62F6239D 		.ascii	"b\366#\235\233\212\322\013\305.\012\033Y8+g\341(\012"
 122      9B8AD20B 
 122      C52E0A1B 
 122      59382B67 
 122      E1280A
 123 0247 5ACABEF3 		.ascii	"Z\312\276\363\224\277\026\331Y\274r\212\031f\220\323"
 123      94BF16D9 
 123      59BC728A 
 123      196690D3 
 124 0257 0239775F 		.ascii	"\0029w_5\307\313.d\316\333\001\353\255\032\204+\327"
 124      35C7CB2E 
 124      64CEDB01 
 124      EBAD1A84 
 124      2BD7
 125 0269 C0550AB9 		.ascii	"\300U\012\271RuH\267\3652\353\215p\337R\033\037\346"
 125      527548B7 
 125      F532EB8D 
 125      70DF521B 
 125      1FE6
 126 027b 343B5E83 		.ascii	"4;^\203\225\365\356\327\276\017\231\307\"k0\363.,d\216"
 126      95F5EED7 
 126      BE0F99C7 
 126      226B30F3 
 126      2E2C648E 
 127 028f 5489F4FE 		.ascii	"T\211\364\376\235\371\324\223L\227\255\244q\377\314"
 127      9DF9D493 
 127      4C97ADA4 
 127      71FFCC
 128 029e 7DA5DB7F 		.ascii	"}\245\333\177\226\372X\274\375&\002\232]\373[\327\003"
 128      96FA58BC 
 128      FD26029A 
 128      5DFB5BD7 
 128      03
 129 02af 566536AB 		.ascii	"Ve6\253\255\214\337J\246\011\340=$\363\353\363\252\335"
 129      AD8CDF4A 
 129      A609E03D 
 129      24F3EBF3 
 129      AADD
 130 02c1 73E617A5 		.ascii	"s\346\027\245~\243~\340\366<\331\326\0261\177C#\221"
 130      7EA37EE0 
 130      F63CD9D6 
 130      16317F43 
 130      2391
 131 02d3 6BFD0391 		.ascii	"k\375\003\221\341\241\353\243#\221\013\321\236\366\023"
 131      E1A1EBA3 
 131      23910BD1 
 131      9EF613
 132 02e2 91EEEE73 		.ascii	"\221\356\356s\221hW\317\215\343|\322\027\037\036\355"
 132      916857CF 
 132      8DE37CD2 
 132      171F1EED 
ARM GAS  /tmp/ccqx83oc.s 			page 10


 133 02f2 1B18B8D2 		.ascii	"\033\030\270\322\026\003ex$\366\007\344\353qV"
 133      16036578 
 133      24F607E4 
 133      EB7156
 134              		.text
 135              		.section	.gnu.lto_gpt_lld_stop.8a26bab04331f49d,"",%progbits
 136 0000 789C8D91 		.ascii	"x\234\215\221?HBA\034\307\177\277\373\243b\005\255\021"
 136      3F484241 
 136      1CC77FBF 
 136      FBA36205 
 136      AD11
 137 0012 424B4B92 		.ascii	"BKK\222\2572\332\032\202\226@\247\236P\223\230\301\353"
 137      AF32DA1A 
 137      829640A7 
 137      9E509398 
 137      C1EB
 138 0024 81A2A4B4 		.ascii	"\201\242\244\2644x\232C\213\340\0309\2656\324j\213Y"
 138      34789A43 
 138      8BE01839 
 138      B536D46A 
 138      8B59
 139 0036 885460D1 		.ascii	"\210T`\321\026\016\341\326\340\034D\313\353\356=\237"
 139      160EE1D6 
 139      E01C44CB 
 139      EBEE3D9F 
 140 0046 F46FF078 		.ascii	"\364o\360x\357~\334\357\276\237\357\361\275#@\340\367"
 140      EF7EDCEF 
 140      BE9FEFF1 
 140      BD2340E0 
 140      F7
 141 0057 5893FFAC 		.ascii	"X\223\377\254l\257\310\212\036@R}\004(\372\010\241\355"
 141      6CAFC88A 
 141      1E40527D 
 141      0428FA08 
 141      A1ED
 142 0069 00083F7F 		.ascii	"\000\010?\177X\0001N\011{\367\252U\255\015r\311\220"
 142      5800314E 
 142      097BF7AA 
 142      55AD0D72 
 142      C990
 143 007b 2B157244 		.ascii	"+\025rDU\001\241@(\343X\330F\333\363\2224{\226u\361"
 143      5501A140 
 143      28E358D8 
 143      46DBF392 
 143      347B9675 
 144 0090 DAEFB5B0 		.ascii	"\332\357\265\260{\305\374\004\323\010\024L\004&'\245"
 144      7BC5FC04 
 144      D308144C 
 144      042627A5 
 145 00a0 E15016A2 		.ascii	"\341P\026\242:\003\220\264\011]\316\312)\206DU\332\201"
 145      3A0390B4 
 145      095DCECA 
 145      29864455 
 145      DA81
 146 00b2 52B7DEA8 		.ascii	"R\267\336\250L'\360\0149\030H\2030g\"\251\301)\232H"
 146      4C27F00C 
 146      39184883 
ARM GAS  /tmp/ccqx83oc.s 			page 11


 146      306722A9 
 146      C1299A48 
 147 00c6 0D245BB2 		.ascii	"\015$[\2622\373\254\035t\223\334A\353\25581D\224\204"
 147      32FBAC1D 
 147      7493DC41 
 147      EBAD3831 
 147      449484
 148 00d9 7CCF1B43 		.ascii	"|\317\033C\012\355\200\355\375\322\250L\271Bf{\343\377"
 148      0AED80ED 
 148      FDD2A84C 
 148      B942667B 
 148      E3FF
 149 00eb DEAE7907 		.ascii	"\336\256y\007n\353\3251\007\011\302\271(\027\305\252"
 149      6EEBD531 
 149      0709C2B9 
 149      2817C5AA 
 150 00fb 89DC813C 		.ascii	"\211\334\201<\322DA8\200\234CU\207\273\354G\2432?\""
 150      D2444138 
 150      809C4355 
 150      87BBEC47 
 150      A3323F22 
 151 010f 4DFFD227 		.ascii	"M\377\322'\327\225\340\2104\373I\253;\271\261\372Mt"
 151      D795E088 
 151      34FB49AB 
 151      3BB9B1FA 
 151      4D74
 152 0121 D39243F8 		.ascii	"\323\222C\370\024\307B\204e\306\3640\236{A\014,B\357"
 152      14C74284 
 152      65C6F430 
 152      9E7B410C 
 152      2C42EF
 153 0134 A1E473E4 		.ascii	"\241\344s\344i$\206J\363\004G\203\016\200\303O\232\350"
 153      6924864A 
 153      F3044783 
 153      0E80C34F 
 153      9AE8
 154 0146 4D0E7013 		.ascii	"M\016p\023}.\317\355\327{\206bO>\273K8C\227j\271\251"
 154      7D2ECFED 
 154      D77B8662 
 154      4F3EBB4B 
 154      3843976A 
 155 015c EE663914 		.ascii	"\356f9\024\322\234/\223\323\366\022)-\233\331\317\347"
 155      D29C2F93 
 155      D3F61229 
 155      2D9BD9CF 
 155      E7
 156 016d B44D3D1A 		.ascii	"\264M=\032^\322\"\221uM\337\210\036,\252\235\270\221"
 156      5ED22291 
 156      754DDF88 
 156      1E2CAA9D 
 156      B891
 157 017f CDC753A9 		.ascii	"\315\307S\251\335P\022\276\000Y\276\215\322"
 157      DD5012BE 
 157      0059BE8D 
 157      D2
 158              		.text
 159              		.section	.gnu.lto_gpt_lld_start_timer.8a26bab04331f49d,"",%progbits
ARM GAS  /tmp/ccqx83oc.s 			page 12


 160 0000 789C8D92 		.ascii	"x\234\215\222\261K\303@\024\306\337\273\27345\266\322"
 160      B14BC340 
 160      14C6DFBB 
 160      BB3435B6 
 160      D2
 161 0011 3FC1558B 		.ascii	"?\301U\213\015Z\021\334]\004;\331\202NE+\304@EQqmZ\353"
 161      0D5A11DC 
 161      5D043BD9 
 161      824E452B 
 161      C4404551 
 162 0029 E0123A8A 		.ascii	"\340\022:\212N\256\016\272F\012V:\250 \212n\245\223"
 162      4EAE0EBA 
 162      460A563A 
 162      A8208A6E 
 162      A593
 163 003b 383B0882 		.ascii	"8;\010\202t\323w\271\244\226\242\330\220\274;.\367\373"
 163      74D377B9 
 163      A496A2D8 
 163      90BC3B2E 
 163      F7FB
 164 004d EEBDEF1E 		.ascii	"\356\275\357\036\003\006\375O\232>\235\003\314\320\210"
 164      0306FD4F 
 164      9A3E9D03 
 164      CCD088
 165 005c 1A20AB3D 		.ascii	"\032 \253=\002\224\243\214\361\343\033\000\307\020\237"
 165      0294A38C 
 165      F1E31B00 
 165      C7109F
 166 006b 3A38318E 		.ascii	":81\216B\255\013D9\001\204\022\343\002K\313\350\253"
 166      42AD0B44 
 166      39018412 
 166      E3024BCB 
 166      E8AB
 167 007d 5CB0EB97 		.ascii	"\\\260\353\227\257\257\363\326\307\373-\036\326E\202"
 167      AFAFF3D6 
 167      C7FB2D1E 
 167      D64582
 168 008c E3068200 		.ascii	"\343\006\202\000\033A\243\031\0324\303a\012,F\201\307"
 168      1B41A319 
 168      1A34C361 
 168      0A2C4681 
 168      C7
 169 009d 65204A83 		.ascii	"e J\203\252\343\324F\001\012\276J\226\242\024\317!\223"
 169      AAE3D446 
 169      010ABE4A 
 169      96A214CF 
 169      2193
 170 00af 237F804A 		.ascii	"#\177\200J\273Uw\365\025<\245\314,\024I\030'\305\023"
 170      BB5577F5 
 170      153CA5CC 
 170      2C144918 
 170      27C513
 171 00c2 38461B85 		.ascii	"8F\033\205\205|\211F\315?\177\025\303z\036\240y\377"
 171      857C8946 
 171      CD3F7F15 
 171      C37A1EA0 
 171      79FF
ARM GAS  /tmp/ccqx83oc.s 			page 13


 172 00d4 64282409 		.ascii	"d($\011gN\265\354\314\332\030Q\220N\"\022\202\000R\023"
 172      674EB5EC 
 172      CCDA1851 
 172      904E2212 
 172      82005213 
 173 00e8 4B8A10E7 		.ascii	"K\212\020\347u\352\356\370\200\2442R\256DP\235\352\035"
 173      75EAEEF8 
 173      80A43252 
 173      AE44509D 
 173      EA1D
 174 00fa 5D0D4CF3 		.ascii	"]\015L\363\037:\310\331\363\032\356\330\200\264\350"
 174      1F3AC8D9 
 174      F31AEED8 
 174      80B4E8
 175 0109 A7C9A686 		.ascii	"\247\311\246\206\233\014m2|\233\360w\233\264\256M\225"
 175      9B0C6D32 
 175      7C9BF077 
 175      9BB4AE4D 
 175      95
 176 011a F6FB4888 		.ascii	"\366\373H\210\014\3133\0236F\0254D\"\022\302\000\212"
 176      0CCB3313 
 176      36461534 
 176      442212C2 
 176      008A
 177 012c 04D01D54 		.ascii	"\004\320\035T\337\312\361.$\267\030\275\275\224\243"
 177      DFCAF12E 
 177      24B718BD 
 177      BD94A3
 178 013b C2A86BE8 		.ascii	"\302\250k\350\342\232\355N\303\235\010w\306TI\211?+"
 178      E29AED4E 
 178      C39D0877 
 178      C6544989 
 178      3F2B
 179 014d D2BB59ED 		.ascii	"\322\273Y\355_\362\220\212\023(7\361\300\340\371^{\376"
 179      5FF2908A 
 179      132837F1 
 179      C0E0F95E 
 179      7BFE
 180 015f D3223CCC 		.ascii	"\323\"<\314I\004\315D7\364:\360\015E\177<>\220\213\317"
 180      4904CD44 
 180      37F43AF0 
 180      0D457F3C 
 180      3E908BCF 
 181 0173 507EA1C6 		.ascii	"P~\241\306Vt\370d\311!\322\226\2750\235J\231\352\335"
 181      5674F864 
 181      C921D296 
 181      BD309D4A 
 181      99EADD
 182 0186 DC31D757 		.ascii	"\3341\327W\212\346\326\346\366\356\216\271\230\315\244"
 182      8AE6D6E6 
 182      F6EE8EB9 
 182      98CDA4
 183 0195 A7CC8585 		.ascii	"\247\314\205\20593;\237\331\233\224\177\362\326\326"
 183      39333B9F 
 183      D99B947F 
 183      F2D6D6
 184 01a4 6EBE585C 		.ascii	"n\276X\\K\025\340\033\2073\264\306"
ARM GAS  /tmp/ccqx83oc.s 			page 14


 184      4B15E01B 
 184      8733B4C6 
 185              		.text
 186              		.section	.gnu.lto_gpt_lld_stop_timer.8a26bab04331f49d,"",%progbits
 187 0000 789C6362 		.ascii	"x\234cb`b@\007\222@\274\234\221\201\301\014H32302M8"
 187      60624007 
 187      9240BC9C 
 187      9181C10C 
 187      48333233 
 188 0018 C7C0D0C8 		.ascii	"\307\300\320\310\301\304\310\010b002\32431\326G2\202"
 188      C1C4C808 
 188      62303032 
 188      D43331D6 
 188      473282
 189 002b D5AE673A 		.ascii	"\325\256g:\360\340\377\377u[\276]8\312\270r7\013'\023"
 189      F0E0FFFF 
 189      755BBE5D 
 189      38CAB872 
 189      370B2713 
 190 003f 632E2303 		.ascii	"c.#\0033C&#\003\033\220`d\007\021@e\254\014-\015\015"
 190      33432623 
 190      031B9060 
 190      64071140 
 190      65AC0C2D 
 191 0055 13141818 		.ascii	"\023\024\030\030\222\301\332B\200$\310\254PF&\020\315"
 191      92C1DA42 
 191      8024C8AC 
 191      50462610 
 191      CD
 192 0066 7C96A1E9 		.ascii	"|\226\241\351\326\214\347}\354\211\214\013\031Y\031"
 192      D68CE77D 
 192      EC898C0B 
 192      195919
 193 0075 D21999B5 		.ascii	"\322\031\231\265\031\264\200F\314f\230\305\230\311\310"
 193      19B48046 
 193      CC6698C5 
 193      98C9C8
 194 0084 94CEC814 		.ascii	"\224\316\310\024\001\244\231\301\026&1\302\234y\226"
 194      01A499C1 
 194      162631C2 
 194      9C7996
 195 0093 E1D08E0B 		.ascii	"\341\320\216\013\\\020-\332\014\253\032Z\032\033,3\031"
 195      5C102DDA 
 195      0CAB1A5A 
 195      1A1B2C33 
 195      19
 196 00a4 59209A58 		.ascii	"Y \232X\201\206\20041@5A\030 \021\026\230\336\035\317"
 196      81868034 
 196      31403541 
 196      18201116 
 196      98DE1DCF 
 197 00b8 FB3489D4 		.ascii	"\3734\211\324\315\204\241\373\326\214W}\3320\347\262"
 197      CD84A1FB 
 197      D68C577D 
 197      DA30E7B2 
 198 00c8 410C10C0 		.ascii	"A\014\020\300\251\237\031\356\344\346\335\3140]\354"
 198      A99F19EE 
ARM GAS  /tmp/ccqx83oc.s 			page 15


 198      E4E6DDCC 
 198      305DEC
 199 00d7 408D2045 		.ascii	"@\215 E\214\015\377\376\377\347\207\030\353\211\354"
 199      8C0DFFFE 
 199      FFE78718 
 199      EB89EC
 200 00e6 2042E601 		.ascii	" B\346\001\215``\270\310\320\370\000\030\360\020}0\020"
 200      8D6060B8 
 200      C8D0F800 
 200      18F0107D 
 200      3010
 201 00f8 02F42F30 		.ascii	"\002\364/0\\A\3166\321\323\323\207\240\374b\375\214"
 201      5C41CE36 
 201      D1D3D387 
 201      A0FC62FD 
 201      8C
 202 0109 C41CFD82 		.ascii	"\304\034\375\202\374\242\222b\375\340\020_c#}\037\037"
 202      FCA29262 
 202      FDE0105F 
 202      63237D1F 
 202      1F
 203 011a 17FD104F 		.ascii	"\027\375\020O\3372C\220L|zAI|NN\212^2\003\000g\305m"
 203      DF324390 
 203      4C7C7A41 
 203      497C4E4E 
 203      8A5E3203 
 204 0132 CC       		.ascii	"\314"
 205              		.text
 206              		.section	.gnu.lto_gpt_lld_polled_delay.8a26bab04331f49d,"",%progbits
 207 0000 789C9D92 		.ascii	"x\234\235\222\317K\002A\024\307\337\233\231\315\\\354"
 207      CF4B0241 
 207      14C7DF9B 
 207      99CD5CEC 
 208 0010 7FE89A92 		.ascii	"\177\350\232\222K\031A\320%\350\022\350\251\025\352"
 208      4B1941D0 
 208      25E812E8 
 208      A915EA
 209 001f 246AB009 		.ascii	"$j\260\011\206\222\322\325\335\364\030\213G\251S\327"
 209      8692D2D5 
 209      DDF4188B 
 209      47A953D7 
 210 002f 0E755DF0 		.ascii	"\016u]\360\022\022\030\204\375\270\205'oAG\205\360\020"
 210      12121884 
 210      FDB88527 
 210      6F414785 
 210      F010
 211 0041 D8DB19CD 		.ascii	"\330\333\031\315\350\222\264\314\316{\274\231\317{o"
 211      E892B4CC 
 211      CE7BBC99 
 211      CF7B6F
 212 0050 BE330C18 		.ascii	"\2763\014\030\374\3766\351\317Px\235,\316\001\262\372"
 212      FCFE36E9 
 212      CF50789D 
 212      2CCE01B2 
 212      FA
 213 0061 238033CF 		.ascii	"#\2003\317\220+\2073\355\254\015`\353\242\026\000;\244"
 213      902B8733 
ARM GAS  /tmp/ccqx83oc.s 			page 16


 213      EDAC0D60 
 213      EBA21600 
 213      3BA4
 214 0073 A9F89640 		.ascii	"\251\370\226@\364- T\030\327\004V\366Q\246\273a\267"
 214      F42D2054 
 214      18D70456 
 214      F651A6BB 
 214      61B7
 215 0085 BDD1E8FA 		.ascii	"\275\321\350\372\363c\330\306\247\246\0101<B\340\220"
 215      F363D8C6 
 215      A7A60831 
 215      3C42E090 
 216 0095 4310E461 		.ascii	"C\020\344a\220<\324\375\211\366jP\263\355\372\"@V\262"
 216      903CD4FD 
 216      89F66A50 
 216      B3EDFA22 
 216      4056B2
 217 00a8 26CD5423 		.ascii	"&\315T#\211\214\014\357\300i\267\321w\003i\274D\015"
 217      898C0CEF 
 217      C069B7D1 
 217      770369BC 
 217      440D
 218 00ba 2CE41108 		.ascii	",\344\021\010S\226\0138\307\0342\013\331\036Y.kfpr\230"
 218      53960B38 
 218      C71C320B 
 218      D91E592E 
 218      6B667072 
 219 00cf 0EB41E9E 		.ascii	"\016\264\036\236u\205D\340\312\2569\366F\016\205\202"
 219      758544E0 
 219      CAAE39F6 
 219      460E8582 
 220 00df 344AE243 		.ascii	"4J\342C0\206\224c\241\220\234\347\365\335\360\214\244"
 220      30869463 
 220      A1909CE7 
 220      F5DDF08C 
 220      A4
 221 00f0 52D18F08 		.ascii	"R\321\217\010TU\275\327\276\2734#\315\247\364\270go"
 221      5455BDD7 
 221      BEBB3423 
 221      CDA7F4B8 
 221      676F
 222 0102 387B6D31 		.ascii	"8{m1\245\027\306\247NRJ\272\014\222\254\325m\014\334"
 222      A517C6A7 
 222      4E524ABA 
 222      0C92ACD5 
 222      6D0CDC
 223 0115 E5896441 		.ascii	"\345\211dA\231\014\377h\304\357\240\332\254\276\343"
 223      990CFF68 
 223      C4EFA0DA 
 223      ACBEE3
 224 0124 04D389F4 		.ascii	"\004\323\211\364\267I\201\356\341\356\315\211}/\311"
 224      B74981EE 
 224      E1EECD89 
 224      7D2FC9
 225 0133 F8CFE763 		.ascii	"\370\317\347cR\234\336\007&\2511yk$\305\340\277R\274"
 225      529CDE07 
 225      26A93179 
ARM GAS  /tmp/ccqx83oc.s 			page 17


 225      6B24C5E0 
 225      BF52BC
 226 0146 80D3A347 		.ascii	"\200\323\243G\243\340i\005\244\314\276\344k\321\250"
 226      A3E06905 
 226      A4CCBEE4 
 226      6BD1A8
 227 0155 A146A164 		.ascii	"\241F\241d\034\246\363F\261p\\.\031\273f\"\266j\304"
 227      1CA6F346 
 227      B1705C2E 
 227      19BB6622 
 227      B66AC4
 228 0168 E3DB86B9 		.ascii	"\343\333\206\271\2238Y\361WRV\261\234\312\347\017\242"
 228      933859F1 
 228      575256B1 
 228      9CCAE70F 
 228      A2
 229 0179 59F802B6 		.ascii	"Y\370\002\266\024\230\305"
 229      1498C5
 230              		.text
 231              		.section	.gnu.lto_gpt_lld_serve_interrupt.8a26bab04331f49d,"",%progbits
 232 0000 789C8D93 		.ascii	"x\234\215\223Oh\023A\024\306\337\233\231M\272k\242\365"
 232      4F681341 
 232      14C6DF9B 
 232      994DBA6B 
 232      A2F5
 233 0012 285228BD 		.ascii	"(R(\275\331@V[\241\024\257^\012\355\311\024\364Tb\204"
 233      D940565B 
 233      A114AF5E 
 233      0AEDC914 
 233      F4546284 
 234 0026 188834D8 		.ascii	"\030\2104\330\342\265\263k\316!\364\024\364b\257\301"
 234      E2B5B36B 
 234      CE21F414 
 234      F462AFC1 
 235 0036 3FBD19E9 		.ascii	"?\275\031\351e)ZT\250\332\233\344\224[\300\213z\261"
 235      65295A54 
 235      A8DA9BE4 
 235      945BC08B 
 235      7AB1
 236 0048 A105E37B 		.ascii	"\241\005\343{;\331m\260\301:$o\036\273\363\373\336\233"
 236      3BD96DB0 
 236      C13A246F 
 236      1EBBF3FB 
 236      DE9B
 237 005a 6F660508 		.ascii	"of\005\010\370{\314\320\277)\001n\320\214\026\240\250"
 237      F87BCCD0 
 237      BF29016E 
 237      D08C16A0 
 237      A8
 238 006b 7F02F0C6 		.ascii	"\177\002\360\306\204\220{\023\240\035\365\361*\350\224"
 238      84907B13 
 238      A01DF5F1 
 238      2AE894
 239 007a 44651E2B 		.ascii	"De\036+DN\000aCH\205\033w0\024y%\202N\277\377\362\313"
 239      444E0061 
 239      4348851B 
 239      77301479 
ARM GAS  /tmp/ccqx83oc.s 			page 18


 239      25824EBF 
 240 0091 61EF1DF6 		.ascii	"a\357\035\366v\324E\211\017\020\024\224\020\022\024"
 240      76D44589 
 240      0F101494 
 240      101214
 241 00a0 D0A6201C 		.ascii	"\320\246 \034\0122EA\2459\020eAU\353\372$@!T\311Qd\361"
 241      0A324541 
 241      A5391065 
 241      4155EBFA 
 241      24402154 
 242 00b8 65143CCB 		.ascii	"e\024<\313}\360\333_\217j\311<nQcET\031\230&\305\247"
 242      7DF0DB5F 
 242      8F6AC93C 
 242      6E516345 
 242      54199826 
 243 00ce F0044B68 		.ascii	"\360\004Kh\025Q\336\2469\021\326\277\213\321v\366a\267"
 243      1551DEA6 
 243      3911D6BF 
 243      8BD176F6 
 243      61B7
 244 00e0 B5ED1824 		.ascii	"\265\355\030$\003M]\365\364|\011\223\006\032#\021\206"
 244      034D5DF5 
 244      F47C0993 
 244      061A2311 
 244      86
 245 00f1 60009984 		.ascii	"`\000\231\204\237$\015\353\267{G\265\313Q\301DX\320"
 245      9F240DEB 
 245      B77B47B5 
 245      CB51C144 
 245      58D0
 246 0103 1E5D3072 		.ascii	"\036]0r\362=\274\355z\351\030\341%\266\032\362w\031"
 246      F23DBCED 
 246      7AE918E1 
 246      25B61AF2 
 246      7719
 247 0115 25EC4DF0 		.ascii	"%\354M\360fZ\215\343\332\225\223\316h\314\236\241\036"
 247      665A8DE3 
 247      DA9593CE 
 247      68CC9EA1 
 247      1E
 248 0126 8A71FA01 		.ascii	"\212q\372\001\374`\200N\301\226\326\233\301\301\341"
 248      FC60804E 
 248      C196D69B 
 248      C1C1E1
 249 0135 F625FDCC 		.ascii	"\366%\375\314\257\353\337\375>s\002\346\220}d\304\231"
 249      AFEBDFFD 
 249      3E7302E6 
 249      907D64C4 
 249      99
 250 0146 0CA773C3 		.ascii	"\014\247s\303m\320\240\022\306\237F\2676\035{o\022\375"
 250      6DD0A012 
 250      C69F46B7 
 250      361D7B6F 
 250      12FD
 251 0158 FAFB4F2B 		.ascii	"\372\373O+\217M\234\242\205\246P\301\330cL\014\336\374"
 251      8F4D9CA2 
 251      85A650C1 
ARM GAS  /tmp/ccqx83oc.s 			page 19


 251      D8634C0C 
 251      DEFC
 252 016a EAA0F1D1 		.ascii	"\352\240\361\321\323z\374\264\225\222\261\027\204\015"
 252      D37AFCB4 
 252      9592B117 
 252      840D
 253 0178 DBB9DB6A 		.ascii	"\333\271\333juy\313\317O\035\306h\021\034)\322n|\253"
 253      7579CBCF 
 253      4F1DC668 
 253      111C29D2 
 253      6E7CAB
 254 018b 658C4811 		.ascii	"e\214H\021SFg\374_2*\226a\376\361\216\214\3404\361\274"
 254      534667FC 
 254      5F322A96 
 254      61FEF18E 
 254      8CE034F1 
 255 01a0 50B16B17 		.ascii	"P\261k\027\214\372\302p{\377)KJ\321\341\252\370\252"
 255      8CFAC270 
 255      7BFF294B 
 255      4AD1E1AA 
 255      F8AA
 256 01b2 F68E4FAE 		.ascii	"\366\216O\256\252\035\336\0341\372l\255\370\252\372"
 256      AA1DDE1C 
 256      31FA6CAD 
 256      F8AAFA
 257 01c1 ED1F31E2 		.ascii	"\355\0371\342p\007T5e j\325fH\014\240\304\000\372\014"
 257      70075435 
 257      65206AD5 
 257      66480CA0 
 257      C400FA0C 
 258 01d5 D560DE30 		.ascii	"\325`\3360\334\207\023\036k\011\317\003\034\200\327"
 258      DC87131E 
 258      6B09CF03 
 258      1C80D7
 259 01e4 A16F2F7A 		.ascii	"\241o/zgF\216<\245\006Y\345z6\353\232\337\352\232{?"
 259      67468E3C 
 259      A50659E5 
 259      7A36EB9A 
 259      DFEA9A7B 
 260 01f9 5F762BAB 		.ascii	"_v+\253\017\327\327\334[\271\245\331\031wq\361\246\233"
 260      0FD7D7DC 
 260      5BB9A5D9 
 260      197771F1 
 260      A69B
 261 020b 5B587A74 		.ascii	"[Xzt\215\337\254\024+\353+\345\362\275l\001\024\245"
 261      8DDFAC14 
 261      2BEB2BE5 
 261      F2BD6C01 
 261      14A5
 262 021d 953F8123 		.ascii	"\225?\201#\344\255"
 262      E4AD
 263              		.text
 264              		.section	.gnu.lto_VectorA4.8a26bab04331f49d,"",%progbits
 265 0000 789C6362 		.ascii	"x\234cb`b@\007\222@\274\031\210\315\200\230\221\231"
 265      60624007 
 265      9240BC19 
 265      88CD8098 
ARM GAS  /tmp/ccqx83oc.s 			page 20


 265      9199
 266 0012 819169C2 		.ascii	"\201\221i\3029\006\206F\016&FF\020\203\201\221\241\236"
 266      39068646 
 266      0E264646 
 266      10838191 
 266      A19E
 267 0024 89B13E92 		.ascii	"\211\261>\222\021\254v=\323\201\007\377\377\257\373"
 267      11AC763D 
 267      D38107FF 
 267      FFAFFB
 268 0033 766ACD1A 		.ascii	"vj\315\032\3065L,@\021V\206\226\206\206\011\012\014"
 268      C6354C2C 
 268      40115686 
 268      96868609 
 268      0A0C
 269 0045 0CC96015 		.ascii	"\014\311`\025!@\022\244-\224\221\011D3\237ghy\260\377"
 269      214012A4 
 269      2D949109 
 269      44339F67 
 269      6879B0FF 
 270 0059 285F22E3 		.ascii	"(_\"\343BFV\240t5\303\257\206\216\006\201LF\240r\210"
 270      424656A0 
 270      7435C3AF 
 270      868E0681 
 270      4C46A072 
 271 006e 8920118E 		.ascii	"\211 \021\216LF\306\\F\006\250\242L\240V\206\363\014"
 271      4C46C65C 
 271      4606A8A2 
 271      4CA05686 
 271      F30C
 272 0080 CD0F4EA6 		.ascii	"\315\017N\246bhcNf\204x \223\021h\371E\206\306\007\247"
 272      6268634E 
 272      66847820 
 272      931168F9 
 272      4586C607 
 273 0095 54618A20 		.ascii	"Ta\212  \004h.\320b\220*\023==}\010\312/\326\317H\314"
 273      2004682E 
 273      D062902A 
 273      133D3D7D 
 273      08CA2FD6 
 274 00ac D12FC82F 		.ascii	"\321/\310/*)\326\017\016\36156\322\367\361q\321\017"
 274      2A29D60F 
 274      0EF13536 
 274      D2F7F171 
 274      D10F
 275 00be F1F42D33 		.ascii	"\361\364-3\004\311\304\247\027\224\304\347\344\244\350"
 275      04C9C4A7 
 275      1794C4E7 
 275      E4A4E8
 276 00cd 25330000 		.ascii	"%3\000\000\231l@\037"
 276      996C401F 
 277              		.text
 278              		.section	.gnu.lto_.symbol_nodes.8a26bab04331f49d,"",%progbits
 279 0000 789C4DCA 		.ascii	"x\234M\3129\022\202@\024\004\320\356\031P6\317`\310"
 279      39128240 
 279      1404D0EE 
 279      195036CF 
ARM GAS  /tmp/ccqx83oc.s 			page 21


 279      60C8
 280 0012 319B2240 		.ascii	"1\233\"@B/\240\211G\360\010\344\346\212\013.\245\211"
 280      422FA089 
 280      47F008E4 
 280      E68A0B2E 
 280      A589
 281 0024 57D0B250 		.ascii	"W\320\262P\312\231\237t\275\356o`\360\302p\346A\001"
 281      CA999F74 
 281      BDEE6F60 
 281      F0C270E6 
 281      4101
 282 0036 F30D202D 		.ascii	"\363\015 -j\232\226\342\300e\315pK\204\202\331S\306"
 282      6A9A96E2 
 282      C065CD70 
 282      4B8482D9 
 282      53C6
 283 0048 B5E64059 		.ascii	"\265\346@Y\217G*\360x\242B\217\0355\362x\246\306\036"
 283      8F472AF0 
 283      78A2428F 
 283      1D35F278 
 283      A6C61E
 284 005b 7754E4C8 		.ascii	"wT\344\310;\025\377X\024\344\225J\234nT\352t\241\262"
 284      3B15FF58 
 284      14E4954A 
 284      9C6E54EA 
 284      74A1B2
 285 006e BF2C1234 		.ascii	"\277,\0224\335\233\226)V}\332\014M\225\333\000(\253"
 285      DD9B9629 
 285      567DDA0C 
 285      4D95DB00 
 285      28AB
 286 0080 3C88B09E 		.ascii	"<\210\260\236=\2476\216P\366c<\371>\341\003;nO\026"
 286      3DA7368E 
 286      50F6633C 
 286      F93EE103 
 286      3B6E4F16 
 287              		.text
 288              		.section	.gnu.lto_.refs.8a26bab04331f49d,"",%progbits
 289 0000 789C6362 		.ascii	"x\234cb`b\020f\200\000&FF&&&Ff f\001bN&&\006\000\004"
 289      60621066 
 289      80002646 
 289      46262626 
 289      46662066 
 290 001c 0C0041   		.ascii	"\014\000A"
 291              		.text
 292              		.section	.gnu.lto_.decls.8a26bab04331f49d,"",%progbits
 293 0000 789C9D5A 		.ascii	"x\234\235Z\013p\023\307\031\336\275\223m\011\0148\220"
 293      0B7013C7 
 293      19DEBD93 
 293      6D090C38 
 293      90
 294 0011 0498C904 		.ascii	"\004\230\311\004%M\3324-\226m\022\322t\322\014Fv\300"
 294      254DDA34 
 294      2D966D12 
 294      D274D20C 
 294      4676C0
 295 0024 536C33B2 		.ascii	"Sl3\262I\351t\332\353!\037\261\022Yrd\231\201i\323\234"
ARM GAS  /tmp/ccqx83oc.s 			page 22


 295      49E974DA 
 295      EB211FB1 
 295      12597264 
 295      998169D3 
 296 0039 31AFBC5A 		.ascii	"1\257\274Z\223\220@\002\241v\013\001\002-\217\002y\224"
 296      93904002 
 296      A1760B01 
 296      022D8F02 
 296      7994
 297 004b 87027938 		.ascii	"\207\002y8\224\241\006\032\002\270`\3416)!\035B^\340"
 297      94A1061A 
 297      02B860E1 
 297      3629211D 
 297      425EE0
 298 005e 0950F5DF 		.ascii	"\011P\365\337\275=\335\303w\322\211\033\377\377\355"
 298      BD3DDDC3 
 298      77D2891B 
 298      FFFFED
 299 006d DDED7EFF 		.ascii	"\335\355~\377\367\377\373\357\336\336\312\034\342\320"
 299      F7FFFBEF 
 299      DEDECA1C 
 299      E2D0
 300 007b 6D2E8452 		.ascii	"m.\204Rp\270\277\205P%\224\207 \204\356\007\201\"\352"
 300      70B8BF85 
 300      50259487 
 300      2084EE07 
 300      8122EA
 301 008e 02590B72 		.ascii	"\002Y\013r\002d\023R\216a #0B\243@F\203\334\004\342"
 301      02641352 
 301      8E612023 
 301      3042A340 
 301      4683DC04 
 302 00a3 05F93E48 		.ascii	"\005\371>H\011\310\335 \367\202\334\0072\011d2\310\024"
 302      09C8DD20 
 302      F782DC07 
 302      32096432 
 302      C814
 303 00b5 10F84355 		.ascii	"\020\370CU\030\031\016\2023\204\331\030\016R\010R\000"
 303      18190E82 
 303      3384D918 
 303      0E520852 
 303      00
 304 00c6 F263ACD8 		.ascii	"\362c\254\330\376\021\234\223p\236\006\347\020\303\370"
 304      FE119C93 
 304      709E06E7 
 304      10C3F8
 305 00d5 39288EB5 		.ascii	"9(\216\265\275\217\225\037\206\363\315&l\302/\217q\177"
 305      BD8F951F 
 305      86F3CD26 
 305      6CC22F8F 
 305      717F
 306 00e7 85D93804 		.ascii	"\205\3318\004r\000)8\307\221\322v\024\343i\305\217\370"
 306      72002938 
 306      C791D276 
 306      14E369C5 
 306      8FF8
 307 00f9 77039C1F 		.ascii	"w\003\234\037\301\032\277\315\214\343n\020^\027\033"
ARM GAS  /tmp/ccqx83oc.s 			page 23


 307      C11ABFCD 
 307      8CE36E10 
 307      5E171B
 308 0108 D5869E6F 		.ascii	"\325\206\236o\204\371\341\207s\024d\017\224O\20243\274"
 308      84F9E187 
 308      7314640F 
 308      944F8234 
 308      33BC
 309 011a 8DCC9F9F 		.ascii	"\215\314\237\237\200\034\203\362.\220\375\214[\037H"
 309      801C83F2 
 309      2E90FD8C 
 309      5B1F48
 310 0129 0F483FC8 		.ascii	"\017H?\310W gA\216\200|\314x\217f\261%\034\306\302\371"
 310      57206741 
 310      8E807CCC 
 310      788F66B1 
 310      251CC6C2 
 311 013e 513C983F 		.ascii	"Q<\230?\351\033\017\343l\305\223p\371\025\324)b\261"
 311      E91B0FE3 
 311      6CC59370 
 311      F915D429 
 311      62B1
 312 0150 DAA8B3FD 		.ascii	"\332\250\263\3751\263\3111\234\021\314\326\315\314\316"
 312      31B3C931 
 312      9C11CCD6 
 312      CDCCCE
 313 015f AF4DB648 		.ascii	"\257M\266H\016\014evv\263X\027X\330{\214\305\3417\214"
 313      0E0C6576 
 313      76B35817 
 313      58D87B8C 
 313      C5E1378C 
 314 0173 1BB17711 		.ascii	"\033\261w\021\344\034\310\027\314&\211C7\343\320\307"
 314      E41CC817 
 314      CC268943 
 314      37E3D0C7 
 315 0183 FACBCBFA 		.ascii	"\372\313\313\372\372\0168\177\327d\233\344^>\263me\323"
 315      FA0E387F 
 315      D7649BE4 
 315      5E3EB36D 
 315      65D3
 316 0195 A5F3EB2C 		.ascii	"\245\363\353,\303\305\254\0359\027\233\360J\262\340"
 316      C3C5AC1D 
 316      39179BF0 
 316      4AB2E0
 317 01a4 E599789F 		.ascii	"\345\231x\237\325\361,a<\313\340<\301\204K\306\306\010"
 317      D5F12C61 
 317      3CCBE03C 
 317      C1844BC6 
 317      C608
 318 01b6 86BB394B 		.ascii	"\206\2739K\234H_\2519\247\306\354\000\253{\234\331\334"
 318      9C485FA9 
 318      39A7C6EC 
 318      00AB7B9C 
 318      D9DC
 319 01c8 A8EB2B35 		.ascii	"\250\353+5f\034\263\243\372v\217\211\303\275\254\257"
 319      661CB3A3 
 319      FA768F89 
ARM GAS  /tmp/ccqx83oc.s 			page 24


 319      C3BDACAF 
 320 01d8 0F317B04 		.ascii	"\0171{\004\363q\270w=\253\307\263:wg\030\267\036\264"
 320      F371B877 
 320      3DABC7B3 
 320      3A776718 
 320      B71EB4
 321 01eb 4496E7CB 		.ascii	"D\226\347\313\235\213\344\251\335\300q&\026\361p\017"
 321      9D8BE4A9 
 321      DDC07126 
 321      16F1700F 
 322 01fb F2D242A1 		.ascii	"\362\322B\241\207\206\373v\264F\226;\222\013\317\015"
 322      8786FB76 
 322      B446963B 
 322      920BCF0D 
 323 020b 70B2EC16 		.ascii	"p\262\354\026q\027\366\0005\021\243;\321\006\031\236"
 323      7117F600 
 323      3511A33B 
 323      D106199E 
 324 021b C8F2BE89 		.ascii	"\310\362\276\211&Tz\210\270\3003\350Z\304k\360\235H"
 324      26547A88 
 324      B8C033E8 
 324      5AC46BF0 
 324      9D48
 325 022d 31441FB3 		.ascii	"1D\037\263\002\231\267F\220\264{R\2433\022-\005|\331"
 325      0299B746 
 325      90B47B52 
 325      A333122D 
 325      057CD9
 326 0240 AB232663 		.ascii	"\253#&c\225Y\221\306\354\350\342=?\244\314^\301#\201"
 326      955991C6 
 326      ECE8E23D 
 326      3FA4CC5E 
 326      C12381
 327 0253 D9328CD3 		.ascii	"\3312\214\323f\310\221\025F\304\3531qh\0034W\032R`9"
 327      66C89115 
 327      46C4EB31 
 327      71680334 
 327      571A5260 
 328 0268 79F5C095 		.ascii	"y\365\300\225\305\270M\226\261\362\014\031`\015\307"
 328      C5B84D96 
 328      B1F20C19 
 328      600DC7
 329 0277 2DA81378 		.ascii	"-\250\023x'.\367\255\036-'\023\270\000-\"n$\027\316"
 329      272EF7AD 
 329      1E2D2713 
 329      B8002D22 
 329      6E2417CE 
 330 028b 1FB342B3 		.ascii	"\037\263B\263\352V\215b\035\367\367^\343)\367M\320\210"
 330      EA568D62 
 330      1DF7F75E 
 330      E329F74D 
 330      D088
 331 029d 43474DDC 		.ascii	"CGM\334\035\000\021V\233\241\261\236y\342\350<\257r"
 331      1D001156 
 331      9BA1B19E 
 331      79E2E83C 
 331      AF72
ARM GAS  /tmp/ccqx83oc.s 			page 25


 332 02af 3703679E 		.ascii	"7\003g\236$\030\207Nc%\030.\217v\357\023\355\036\326"
 332      2418874E 
 332      6325182E 
 332      8F76EF13 
 332      ED1ED6
 333 02c2 55FD42BB 		.ascii	"U\375B\273\315\351n_\321n\363\272\333Oq\351\333.f\222"
 333      CDE96E5F 
 333      D16EF3BA 
 333      DB4F71E9 
 333      DB2E6692 
 334 02d6 5C628F56 		.ascii	"\\b\217VH\031\363F\357\210\210\267\340\333Ao\305\274"
 334      4819F346 
 334      EF8888B7 
 334      E0DB416F 
 334      C5BC
 335 02e8 65330E2D 		.ascii	"e3\016-\3470\3534\253\260\260\242fwx:\031\225\316\202"
 335      E730EB34 
 335      ABB0B0A2 
 335      6677783A 
 335      1995CE82 
 336 02fc DE7D7BCC 		.ascii	"\336}{\314\236m\262\374D\276U\326A\025\234%\361\022"
 336      9E6DB2FC 
 336      44BE55D6 
 336      41159C25 
 336      F112
 337 030e 27FAB0D7 		.ascii	"'\372\260\327Av\355\005G\262V#\025\3372%`\342\353\323"
 337      4176ED05 
 337      47B25623 
 337      15DF3225 
 337      60E2EBD3 
 338 0322 85B24BB9 		.ascii	"\205\262K\271\237=\371\226\366\255\036+w\356\303\216"
 338      9F3DF996 
 338      F6AD1E2B 
 338      77EEC38E 
 339 0332 877462EF 		.ascii	"\207tb\357\352\033\010\374\333t@\277\314\031SO\031\350"
 339      EA1B08FC 
 339      DB7440BF 
 339      CC19534F 
 339      19E8
 340 0344 86DEC93E 		.ascii	"\206\336\311>~9\264\216\302\274\245\365\212\301p\326"
 340      7E39B48E 
 340      C2BCA5F5 
 340      8AC170D6 
 341 0354 5E49FC9E 		.ascii	"^I\374\236ya\350\223\033\321\363\264O`0\340\270\210"
 341      7961E893 
 341      1BD1F3B4 
 341      4F6030E0 
 341      B888
 342 0366 EFBFC112 		.ascii	"\357\277\301\022\234P<\200o\324\222\233\334X\013H\""
 342      9C503C80 
 342      6FD4929B 
 342      DC580B48 
 342      22
 343 0377 9EC1A7DD 		.ascii	"\236\301\247\335\3100\305\035}\357\2356<\237\216\367"
 343      C830C51D 
 343      7DEF9D36 
 343      3C9F8EF7 
ARM GAS  /tmp/ccqx83oc.s 			page 26


 344 0387 F7A11987 		.ascii	"\367\241\031\207\266\232bb \245\030\263#r\210\332\265"
 344      B69A6262 
 344      20A518B3 
 344      237288DA 
 344      B5
 345 0398 EAB141CF 		.ascii	"\352\261A\3178\2647\347\240yM\251|\376C\374\\\273\334"
 345      38B437E7 
 345      A0794DA9 
 345      7CFE43FC 
 345      5CBBDC
 346 03ab 5DA24ECF 		.ascii	"]\242N\317\335N\020\335\366\335p\254\257\260CT\301\016"
 346      DD4E10DD 
 346      F6DD70AC 
 346      AFB04354 
 346      C10E
 347 03bd E60CE61D 		.ascii	"\346\014\346\035\344\2632\246\367\3211\275\037\337\002"
 347      E4B332A6 
 347      F7D131BD 
 347      1FDF02
 348 03cc BA9BEA1E 		.ascii	"\272\233\352\036\252\217\200N\037\034:<(\027\225!\240"
 348      AA8F804E 
 348      1F1C3A3C 
 348      28179521 
 348      A0
 349 03dd C3D3C60A 		.ascii	"\303\323\306\012\312\216h\327I\273\361P\315h\257y>\311"
 349      CA8E68D7 
 349      49BBF150 
 349      CD68AF79 
 349      3EC9
 350 03ef AD1312DB 		.ascii	"\255\023\022\333\372\273\261\374l\241\032\264~'p\031"
 350      FABBB1FC 
 350      6CA11AB4 
 350      7E277019 
 351 03ff 7AE0AFFD 		.ascii	"z\340\257\375\027\370\027\345\304\002>\353;1_E\373%"
 351      17F817E5 
 351      C4023EEB 
 351      3B315F45 
 351      FB25
 352 0411 4AA7F2D6 		.ascii	"J\247\362\326\345\227&\322\367\312I\372N\\\311g\177"
 352      E59726D2 
 352      F7CA49FA 
 352      4E5CC967 
 352      7F
 353 0422 271A6048 		.ascii	"'\032`HtN\231\247\243\347z\351tt*\373t\264\240=\361"
 353      744E99A7 
 353      A3E77AE9 
 353      74742AFB 
 353      74B4A03D 
 354 0437 7CEF2A6D 		.ascii	"|\357*m:j\3178\035\211\370\0174/\034\315/\324\223S\327"
 354      3A6ACF38 
 354      1D89F80F 
 354      342F1CCD 
 354      2FD49353 
 355 044c 36BF00AD 		.ascii	"6\277\000\255\027zib'i\037m\314\031\314k\000[\241\007"
 355      177A6962 
 355      27691F6D 
 355      CC19CC6B 
ARM GAS  /tmp/ccqx83oc.s 			page 27


 355      005BA107 
 356 0460 DBEC04CC 		.ascii	"\333\354\004\314\256\303\001\354%=\330\366\234\301\214"
 356      AEC301EC 
 356      253DD8F6 
 356      9CC18C
 357 046f CC56E9C1 		.ascii	"\314V\351\301\336p\002Vd\317l\265\036lW\316`Ff[\364"
 357      DE700256 
 357      64CF6CB5 
 357      1E6C57CE 
 357      6046665B 
 358 0484 60092760 		.ascii	"`\011'`c\354\231m\323\203\275\2333\230\221\331v=\330"
 358      63EC996D 
 358      D383BD9B 
 358      339891D9 
 358      763DD8
 359 0497 4127605E 		.ascii	"A'`^{f;\365`\207s\00632{]\017\366\201\023\260;\354\231"
 359      7B663BF5 
 359      60877306 
 359      33327B5D 
 359      0FF68113 
 360 04af BDA9073B 		.ascii	"\275\251\007;\2213\230\221\331.=\330)'`%v\314\332\022"
 360      91339891 
 360      D92E3DD8 
 360      29276025 
 360      76CCDA12 
 361 04c3 7B7ED621 		.ascii	"{~\326!^\207:\330\314\244\240\332,\226\364\325\272\354"
 361      5E873AD8 
 361      CCA4A0DA 
 361      2C96F4D5 
 361      BAEC
 362 04d5 AB89F80A 		.ascii	"\253\211\370\012\276\216\226\3504$\247_\335\205\036"
 362      BE8E96E8 
 362      3424A75F 
 362      DD851E
 363 04e4 4B8EA4C5 		.ascii	"K\216\244\305U\266\354I\017\177V\320\226\020\372Z\340"
 363      55B6EC49 
 363      0F7F56D0 
 363      9610FA5A 
 363      E0
 364 04f5 F619B3DB 		.ascii	"\366\031\263\333F\026V~\033\203\330\243\017\342GN\202"
 364      4616567E 
 364      1B83D8A3 
 364      0FE2474E 
 364      82
 365 0506 38C91EEC 		.ascii	"8\311\036\354\210\036\354\234\023\260\251\366\271\362"
 365      881EEC9C 
 365      13B0A9F6 
 365      B9F2
 366 0514 0F3DD8F9 		.ascii	"\017=\330\371\234\301\214\314\216\351\301\276t\0026"
 366      9CC18CCC 
 366      8EE9C1BE 
 366      740236
 367 0523 DD9ED971 		.ascii	"\335\236\331q=\330\305\234\301\364\314\332\022'\265"
 367      3DD8C59C 
 367      C1F4CCDA 
 367      1227B5
 368 0532 C4EB9C64 		.ascii	"\304\353\234d\312\274I\306\331\326P\255\313\266\232"
ARM GAS  /tmp/ccqx83oc.s 			page 28


 368      CABC49C6 
 368      D9D650AD 
 368      CBB69A
 369 0541 889FE272 		.ascii	"\210\237\342rM\274\2479\353\304\323\177$i\265\310\207"
 369      4DBCA739 
 369      EBC4D37F 
 369      2469B5C8 
 369      87
 370 0552 97D96D03 		.ascii	"\227\331m\003\011V\234i\021C\253C\377\276\027\361i\372"
 370      09569C69 
 370      1143AB43 
 370      FFBE17F1 
 370      69FA
 371 0564 42EEA34B 		.ascii	"B\356\243K\251~\252\377M\365\307T\237\245\372\034\325"
 371      A97EAAFF 
 371      4DF5C754 
 371      9FA5FA1C 
 371      D5
 372 0575 FFA5FA3C 		.ascii	"\377\245\372<\325\027\250\376\202\352\257\250\276H\365"
 372      D517A8FE 
 372      82EAAFA8 
 372      BE48F5
 373 0584 00D5DF50 		.ascii	"\000\325\337P\235\242\272\215#\272\235\352\205T/\246"
 373      9DA2BA8D 
 373      23BA9DEA 
 373      85542FA6 
 374 0594 FA09CEC1 		.ascii	"\372\011\316\301\262\355\204~\331\326\346\312u\235\345"
 374      B2ED847E 
 374      D9D6E6CA 
 374      759DE5
 375 05a3 CD14840D 		.ascii	"\315\024\204\015\272 \274J\203\260\221\022\336E\365"
 375      BA20BC4A 
 375      83B09112 
 375      DE45F5
 376 05b2 31AA8F3B 		.ascii	"1\252\217;Y[\256\325H\216C\253\345D2\271\262\177\340"
 376      595BAED5 
 376      488E43AB 
 376      E54432B9 
 376      B27FE0
 377 05c5 CFF8CCB6 		.ascii	"\317\370\314\266N\371\011\371\177\251\307\261\363\217"
 377      4EF909F9 
 377      7FA9C7B1 
 377      F38F
 378 05d3 9A0EEE46 		.ascii	"\232\016\356FVR\277c8\364\246\313\270\242C\350\333h"
 378      5652BF63 
 378      38F4A6CB 
 378      B8A243E8 
 378      DB68
 379 05e5 2DDD8D59 		.ascii	"-\335\215Y/\363\024\215\324\377\0357\316\350\336R\216"
 379      2FF3148D 
 379      D4FF1D37 
 379      CEE8DE52 
 379      8E
 380 05f6 D3DF20CC 		.ascii	"\323\337 \314:\223\211\177\236,\354hK\246R\343\234s"
 380      3A93897F 
 380      9E2CEC68 
 380      4BA652E3 
ARM GAS  /tmp/ccqx83oc.s 			page 29


 380      9C73
 381 0608 5A66C1E9 		.ascii	"Zf\301\351\2205'\331\310\35193\247\347-9m\351c\234\224"
 381      903527D9 
 381      C8E93933 
 381      A7E72D39 
 381      6DE9639C 
 382 061d EF2C589F 		.ascii	"\357,X\237\233\320oC\177\224\345g\345T\303T%\330\034"
 382      9BD06F43 
 382      7F94E567 
 382      E554C354 
 382      25D81C
 383 0630 FA84D658 		.ascii	"\372\204\326X\016\370\326\253L\326%\214\3243\362\302"
 383      0EF8D6AB 
 383      4CD6258C 
 383      D433F2C2 
 384 0640 229C66B5 		.ascii	"\"\234f\265\334\314j\205%\253\323\237\222E\276|%\225"
 384      DCCC6A85 
 384      25ABD39F 
 384      9245BE7C 
 384      2595
 385 0652 6A772395 		.ascii	"jw#\225\331ykfWUf\"~\211#\033L\253\256\211\331*3\263"
 385      D9796B66 
 385      57556622 
 385      7E89231B 
 385      4CABAE89 
 386 066a 972D991D 		.ascii	"\227-\231\035\377Re\306#\347\335\330\305Y|/\263\013"
 386      FF5265C6 
 386      23E7DDD8 
 386      C5597C2F 
 386      B30B
 387 067c E77B8357 		.ascii	"\347{\203W\237<\266\216}8\257\341\310\204|\331\024\221"
 387      9F3CB68E 
 387      7D38AFE1 
 387      C8847CD9 
 387      1491
 388 068e 6BDA4C30 		.ascii	"k\332L0d\027M\260\005yV\201\206\201\225<\204\017oX$"
 388      64174DB0 
 388      05795681 
 388      8681953C 
 388      840F6F58 
 389 06a3 776063C0 		.ascii	"w`c\300;3\007\234\365\323\011i\252\312{\0055`\337l\215"
 389      3B33079C 
 389      F5D30969 
 389      AACA7B05 
 389      3560DF6C 
 390 06b8 32F95AF6 		.ascii	"2\371Z\366S\247\271\237\326\015\356\247\344\205\304"
 390      53A7B99F 
 390      D60DEEA7 
 390      E485C4
 391 06c7 F68B1619 		.ascii	"\366\213\026\031\324e\351\230\374\242d\312\240M\327"
 391      D465E998 
 391      FCA264CA 
 391      A04DD7
 392 06d6 94419BCC 		.ascii	"\224A\233\314\314\376d\231AW.j\031\244d\006|\207X\023"
 392      CCFE6499 
 392      41572E6A 
 392      19A46406 
ARM GAS  /tmp/ccqx83oc.s 			page 30


 392      7C875813 
 393 06ea 7BD94C6C 		.ascii	"{\331Ll\213\243H\367\252\221\206\2715K\263L\221\336"
 393      8BA348F7 
 393      AA9186B9 
 393      354BB34C 
 393      91DE
 394 06fc 62F667AB 		.ascii	"b\366g\253e\244{.\351\375Q\002\375\276\265?\1771\373"
 394      65A47B2E 
 394      E9FD5102 
 394      FDBEB53F 
 394      7F31FB
 395 070f B3E39A02 		.ascii	"\263\343\232\002\275\303Ll\247e\240/\035\320\023[F\003"
 395      BDC34C6C 
 395      A765A02F 
 395      1DD0135B 
 395      4603
 396 0721 7D26CFC9 		.ascii	"}&\317\311\334\371\206\331\300\233\026\236w$w|60v\305"
 396      DCF986D9 
 396      C09B169E 
 396      7724777C 
 396      363076C5 
 397 0735 367941AE 		.ascii	"6yA\256/\232\335\346\331\200\214Z\323\030|!\337LT\251"
 397      2F9ADDE6 
 397      D9808C5A 
 397      D3187C21 
 397      DF4C54A9 
 398 0749 BAD792C9 		.ascii	"\272\327\222\311\221\305W\361\213\362\276\005r*\365"
 398      91C557F1 
 398      8BF2BE05 
 398      722AF5
 399 0758 78BA13D6 		.ascii	"x\272\023\326\333@\274e\011\261\375\263\013c\323\020"
 399      DB40BC65 
 399      09B1FDB3 
 399      0B63D310 
 400 0768 CE7DD96F 		.ascii	"\316}\331o\345\213\341\002\015\232_v\332\020{\327\222"
 400      E58BE102 
 400      0D9A5F76 
 400      DA107BD7 
 400      92
 401 0779 D8EA8B3D 		.ascii	"\330\352\213=\217\351|S\372\361k\033\210n#\304\255\250"
 401      8FE97C53 
 401      FAF16B1B 
 401      886E23C4 
 401      ADA8
 402 078b 4B4EF6C0 		.ascii	"KN\366\300\314\325\263\003/\225\345nYN\244Rx\234\372"
 402      CCD5B303 
 402      2F95E56E 
 402      594EA452 
 402      789CFA
 403 079e 1BC69202 		.ascii	"\033\306\222\002\025\305\366\303\346\200\006h\332\226"
 403      15C5F6C3 
 403      E6800668 
 403      DA96
 404 07ac 24BD6817 		.ascii	"$\275h\027\225\277q\351U\211\325\036\020\257\377Za\223"
 404      95BF71E9 
 404      5589D51E 
 404      10AFFF5A 
ARM GAS  /tmp/ccqx83oc.s 			page 31


 404      6193
 405 07be FBEE6FCE 		.ascii	"\373\356o\3166\265\323\271\375 G\270\275W`\3640+"
 405      36B5D3B9 
 405      FD2047B8 
 405      BD5760F4 
 405      302B
 406 07d0 0EB1FB77 		.ascii	"\016\261\373w\316\264\227t\371$\335K\"\367\263\357%"
 406      CEB49774 
 406      F924DD4B 
 406      22F7B3EF 
 406      25
 407 07e1 A54E2EA3 		.ascii	"\245N.\243{I\352z\377(\245@\332fX\363)\207\345\307C"
 407      7B49EA7A 
 407      FF28A540 
 407      DA6658F3 
 407      2987E5C7 
 408 07f6 87FEE3E1 		.ascii	"\207\376\343\341X\316`^\003\330\263z\260^'`\0316\201"
 408      58CE605E 
 408      03D8B37A 
 408      B05E2760 
 408      193681
 409 0809 96E9C1FA 		.ascii	"\226\351\301\372r\006323\354u\235u\002\226a\023\310"
 409      72063332 
 409      33EC759D 
 409      75029661 
 409      13C8
 410 081b B0D7F579 		.ascii	"\260\327\365y\316`Ff\206\275\256\001'`\0316\201\014"
 410      CE604666 
 410      86BDAE01 
 410      27601936 
 410      810C
 411 082d 7B5DB23B 		.ascii	"{]\262;W0#3\303^\327\022'`^{f\206\275\256gr\006\323"
 411      57302333 
 411      C35ED712 
 411      27605E7B 
 411      6686BDAE 
 412 0845 3193E727 		.ascii	"1\223\347'^[\371[6\010\224\015\346\245N\3602\354\003"
 412      5E5BF95B 
 412      3608940D 
 412      E6A54EF0 
 412      32EC03
 413 0858 BDD16B1C 		.ascii	"\275\321k\034T+s\306\363\"\333C?\342E\334\303\221\017"
 413      542B73C6 
 413      F322DB43 
 413      3FE245DC 
 413      C3910F
 414 086b A9C3F40B 		.ascii	"\251\303\364\013\357(\325\037P\375!\325'\250\356\245"
 414      EF28D51F 
 414      50FD21D5 
 414      27A8EEA5 
 415 087b FA14D57D 		.ascii	"\372\024\325}T\237\241\372_T\177D\365\177\364_\207\246"
 415      549FA1FA 
 415      5F547F44 
 415      F57FF45F 
 415      87A6
 416 088d 59EFA00D 		.ascii	"Y\357\240\015q\302\345\023m\326\373\016z\205\374\264"
 416      71C2E513 
ARM GAS  /tmp/ccqx83oc.s 			page 32


 416      6DD6FB0E 
 416      7A85FCB4 
 417 089d BBB23FD1 		.ascii	"\273\262?\321\207\227n\353,2|\250)\007[\367\312\213"
 417      87976EEB 
 417      2C327CA8 
 417      29075BF7 
 417      CA8B
 418 08af E43BD66B 		.ascii	"\344;\326ksZ\221\012J\246]65\276\263\362&2\211}J\327"
 418      735A910A 
 418      4AA65D36 
 418      35BEB3F2 
 418      2632897D 
 419 08c5 8E5D6EF3 		.ascii	"\216]n\363\232\2277-yy\343\222\227\367h\005\262\024"
 419      9A97372D 
 419      7979E392 
 419      97F76805 
 419      B214
 420 08d7 307BB43F 		.ascii	"0{\264?\303<~^\363(\275LOd\330`\177\307\341\006\273"
 420      C33C7E5E 
 420      F328BD4C 
 420      4F64D860 
 420      7FC7E106 
 421 08ec 2330A7BB 		.ascii	"#0\247\273\365\344%\327C^r\311Mx\353\374N\271=!\017"
 421      F5E425D7 
 421      435E72C9 
 421      4D78EBFC 
 421      4EB93D21 
 422 0901 A4708A57 		.ascii	"\244p\212W7\357V\014g\346\222k\023\231\177('\337\265"
 422      37EF560C 
 422      67E6926B 
 422      13997F28 
 422      27DFB5
 423 0914 5CBAB23C 		.ascii	"\\\272\262<f\214u]\021\177E3\355k\335N\212RVK\312O\307"
 423      668C755D 
 423      117F4533 
 423      ED6BDD4E 
 423      8A52564B 
 424 092b AFBAADFE 		.ascii	"\257\272\255\376a\201\002dn\312\2146\253F\207\323\272"
 424      61810264 
 424      6ECA8C36 
 424      AB4687D3 
 424      BA
 425 093c 9A3F4A4D 		.ascii	"\232?JM\353Z\"\276\224\363\226\320\200\315\226\3200"
 425      EB5A22BE 
 425      94F396D0 
 425      80CD96D0 
 425      30
 426 094d 03E7016D 		.ascii	"\003\347\001mKh\263\333\364\011l\"\301\241\327\335\352"
 426      4B68B3DB 
 426      F4096C22 
 426      C1A1D7DD 
 426      EA
 427 095e 7F0D0CC1 		.ascii	"\177\015\014\301\203R\256#C\312]6\017\242\304\347\227"
 427      8352AE23 
 427      43CA5D36 
 427      0FA2C4E7 
 427      97
ARM GAS  /tmp/ccqx83oc.s 			page 33


 428 096f 968C5DE2 		.ascii	"\226\214]\342\262\030Ai\324D\256\277\223:l\011\303\235"
 428      B2184169 
 428      D444AEBF 
 428      933A6C09 
 428      C39D
 429 0981 E6A05D6B 		.ascii	"\346\240]k\305\233e\031\274Iq\306\337g\177\341k\214"
 429      C59B6519 
 429      BC4971C6 
 429      DF677FE1 
 429      6B8C
 430 0993 36493E31 		.ascii	"6I>1,\315\365UK\221x46%&67\206\202-\276\272hk,(\305"
 430      2CCDF555 
 430      4B917834 
 430      36252636 
 430      3786822D 
 431 09ae E609FE68 		.ascii	"\346\011\376h\2034Y\212\004\033\205i\241\270$\314\216"
 431      8334598A 
 431      041B8569 
 431      A1B824CC 
 431      8E
 432 09bf C684F240 		.ascii	"\306\204\362@\265PY>\271\312'\306\232\306G\242\021i"
 432      B550593E 
 432      B9CA27C6 
 432      9AC647A2 
 432      1169
 433 09d1 BC24CE0A 		.ascii	"\274$\316\012\371B\221`\270\265A\362\265\304\033B\221"
 433      F9429160 
 433      B8B541F2 
 433      B5C41B42 
 433      91
 434 09e2 78712372 		.ascii	"xq#r\267\302yB\231\020\317\237R3\303\353G\267\026\027"
 434      B7C27942 
 434      9910CF9F 
 434      5233C3EB 
 434      47B71617 
 435 09f6 FB94BF68 		.ascii	"\373\224\277h\213\257Q\014\247[@Yx\250\2314\361L\231"
 435      8BAF510C 
 435      A75B4059 
 435      78A89934 
 435      F14C99
 436 0a09 5E5F110B 		.ascii	"^_\021\013\315\221bw\231+7Gcq\340U_=\241\3147mZ\205"
 436      CD916277 
 436      992B3747 
 436      6371E055 
 436      5F3DA1CC 
 437 0a21 AFBEAA7A 		.ascii	"\257\276\252zN\251\332T\010\207\033\240\371\020(\266"
 437      4EA9DA54 
 437      08871BA0 
 437      F91028B6 
 438 0a31 C445E019 		.ascii	"\304E\340\031\037\002H\302\214\232\252\232\252z7)\326"
 438      1F0248C2 
 438      8C9AAA9A 
 438      AA7A3729 
 438      D6
 439 0a42 D5D74E27 		.ascii	"\325\327N'\350B\240\262\274\342\247\303I\311_[S_U3\243"
 439      E842A0B2 
 439      BCE2A7C3 
ARM GAS  /tmp/ccqx83oc.s 			page 34


 439      49C95F5B 
 439      535F5533 
 440 0a57 7646DD50 		.ascii	"vF\335PrY[SY7\265\266>\217\002x\000ivLzT\210{\310\251"
 440      72595B53 
 440      5937B5B6 
 440      3E8F0278 
 440      0069764C 
 441 0a71 1522306F 		.ascii	"\025\"0o\030\334\013\212\341\360,1\370\210\020w\253"
 441      18DC0B8A 
 441      E1F02C31 
 441      F8881077 
 441      AB
 442 0a82 453E182B 		.ascii	"E>\030+s5\204\244\030\201\367G#\263C\017\345\007\351"
 442      733584A4 
 442      1881F747 
 442      23B3430F 
 442      E507E9
 443 0a95 292F188E 		.ascii	")/\030\216\006\037)s\346IK\274\211\304*\324\004~\014"
 443      061F2973 
 443      E6494BBC 
 443      89C42AD4 
 443      047E0C
 444 0aa8 4D5F0871 		.ascii	"M_\010q\336\037(\005)s\325U\373\003\256\212\252\312"
 444      DE1F2805 
 444      2973D555 
 444      FB03AE8A 
 444      AACA
 445 0aba 005717E0 		.ascii	"\000W\027\340+\247\004\362\374\376\352@)\325e.\277\277"
 445      2BA704F2 
 445      FCFEEA40 
 445      29D5652E 
 445      BFBF
 446 0acc 32C0FB6B 		.ascii	"2\300\373k\352\371\351u~\276<\020\340\003~\270\206\006"
 446      EAF9E975 
 446      7EBE3C10 
 446      E0037EB8 
 446      8606
 447 0ade 932BEA03 		.ascii	"\223+\352\003|\005iY]\036\340j\225V\023\240\376\314"
 447      7C056959 
 447      5D1EE06A 
 447      955613A0 
 447      FECC
 448 0af0 000FF8D7 		.ascii	"\000\017\370\327\020\346 \032\305\212BK<\332\\\334,"
 448      10E6201A 
 448      C58A424B 
 448      3CDA5CDC 
 448      2C
 449 0b01 C6E2C525 		.ascii	"\306\342\305%\205\352\275P$\024\037\246U\200\207.\270"
 449      85EABD50 
 449      24141FA6 
 449      5580872E 
 449      B8
 450 0b12 6A2ED4B7 		.ascii	"j.\324\267q\223HF\342B|\224\241\"qX\212\271!k\244\330"
 450      71934846 
 450      E2427C94 
 450      A1227158 
 450      8AB9216B 
ARM GAS  /tmp/ccqx83oc.s 			page 35


 451 0b28 1C313C52 		.ascii	"\0341<R\337Dyv\275z\2539\032\016K\015B\203\024\026\347"
 451      DF447976 
 451      BD7AAB39 
 451      1A0E4B0D 
 451      42831416 
 452 0b3d 8D4ED783 		.ascii	"\215N\327\203f\222@\233\307Z\233\343\356\007\245 \344"
 452      6692409B 
 452      C75A9BE3 
 452      EE07A520 
 452      E4
 453 0b4e 74F95DDF 		.ascii	"t\371]\337\263v2\030mj\212F|\220\316\376\352\271\276"
 453      B3763218 
 453      6D6A8A46 
 453      7C90CEFE 
 453      EAB9BE
 454 0b61 C89C5010 		.ascii	"\310\234P\020B\177\0359W\204Z\304YaIiO\234\251\235\365"
 454      427F1D39 
 454      57845AC4 
 454      59614969 
 454      4F9CA99D 
 455 0b76 3094ABC0 		.ascii	"0\224\253\300\265\"\362\2742\242=\036\257\007g\220\012"
 455      B522F2BC 
 455      32A23D1E 
 455      AF076790 
 455      0A
 456 0b87 3E030E36 		.ascii	">\003\0166\006\2431I\230s\017\351\331\221\002y&\204"
 456      06A33149 
 456      98730FE9 
 456      D9910279 
 456      2684
 457 0b99 628F0A52 		.ascii	"b\217\012Rs(\034}\250U\312#9_\372\003\013\030in\334"
 457      73281C7D 
 457      A855CA23 
 457      395FFA03 
 457      0B18696E 
 458 0bae E7AFAEAB 		.ascii	"\347\257\256\253\252\203\376P\272\344\201\322\271s\225"
 458      AA83FE50 
 458      BAE481D2 
 458      B97395
 459 0bbd 4C995D5A 		.ascii	"L\231]ZR2w\026\311\225\200\337/\324\317k\226*\244\331"
 459      52327716 
 459      C99580DF 
 459      2FD4CF6B 
 459      962AA4D9 
 460 0bd1 1CF4B3FF 		.ascii	"\034\364\263\377\201)\320\363U\001w\371\364\311e\201"
 460      8129D0F3 
 460      550177F9 
 460      F4C96581 
 461 0be1 BA7A5A28 		.ascii	"\272zZ(%\205\374\362\251\223+k\002\005\344\001;\227"
 461      2585FCF2 
 461      A9932B6B 
 461      0205E401 
 461      3B97
 462 0bf3 C2195284 		.ascii	"\302\031R\204\344J]\300\023\250\254\253\014<XYQ\222"
 462      E44A5DC0 
 462      13A8ACAB 
 462      0C3C5859 
ARM GAS  /tmp/ccqx83oc.s 			page 36


 462      5192
 463 0c05 4740CAE8 		.ascii	"G@\312\350\370-\235(\304]\301F1\346\026\204\331\255"
 463      F82D9D28 
 463      C45DC146 
 463      31E61684 
 463      D9AD
 464 0c17 91A0200C 		.ascii	"\221\240 \014S\013\305\023'\226\335\373\177~\351\033"
 464      530BC513 
 464      2796DDFB 
 464      7F7EE91B 
 465 0c27 3A       		.ascii	":"
 466              		.text
 467              		.section	.gnu.lto_.symtab.8a26bab04331f49d,"",%progbits
 468 0000 6770745F 		.ascii	"gpt_lld_init\000\000\000\000\000\000\000\000\000\000"
 468      6C6C645F 
 468      696E6974 
 468      00000000 
 468      00000000 
 469 0016 00001301 		.ascii	"\000\000\023\001\000\000GPTD1\000\000\000\000\000\000"
 469      00004750 
 469      54443100 
 469      00000000 
 469      00
 470 0027 00000000 		.ascii	"\000\000\000\000\000\000I\001\000\000gpt_lld_start\000"
 470      00004901 
 470      00006770 
 470      745F6C6C 
 470      645F7374 
 471 003f 00000000 		.ascii	"\000\000\000\000\000\000\000\000\000\000\000\027\001"
 471      00000000 
 471      00000017 
 471      01
 472 004c 00006770 		.ascii	"\000\000gpt_lld_stop\000\000\000\000\000\000\000\000"
 472      745F6C6C 
 472      645F7374 
 472      6F700000 
 472      00000000 
 473 0062 00000000 		.ascii	"\000\000\000\000\034\001\000\000gpt_lld_start_timer"
 473      1C010000 
 473      6770745F 
 473      6C6C645F 
 473      73746172 
 474 007d 00000000 		.ascii	"\000\000\000\000\000\000\000\000\000\000\000\000 \001"
 474      00000000 
 474      00000000 
 474      2001
 475 008b 00006770 		.ascii	"\000\000gpt_lld_stop_timer\000\000\000\000\000\000\000"
 475      745F6C6C 
 475      645F7374 
 475      6F705F74 
 475      696D6572 
 476 00a6 00000000 		.ascii	"\000\000\000\000\000,\001\000\000gpt_lld_polled_del"
 476      002C0100 
 476      00677074 
 476      5F6C6C64 
 476      5F706F6C 
 477 00c1 61790000 		.ascii	"ay\000\000\000\000\000\000\000\000\000\000\000\0000"
ARM GAS  /tmp/ccqx83oc.s 			page 37


 477      00000000 
 477      00000000 
 477      000030
 478 00d0 01000067 		.ascii	"\001\000\000gpt_lld_serve_interrupt\000\000\000\000"
 478      70745F6C 
 478      6C645F73 
 478      65727665 
 478      5F696E74 
 479 00ee 00000000 		.ascii	"\000\000\000\000\000\000\000\0005\001\000\000Vector"
 479      00000000 
 479      35010000 
 479      56656374 
 479      6F72
 480 0100 41340000 		.ascii	"A4\000\000\000\000\000\000\000\000\000\000\000\0009"
 480      00000000 
 480      00000000 
 480      000039
 481 010f 0100006E 		.ascii	"\001\000\000nvicDisableVector\000\000\002\000\000\000"
 481      76696344 
 481      69736162 
 481      6C655665 
 481      63746F72 
 482 0129 00000000 		.ascii	"\000\000\000\000\000\000<\001\000\000gptObjectInit\000"
 482      00003C01 
 482      00006770 
 482      744F626A 
 482      65637449 
 483 0141 00020000 		.ascii	"\000\002\000\000\000\000\000\000\000\000\000@\001\000"
 483      00000000 
 483      00000040 
 483      0100
 484 014f 006E7669 		.ascii	"\000nvicEnableVector\000\000\002\000\000\000\000\000"
 484      63456E61 
 484      626C6556 
 484      6563746F 
 484      72000002 
 485 0168 00000000 		.ascii	"\000\000\000\000B\001\000\000_port_irq_epilogue\000"
 485      42010000 
 485      5F706F72 
 485      745F6972 
 485      715F6570 
 486 0183 00020000 		.ascii	"\000\002\000\000\000\000\000\000\000\000\000G\001\000"
 486      00000000 
 486      00000047 
 486      0100
 487 0191 00       		.ascii	"\000"
 488              		.text
 489              		.section	.gnu.lto_.opts,"",%progbits
 490 0000 272D6D63 		.ascii	"'-mcpu=cortex-m3' '-mno-thumb-interwork' '-mthumb' "
 490      70753D63 
 490      6F727465 
 490      782D6D33 
 490      2720272D 
 491 0033 272D6767 		.ascii	"'-ggdb' '-O2' '-fomit-frame-pointer' '-falign-funct"
 491      64622720 
 491      272D4F32 
 491      2720272D 
ARM GAS  /tmp/ccqx83oc.s 			page 38


 491      666F6D69 
 492 0066 696F6E73 		.ascii	"ions=16' '-ffunction-sections' '-fdata-sections' '-"
 492      3D313627 
 492      20272D66 
 492      66756E63 
 492      74696F6E 
 493 0099 666E6F2D 		.ascii	"fno-common' '-flto'\000"
 493      636F6D6D 
 493      6F6E2720 
 493      272D666C 
 493      746F2700 
 494              		.text
 495              		.cfi_sections	.debug_frame
 496              		.section	.text.gpt_lld_init,"ax",%progbits
 497              		.align	2
 498              		.p2align 4,,15
 499              		.global	gpt_lld_init
 500              		.thumb
 501              		.thumb_func
 502              		.type	gpt_lld_init, %function
 503              	gpt_lld_init:
 504              	.LFB218:
 505              		.file 1 "../../../os/hal/ports/STM32/LLD/TIMv1/hal_gpt_lld.c"
 506              		.loc 1 406 0
 507              		.cfi_startproc
 508              		@ args = 0, pretend = 0, frame = 0
 509              		@ frame_needed = 0, uses_anonymous_args = 0
 510              		@ link register save eliminated.
 511              		.loc 1 410 0
 512 0000 40F20003 		movw	r3, #:lower16:.LANCHOR0
 513 0004 C0F20003 		movt	r3, #:upper16:.LANCHOR0
 514 0008 4FF43052 		mov	r2, #11264
 515 000c C4F20102 		movt	r2, 16385
 516              		.loc 1 411 0
 517 0010 1846     		mov	r0, r3
 518              		.loc 1 410 0
 519 0012 DA60     		str	r2, [r3, #12]
 520              		.loc 1 411 0
 521 0014 FFF7FEBF 		b	gptObjectInit
 522              	.LVL0:
 523              		.cfi_endproc
 524              	.LFE218:
 525              		.size	gpt_lld_init, .-gpt_lld_init
 526 0018 AFF30080 		.section	.text.gpt_lld_start,"ax",%progbits
 526      AFF30080 
 527              		.align	2
 528              		.p2align 4,,15
 529              		.global	gpt_lld_start
 530              		.thumb
 531              		.thumb_func
 532              		.type	gpt_lld_start, %function
 533              	gpt_lld_start:
 534              	.LFB219:
 535              		.loc 1 488 0
 536              		.cfi_startproc
 537              		@ args = 0, pretend = 0, frame = 0
 538              		@ frame_needed = 0, uses_anonymous_args = 0
ARM GAS  /tmp/ccqx83oc.s 			page 39


 539              	.LVL1:
 540              		.loc 1 491 0
 541 0000 0378     		ldrb	r3, [r0]	@ zero_extendqisi2
 542              		.loc 1 488 0
 543 0002 10B5     		push	{r4, lr}
 544              		.cfi_def_cfa_offset 8
 545              		.cfi_offset 4, -8
 546              		.cfi_offset 14, -4
 547              		.loc 1 491 0
 548 0004 012B     		cmp	r3, #1
 549              		.loc 1 488 0
 550 0006 0446     		mov	r4, r0
 551              		.loc 1 491 0
 552 0008 12D0     		beq	.L5
 553              	.LVL2:
 554              	.L3:
 555              		.loc 1 675 0
 556 000a 6268     		ldr	r2, [r4, #4]
 557 000c A168     		ldr	r1, [r4, #8]
 558 000e 1368     		ldr	r3, [r2]
 559              		.loc 1 684 0
 560 0010 D068     		ldr	r0, [r2, #12]
 561              		.loc 1 675 0
 562 0012 B1FBF3F1 		udiv	r1, r1, r3
 563 0016 0139     		subs	r1, r1, #1
 564              		.loc 1 680 0
 565 0018 E368     		ldr	r3, [r4, #12]
 566              		.loc 1 681 0
 567 001a 9468     		ldr	r4, [r2, #8]
 568              	.LVL3:
 569              		.loc 1 675 0
 570 001c 89B2     		uxth	r1, r1
 571              	.LVL4:
 572              		.loc 1 680 0
 573 001e 0022     		movs	r2, #0
 574              		.loc 1 684 0
 575 0020 20F0FF00 		bic	r0, r0, #255
 576              		.loc 1 680 0
 577 0024 1A60     		str	r2, [r3]
 578              		.loc 1 681 0
 579 0026 5C60     		str	r4, [r3, #4]
 580              		.loc 1 682 0
 581 0028 9962     		str	r1, [r3, #40]
 582              		.loc 1 683 0
 583 002a 1A61     		str	r2, [r3, #16]
 584              		.loc 1 684 0
 585 002c D860     		str	r0, [r3, #12]
 586 002e 10BD     		pop	{r4, pc}
 587              	.LVL5:
 588              	.L5:
 589              		.loc 1 494 0
 590 0030 40F20003 		movw	r3, #:lower16:.LANCHOR0
 591 0034 C0F20003 		movt	r3, #:upper16:.LANCHOR0
 592 0038 9842     		cmp	r0, r3
 593 003a E6D1     		bne	.L3
 594              		.loc 1 495 0
 595 003c 4FF48053 		mov	r3, #4096
ARM GAS  /tmp/ccqx83oc.s 			page 40


 596 0040 C4F20203 		movt	r3, 16386
 597 0044 9969     		ldr	r1, [r3, #24]
 598              		.loc 1 496 0
 599 0046 0022     		movs	r2, #0
 600              		.loc 1 495 0
 601 0048 41F40061 		orr	r1, r1, #2048
 602 004c 9961     		str	r1, [r3, #24]
 603              		.loc 1 496 0
 604 004e D968     		ldr	r1, [r3, #12]
 605              		.loc 1 498 0
 606 0050 1920     		movs	r0, #25
 607              	.LVL6:
 608              		.loc 1 496 0
 609 0052 41F40061 		orr	r1, r1, #2048
 610 0056 D960     		str	r1, [r3, #12]
 611 0058 DA60     		str	r2, [r3, #12]
 612              		.loc 1 498 0
 613 005a 0721     		movs	r1, #7
 614 005c FFF7FEFF 		bl	nvicEnableVector
 615              	.LVL7:
 616              		.loc 1 503 0
 617 0060 4FF45853 		mov	r3, #13824
 618 0064 C0F26E13 		movt	r3, 366
 619 0068 A360     		str	r3, [r4, #8]
 620 006a CEE7     		b	.L3
 621              		.cfi_endproc
 622              	.LFE219:
 623              		.size	gpt_lld_start, .-gpt_lld_start
 624 006c AFF30080 		.section	.text.gpt_lld_stop,"ax",%progbits
 625              		.align	2
 626              		.p2align 4,,15
 627              		.global	gpt_lld_stop
 628              		.thumb
 629              		.thumb_func
 630              		.type	gpt_lld_stop, %function
 631              	gpt_lld_stop:
 632              	.LFB220:
 633              		.loc 1 695 0
 634              		.cfi_startproc
 635              		@ args = 0, pretend = 0, frame = 0
 636              		@ frame_needed = 0, uses_anonymous_args = 0
 637              	.LVL8:
 638 0000 08B5     		push	{r3, lr}
 639              		.cfi_def_cfa_offset 8
 640              		.cfi_offset 3, -8
 641              		.cfi_offset 14, -4
 642              		.loc 1 697 0
 643 0002 0378     		ldrb	r3, [r0]	@ zero_extendqisi2
 644 0004 022B     		cmp	r3, #2
 645 0006 00D0     		beq	.L10
 646              	.LVL9:
 647              	.L6:
 648 0008 08BD     		pop	{r3, pc}
 649              	.LVL10:
 650              	.L10:
 651              		.loc 1 703 0
 652 000a 40F20003 		movw	r3, #:lower16:.LANCHOR0
ARM GAS  /tmp/ccqx83oc.s 			page 41


 653              		.loc 1 698 0
 654 000e C268     		ldr	r2, [r0, #12]
 655              		.loc 1 703 0
 656 0010 C0F20003 		movt	r3, #:upper16:.LANCHOR0
 657              		.loc 1 698 0
 658 0014 0021     		movs	r1, #0
 659              		.loc 1 703 0
 660 0016 9842     		cmp	r0, r3
 661              		.loc 1 698 0
 662 0018 1160     		str	r1, [r2]
 663              		.loc 1 699 0
 664 001a D160     		str	r1, [r2, #12]
 665              		.loc 1 700 0
 666 001c 1161     		str	r1, [r2, #16]
 667              		.loc 1 703 0
 668 001e F3D1     		bne	.L6
 669              	.LVL11:
 670              	.LBB6:
 671              	.LBB7:
 672              		.loc 1 705 0
 673 0020 1920     		movs	r0, #25
 674              	.LVL12:
 675 0022 FFF7FEFF 		bl	nvicDisableVector
 676              	.LVL13:
 677              		.loc 1 707 0
 678 0026 4FF48053 		mov	r3, #4096
 679 002a C4F20203 		movt	r3, 16386
 680 002e 9A69     		ldr	r2, [r3, #24]
 681 0030 22F40062 		bic	r2, r2, #2048
 682 0034 9A61     		str	r2, [r3, #24]
 683 0036 E7E7     		b	.L6
 684              	.LBE7:
 685              	.LBE6:
 686              		.cfi_endproc
 687              	.LFE220:
 688              		.size	gpt_lld_stop, .-gpt_lld_stop
 689 0038 AFF30080 		.section	.text.gpt_lld_start_timer,"ax",%progbits
 689      AFF30080 
 690              		.align	2
 691              		.p2align 4,,15
 692              		.global	gpt_lld_start_timer
 693              		.thumb
 694              		.thumb_func
 695              		.type	gpt_lld_start_timer, %function
 696              	gpt_lld_start_timer:
 697              	.LFB221:
 698              		.loc 1 820 0
 699              		.cfi_startproc
 700              		@ args = 0, pretend = 0, frame = 0
 701              		@ frame_needed = 0, uses_anonymous_args = 0
 702              		@ link register save eliminated.
 703              	.LVL14:
 704              		.loc 1 830 0
 705 0000 4268     		ldr	r2, [r0, #4]
 706              		.loc 1 822 0
 707 0002 C368     		ldr	r3, [r0, #12]
 708              		.loc 1 830 0
ARM GAS  /tmp/ccqx83oc.s 			page 42


 709 0004 5068     		ldr	r0, [r2, #4]
 710              	.LVL15:
 711              		.loc 1 820 0
 712 0006 10B4     		push	{r4}
 713              		.cfi_def_cfa_offset 4
 714              		.cfi_offset 4, -4
 715              		.loc 1 824 0
 716 0008 0022     		movs	r2, #0
 717              		.loc 1 823 0
 718 000a 0124     		movs	r4, #1
 719              		.loc 1 822 0
 720 000c D962     		str	r1, [r3, #44]
 721              		.loc 1 823 0
 722 000e 5C61     		str	r4, [r3, #20]
 723              		.loc 1 824 0
 724 0010 5A62     		str	r2, [r3, #36]
 725              		.loc 1 829 0
 726 0012 1A61     		str	r2, [r3, #16]
 727              		.loc 1 830 0
 728 0014 10B1     		cbz	r0, .L12
 729              		.loc 1 831 0
 730 0016 DA68     		ldr	r2, [r3, #12]
 731 0018 2243     		orrs	r2, r2, r4
 732 001a DA60     		str	r2, [r3, #12]
 733              	.L12:
 734              		.loc 1 832 0
 735 001c 8522     		movs	r2, #133
 736 001e 1A60     		str	r2, [r3]
 737              		.loc 1 833 0
 738 0020 5DF8044B 		ldr	r4, [sp], #4
 739 0024 7047     		bx	lr
 740              		.cfi_endproc
 741              	.LFE221:
 742              		.size	gpt_lld_start_timer, .-gpt_lld_start_timer
 743 0026 00BFAFF3 		.section	.text.gpt_lld_stop_timer,"ax",%progbits
 743      0080AFF3 
 743      0080
 744              		.align	2
 745              		.p2align 4,,15
 746              		.global	gpt_lld_stop_timer
 747              		.thumb
 748              		.thumb_func
 749              		.type	gpt_lld_stop_timer, %function
 750              	gpt_lld_stop_timer:
 751              	.LFB222:
 752              		.loc 1 842 0
 753              		.cfi_startproc
 754              		@ args = 0, pretend = 0, frame = 0
 755              		@ frame_needed = 0, uses_anonymous_args = 0
 756              		@ link register save eliminated.
 757              	.LVL16:
 758              		.loc 1 844 0
 759 0000 C368     		ldr	r3, [r0, #12]
 760 0002 0022     		movs	r2, #0
 761 0004 1A60     		str	r2, [r3]
 762              		.loc 1 845 0
 763 0006 1A61     		str	r2, [r3, #16]
ARM GAS  /tmp/ccqx83oc.s 			page 43


 764              		.loc 1 848 0
 765 0008 DA68     		ldr	r2, [r3, #12]
 766 000a 22F0FF02 		bic	r2, r2, #255
 767 000e DA60     		str	r2, [r3, #12]
 768 0010 7047     		bx	lr
 769              		.cfi_endproc
 770              	.LFE222:
 771              		.size	gpt_lld_stop_timer, .-gpt_lld_stop_timer
 772 0012 00BFAFF3 		.section	.text.gpt_lld_polled_delay,"ax",%progbits
 772      0080AFF3 
 772      0080AFF3 
 772      0080
 773              		.align	2
 774              		.p2align 4,,15
 775              		.global	gpt_lld_polled_delay
 776              		.thumb
 777              		.thumb_func
 778              		.type	gpt_lld_polled_delay, %function
 779              	gpt_lld_polled_delay:
 780              	.LFB223:
 781              		.loc 1 862 0
 782              		.cfi_startproc
 783              		@ args = 0, pretend = 0, frame = 0
 784              		@ frame_needed = 0, uses_anonymous_args = 0
 785              		@ link register save eliminated.
 786              	.LVL17:
 787              		.loc 1 864 0
 788 0000 C268     		ldr	r2, [r0, #12]
 789              		.loc 1 862 0
 790 0002 10B4     		push	{r4}
 791              		.cfi_def_cfa_offset 4
 792              		.cfi_offset 4, -4
 793              		.loc 1 866 0
 794 0004 0020     		movs	r0, #0
 795              	.LVL18:
 796              		.loc 1 865 0
 797 0006 0124     		movs	r4, #1
 798              		.loc 1 867 0
 799 0008 0D23     		movs	r3, #13
 800              		.loc 1 864 0
 801 000a D162     		str	r1, [r2, #44]
 802              		.loc 1 865 0
 803 000c 5461     		str	r4, [r2, #20]
 804              		.loc 1 866 0
 805 000e 1061     		str	r0, [r2, #16]
 806              		.loc 1 867 0
 807 0010 1360     		str	r3, [r2]
 808              	.L19:
 809              		.loc 1 868 0 discriminator 1
 810 0012 1369     		ldr	r3, [r2, #16]
 811 0014 DB07     		lsls	r3, r3, #31
 812 0016 FCD5     		bpl	.L19
 813              		.loc 1 870 0
 814 0018 0023     		movs	r3, #0
 815 001a 1361     		str	r3, [r2, #16]
 816              		.loc 1 871 0
 817 001c 5DF8044B 		ldr	r4, [sp], #4
ARM GAS  /tmp/ccqx83oc.s 			page 44


 818 0020 7047     		bx	lr
 819              		.cfi_endproc
 820              	.LFE223:
 821              		.size	gpt_lld_polled_delay, .-gpt_lld_polled_delay
 822 0022 00BFAFF3 		.section	.text.gpt_lld_serve_interrupt,"ax",%progbits
 822      0080AFF3 
 822      0080AFF3 
 822      0080
 823              		.align	2
 824              		.p2align 4,,15
 825              		.global	gpt_lld_serve_interrupt
 826              		.thumb
 827              		.thumb_func
 828              		.type	gpt_lld_serve_interrupt, %function
 829              	gpt_lld_serve_interrupt:
 830              	.LFB224:
 831              		.loc 1 880 0
 832              		.cfi_startproc
 833              		@ args = 0, pretend = 0, frame = 0
 834              		@ frame_needed = 0, uses_anonymous_args = 0
 835              	.LVL19:
 836              		.loc 1 883 0
 837 0000 0178     		ldrb	r1, [r0]	@ zero_extendqisi2
 838              		.loc 1 880 0
 839 0002 08B5     		push	{r3, lr}
 840              		.cfi_def_cfa_offset 8
 841              		.cfi_offset 3, -8
 842              		.cfi_offset 14, -4
 843              		.loc 1 882 0
 844 0004 C368     		ldr	r3, [r0, #12]
 845 0006 0022     		movs	r2, #0
 846              		.loc 1 883 0
 847 0008 0429     		cmp	r1, #4
 848              		.loc 1 882 0
 849 000a 1A61     		str	r2, [r3, #16]
 850              		.loc 1 883 0
 851 000c 07D1     		bne	.L21
 852              		.loc 1 884 0
 853 000e 0221     		movs	r1, #2
 854 0010 0170     		strb	r1, [r0]
 855              	.LVL20:
 856              	.LBB8:
 857              	.LBB9:
 858              		.loc 1 844 0
 859 0012 1A60     		str	r2, [r3]
 860              		.loc 1 845 0
 861 0014 1A61     		str	r2, [r3, #16]
 862              		.loc 1 848 0
 863 0016 DA68     		ldr	r2, [r3, #12]
 864 0018 22F0FF02 		bic	r2, r2, #255
 865 001c DA60     		str	r2, [r3, #12]
 866              	.LVL21:
 867              	.L21:
 868              	.LBE9:
 869              	.LBE8:
 870              		.loc 1 887 0
 871 001e 4368     		ldr	r3, [r0, #4]
ARM GAS  /tmp/ccqx83oc.s 			page 45


 872 0020 5B68     		ldr	r3, [r3, #4]
 873 0022 9847     		blx	r3
 874              	.LVL22:
 875 0024 08BD     		pop	{r3, pc}
 876              		.cfi_endproc
 877              	.LFE224:
 878              		.size	gpt_lld_serve_interrupt, .-gpt_lld_serve_interrupt
 879 0026 00BFAFF3 		.section	.text.VectorA4,"ax",%progbits
 879      0080AFF3 
 879      0080
 880              		.align	2
 881              		.p2align 4,,15
 882              		.global	VectorA4
 883              		.thumb
 884              		.thumb_func
 885              		.type	VectorA4, %function
 886              	VectorA4:
 887              	.LFB217:
 888              		.loc 1 155 0
 889              		.cfi_startproc
 890              		@ args = 0, pretend = 0, frame = 0
 891              		@ frame_needed = 0, uses_anonymous_args = 0
 892 0000 08B5     		push	{r3, lr}
 893              		.cfi_def_cfa_offset 8
 894              		.cfi_offset 3, -8
 895              		.cfi_offset 14, -4
 896              		.loc 1 159 0
 897 0002 40F20000 		movw	r0, #:lower16:.LANCHOR0
 898 0006 C0F20000 		movt	r0, #:upper16:.LANCHOR0
 899 000a FFF7FEFF 		bl	gpt_lld_serve_interrupt
 900              	.LVL23:
 901              		.loc 1 162 0
 902 000e BDE80840 		pop	{r3, lr}
 903              		.loc 1 161 0
 904 0012 FFF7FEBF 		b	_port_irq_epilogue
 905              	.LVL24:
 906              		.cfi_endproc
 907              	.LFE217:
 908              		.size	VectorA4, .-VectorA4
 909              		.global	GPTD1
 910 0016 00BFAFF3 		.section	.bss.GPTD1,"aw",%nobits
 910      0080AFF3 
 910      0080
 911              		.align	2
 912              		.set	.LANCHOR0,. + 0
 913              		.type	GPTD1, %object
 914              		.size	GPTD1, 16
 915              	GPTD1:
 916 0000 00000000 		.space	16
 916      00000000 
 916      00000000 
 916      00000000 
 917              		.text
 918              	.Letext0:
 919              		.file 2 "/home/alex/MentorGraphics/Sourcery_CodeBench_Lite_for_ARM_EABI/arm-none-eabi/include/stdi
 920              		.file 3 "../../../os/common/ports/ARMCMx/compilers/GCC/chtypes.h"
 921              		.file 4 "../../../os/rt/include/chsystypes.h"
ARM GAS  /tmp/ccqx83oc.s 			page 46


 922              		.file 5 "../../../os/rt/include/chschd.h"
 923              		.file 6 "../../../os/common/ext/CMSIS/ST/STM32F1xx/stm32f100xb.h"
 924              		.file 7 "../../../os/common/ports/ARMCMx/chcore.h"
 925              		.file 8 "../../../os/common/ports/ARMCMx/chcore_v7m.h"
 926              		.file 9 "../../../os/hal/ports/STM32/LLD/TIMv1/stm32_tim.h"
 927              		.file 10 "../../../os/rt/include/chtm.h"
 928              		.file 11 "../../../os/rt/include/chsem.h"
 929              		.file 12 "../../../os/rt/include/chmtx.h"
 930              		.file 13 "../../../os/hal/include/hal_gpt.h"
 931              		.file 14 "../../../os/hal/ports/STM32/LLD/TIMv1/hal_gpt_lld.h"
 932              		.file 15 "../../../os/common/ext/CMSIS/include/core_cm3.h"
 933              		.file 16 "../../../os/hal/ports/common/ARMCMx/nvic.h"
 934              		.section	.debug_info,"",%progbits
 935              	.Ldebug_info0:
 936 0000 670B0000 		.4byte	0xb67
 937 0004 0400     		.2byte	0x4
 938 0006 00000000 		.4byte	.Ldebug_abbrev0
 939 000a 04       		.byte	0x4
 940 000b 01       		.uleb128 0x1
 941 000c 9D050000 		.4byte	.LASF138
 942 0010 01       		.byte	0x1
 943 0011 23040000 		.4byte	.LASF139
 944 0015 98030000 		.4byte	.LASF140
 945 0019 00000000 		.4byte	.Ldebug_ranges0+0
 946 001d 00000000 		.4byte	0
 947 0021 00000000 		.4byte	.Ldebug_line0
 948 0025 02       		.uleb128 0x2
 949 0026 04       		.byte	0x4
 950 0027 05       		.byte	0x5
 951 0028 696E7400 		.ascii	"int\000"
 952 002c 03       		.uleb128 0x3
 953 002d 04       		.byte	0x4
 954 002e 07       		.byte	0x7
 955 002f D6010000 		.4byte	.LASF0
 956 0033 03       		.uleb128 0x3
 957 0034 01       		.byte	0x1
 958 0035 06       		.byte	0x6
 959 0036 EE000000 		.4byte	.LASF1
 960 003a 04       		.uleb128 0x4
 961 003b 77060000 		.4byte	.LASF4
 962 003f 02       		.byte	0x2
 963 0040 2A       		.byte	0x2a
 964 0041 45000000 		.4byte	0x45
 965 0045 03       		.uleb128 0x3
 966 0046 01       		.byte	0x1
 967 0047 08       		.byte	0x8
 968 0048 7D040000 		.4byte	.LASF2
 969 004c 03       		.uleb128 0x3
 970 004d 02       		.byte	0x2
 971 004e 05       		.byte	0x5
 972 004f 98040000 		.4byte	.LASF3
 973 0053 04       		.uleb128 0x4
 974 0054 75010000 		.4byte	.LASF5
 975 0058 02       		.byte	0x2
 976 0059 36       		.byte	0x36
 977 005a 5E000000 		.4byte	0x5e
 978 005e 03       		.uleb128 0x3
ARM GAS  /tmp/ccqx83oc.s 			page 47


 979 005f 02       		.byte	0x2
 980 0060 07       		.byte	0x7
 981 0061 6E050000 		.4byte	.LASF6
 982 0065 04       		.uleb128 0x4
 983 0066 75040000 		.4byte	.LASF7
 984 006a 02       		.byte	0x2
 985 006b 4F       		.byte	0x4f
 986 006c 70000000 		.4byte	0x70
 987 0070 03       		.uleb128 0x3
 988 0071 04       		.byte	0x4
 989 0072 05       		.byte	0x5
 990 0073 39010000 		.4byte	.LASF8
 991 0077 04       		.uleb128 0x4
 992 0078 E6040000 		.4byte	.LASF9
 993 007c 02       		.byte	0x2
 994 007d 50       		.byte	0x50
 995 007e 82000000 		.4byte	0x82
 996 0082 03       		.uleb128 0x3
 997 0083 04       		.byte	0x4
 998 0084 07       		.byte	0x7
 999 0085 1F020000 		.4byte	.LASF10
 1000 0089 03       		.uleb128 0x3
 1001 008a 08       		.byte	0x8
 1002 008b 05       		.byte	0x5
 1003 008c 67010000 		.4byte	.LASF11
 1004 0090 04       		.uleb128 0x4
 1005 0091 2A000000 		.4byte	.LASF12
 1006 0095 02       		.byte	0x2
 1007 0096 78       		.byte	0x78
 1008 0097 9B000000 		.4byte	0x9b
 1009 009b 03       		.uleb128 0x3
 1010 009c 08       		.byte	0x8
 1011 009d 07       		.byte	0x7
 1012 009e 6D000000 		.4byte	.LASF13
 1013 00a2 04       		.uleb128 0x4
 1014 00a3 87050000 		.4byte	.LASF14
 1015 00a7 03       		.byte	0x3
 1016 00a8 39       		.byte	0x39
 1017 00a9 77000000 		.4byte	0x77
 1018 00ad 04       		.uleb128 0x4
 1019 00ae 91060000 		.4byte	.LASF15
 1020 00b2 03       		.byte	0x3
 1021 00b3 3C       		.byte	0x3c
 1022 00b4 3A000000 		.4byte	0x3a
 1023 00b8 04       		.uleb128 0x4
 1024 00b9 54010000 		.4byte	.LASF16
 1025 00bd 03       		.byte	0x3
 1026 00be 3D       		.byte	0x3d
 1027 00bf 3A000000 		.4byte	0x3a
 1028 00c3 04       		.uleb128 0x4
 1029 00c4 00040000 		.4byte	.LASF17
 1030 00c8 03       		.byte	0x3
 1031 00c9 3E       		.byte	0x3e
 1032 00ca 3A000000 		.4byte	0x3a
 1033 00ce 04       		.uleb128 0x4
 1034 00cf 57040000 		.4byte	.LASF18
 1035 00d3 03       		.byte	0x3
ARM GAS  /tmp/ccqx83oc.s 			page 48


 1036 00d4 40       		.byte	0x40
 1037 00d5 77000000 		.4byte	0x77
 1038 00d9 04       		.uleb128 0x4
 1039 00da 6C020000 		.4byte	.LASF19
 1040 00de 03       		.byte	0x3
 1041 00df 41       		.byte	0x41
 1042 00e0 65000000 		.4byte	0x65
 1043 00e4 04       		.uleb128 0x4
 1044 00e5 BE020000 		.4byte	.LASF20
 1045 00e9 03       		.byte	0x3
 1046 00ea 43       		.byte	0x43
 1047 00eb 77000000 		.4byte	0x77
 1048 00ef 04       		.uleb128 0x4
 1049 00f0 40030000 		.4byte	.LASF21
 1050 00f4 03       		.byte	0x3
 1051 00f5 45       		.byte	0x45
 1052 00f6 65000000 		.4byte	0x65
 1053 00fa 04       		.uleb128 0x4
 1054 00fb 38050000 		.4byte	.LASF22
 1055 00ff 04       		.byte	0x4
 1056 0100 35       		.byte	0x35
 1057 0101 53000000 		.4byte	0x53
 1058 0105 04       		.uleb128 0x4
 1059 0106 2F050000 		.4byte	.LASF23
 1060 010a 04       		.byte	0x4
 1061 010b 3F       		.byte	0x3f
 1062 010c 10010000 		.4byte	0x110
 1063 0110 05       		.uleb128 0x5
 1064 0111 3D020000 		.4byte	.LASF41
 1065 0115 44       		.byte	0x44
 1066 0116 05       		.byte	0x5
 1067 0117 9A       		.byte	0x9a
 1068 0118 EE010000 		.4byte	0x1ee
 1069 011c 06       		.uleb128 0x6
 1070 011d 51020000 		.4byte	.LASF24
 1071 0121 05       		.byte	0x5
 1072 0122 9B       		.byte	0x9b
 1073 0123 23020000 		.4byte	0x223
 1074 0127 00       		.byte	0
 1075 0128 06       		.uleb128 0x6
 1076 0129 77030000 		.4byte	.LASF25
 1077 012d 05       		.byte	0x5
 1078 012e 9C       		.byte	0x9c
 1079 012f CE000000 		.4byte	0xce
 1080 0133 08       		.byte	0x8
 1081 0134 07       		.uleb128 0x7
 1082 0135 63747800 		.ascii	"ctx\000"
 1083 0139 05       		.byte	0x5
 1084 013a 9D       		.byte	0x9d
 1085 013b F1040000 		.4byte	0x4f1
 1086 013f 0C       		.byte	0xc
 1087 0140 06       		.uleb128 0x6
 1088 0141 D5020000 		.4byte	.LASF26
 1089 0145 05       		.byte	0x5
 1090 0146 9F       		.byte	0x9f
 1091 0147 F9010000 		.4byte	0x1f9
 1092 014b 10       		.byte	0x10
ARM GAS  /tmp/ccqx83oc.s 			page 49


 1093 014c 06       		.uleb128 0x6
 1094 014d 18050000 		.4byte	.LASF27
 1095 0151 05       		.byte	0x5
 1096 0152 A0       		.byte	0xa0
 1097 0153 F9010000 		.4byte	0x1f9
 1098 0157 14       		.byte	0x14
 1099 0158 06       		.uleb128 0x6
 1100 0159 47020000 		.4byte	.LASF28
 1101 015d 05       		.byte	0x5
 1102 015e A7       		.byte	0xa7
 1103 015f 98070000 		.4byte	0x798
 1104 0163 18       		.byte	0x18
 1105 0164 06       		.uleb128 0x6
 1106 0165 0C050000 		.4byte	.LASF29
 1107 0169 05       		.byte	0x5
 1108 016a B0       		.byte	0xb0
 1109 016b AA070000 		.4byte	0x7aa
 1110 016f 1C       		.byte	0x1c
 1111 0170 06       		.uleb128 0x6
 1112 0171 29010000 		.4byte	.LASF30
 1113 0175 05       		.byte	0x5
 1114 0176 B5       		.byte	0xb5
 1115 0177 B8000000 		.4byte	0xb8
 1116 017b 20       		.byte	0x20
 1117 017c 06       		.uleb128 0x6
 1118 017d 7F060000 		.4byte	.LASF31
 1119 0181 05       		.byte	0x5
 1120 0182 B9       		.byte	0xb9
 1121 0183 AD000000 		.4byte	0xad
 1122 0187 21       		.byte	0x21
 1123 0188 06       		.uleb128 0x6
 1124 0189 1E040000 		.4byte	.LASF32
 1125 018d 05       		.byte	0x5
 1126 018e BE       		.byte	0xbe
 1127 018f C3000000 		.4byte	0xc3
 1128 0193 22       		.byte	0x22
 1129 0194 08       		.uleb128 0x8
 1130 0195 7500     		.ascii	"u\000"
 1131 0197 05       		.byte	0x5
 1132 0198 0F01     		.2byte	0x10f
 1133 019a CD060000 		.4byte	0x6cd
 1134 019e 24       		.byte	0x24
 1135 019f 09       		.uleb128 0x9
 1136 01a0 BB010000 		.4byte	.LASF33
 1137 01a4 05       		.byte	0x5
 1138 01a5 1401     		.2byte	0x114
 1139 01a7 FF010000 		.4byte	0x1ff
 1140 01ab 28       		.byte	0x28
 1141 01ac 09       		.uleb128 0x9
 1142 01ad 20010000 		.4byte	.LASF34
 1143 01b1 05       		.byte	0x5
 1144 01b2 1A01     		.2byte	0x11a
 1145 01b4 23020000 		.4byte	0x223
 1146 01b8 2C       		.byte	0x2c
 1147 01b9 09       		.uleb128 0x9
 1148 01ba 72020000 		.4byte	.LASF35
 1149 01be 05       		.byte	0x5
ARM GAS  /tmp/ccqx83oc.s 			page 50


 1150 01bf 2001     		.2byte	0x120
 1151 01c1 E4000000 		.4byte	0xe4
 1152 01c5 34       		.byte	0x34
 1153 01c6 09       		.uleb128 0x9
 1154 01c7 9F060000 		.4byte	.LASF36
 1155 01cb 05       		.byte	0x5
 1156 01cc 2701     		.2byte	0x127
 1157 01ce 92070000 		.4byte	0x792
 1158 01d2 38       		.byte	0x38
 1159 01d3 09       		.uleb128 0x9
 1160 01d4 FA020000 		.4byte	.LASF37
 1161 01d8 05       		.byte	0x5
 1162 01d9 2B01     		.2byte	0x12b
 1163 01db CE000000 		.4byte	0xce
 1164 01df 3C       		.byte	0x3c
 1165 01e0 09       		.uleb128 0x9
 1166 01e1 81050000 		.4byte	.LASF38
 1167 01e5 05       		.byte	0x5
 1168 01e6 3201     		.2byte	0x132
 1169 01e8 D6020000 		.4byte	0x2d6
 1170 01ec 40       		.byte	0x40
 1171 01ed 00       		.byte	0
 1172 01ee 04       		.uleb128 0x4
 1173 01ef 0C030000 		.4byte	.LASF39
 1174 01f3 04       		.byte	0x4
 1175 01f4 44       		.byte	0x44
 1176 01f5 F9010000 		.4byte	0x1f9
 1177 01f9 0A       		.uleb128 0xa
 1178 01fa 04       		.byte	0x4
 1179 01fb 05010000 		.4byte	0x105
 1180 01ff 04       		.uleb128 0x4
 1181 0200 DB020000 		.4byte	.LASF40
 1182 0204 04       		.byte	0x4
 1183 0205 49       		.byte	0x49
 1184 0206 0A020000 		.4byte	0x20a
 1185 020a 05       		.uleb128 0x5
 1186 020b F6040000 		.4byte	.LASF42
 1187 020f 04       		.byte	0x4
 1188 0210 05       		.byte	0x5
 1189 0211 88       		.byte	0x88
 1190 0212 23020000 		.4byte	0x223
 1191 0216 06       		.uleb128 0x6
 1192 0217 18000000 		.4byte	.LASF43
 1193 021b 05       		.byte	0x5
 1194 021c 89       		.byte	0x89
 1195 021d F9010000 		.4byte	0x1f9
 1196 0221 00       		.byte	0
 1197 0222 00       		.byte	0
 1198 0223 04       		.uleb128 0x4
 1199 0224 40060000 		.4byte	.LASF44
 1200 0228 04       		.byte	0x4
 1201 0229 50       		.byte	0x50
 1202 022a 2E020000 		.4byte	0x22e
 1203 022e 05       		.uleb128 0x5
 1204 022f 4D000000 		.4byte	.LASF45
 1205 0233 08       		.byte	0x8
 1206 0234 05       		.byte	0x5
ARM GAS  /tmp/ccqx83oc.s 			page 51


 1207 0235 8F       		.byte	0x8f
 1208 0236 53020000 		.4byte	0x253
 1209 023a 06       		.uleb128 0x6
 1210 023b 18000000 		.4byte	.LASF43
 1211 023f 05       		.byte	0x5
 1212 0240 90       		.byte	0x90
 1213 0241 F9010000 		.4byte	0x1f9
 1214 0245 00       		.byte	0
 1215 0246 06       		.uleb128 0x6
 1216 0247 3C000000 		.4byte	.LASF46
 1217 024b 05       		.byte	0x5
 1218 024c 91       		.byte	0x91
 1219 024d F9010000 		.4byte	0x1f9
 1220 0251 04       		.byte	0x4
 1221 0252 00       		.byte	0
 1222 0253 04       		.uleb128 0x4
 1223 0254 00000000 		.4byte	.LASF47
 1224 0258 04       		.byte	0x4
 1225 0259 57       		.byte	0x57
 1226 025a 5E020000 		.4byte	0x25e
 1227 025e 0B       		.uleb128 0xb
 1228 025f B0020000 		.4byte	.LASF48
 1229 0263 1C       		.byte	0x1c
 1230 0264 05       		.byte	0x5
 1231 0265 6A01     		.2byte	0x16a
 1232 0267 BA020000 		.4byte	0x2ba
 1233 026b 09       		.uleb128 0x9
 1234 026c 51020000 		.4byte	.LASF24
 1235 0270 05       		.byte	0x5
 1236 0271 6B01     		.2byte	0x16b
 1237 0273 23020000 		.4byte	0x223
 1238 0277 00       		.byte	0
 1239 0278 09       		.uleb128 0x9
 1240 0279 77030000 		.4byte	.LASF25
 1241 027d 05       		.byte	0x5
 1242 027e 6C01     		.2byte	0x16c
 1243 0280 CE000000 		.4byte	0xce
 1244 0284 08       		.byte	0x8
 1245 0285 08       		.uleb128 0x8
 1246 0286 63747800 		.ascii	"ctx\000"
 1247 028a 05       		.byte	0x5
 1248 028b 6E01     		.2byte	0x16e
 1249 028d F1040000 		.4byte	0x4f1
 1250 0291 0C       		.byte	0xc
 1251 0292 09       		.uleb128 0x9
 1252 0293 D5020000 		.4byte	.LASF26
 1253 0297 05       		.byte	0x5
 1254 0298 7101     		.2byte	0x171
 1255 029a F9010000 		.4byte	0x1f9
 1256 029e 10       		.byte	0x10
 1257 029f 09       		.uleb128 0x9
 1258 02a0 18050000 		.4byte	.LASF27
 1259 02a4 05       		.byte	0x5
 1260 02a5 7201     		.2byte	0x172
 1261 02a7 F9010000 		.4byte	0x1f9
 1262 02ab 14       		.byte	0x14
 1263 02ac 09       		.uleb128 0x9
ARM GAS  /tmp/ccqx83oc.s 			page 52


 1264 02ad 90030000 		.4byte	.LASF49
 1265 02b1 05       		.byte	0x5
 1266 02b2 7501     		.2byte	0x175
 1267 02b4 F9010000 		.4byte	0x1f9
 1268 02b8 18       		.byte	0x18
 1269 02b9 00       		.byte	0
 1270 02ba 04       		.uleb128 0x4
 1271 02bb 42050000 		.4byte	.LASF50
 1272 02bf 04       		.byte	0x4
 1273 02c0 5C       		.byte	0x5c
 1274 02c1 C5020000 		.4byte	0x2c5
 1275 02c5 0A       		.uleb128 0xa
 1276 02c6 04       		.byte	0x4
 1277 02c7 CB020000 		.4byte	0x2cb
 1278 02cb 0C       		.uleb128 0xc
 1279 02cc D6020000 		.4byte	0x2d6
 1280 02d0 0D       		.uleb128 0xd
 1281 02d1 D6020000 		.4byte	0x2d6
 1282 02d5 00       		.byte	0
 1283 02d6 0E       		.uleb128 0xe
 1284 02d7 04       		.byte	0x4
 1285 02d8 04       		.uleb128 0x4
 1286 02d9 EA020000 		.4byte	.LASF51
 1287 02dd 04       		.byte	0x4
 1288 02de 61       		.byte	0x61
 1289 02df E3020000 		.4byte	0x2e3
 1290 02e3 0B       		.uleb128 0xb
 1291 02e4 BA040000 		.4byte	.LASF52
 1292 02e8 14       		.byte	0x14
 1293 02e9 05       		.byte	0x5
 1294 02ea 4501     		.2byte	0x145
 1295 02ec 32030000 		.4byte	0x332
 1296 02f0 09       		.uleb128 0x9
 1297 02f1 18000000 		.4byte	.LASF43
 1298 02f5 05       		.byte	0x5
 1299 02f6 4601     		.2byte	0x146
 1300 02f8 B0070000 		.4byte	0x7b0
 1301 02fc 00       		.byte	0
 1302 02fd 09       		.uleb128 0x9
 1303 02fe 3C000000 		.4byte	.LASF46
 1304 0302 05       		.byte	0x5
 1305 0303 4701     		.2byte	0x147
 1306 0305 B0070000 		.4byte	0x7b0
 1307 0309 04       		.byte	0x4
 1308 030a 09       		.uleb128 0x9
 1309 030b 1D000000 		.4byte	.LASF53
 1310 030f 05       		.byte	0x5
 1311 0310 4801     		.2byte	0x148
 1312 0312 FA000000 		.4byte	0xfa
 1313 0316 08       		.byte	0x8
 1314 0317 09       		.uleb128 0x9
 1315 0318 5D010000 		.4byte	.LASF54
 1316 031c 05       		.byte	0x5
 1317 031d 4901     		.2byte	0x149
 1318 031f BA020000 		.4byte	0x2ba
 1319 0323 0C       		.byte	0xc
 1320 0324 08       		.uleb128 0x8
ARM GAS  /tmp/ccqx83oc.s 			page 53


 1321 0325 70617200 		.ascii	"par\000"
 1322 0329 05       		.byte	0x5
 1323 032a 4B01     		.2byte	0x14b
 1324 032c D6020000 		.4byte	0x2d6
 1325 0330 10       		.byte	0x10
 1326 0331 00       		.byte	0
 1327 0332 04       		.uleb128 0x4
 1328 0333 A0000000 		.4byte	.LASF55
 1329 0337 04       		.byte	0x4
 1330 0338 66       		.byte	0x66
 1331 0339 3D030000 		.4byte	0x33d
 1332 033d 0B       		.uleb128 0xb
 1333 033e 1F030000 		.4byte	.LASF56
 1334 0342 0C       		.byte	0xc
 1335 0343 05       		.byte	0x5
 1336 0344 5501     		.2byte	0x155
 1337 0346 7F030000 		.4byte	0x37f
 1338 034a 09       		.uleb128 0x9
 1339 034b 18000000 		.4byte	.LASF43
 1340 034f 05       		.byte	0x5
 1341 0350 5601     		.2byte	0x156
 1342 0352 B0070000 		.4byte	0x7b0
 1343 0356 00       		.byte	0
 1344 0357 09       		.uleb128 0x9
 1345 0358 3C000000 		.4byte	.LASF46
 1346 035c 05       		.byte	0x5
 1347 035d 5801     		.2byte	0x158
 1348 035f B0070000 		.4byte	0x7b0
 1349 0363 04       		.byte	0x4
 1350 0364 09       		.uleb128 0x9
 1351 0365 1D000000 		.4byte	.LASF53
 1352 0369 05       		.byte	0x5
 1353 036a 5A01     		.2byte	0x15a
 1354 036c FA000000 		.4byte	0xfa
 1355 0370 08       		.byte	0x8
 1356 0371 09       		.uleb128 0x9
 1357 0372 A2040000 		.4byte	.LASF57
 1358 0376 05       		.byte	0x5
 1359 0377 6201     		.2byte	0x162
 1360 0379 FA000000 		.4byte	0xfa
 1361 037d 0A       		.byte	0xa
 1362 037e 00       		.byte	0
 1363 037f 04       		.uleb128 0x4
 1364 0380 5E000000 		.4byte	.LASF58
 1365 0384 04       		.byte	0x4
 1366 0385 6B       		.byte	0x6b
 1367 0386 8A030000 		.4byte	0x38a
 1368 038a 0B       		.uleb128 0xb
 1369 038b 5F040000 		.4byte	.LASF59
 1370 038f 04       		.byte	0x4
 1371 0390 05       		.byte	0x5
 1372 0391 7C01     		.2byte	0x17c
 1373 0393 A5030000 		.4byte	0x3a5
 1374 0397 09       		.uleb128 0x9
 1375 0398 4B050000 		.4byte	.LASF60
 1376 039c 05       		.byte	0x5
 1377 039d 8401     		.2byte	0x184
ARM GAS  /tmp/ccqx83oc.s 			page 54


 1378 039f B6070000 		.4byte	0x7b6
 1379 03a3 00       		.byte	0
 1380 03a4 00       		.byte	0
 1381 03a5 04       		.uleb128 0x4
 1382 03a6 7E010000 		.4byte	.LASF61
 1383 03aa 04       		.byte	0x4
 1384 03ab 70       		.byte	0x70
 1385 03ac B0030000 		.4byte	0x3b0
 1386 03b0 0B       		.uleb128 0xb
 1387 03b1 2F010000 		.4byte	.LASF62
 1388 03b5 74       		.byte	0x74
 1389 03b6 05       		.byte	0x5
 1390 03b7 9C01     		.2byte	0x19c
 1391 03b9 FE030000 		.4byte	0x3fe
 1392 03bd 09       		.uleb128 0x9
 1393 03be 6B060000 		.4byte	.LASF63
 1394 03c2 05       		.byte	0x5
 1395 03c3 A001     		.2byte	0x1a0
 1396 03c5 53020000 		.4byte	0x253
 1397 03c9 00       		.byte	0
 1398 03ca 09       		.uleb128 0x9
 1399 03cb B4010000 		.4byte	.LASF64
 1400 03cf 05       		.byte	0x5
 1401 03d0 A401     		.2byte	0x1a4
 1402 03d2 32030000 		.4byte	0x332
 1403 03d6 1C       		.byte	0x1c
 1404 03d7 08       		.uleb128 0x8
 1405 03d8 64626700 		.ascii	"dbg\000"
 1406 03dc 05       		.byte	0x5
 1407 03dd A801     		.2byte	0x1a8
 1408 03df 7F030000 		.4byte	0x37f
 1409 03e3 28       		.byte	0x28
 1410 03e4 09       		.uleb128 0x9
 1411 03e5 8D000000 		.4byte	.LASF65
 1412 03e9 05       		.byte	0x5
 1413 03ea AC01     		.2byte	0x1ac
 1414 03ec 05010000 		.4byte	0x105
 1415 03f0 2C       		.byte	0x2c
 1416 03f1 08       		.uleb128 0x8
 1417 03f2 746D00   		.ascii	"tm\000"
 1418 03f5 05       		.byte	0x5
 1419 03f6 B101     		.2byte	0x1b1
 1420 03f8 C2060000 		.4byte	0x6c2
 1421 03fc 70       		.byte	0x70
 1422 03fd 00       		.byte	0
 1423 03fe 03       		.uleb128 0x3
 1424 03ff 04       		.byte	0x4
 1425 0400 07       		.byte	0x7
 1426 0401 03030000 		.4byte	.LASF66
 1427 0405 0F       		.uleb128 0xf
 1428 0406 77000000 		.4byte	0x77
 1429 040a 10       		.uleb128 0x10
 1430 040b 77000000 		.4byte	0x77
 1431 040f 1A040000 		.4byte	0x41a
 1432 0413 11       		.uleb128 0x11
 1433 0414 FE030000 		.4byte	0x3fe
 1434 0418 01       		.byte	0x1
ARM GAS  /tmp/ccqx83oc.s 			page 55


 1435 0419 00       		.byte	0
 1436 041a 10       		.uleb128 0x10
 1437 041b 77000000 		.4byte	0x77
 1438 041f 2A040000 		.4byte	0x42a
 1439 0423 11       		.uleb128 0x11
 1440 0424 FE030000 		.4byte	0x3fe
 1441 0428 03       		.byte	0x3
 1442 0429 00       		.byte	0
 1443 042a 12       		.uleb128 0x12
 1444 042b 30       		.byte	0x30
 1445 042c 06       		.byte	0x6
 1446 042d 9D01     		.2byte	0x19d
 1447 042f CF040000 		.4byte	0x4cf
 1448 0433 08       		.uleb128 0x8
 1449 0434 435200   		.ascii	"CR\000"
 1450 0437 06       		.byte	0x6
 1451 0438 9F01     		.2byte	0x19f
 1452 043a 05040000 		.4byte	0x405
 1453 043e 00       		.byte	0
 1454 043f 09       		.uleb128 0x9
 1455 0440 8C060000 		.4byte	.LASF67
 1456 0444 06       		.byte	0x6
 1457 0445 A001     		.2byte	0x1a0
 1458 0447 05040000 		.4byte	0x405
 1459 044b 04       		.byte	0x4
 1460 044c 08       		.uleb128 0x8
 1461 044d 43495200 		.ascii	"CIR\000"
 1462 0451 06       		.byte	0x6
 1463 0452 A101     		.2byte	0x1a1
 1464 0454 05040000 		.4byte	0x405
 1465 0458 08       		.byte	0x8
 1466 0459 09       		.uleb128 0x9
 1467 045a 4B010000 		.4byte	.LASF68
 1468 045e 06       		.byte	0x6
 1469 045f A201     		.2byte	0x1a2
 1470 0461 05040000 		.4byte	0x405
 1471 0465 0C       		.byte	0xc
 1472 0466 09       		.uleb128 0x9
 1473 0467 FA000000 		.4byte	.LASF69
 1474 046b 06       		.byte	0x6
 1475 046c A301     		.2byte	0x1a3
 1476 046e 05040000 		.4byte	0x405
 1477 0472 10       		.byte	0x10
 1478 0473 09       		.uleb128 0x9
 1479 0474 A7060000 		.4byte	.LASF70
 1480 0478 06       		.byte	0x6
 1481 0479 A401     		.2byte	0x1a4
 1482 047b 05040000 		.4byte	0x405
 1483 047f 14       		.byte	0x14
 1484 0480 09       		.uleb128 0x9
 1485 0481 B2040000 		.4byte	.LASF71
 1486 0485 06       		.byte	0x6
 1487 0486 A501     		.2byte	0x1a5
 1488 0488 05040000 		.4byte	0x405
 1489 048c 18       		.byte	0x18
 1490 048d 09       		.uleb128 0x9
 1491 048e 5C050000 		.4byte	.LASF72
ARM GAS  /tmp/ccqx83oc.s 			page 56


 1492 0492 06       		.byte	0x6
 1493 0493 A601     		.2byte	0x1a6
 1494 0495 05040000 		.4byte	0x405
 1495 0499 1C       		.byte	0x1c
 1496 049a 09       		.uleb128 0x9
 1497 049b 66060000 		.4byte	.LASF73
 1498 049f 06       		.byte	0x6
 1499 04a0 A701     		.2byte	0x1a7
 1500 04a2 05040000 		.4byte	0x405
 1501 04a6 20       		.byte	0x20
 1502 04a7 08       		.uleb128 0x8
 1503 04a8 43535200 		.ascii	"CSR\000"
 1504 04ac 06       		.byte	0x6
 1505 04ad A801     		.2byte	0x1a8
 1506 04af 05040000 		.4byte	0x405
 1507 04b3 24       		.byte	0x24
 1508 04b4 09       		.uleb128 0x9
 1509 04b5 08040000 		.4byte	.LASF74
 1510 04b9 06       		.byte	0x6
 1511 04ba AB01     		.2byte	0x1ab
 1512 04bc 77000000 		.4byte	0x77
 1513 04c0 28       		.byte	0x28
 1514 04c1 09       		.uleb128 0x9
 1515 04c2 71060000 		.4byte	.LASF75
 1516 04c6 06       		.byte	0x6
 1517 04c7 AC01     		.2byte	0x1ac
 1518 04c9 05040000 		.4byte	0x405
 1519 04cd 2C       		.byte	0x2c
 1520 04ce 00       		.byte	0
 1521 04cf 13       		.uleb128 0x13
 1522 04d0 31020000 		.4byte	.LASF76
 1523 04d4 06       		.byte	0x6
 1524 04d5 AD01     		.2byte	0x1ad
 1525 04d7 2A040000 		.4byte	0x42a
 1526 04db 04       		.uleb128 0x4
 1527 04dc AB010000 		.4byte	.LASF77
 1528 04e0 07       		.byte	0x7
 1529 04e1 65       		.byte	0x65
 1530 04e2 D6020000 		.4byte	0x2d6
 1531 04e6 04       		.uleb128 0x4
 1532 04e7 CA020000 		.4byte	.LASF78
 1533 04eb 07       		.byte	0x7
 1534 04ec 6D       		.byte	0x6d
 1535 04ed 90000000 		.4byte	0x90
 1536 04f1 05       		.uleb128 0x5
 1537 04f2 59030000 		.4byte	.LASF79
 1538 04f6 04       		.byte	0x4
 1539 04f7 07       		.byte	0x7
 1540 04f8 89       		.byte	0x89
 1541 04f9 09050000 		.4byte	0x509
 1542 04fd 07       		.uleb128 0x7
 1543 04fe 737000   		.ascii	"sp\000"
 1544 0501 07       		.byte	0x7
 1545 0502 8A       		.byte	0x8a
 1546 0503 85050000 		.4byte	0x585
 1547 0507 00       		.byte	0
 1548 0508 00       		.byte	0
ARM GAS  /tmp/ccqx83oc.s 			page 57


 1549 0509 0B       		.uleb128 0xb
 1550 050a 12040000 		.4byte	.LASF80
 1551 050e 24       		.byte	0x24
 1552 050f 08       		.byte	0x8
 1553 0510 5901     		.2byte	0x159
 1554 0512 85050000 		.4byte	0x585
 1555 0516 08       		.uleb128 0x8
 1556 0517 723400   		.ascii	"r4\000"
 1557 051a 08       		.byte	0x8
 1558 051b 6C01     		.2byte	0x16c
 1559 051d DB040000 		.4byte	0x4db
 1560 0521 00       		.byte	0
 1561 0522 08       		.uleb128 0x8
 1562 0523 723500   		.ascii	"r5\000"
 1563 0526 08       		.byte	0x8
 1564 0527 6D01     		.2byte	0x16d
 1565 0529 DB040000 		.4byte	0x4db
 1566 052d 04       		.byte	0x4
 1567 052e 08       		.uleb128 0x8
 1568 052f 723600   		.ascii	"r6\000"
 1569 0532 08       		.byte	0x8
 1570 0533 6E01     		.2byte	0x16e
 1571 0535 DB040000 		.4byte	0x4db
 1572 0539 08       		.byte	0x8
 1573 053a 08       		.uleb128 0x8
 1574 053b 723700   		.ascii	"r7\000"
 1575 053e 08       		.byte	0x8
 1576 053f 6F01     		.2byte	0x16f
 1577 0541 DB040000 		.4byte	0x4db
 1578 0545 0C       		.byte	0xc
 1579 0546 08       		.uleb128 0x8
 1580 0547 723800   		.ascii	"r8\000"
 1581 054a 08       		.byte	0x8
 1582 054b 7001     		.2byte	0x170
 1583 054d DB040000 		.4byte	0x4db
 1584 0551 10       		.byte	0x10
 1585 0552 08       		.uleb128 0x8
 1586 0553 723900   		.ascii	"r9\000"
 1587 0556 08       		.byte	0x8
 1588 0557 7101     		.2byte	0x171
 1589 0559 DB040000 		.4byte	0x4db
 1590 055d 14       		.byte	0x14
 1591 055e 08       		.uleb128 0x8
 1592 055f 72313000 		.ascii	"r10\000"
 1593 0563 08       		.byte	0x8
 1594 0564 7201     		.2byte	0x172
 1595 0566 DB040000 		.4byte	0x4db
 1596 056a 18       		.byte	0x18
 1597 056b 08       		.uleb128 0x8
 1598 056c 72313100 		.ascii	"r11\000"
 1599 0570 08       		.byte	0x8
 1600 0571 7301     		.2byte	0x173
 1601 0573 DB040000 		.4byte	0x4db
 1602 0577 1C       		.byte	0x1c
 1603 0578 08       		.uleb128 0x8
 1604 0579 6C7200   		.ascii	"lr\000"
 1605 057c 08       		.byte	0x8
ARM GAS  /tmp/ccqx83oc.s 			page 58


 1606 057d 7401     		.2byte	0x174
 1607 057f DB040000 		.4byte	0x4db
 1608 0583 20       		.byte	0x20
 1609 0584 00       		.byte	0
 1610 0585 0A       		.uleb128 0xa
 1611 0586 04       		.byte	0x4
 1612 0587 09050000 		.4byte	0x509
 1613 058b 12       		.uleb128 0x12
 1614 058c 60       		.byte	0x60
 1615 058d 09       		.byte	0x9
 1616 058e A101     		.2byte	0x1a1
 1617 0590 97060000 		.4byte	0x697
 1618 0594 08       		.uleb128 0x8
 1619 0595 43523100 		.ascii	"CR1\000"
 1620 0599 09       		.byte	0x9
 1621 059a A201     		.2byte	0x1a2
 1622 059c 05040000 		.4byte	0x405
 1623 05a0 00       		.byte	0
 1624 05a1 08       		.uleb128 0x8
 1625 05a2 43523200 		.ascii	"CR2\000"
 1626 05a6 09       		.byte	0x9
 1627 05a7 A301     		.2byte	0x1a3
 1628 05a9 05040000 		.4byte	0x405
 1629 05ad 04       		.byte	0x4
 1630 05ae 09       		.uleb128 0x9
 1631 05af 1E050000 		.4byte	.LASF81
 1632 05b3 09       		.byte	0x9
 1633 05b4 A401     		.2byte	0x1a4
 1634 05b6 05040000 		.4byte	0x405
 1635 05ba 08       		.byte	0x8
 1636 05bb 09       		.uleb128 0x9
 1637 05bc 0D000000 		.4byte	.LASF82
 1638 05c0 09       		.byte	0x9
 1639 05c1 A501     		.2byte	0x1a5
 1640 05c3 05040000 		.4byte	0x405
 1641 05c7 0C       		.byte	0xc
 1642 05c8 08       		.uleb128 0x8
 1643 05c9 535200   		.ascii	"SR\000"
 1644 05cc 09       		.byte	0x9
 1645 05cd A601     		.2byte	0x1a6
 1646 05cf 05040000 		.4byte	0x405
 1647 05d3 10       		.byte	0x10
 1648 05d4 08       		.uleb128 0x8
 1649 05d5 45475200 		.ascii	"EGR\000"
 1650 05d9 09       		.byte	0x9
 1651 05da A701     		.2byte	0x1a7
 1652 05dc 05040000 		.4byte	0x405
 1653 05e0 14       		.byte	0x14
 1654 05e1 09       		.uleb128 0x9
 1655 05e2 DC000000 		.4byte	.LASF83
 1656 05e6 09       		.byte	0x9
 1657 05e7 A801     		.2byte	0x1a8
 1658 05e9 05040000 		.4byte	0x405
 1659 05ed 18       		.byte	0x18
 1660 05ee 09       		.uleb128 0x9
 1661 05ef E2000000 		.4byte	.LASF84
 1662 05f3 09       		.byte	0x9
ARM GAS  /tmp/ccqx83oc.s 			page 59


 1663 05f4 A901     		.2byte	0x1a9
 1664 05f6 05040000 		.4byte	0x405
 1665 05fa 1C       		.byte	0x1c
 1666 05fb 09       		.uleb128 0x9
 1667 05fc 62010000 		.4byte	.LASF85
 1668 0600 09       		.byte	0x9
 1669 0601 AA01     		.2byte	0x1aa
 1670 0603 05040000 		.4byte	0x405
 1671 0607 20       		.byte	0x20
 1672 0608 08       		.uleb128 0x8
 1673 0609 434E5400 		.ascii	"CNT\000"
 1674 060d 09       		.byte	0x9
 1675 060e AB01     		.2byte	0x1ab
 1676 0610 05040000 		.4byte	0x405
 1677 0614 24       		.byte	0x24
 1678 0615 08       		.uleb128 0x8
 1679 0616 50534300 		.ascii	"PSC\000"
 1680 061a 09       		.byte	0x9
 1681 061b AC01     		.2byte	0x1ac
 1682 061d 05040000 		.4byte	0x405
 1683 0621 28       		.byte	0x28
 1684 0622 08       		.uleb128 0x8
 1685 0623 41525200 		.ascii	"ARR\000"
 1686 0627 09       		.byte	0x9
 1687 0628 AD01     		.2byte	0x1ad
 1688 062a 05040000 		.4byte	0x405
 1689 062e 2C       		.byte	0x2c
 1690 062f 08       		.uleb128 0x8
 1691 0630 52435200 		.ascii	"RCR\000"
 1692 0634 09       		.byte	0x9
 1693 0635 AE01     		.2byte	0x1ae
 1694 0637 05040000 		.4byte	0x405
 1695 063b 30       		.byte	0x30
 1696 063c 08       		.uleb128 0x8
 1697 063d 43435200 		.ascii	"CCR\000"
 1698 0641 09       		.byte	0x9
 1699 0642 AF01     		.2byte	0x1af
 1700 0644 97060000 		.4byte	0x697
 1701 0648 34       		.byte	0x34
 1702 0649 09       		.uleb128 0x9
 1703 064a BC000000 		.4byte	.LASF86
 1704 064e 09       		.byte	0x9
 1705 064f B001     		.2byte	0x1b0
 1706 0651 05040000 		.4byte	0x405
 1707 0655 44       		.byte	0x44
 1708 0656 08       		.uleb128 0x8
 1709 0657 44435200 		.ascii	"DCR\000"
 1710 065b 09       		.byte	0x9
 1711 065c B101     		.2byte	0x1b1
 1712 065e 05040000 		.4byte	0x405
 1713 0662 48       		.byte	0x48
 1714 0663 09       		.uleb128 0x9
 1715 0664 2A050000 		.4byte	.LASF87
 1716 0668 09       		.byte	0x9
 1717 0669 B201     		.2byte	0x1b2
 1718 066b 05040000 		.4byte	0x405
 1719 066f 4C       		.byte	0x4c
ARM GAS  /tmp/ccqx83oc.s 			page 60


 1720 0670 08       		.uleb128 0x8
 1721 0671 4F5200   		.ascii	"OR\000"
 1722 0674 09       		.byte	0x9
 1723 0675 B301     		.2byte	0x1b3
 1724 0677 05040000 		.4byte	0x405
 1725 067b 50       		.byte	0x50
 1726 067c 09       		.uleb128 0x9
 1727 067d E8000000 		.4byte	.LASF88
 1728 0681 09       		.byte	0x9
 1729 0682 B401     		.2byte	0x1b4
 1730 0684 05040000 		.4byte	0x405
 1731 0688 54       		.byte	0x54
 1732 0689 09       		.uleb128 0x9
 1733 068a D8040000 		.4byte	.LASF89
 1734 068e 09       		.byte	0x9
 1735 068f B501     		.2byte	0x1b5
 1736 0691 9C060000 		.4byte	0x69c
 1737 0695 58       		.byte	0x58
 1738 0696 00       		.byte	0
 1739 0697 0F       		.uleb128 0xf
 1740 0698 1A040000 		.4byte	0x41a
 1741 069c 0F       		.uleb128 0xf
 1742 069d 0A040000 		.4byte	0x40a
 1743 06a1 13       		.uleb128 0x13
 1744 06a2 A4020000 		.4byte	.LASF90
 1745 06a6 09       		.byte	0x9
 1746 06a7 B601     		.2byte	0x1b6
 1747 06a9 8B050000 		.4byte	0x58b
 1748 06ad 14       		.uleb128 0x14
 1749 06ae 04       		.byte	0x4
 1750 06af 0A       		.byte	0xa
 1751 06b0 38       		.byte	0x38
 1752 06b1 C2060000 		.4byte	0x6c2
 1753 06b5 06       		.uleb128 0x6
 1754 06b6 55050000 		.4byte	.LASF91
 1755 06ba 0A       		.byte	0xa
 1756 06bb 3C       		.byte	0x3c
 1757 06bc A2000000 		.4byte	0xa2
 1758 06c0 00       		.byte	0
 1759 06c1 00       		.byte	0
 1760 06c2 04       		.uleb128 0x4
 1761 06c3 66030000 		.4byte	.LASF92
 1762 06c7 0A       		.byte	0xa
 1763 06c8 3D       		.byte	0x3d
 1764 06c9 AD060000 		.4byte	0x6ad
 1765 06cd 15       		.uleb128 0x15
 1766 06ce 04       		.byte	0x4
 1767 06cf 05       		.byte	0x5
 1768 06d0 D2       		.byte	0xd2
 1769 06d1 30070000 		.4byte	0x730
 1770 06d5 16       		.uleb128 0x16
 1771 06d6 23000000 		.4byte	.LASF93
 1772 06da 05       		.byte	0x5
 1773 06db D9       		.byte	0xd9
 1774 06dc D9000000 		.4byte	0xd9
 1775 06e0 16       		.uleb128 0x16
 1776 06e1 84000000 		.4byte	.LASF94
ARM GAS  /tmp/ccqx83oc.s 			page 61


 1777 06e5 05       		.byte	0x5
 1778 06e6 E0       		.byte	0xe0
 1779 06e7 D9000000 		.4byte	0xd9
 1780 06eb 16       		.uleb128 0x16
 1781 06ec 85060000 		.4byte	.LASF95
 1782 06f0 05       		.byte	0x5
 1783 06f1 E7       		.byte	0xe7
 1784 06f2 D6020000 		.4byte	0x2d6
 1785 06f6 16       		.uleb128 0x16
 1786 06f7 12000000 		.4byte	.LASF96
 1787 06fb 05       		.byte	0x5
 1788 06fc EE       		.byte	0xee
 1789 06fd 30070000 		.4byte	0x730
 1790 0701 16       		.uleb128 0x16
 1791 0702 98000000 		.4byte	.LASF97
 1792 0706 05       		.byte	0x5
 1793 0707 F3       		.byte	0xf3
 1794 0708 D9000000 		.4byte	0xd9
 1795 070c 16       		.uleb128 0x16
 1796 070d 03020000 		.4byte	.LASF98
 1797 0711 05       		.byte	0x5
 1798 0712 FC       		.byte	0xfc
 1799 0713 5B070000 		.4byte	0x75b
 1800 0717 17       		.uleb128 0x17
 1801 0718 EF040000 		.4byte	.LASF99
 1802 071c 05       		.byte	0x5
 1803 071d 0501     		.2byte	0x105
 1804 071f 92070000 		.4byte	0x792
 1805 0723 17       		.uleb128 0x17
 1806 0724 AB040000 		.4byte	.LASF100
 1807 0728 05       		.byte	0x5
 1808 0729 0D01     		.2byte	0x10d
 1809 072b E4000000 		.4byte	0xe4
 1810 072f 00       		.byte	0
 1811 0730 0A       		.uleb128 0xa
 1812 0731 04       		.byte	0x4
 1813 0732 EE010000 		.4byte	0x1ee
 1814 0736 05       		.uleb128 0x5
 1815 0737 CB040000 		.4byte	.LASF101
 1816 073b 0C       		.byte	0xc
 1817 073c 0B       		.byte	0xb
 1818 073d 34       		.byte	0x34
 1819 073e 5B070000 		.4byte	0x75b
 1820 0742 06       		.uleb128 0x6
 1821 0743 51020000 		.4byte	.LASF24
 1822 0747 0B       		.byte	0xb
 1823 0748 35       		.byte	0x35
 1824 0749 23020000 		.4byte	0x223
 1825 074d 00       		.byte	0
 1826 074e 07       		.uleb128 0x7
 1827 074f 636E7400 		.ascii	"cnt\000"
 1828 0753 0B       		.byte	0xb
 1829 0754 37       		.byte	0x37
 1830 0755 EF000000 		.4byte	0xef
 1831 0759 08       		.byte	0x8
 1832 075a 00       		.byte	0
 1833 075b 0A       		.uleb128 0xa
ARM GAS  /tmp/ccqx83oc.s 			page 62


 1834 075c 04       		.byte	0x4
 1835 075d 36070000 		.4byte	0x736
 1836 0761 05       		.uleb128 0x5
 1837 0762 50060000 		.4byte	.LASF102
 1838 0766 10       		.byte	0x10
 1839 0767 0C       		.byte	0xc
 1840 0768 39       		.byte	0x39
 1841 0769 92070000 		.4byte	0x792
 1842 076d 06       		.uleb128 0x6
 1843 076e 51020000 		.4byte	.LASF24
 1844 0772 0C       		.byte	0xc
 1845 0773 3A       		.byte	0x3a
 1846 0774 23020000 		.4byte	0x223
 1847 0778 00       		.byte	0
 1848 0779 06       		.uleb128 0x6
 1849 077a 06050000 		.4byte	.LASF103
 1850 077e 0C       		.byte	0xc
 1851 077f 3C       		.byte	0x3c
 1852 0780 F9010000 		.4byte	0x1f9
 1853 0784 08       		.byte	0x8
 1854 0785 06       		.uleb128 0x6
 1855 0786 18000000 		.4byte	.LASF43
 1856 078a 0C       		.byte	0xc
 1857 078b 3E       		.byte	0x3e
 1858 078c C6070000 		.4byte	0x7c6
 1859 0790 0C       		.byte	0xc
 1860 0791 00       		.byte	0
 1861 0792 0A       		.uleb128 0xa
 1862 0793 04       		.byte	0x4
 1863 0794 61070000 		.4byte	0x761
 1864 0798 0A       		.uleb128 0xa
 1865 0799 04       		.byte	0x4
 1866 079a 9E070000 		.4byte	0x79e
 1867 079e 18       		.uleb128 0x18
 1868 079f A3070000 		.4byte	0x7a3
 1869 07a3 03       		.uleb128 0x3
 1870 07a4 01       		.byte	0x1
 1871 07a5 08       		.byte	0x8
 1872 07a6 13050000 		.4byte	.LASF104
 1873 07aa 0A       		.uleb128 0xa
 1874 07ab 04       		.byte	0x4
 1875 07ac E6040000 		.4byte	0x4e6
 1876 07b0 0A       		.uleb128 0xa
 1877 07b1 04       		.byte	0x4
 1878 07b2 D8020000 		.4byte	0x2d8
 1879 07b6 0F       		.uleb128 0xf
 1880 07b7 98070000 		.4byte	0x798
 1881 07bb 04       		.uleb128 0x4
 1882 07bc C3010000 		.4byte	.LASF105
 1883 07c0 0C       		.byte	0xc
 1884 07c1 34       		.byte	0x34
 1885 07c2 61070000 		.4byte	0x761
 1886 07c6 0A       		.uleb128 0xa
 1887 07c7 04       		.byte	0x4
 1888 07c8 BB070000 		.4byte	0x7bb
 1889 07cc 03       		.uleb128 0x3
 1890 07cd 01       		.byte	0x1
ARM GAS  /tmp/ccqx83oc.s 			page 63


 1891 07ce 02       		.byte	0x2
 1892 07cf 6F040000 		.4byte	.LASF106
 1893 07d3 19       		.uleb128 0x19
 1894 07d4 01       		.byte	0x1
 1895 07d5 0D       		.byte	0xd
 1896 07d6 31       		.byte	0x31
 1897 07d7 FA070000 		.4byte	0x7fa
 1898 07db 1A       		.uleb128 0x1a
 1899 07dc 57020000 		.4byte	.LASF107
 1900 07e0 00       		.sleb128 0
 1901 07e1 1A       		.uleb128 0x1a
 1902 07e2 DD040000 		.4byte	.LASF108
 1903 07e6 01       		.sleb128 1
 1904 07e7 1A       		.uleb128 0x1a
 1905 07e8 36030000 		.4byte	.LASF109
 1906 07ec 02       		.sleb128 2
 1907 07ed 1A       		.uleb128 0x1a
 1908 07ee 03010000 		.4byte	.LASF110
 1909 07f2 03       		.sleb128 3
 1910 07f3 1A       		.uleb128 0x1a
 1911 07f4 41000000 		.4byte	.LASF111
 1912 07f8 04       		.sleb128 4
 1913 07f9 00       		.byte	0
 1914 07fa 04       		.uleb128 0x4
 1915 07fb CB010000 		.4byte	.LASF112
 1916 07ff 0D       		.byte	0xd
 1917 0800 37       		.byte	0x37
 1918 0801 D3070000 		.4byte	0x7d3
 1919 0805 04       		.uleb128 0x4
 1920 0806 A1010000 		.4byte	.LASF113
 1921 080a 0D       		.byte	0xd
 1922 080b 3C       		.byte	0x3c
 1923 080c 10080000 		.4byte	0x810
 1924 0810 0B       		.uleb128 0xb
 1925 0811 A1010000 		.4byte	.LASF113
 1926 0815 10       		.byte	0x10
 1927 0816 0E       		.byte	0xe
 1928 0817 F901     		.2byte	0x1f9
 1929 0819 52080000 		.4byte	0x852
 1930 081d 09       		.uleb128 0x9
 1931 081e 29010000 		.4byte	.LASF30
 1932 0822 0E       		.byte	0xe
 1933 0823 FD01     		.2byte	0x1fd
 1934 0825 FA070000 		.4byte	0x7fa
 1935 0829 00       		.byte	0
 1936 082a 09       		.uleb128 0x9
 1937 082b 23050000 		.4byte	.LASF114
 1938 082f 0E       		.byte	0xe
 1939 0830 0102     		.2byte	0x201
 1940 0832 D6080000 		.4byte	0x8d6
 1941 0836 04       		.byte	0x4
 1942 0837 09       		.uleb128 0x9
 1943 0838 99060000 		.4byte	.LASF115
 1944 083c 0E       		.byte	0xe
 1945 083d 0902     		.2byte	0x209
 1946 083f 77000000 		.4byte	0x77
 1947 0843 08       		.byte	0x8
ARM GAS  /tmp/ccqx83oc.s 			page 64


 1948 0844 08       		.uleb128 0x8
 1949 0845 74696D00 		.ascii	"tim\000"
 1950 0849 0E       		.byte	0xe
 1951 084a 0D02     		.2byte	0x20d
 1952 084c E1080000 		.4byte	0x8e1
 1953 0850 0C       		.byte	0xc
 1954 0851 00       		.byte	0
 1955 0852 04       		.uleb128 0x4
 1956 0853 8A010000 		.4byte	.LASF116
 1957 0857 0D       		.byte	0xd
 1958 0858 43       		.byte	0x43
 1959 0859 5D080000 		.4byte	0x85d
 1960 085d 0A       		.uleb128 0xa
 1961 085e 04       		.byte	0x4
 1962 085f 63080000 		.4byte	0x863
 1963 0863 0C       		.uleb128 0xc
 1964 0864 6E080000 		.4byte	0x86e
 1965 0868 0D       		.uleb128 0xd
 1966 0869 6E080000 		.4byte	0x86e
 1967 086d 00       		.byte	0
 1968 086e 0A       		.uleb128 0xa
 1969 086f 04       		.byte	0x4
 1970 0870 05080000 		.4byte	0x805
 1971 0874 13       		.uleb128 0x13
 1972 0875 62020000 		.4byte	.LASF117
 1973 0879 0E       		.byte	0xe
 1974 087a CF01     		.2byte	0x1cf
 1975 087c 77000000 		.4byte	0x77
 1976 0880 13       		.uleb128 0x13
 1977 0881 42010000 		.4byte	.LASF118
 1978 0885 0E       		.byte	0xe
 1979 0886 D401     		.2byte	0x1d4
 1980 0888 77000000 		.4byte	0x77
 1981 088c 12       		.uleb128 0x12
 1982 088d 10       		.byte	0x10
 1983 088e 0E       		.byte	0xe
 1984 088f DA01     		.2byte	0x1da
 1985 0891 CA080000 		.4byte	0x8ca
 1986 0895 09       		.uleb128 0x9
 1987 0896 C1000000 		.4byte	.LASF119
 1988 089a 0E       		.byte	0xe
 1989 089b E001     		.2byte	0x1e0
 1990 089d 74080000 		.4byte	0x874
 1991 08a1 00       		.byte	0
 1992 08a2 09       		.uleb128 0x9
 1993 08a3 8E020000 		.4byte	.LASF120
 1994 08a7 0E       		.byte	0xe
 1995 08a8 E701     		.2byte	0x1e7
 1996 08aa 52080000 		.4byte	0x852
 1997 08ae 04       		.byte	0x4
 1998 08af 08       		.uleb128 0x8
 1999 08b0 63723200 		.ascii	"cr2\000"
 2000 08b4 0E       		.byte	0xe
 2001 08b5 ED01     		.2byte	0x1ed
 2002 08b7 77000000 		.4byte	0x77
 2003 08bb 08       		.byte	0x8
 2004 08bc 09       		.uleb128 0x9
ARM GAS  /tmp/ccqx83oc.s 			page 65


 2005 08bd AE060000 		.4byte	.LASF121
 2006 08c1 0E       		.byte	0xe
 2007 08c2 F301     		.2byte	0x1f3
 2008 08c4 77000000 		.4byte	0x77
 2009 08c8 0C       		.byte	0xc
 2010 08c9 00       		.byte	0
 2011 08ca 13       		.uleb128 0x13
 2012 08cb 64050000 		.4byte	.LASF122
 2013 08cf 0E       		.byte	0xe
 2014 08d0 F401     		.2byte	0x1f4
 2015 08d2 8C080000 		.4byte	0x88c
 2016 08d6 0A       		.uleb128 0xa
 2017 08d7 04       		.byte	0x4
 2018 08d8 DC080000 		.4byte	0x8dc
 2019 08dc 18       		.uleb128 0x18
 2020 08dd CA080000 		.4byte	0x8ca
 2021 08e1 0A       		.uleb128 0xa
 2022 08e2 04       		.byte	0x4
 2023 08e3 A1060000 		.4byte	0x6a1
 2024 08e7 1B       		.uleb128 0x1b
 2025 08e8 59060000 		.4byte	.LASF123
 2026 08ec 01       		.byte	0x1
 2027 08ed B702     		.2byte	0x2b7
 2028 08ef 01       		.byte	0x1
 2029 08f0 01090000 		.4byte	0x901
 2030 08f4 1C       		.uleb128 0x1c
 2031 08f5 4C020000 		.4byte	.LASF125
 2032 08f9 01       		.byte	0x1
 2033 08fa B702     		.2byte	0x2b7
 2034 08fc 6E080000 		.4byte	0x86e
 2035 0900 00       		.byte	0
 2036 0901 1B       		.uleb128 0x1b
 2037 0902 46030000 		.4byte	.LASF124
 2038 0906 01       		.byte	0x1
 2039 0907 4A03     		.2byte	0x34a
 2040 0909 01       		.byte	0x1
 2041 090a 1B090000 		.4byte	0x91b
 2042 090e 1C       		.uleb128 0x1c
 2043 090f 4C020000 		.4byte	.LASF125
 2044 0913 01       		.byte	0x1
 2045 0914 4A03     		.2byte	0x34a
 2046 0916 6E080000 		.4byte	0x86e
 2047 091a 00       		.byte	0
 2048 091b 1D       		.uleb128 0x1d
 2049 091c 97020000 		.4byte	.LASF126
 2050 0920 01       		.byte	0x1
 2051 0921 9601     		.2byte	0x196
 2052 0923 00000000 		.4byte	.LFB218
 2053 0927 18000000 		.4byte	.LFE218-.LFB218
 2054 092b 01       		.uleb128 0x1
 2055 092c 9C       		.byte	0x9c
 2056 092d 45090000 		.4byte	0x945
 2057 0931 1E       		.uleb128 0x1e
 2058 0932 18000000 		.4byte	.LVL0
 2059 0936 2A0B0000 		.4byte	0xb2a
 2060 093a 1F       		.uleb128 0x1f
 2061 093b 01       		.uleb128 0x1
ARM GAS  /tmp/ccqx83oc.s 			page 66


 2062 093c 50       		.byte	0x50
 2063 093d 05       		.uleb128 0x5
 2064 093e 03       		.byte	0x3
 2065 093f 00000000 		.4byte	.LANCHOR0
 2066 0943 00       		.byte	0
 2067 0944 00       		.byte	0
 2068 0945 1D       		.uleb128 0x1d
 2069 0946 8F050000 		.4byte	.LASF127
 2070 094a 01       		.byte	0x1
 2071 094b E801     		.2byte	0x1e8
 2072 094d 00000000 		.4byte	.LFB219
 2073 0951 6C000000 		.4byte	.LFE219-.LFB219
 2074 0955 01       		.uleb128 0x1
 2075 0956 9C       		.byte	0x9c
 2076 0957 99090000 		.4byte	0x999
 2077 095b 20       		.uleb128 0x20
 2078 095c 4C020000 		.4byte	.LASF125
 2079 0960 01       		.byte	0x1
 2080 0961 E801     		.2byte	0x1e8
 2081 0963 6E080000 		.4byte	0x86e
 2082 0967 00000000 		.4byte	.LLST0
 2083 096b 21       		.uleb128 0x21
 2084 096c 70736300 		.ascii	"psc\000"
 2085 0970 01       		.byte	0x1
 2086 0971 E901     		.2byte	0x1e9
 2087 0973 53000000 		.4byte	0x53
 2088 0977 42000000 		.4byte	.LLST1
 2089 097b 22       		.uleb128 0x22
 2090 097c 12010000 		.4byte	.LASF141
 2091 0980 A9090000 		.4byte	0x9a9
 2092 0984 23       		.uleb128 0x23
 2093 0985 60000000 		.4byte	.LVL7
 2094 0989 3B0B0000 		.4byte	0xb3b
 2095 098d 1F       		.uleb128 0x1f
 2096 098e 01       		.uleb128 0x1
 2097 098f 51       		.byte	0x51
 2098 0990 01       		.uleb128 0x1
 2099 0991 37       		.byte	0x37
 2100 0992 1F       		.uleb128 0x1f
 2101 0993 01       		.uleb128 0x1
 2102 0994 50       		.byte	0x50
 2103 0995 01       		.uleb128 0x1
 2104 0996 49       		.byte	0x49
 2105 0997 00       		.byte	0
 2106 0998 00       		.byte	0
 2107 0999 10       		.uleb128 0x10
 2108 099a A3070000 		.4byte	0x7a3
 2109 099e A9090000 		.4byte	0x9a9
 2110 09a2 11       		.uleb128 0x11
 2111 09a3 FE030000 		.4byte	0x3fe
 2112 09a7 0D       		.byte	0xd
 2113 09a8 00       		.byte	0
 2114 09a9 18       		.uleb128 0x18
 2115 09aa 99090000 		.4byte	0x999
 2116 09ae 24       		.uleb128 0x24
 2117 09af E7080000 		.4byte	0x8e7
 2118 09b3 00000000 		.4byte	.LFB220
ARM GAS  /tmp/ccqx83oc.s 			page 67


 2119 09b7 38000000 		.4byte	.LFE220-.LFB220
 2120 09bb 01       		.uleb128 0x1
 2121 09bc 9C       		.byte	0x9c
 2122 09bd F0090000 		.4byte	0x9f0
 2123 09c1 25       		.uleb128 0x25
 2124 09c2 F4080000 		.4byte	0x8f4
 2125 09c6 55000000 		.4byte	.LLST2
 2126 09ca 26       		.uleb128 0x26
 2127 09cb 20000000 		.4byte	.LBB6
 2128 09cf 18000000 		.4byte	.LBE6-.LBB6
 2129 09d3 27       		.uleb128 0x27
 2130 09d4 F4080000 		.4byte	0x8f4
 2131 09d8 06       		.uleb128 0x6
 2132 09d9 03       		.byte	0x3
 2133 09da 00000000 		.4byte	GPTD1
 2134 09de 9F       		.byte	0x9f
 2135 09df 23       		.uleb128 0x23
 2136 09e0 26000000 		.4byte	.LVL13
 2137 09e4 510B0000 		.4byte	0xb51
 2138 09e8 1F       		.uleb128 0x1f
 2139 09e9 01       		.uleb128 0x1
 2140 09ea 50       		.byte	0x50
 2141 09eb 01       		.uleb128 0x1
 2142 09ec 49       		.byte	0x49
 2143 09ed 00       		.byte	0
 2144 09ee 00       		.byte	0
 2145 09ef 00       		.byte	0
 2146 09f0 1D       		.uleb128 0x1d
 2147 09f1 7C030000 		.4byte	.LASF128
 2148 09f5 01       		.byte	0x1
 2149 09f6 3403     		.2byte	0x334
 2150 09f8 00000000 		.4byte	.LFB221
 2151 09fc 26000000 		.4byte	.LFE221-.LFB221
 2152 0a00 01       		.uleb128 0x1
 2153 0a01 9C       		.byte	0x9c
 2154 0a02 250A0000 		.4byte	0xa25
 2155 0a06 20       		.uleb128 0x20
 2156 0a07 4C020000 		.4byte	.LASF125
 2157 0a0b 01       		.byte	0x1
 2158 0a0c 3403     		.2byte	0x334
 2159 0a0e 6E080000 		.4byte	0x86e
 2160 0a12 8F000000 		.4byte	.LLST3
 2161 0a16 28       		.uleb128 0x28
 2162 0a17 98010000 		.4byte	.LASF129
 2163 0a1b 01       		.byte	0x1
 2164 0a1c 3403     		.2byte	0x334
 2165 0a1e 80080000 		.4byte	0x880
 2166 0a22 01       		.uleb128 0x1
 2167 0a23 51       		.byte	0x51
 2168 0a24 00       		.byte	0
 2169 0a25 24       		.uleb128 0x24
 2170 0a26 01090000 		.4byte	0x901
 2171 0a2a 00000000 		.4byte	.LFB222
 2172 0a2e 12000000 		.4byte	.LFE222-.LFB222
 2173 0a32 01       		.uleb128 0x1
 2174 0a33 9C       		.byte	0x9c
 2175 0a34 400A0000 		.4byte	0xa40
ARM GAS  /tmp/ccqx83oc.s 			page 68


 2176 0a38 27       		.uleb128 0x27
 2177 0a39 0E090000 		.4byte	0x90e
 2178 0a3d 01       		.uleb128 0x1
 2179 0a3e 50       		.byte	0x50
 2180 0a3f 00       		.byte	0
 2181 0a40 1D       		.uleb128 0x1d
 2182 0a41 0A020000 		.4byte	.LASF130
 2183 0a45 01       		.byte	0x1
 2184 0a46 5E03     		.2byte	0x35e
 2185 0a48 00000000 		.4byte	.LFB223
 2186 0a4c 22000000 		.4byte	.LFE223-.LFB223
 2187 0a50 01       		.uleb128 0x1
 2188 0a51 9C       		.byte	0x9c
 2189 0a52 750A0000 		.4byte	0xa75
 2190 0a56 20       		.uleb128 0x20
 2191 0a57 4C020000 		.4byte	.LASF125
 2192 0a5b 01       		.byte	0x1
 2193 0a5c 5E03     		.2byte	0x35e
 2194 0a5e 6E080000 		.4byte	0x86e
 2195 0a62 B0000000 		.4byte	.LLST4
 2196 0a66 28       		.uleb128 0x28
 2197 0a67 98010000 		.4byte	.LASF129
 2198 0a6b 01       		.byte	0x1
 2199 0a6c 5E03     		.2byte	0x35e
 2200 0a6e 80080000 		.4byte	0x880
 2201 0a72 01       		.uleb128 0x1
 2202 0a73 51       		.byte	0x51
 2203 0a74 00       		.byte	0
 2204 0a75 1D       		.uleb128 0x1d
 2205 0a76 E8030000 		.4byte	.LASF131
 2206 0a7a 01       		.byte	0x1
 2207 0a7b 7003     		.2byte	0x370
 2208 0a7d 00000000 		.4byte	.LFB224
 2209 0a81 26000000 		.4byte	.LFE224-.LFB224
 2210 0a85 01       		.uleb128 0x1
 2211 0a86 9C       		.byte	0x9c
 2212 0a87 C70A0000 		.4byte	0xac7
 2213 0a8b 20       		.uleb128 0x20
 2214 0a8c 4C020000 		.4byte	.LASF125
 2215 0a90 01       		.byte	0x1
 2216 0a91 7003     		.2byte	0x370
 2217 0a93 6E080000 		.4byte	0x86e
 2218 0a97 D1000000 		.4byte	.LLST5
 2219 0a9b 29       		.uleb128 0x29
 2220 0a9c 01090000 		.4byte	0x901
 2221 0aa0 12000000 		.4byte	.LBB8
 2222 0aa4 0C000000 		.4byte	.LBE8-.LBB8
 2223 0aa8 01       		.byte	0x1
 2224 0aa9 7503     		.2byte	0x375
 2225 0aab B90A0000 		.4byte	0xab9
 2226 0aaf 25       		.uleb128 0x25
 2227 0ab0 0E090000 		.4byte	0x90e
 2228 0ab4 F2000000 		.4byte	.LLST6
 2229 0ab8 00       		.byte	0
 2230 0ab9 2A       		.uleb128 0x2a
 2231 0aba 24000000 		.4byte	.LVL22
 2232 0abe 1F       		.uleb128 0x1f
ARM GAS  /tmp/ccqx83oc.s 			page 69


 2233 0abf 01       		.uleb128 0x1
 2234 0ac0 50       		.byte	0x50
 2235 0ac1 03       		.uleb128 0x3
 2236 0ac2 F3       		.byte	0xf3
 2237 0ac3 01       		.uleb128 0x1
 2238 0ac4 50       		.byte	0x50
 2239 0ac5 00       		.byte	0
 2240 0ac6 00       		.byte	0
 2241 0ac7 2B       		.uleb128 0x2b
 2242 0ac8 33000000 		.4byte	.LASF132
 2243 0acc 01       		.byte	0x1
 2244 0acd 9B       		.byte	0x9b
 2245 0ace 00000000 		.4byte	.LFB217
 2246 0ad2 16000000 		.4byte	.LFE217-.LFB217
 2247 0ad6 01       		.uleb128 0x1
 2248 0ad7 9C       		.byte	0x9c
 2249 0ad8 FD0A0000 		.4byte	0xafd
 2250 0adc 2C       		.uleb128 0x2c
 2251 0add 0E000000 		.4byte	.LVL23
 2252 0ae1 750A0000 		.4byte	0xa75
 2253 0ae5 F30A0000 		.4byte	0xaf3
 2254 0ae9 1F       		.uleb128 0x1f
 2255 0aea 01       		.uleb128 0x1
 2256 0aeb 50       		.byte	0x50
 2257 0aec 05       		.uleb128 0x5
 2258 0aed 03       		.byte	0x3
 2259 0aee 00000000 		.4byte	.LANCHOR0
 2260 0af2 00       		.byte	0
 2261 0af3 2D       		.uleb128 0x2d
 2262 0af4 16000000 		.4byte	.LVL24
 2263 0af8 620B0000 		.4byte	0xb62
 2264 0afc 00       		.byte	0
 2265 0afd 2E       		.uleb128 0x2e
 2266 0afe 8B040000 		.4byte	.LASF133
 2267 0b02 0F       		.byte	0xf
 2268 0b03 9606     		.2byte	0x696
 2269 0b05 090B0000 		.4byte	0xb09
 2270 0b09 0F       		.uleb128 0xf
 2271 0b0a 65000000 		.4byte	0x65
 2272 0b0e 2F       		.uleb128 0x2f
 2273 0b0f 636800   		.ascii	"ch\000"
 2274 0b12 05       		.byte	0x5
 2275 0b13 D201     		.2byte	0x1d2
 2276 0b15 A5030000 		.4byte	0x3a5
 2277 0b19 30       		.uleb128 0x30
 2278 0b1a B6000000 		.4byte	.LASF134
 2279 0b1e 01       		.byte	0x1
 2280 0b1f 2A       		.byte	0x2a
 2281 0b20 05080000 		.4byte	0x805
 2282 0b24 05       		.uleb128 0x5
 2283 0b25 03       		.byte	0x3
 2284 0b26 00000000 		.4byte	GPTD1
 2285 0b2a 31       		.uleb128 0x31
 2286 0b2b E3010000 		.4byte	.LASF135
 2287 0b2f 0D       		.byte	0xd
 2288 0b30 7A       		.byte	0x7a
 2289 0b31 3B0B0000 		.4byte	0xb3b
ARM GAS  /tmp/ccqx83oc.s 			page 70


 2290 0b35 0D       		.uleb128 0xd
 2291 0b36 6E080000 		.4byte	0x86e
 2292 0b3a 00       		.byte	0
 2293 0b3b 31       		.uleb128 0x31
 2294 0b3c CB000000 		.4byte	.LASF136
 2295 0b40 10       		.byte	0x10
 2296 0b41 4E       		.byte	0x4e
 2297 0b42 510B0000 		.4byte	0xb51
 2298 0b46 0D       		.uleb128 0xd
 2299 0b47 77000000 		.4byte	0x77
 2300 0b4b 0D       		.uleb128 0xd
 2301 0b4c 77000000 		.4byte	0x77
 2302 0b50 00       		.byte	0
 2303 0b51 31       		.uleb128 0x31
 2304 0b52 F1010000 		.4byte	.LASF137
 2305 0b56 10       		.byte	0x10
 2306 0b57 4F       		.byte	0x4f
 2307 0b58 620B0000 		.4byte	0xb62
 2308 0b5c 0D       		.uleb128 0xd
 2309 0b5d 77000000 		.4byte	0x77
 2310 0b61 00       		.byte	0
 2311 0b62 32       		.uleb128 0x32
 2312 0b63 7B020000 		.4byte	.LASF142
 2313 0b67 08       		.byte	0x8
 2314 0b68 EA01     		.2byte	0x1ea
 2315 0b6a 00       		.byte	0
 2316              		.section	.debug_abbrev,"",%progbits
 2317              	.Ldebug_abbrev0:
 2318 0000 01       		.uleb128 0x1
 2319 0001 11       		.uleb128 0x11
 2320 0002 01       		.byte	0x1
 2321 0003 25       		.uleb128 0x25
 2322 0004 0E       		.uleb128 0xe
 2323 0005 13       		.uleb128 0x13
 2324 0006 0B       		.uleb128 0xb
 2325 0007 03       		.uleb128 0x3
 2326 0008 0E       		.uleb128 0xe
 2327 0009 1B       		.uleb128 0x1b
 2328 000a 0E       		.uleb128 0xe
 2329 000b 55       		.uleb128 0x55
 2330 000c 17       		.uleb128 0x17
 2331 000d 11       		.uleb128 0x11
 2332 000e 01       		.uleb128 0x1
 2333 000f 10       		.uleb128 0x10
 2334 0010 17       		.uleb128 0x17
 2335 0011 00       		.byte	0
 2336 0012 00       		.byte	0
 2337 0013 02       		.uleb128 0x2
 2338 0014 24       		.uleb128 0x24
 2339 0015 00       		.byte	0
 2340 0016 0B       		.uleb128 0xb
 2341 0017 0B       		.uleb128 0xb
 2342 0018 3E       		.uleb128 0x3e
 2343 0019 0B       		.uleb128 0xb
 2344 001a 03       		.uleb128 0x3
 2345 001b 08       		.uleb128 0x8
 2346 001c 00       		.byte	0
ARM GAS  /tmp/ccqx83oc.s 			page 71


 2347 001d 00       		.byte	0
 2348 001e 03       		.uleb128 0x3
 2349 001f 24       		.uleb128 0x24
 2350 0020 00       		.byte	0
 2351 0021 0B       		.uleb128 0xb
 2352 0022 0B       		.uleb128 0xb
 2353 0023 3E       		.uleb128 0x3e
 2354 0024 0B       		.uleb128 0xb
 2355 0025 03       		.uleb128 0x3
 2356 0026 0E       		.uleb128 0xe
 2357 0027 00       		.byte	0
 2358 0028 00       		.byte	0
 2359 0029 04       		.uleb128 0x4
 2360 002a 16       		.uleb128 0x16
 2361 002b 00       		.byte	0
 2362 002c 03       		.uleb128 0x3
 2363 002d 0E       		.uleb128 0xe
 2364 002e 3A       		.uleb128 0x3a
 2365 002f 0B       		.uleb128 0xb
 2366 0030 3B       		.uleb128 0x3b
 2367 0031 0B       		.uleb128 0xb
 2368 0032 49       		.uleb128 0x49
 2369 0033 13       		.uleb128 0x13
 2370 0034 00       		.byte	0
 2371 0035 00       		.byte	0
 2372 0036 05       		.uleb128 0x5
 2373 0037 13       		.uleb128 0x13
 2374 0038 01       		.byte	0x1
 2375 0039 03       		.uleb128 0x3
 2376 003a 0E       		.uleb128 0xe
 2377 003b 0B       		.uleb128 0xb
 2378 003c 0B       		.uleb128 0xb
 2379 003d 3A       		.uleb128 0x3a
 2380 003e 0B       		.uleb128 0xb
 2381 003f 3B       		.uleb128 0x3b
 2382 0040 0B       		.uleb128 0xb
 2383 0041 01       		.uleb128 0x1
 2384 0042 13       		.uleb128 0x13
 2385 0043 00       		.byte	0
 2386 0044 00       		.byte	0
 2387 0045 06       		.uleb128 0x6
 2388 0046 0D       		.uleb128 0xd
 2389 0047 00       		.byte	0
 2390 0048 03       		.uleb128 0x3
 2391 0049 0E       		.uleb128 0xe
 2392 004a 3A       		.uleb128 0x3a
 2393 004b 0B       		.uleb128 0xb
 2394 004c 3B       		.uleb128 0x3b
 2395 004d 0B       		.uleb128 0xb
 2396 004e 49       		.uleb128 0x49
 2397 004f 13       		.uleb128 0x13
 2398 0050 38       		.uleb128 0x38
 2399 0051 0B       		.uleb128 0xb
 2400 0052 00       		.byte	0
 2401 0053 00       		.byte	0
 2402 0054 07       		.uleb128 0x7
 2403 0055 0D       		.uleb128 0xd
ARM GAS  /tmp/ccqx83oc.s 			page 72


 2404 0056 00       		.byte	0
 2405 0057 03       		.uleb128 0x3
 2406 0058 08       		.uleb128 0x8
 2407 0059 3A       		.uleb128 0x3a
 2408 005a 0B       		.uleb128 0xb
 2409 005b 3B       		.uleb128 0x3b
 2410 005c 0B       		.uleb128 0xb
 2411 005d 49       		.uleb128 0x49
 2412 005e 13       		.uleb128 0x13
 2413 005f 38       		.uleb128 0x38
 2414 0060 0B       		.uleb128 0xb
 2415 0061 00       		.byte	0
 2416 0062 00       		.byte	0
 2417 0063 08       		.uleb128 0x8
 2418 0064 0D       		.uleb128 0xd
 2419 0065 00       		.byte	0
 2420 0066 03       		.uleb128 0x3
 2421 0067 08       		.uleb128 0x8
 2422 0068 3A       		.uleb128 0x3a
 2423 0069 0B       		.uleb128 0xb
 2424 006a 3B       		.uleb128 0x3b
 2425 006b 05       		.uleb128 0x5
 2426 006c 49       		.uleb128 0x49
 2427 006d 13       		.uleb128 0x13
 2428 006e 38       		.uleb128 0x38
 2429 006f 0B       		.uleb128 0xb
 2430 0070 00       		.byte	0
 2431 0071 00       		.byte	0
 2432 0072 09       		.uleb128 0x9
 2433 0073 0D       		.uleb128 0xd
 2434 0074 00       		.byte	0
 2435 0075 03       		.uleb128 0x3
 2436 0076 0E       		.uleb128 0xe
 2437 0077 3A       		.uleb128 0x3a
 2438 0078 0B       		.uleb128 0xb
 2439 0079 3B       		.uleb128 0x3b
 2440 007a 05       		.uleb128 0x5
 2441 007b 49       		.uleb128 0x49
 2442 007c 13       		.uleb128 0x13
 2443 007d 38       		.uleb128 0x38
 2444 007e 0B       		.uleb128 0xb
 2445 007f 00       		.byte	0
 2446 0080 00       		.byte	0
 2447 0081 0A       		.uleb128 0xa
 2448 0082 0F       		.uleb128 0xf
 2449 0083 00       		.byte	0
 2450 0084 0B       		.uleb128 0xb
 2451 0085 0B       		.uleb128 0xb
 2452 0086 49       		.uleb128 0x49
 2453 0087 13       		.uleb128 0x13
 2454 0088 00       		.byte	0
 2455 0089 00       		.byte	0
 2456 008a 0B       		.uleb128 0xb
 2457 008b 13       		.uleb128 0x13
 2458 008c 01       		.byte	0x1
 2459 008d 03       		.uleb128 0x3
 2460 008e 0E       		.uleb128 0xe
ARM GAS  /tmp/ccqx83oc.s 			page 73


 2461 008f 0B       		.uleb128 0xb
 2462 0090 0B       		.uleb128 0xb
 2463 0091 3A       		.uleb128 0x3a
 2464 0092 0B       		.uleb128 0xb
 2465 0093 3B       		.uleb128 0x3b
 2466 0094 05       		.uleb128 0x5
 2467 0095 01       		.uleb128 0x1
 2468 0096 13       		.uleb128 0x13
 2469 0097 00       		.byte	0
 2470 0098 00       		.byte	0
 2471 0099 0C       		.uleb128 0xc
 2472 009a 15       		.uleb128 0x15
 2473 009b 01       		.byte	0x1
 2474 009c 27       		.uleb128 0x27
 2475 009d 19       		.uleb128 0x19
 2476 009e 01       		.uleb128 0x1
 2477 009f 13       		.uleb128 0x13
 2478 00a0 00       		.byte	0
 2479 00a1 00       		.byte	0
 2480 00a2 0D       		.uleb128 0xd
 2481 00a3 05       		.uleb128 0x5
 2482 00a4 00       		.byte	0
 2483 00a5 49       		.uleb128 0x49
 2484 00a6 13       		.uleb128 0x13
 2485 00a7 00       		.byte	0
 2486 00a8 00       		.byte	0
 2487 00a9 0E       		.uleb128 0xe
 2488 00aa 0F       		.uleb128 0xf
 2489 00ab 00       		.byte	0
 2490 00ac 0B       		.uleb128 0xb
 2491 00ad 0B       		.uleb128 0xb
 2492 00ae 00       		.byte	0
 2493 00af 00       		.byte	0
 2494 00b0 0F       		.uleb128 0xf
 2495 00b1 35       		.uleb128 0x35
 2496 00b2 00       		.byte	0
 2497 00b3 49       		.uleb128 0x49
 2498 00b4 13       		.uleb128 0x13
 2499 00b5 00       		.byte	0
 2500 00b6 00       		.byte	0
 2501 00b7 10       		.uleb128 0x10
 2502 00b8 01       		.uleb128 0x1
 2503 00b9 01       		.byte	0x1
 2504 00ba 49       		.uleb128 0x49
 2505 00bb 13       		.uleb128 0x13
 2506 00bc 01       		.uleb128 0x1
 2507 00bd 13       		.uleb128 0x13
 2508 00be 00       		.byte	0
 2509 00bf 00       		.byte	0
 2510 00c0 11       		.uleb128 0x11
 2511 00c1 21       		.uleb128 0x21
 2512 00c2 00       		.byte	0
 2513 00c3 49       		.uleb128 0x49
 2514 00c4 13       		.uleb128 0x13
 2515 00c5 2F       		.uleb128 0x2f
 2516 00c6 0B       		.uleb128 0xb
 2517 00c7 00       		.byte	0
ARM GAS  /tmp/ccqx83oc.s 			page 74


 2518 00c8 00       		.byte	0
 2519 00c9 12       		.uleb128 0x12
 2520 00ca 13       		.uleb128 0x13
 2521 00cb 01       		.byte	0x1
 2522 00cc 0B       		.uleb128 0xb
 2523 00cd 0B       		.uleb128 0xb
 2524 00ce 3A       		.uleb128 0x3a
 2525 00cf 0B       		.uleb128 0xb
 2526 00d0 3B       		.uleb128 0x3b
 2527 00d1 05       		.uleb128 0x5
 2528 00d2 01       		.uleb128 0x1
 2529 00d3 13       		.uleb128 0x13
 2530 00d4 00       		.byte	0
 2531 00d5 00       		.byte	0
 2532 00d6 13       		.uleb128 0x13
 2533 00d7 16       		.uleb128 0x16
 2534 00d8 00       		.byte	0
 2535 00d9 03       		.uleb128 0x3
 2536 00da 0E       		.uleb128 0xe
 2537 00db 3A       		.uleb128 0x3a
 2538 00dc 0B       		.uleb128 0xb
 2539 00dd 3B       		.uleb128 0x3b
 2540 00de 05       		.uleb128 0x5
 2541 00df 49       		.uleb128 0x49
 2542 00e0 13       		.uleb128 0x13
 2543 00e1 00       		.byte	0
 2544 00e2 00       		.byte	0
 2545 00e3 14       		.uleb128 0x14
 2546 00e4 13       		.uleb128 0x13
 2547 00e5 01       		.byte	0x1
 2548 00e6 0B       		.uleb128 0xb
 2549 00e7 0B       		.uleb128 0xb
 2550 00e8 3A       		.uleb128 0x3a
 2551 00e9 0B       		.uleb128 0xb
 2552 00ea 3B       		.uleb128 0x3b
 2553 00eb 0B       		.uleb128 0xb
 2554 00ec 01       		.uleb128 0x1
 2555 00ed 13       		.uleb128 0x13
 2556 00ee 00       		.byte	0
 2557 00ef 00       		.byte	0
 2558 00f0 15       		.uleb128 0x15
 2559 00f1 17       		.uleb128 0x17
 2560 00f2 01       		.byte	0x1
 2561 00f3 0B       		.uleb128 0xb
 2562 00f4 0B       		.uleb128 0xb
 2563 00f5 3A       		.uleb128 0x3a
 2564 00f6 0B       		.uleb128 0xb
 2565 00f7 3B       		.uleb128 0x3b
 2566 00f8 0B       		.uleb128 0xb
 2567 00f9 01       		.uleb128 0x1
 2568 00fa 13       		.uleb128 0x13
 2569 00fb 00       		.byte	0
 2570 00fc 00       		.byte	0
 2571 00fd 16       		.uleb128 0x16
 2572 00fe 0D       		.uleb128 0xd
 2573 00ff 00       		.byte	0
 2574 0100 03       		.uleb128 0x3
ARM GAS  /tmp/ccqx83oc.s 			page 75


 2575 0101 0E       		.uleb128 0xe
 2576 0102 3A       		.uleb128 0x3a
 2577 0103 0B       		.uleb128 0xb
 2578 0104 3B       		.uleb128 0x3b
 2579 0105 0B       		.uleb128 0xb
 2580 0106 49       		.uleb128 0x49
 2581 0107 13       		.uleb128 0x13
 2582 0108 00       		.byte	0
 2583 0109 00       		.byte	0
 2584 010a 17       		.uleb128 0x17
 2585 010b 0D       		.uleb128 0xd
 2586 010c 00       		.byte	0
 2587 010d 03       		.uleb128 0x3
 2588 010e 0E       		.uleb128 0xe
 2589 010f 3A       		.uleb128 0x3a
 2590 0110 0B       		.uleb128 0xb
 2591 0111 3B       		.uleb128 0x3b
 2592 0112 05       		.uleb128 0x5
 2593 0113 49       		.uleb128 0x49
 2594 0114 13       		.uleb128 0x13
 2595 0115 00       		.byte	0
 2596 0116 00       		.byte	0
 2597 0117 18       		.uleb128 0x18
 2598 0118 26       		.uleb128 0x26
 2599 0119 00       		.byte	0
 2600 011a 49       		.uleb128 0x49
 2601 011b 13       		.uleb128 0x13
 2602 011c 00       		.byte	0
 2603 011d 00       		.byte	0
 2604 011e 19       		.uleb128 0x19
 2605 011f 04       		.uleb128 0x4
 2606 0120 01       		.byte	0x1
 2607 0121 0B       		.uleb128 0xb
 2608 0122 0B       		.uleb128 0xb
 2609 0123 3A       		.uleb128 0x3a
 2610 0124 0B       		.uleb128 0xb
 2611 0125 3B       		.uleb128 0x3b
 2612 0126 0B       		.uleb128 0xb
 2613 0127 01       		.uleb128 0x1
 2614 0128 13       		.uleb128 0x13
 2615 0129 00       		.byte	0
 2616 012a 00       		.byte	0
 2617 012b 1A       		.uleb128 0x1a
 2618 012c 28       		.uleb128 0x28
 2619 012d 00       		.byte	0
 2620 012e 03       		.uleb128 0x3
 2621 012f 0E       		.uleb128 0xe
 2622 0130 1C       		.uleb128 0x1c
 2623 0131 0D       		.uleb128 0xd
 2624 0132 00       		.byte	0
 2625 0133 00       		.byte	0
 2626 0134 1B       		.uleb128 0x1b
 2627 0135 2E       		.uleb128 0x2e
 2628 0136 01       		.byte	0x1
 2629 0137 3F       		.uleb128 0x3f
 2630 0138 19       		.uleb128 0x19
 2631 0139 03       		.uleb128 0x3
ARM GAS  /tmp/ccqx83oc.s 			page 76


 2632 013a 0E       		.uleb128 0xe
 2633 013b 3A       		.uleb128 0x3a
 2634 013c 0B       		.uleb128 0xb
 2635 013d 3B       		.uleb128 0x3b
 2636 013e 05       		.uleb128 0x5
 2637 013f 27       		.uleb128 0x27
 2638 0140 19       		.uleb128 0x19
 2639 0141 20       		.uleb128 0x20
 2640 0142 0B       		.uleb128 0xb
 2641 0143 01       		.uleb128 0x1
 2642 0144 13       		.uleb128 0x13
 2643 0145 00       		.byte	0
 2644 0146 00       		.byte	0
 2645 0147 1C       		.uleb128 0x1c
 2646 0148 05       		.uleb128 0x5
 2647 0149 00       		.byte	0
 2648 014a 03       		.uleb128 0x3
 2649 014b 0E       		.uleb128 0xe
 2650 014c 3A       		.uleb128 0x3a
 2651 014d 0B       		.uleb128 0xb
 2652 014e 3B       		.uleb128 0x3b
 2653 014f 05       		.uleb128 0x5
 2654 0150 49       		.uleb128 0x49
 2655 0151 13       		.uleb128 0x13
 2656 0152 00       		.byte	0
 2657 0153 00       		.byte	0
 2658 0154 1D       		.uleb128 0x1d
 2659 0155 2E       		.uleb128 0x2e
 2660 0156 01       		.byte	0x1
 2661 0157 3F       		.uleb128 0x3f
 2662 0158 19       		.uleb128 0x19
 2663 0159 03       		.uleb128 0x3
 2664 015a 0E       		.uleb128 0xe
 2665 015b 3A       		.uleb128 0x3a
 2666 015c 0B       		.uleb128 0xb
 2667 015d 3B       		.uleb128 0x3b
 2668 015e 05       		.uleb128 0x5
 2669 015f 27       		.uleb128 0x27
 2670 0160 19       		.uleb128 0x19
 2671 0161 11       		.uleb128 0x11
 2672 0162 01       		.uleb128 0x1
 2673 0163 12       		.uleb128 0x12
 2674 0164 06       		.uleb128 0x6
 2675 0165 40       		.uleb128 0x40
 2676 0166 18       		.uleb128 0x18
 2677 0167 9742     		.uleb128 0x2117
 2678 0169 19       		.uleb128 0x19
 2679 016a 01       		.uleb128 0x1
 2680 016b 13       		.uleb128 0x13
 2681 016c 00       		.byte	0
 2682 016d 00       		.byte	0
 2683 016e 1E       		.uleb128 0x1e
 2684 016f 898201   		.uleb128 0x4109
 2685 0172 01       		.byte	0x1
 2686 0173 11       		.uleb128 0x11
 2687 0174 01       		.uleb128 0x1
 2688 0175 9542     		.uleb128 0x2115
ARM GAS  /tmp/ccqx83oc.s 			page 77


 2689 0177 19       		.uleb128 0x19
 2690 0178 31       		.uleb128 0x31
 2691 0179 13       		.uleb128 0x13
 2692 017a 00       		.byte	0
 2693 017b 00       		.byte	0
 2694 017c 1F       		.uleb128 0x1f
 2695 017d 8A8201   		.uleb128 0x410a
 2696 0180 00       		.byte	0
 2697 0181 02       		.uleb128 0x2
 2698 0182 18       		.uleb128 0x18
 2699 0183 9142     		.uleb128 0x2111
 2700 0185 18       		.uleb128 0x18
 2701 0186 00       		.byte	0
 2702 0187 00       		.byte	0
 2703 0188 20       		.uleb128 0x20
 2704 0189 05       		.uleb128 0x5
 2705 018a 00       		.byte	0
 2706 018b 03       		.uleb128 0x3
 2707 018c 0E       		.uleb128 0xe
 2708 018d 3A       		.uleb128 0x3a
 2709 018e 0B       		.uleb128 0xb
 2710 018f 3B       		.uleb128 0x3b
 2711 0190 05       		.uleb128 0x5
 2712 0191 49       		.uleb128 0x49
 2713 0192 13       		.uleb128 0x13
 2714 0193 02       		.uleb128 0x2
 2715 0194 17       		.uleb128 0x17
 2716 0195 00       		.byte	0
 2717 0196 00       		.byte	0
 2718 0197 21       		.uleb128 0x21
 2719 0198 34       		.uleb128 0x34
 2720 0199 00       		.byte	0
 2721 019a 03       		.uleb128 0x3
 2722 019b 08       		.uleb128 0x8
 2723 019c 3A       		.uleb128 0x3a
 2724 019d 0B       		.uleb128 0xb
 2725 019e 3B       		.uleb128 0x3b
 2726 019f 05       		.uleb128 0x5
 2727 01a0 49       		.uleb128 0x49
 2728 01a1 13       		.uleb128 0x13
 2729 01a2 02       		.uleb128 0x2
 2730 01a3 17       		.uleb128 0x17
 2731 01a4 00       		.byte	0
 2732 01a5 00       		.byte	0
 2733 01a6 22       		.uleb128 0x22
 2734 01a7 34       		.uleb128 0x34
 2735 01a8 00       		.byte	0
 2736 01a9 03       		.uleb128 0x3
 2737 01aa 0E       		.uleb128 0xe
 2738 01ab 49       		.uleb128 0x49
 2739 01ac 13       		.uleb128 0x13
 2740 01ad 34       		.uleb128 0x34
 2741 01ae 19       		.uleb128 0x19
 2742 01af 00       		.byte	0
 2743 01b0 00       		.byte	0
 2744 01b1 23       		.uleb128 0x23
 2745 01b2 898201   		.uleb128 0x4109
ARM GAS  /tmp/ccqx83oc.s 			page 78


 2746 01b5 01       		.byte	0x1
 2747 01b6 11       		.uleb128 0x11
 2748 01b7 01       		.uleb128 0x1
 2749 01b8 31       		.uleb128 0x31
 2750 01b9 13       		.uleb128 0x13
 2751 01ba 00       		.byte	0
 2752 01bb 00       		.byte	0
 2753 01bc 24       		.uleb128 0x24
 2754 01bd 2E       		.uleb128 0x2e
 2755 01be 01       		.byte	0x1
 2756 01bf 31       		.uleb128 0x31
 2757 01c0 13       		.uleb128 0x13
 2758 01c1 11       		.uleb128 0x11
 2759 01c2 01       		.uleb128 0x1
 2760 01c3 12       		.uleb128 0x12
 2761 01c4 06       		.uleb128 0x6
 2762 01c5 40       		.uleb128 0x40
 2763 01c6 18       		.uleb128 0x18
 2764 01c7 9742     		.uleb128 0x2117
 2765 01c9 19       		.uleb128 0x19
 2766 01ca 01       		.uleb128 0x1
 2767 01cb 13       		.uleb128 0x13
 2768 01cc 00       		.byte	0
 2769 01cd 00       		.byte	0
 2770 01ce 25       		.uleb128 0x25
 2771 01cf 05       		.uleb128 0x5
 2772 01d0 00       		.byte	0
 2773 01d1 31       		.uleb128 0x31
 2774 01d2 13       		.uleb128 0x13
 2775 01d3 02       		.uleb128 0x2
 2776 01d4 17       		.uleb128 0x17
 2777 01d5 00       		.byte	0
 2778 01d6 00       		.byte	0
 2779 01d7 26       		.uleb128 0x26
 2780 01d8 0B       		.uleb128 0xb
 2781 01d9 01       		.byte	0x1
 2782 01da 11       		.uleb128 0x11
 2783 01db 01       		.uleb128 0x1
 2784 01dc 12       		.uleb128 0x12
 2785 01dd 06       		.uleb128 0x6
 2786 01de 00       		.byte	0
 2787 01df 00       		.byte	0
 2788 01e0 27       		.uleb128 0x27
 2789 01e1 05       		.uleb128 0x5
 2790 01e2 00       		.byte	0
 2791 01e3 31       		.uleb128 0x31
 2792 01e4 13       		.uleb128 0x13
 2793 01e5 02       		.uleb128 0x2
 2794 01e6 18       		.uleb128 0x18
 2795 01e7 00       		.byte	0
 2796 01e8 00       		.byte	0
 2797 01e9 28       		.uleb128 0x28
 2798 01ea 05       		.uleb128 0x5
 2799 01eb 00       		.byte	0
 2800 01ec 03       		.uleb128 0x3
 2801 01ed 0E       		.uleb128 0xe
 2802 01ee 3A       		.uleb128 0x3a
ARM GAS  /tmp/ccqx83oc.s 			page 79


 2803 01ef 0B       		.uleb128 0xb
 2804 01f0 3B       		.uleb128 0x3b
 2805 01f1 05       		.uleb128 0x5
 2806 01f2 49       		.uleb128 0x49
 2807 01f3 13       		.uleb128 0x13
 2808 01f4 02       		.uleb128 0x2
 2809 01f5 18       		.uleb128 0x18
 2810 01f6 00       		.byte	0
 2811 01f7 00       		.byte	0
 2812 01f8 29       		.uleb128 0x29
 2813 01f9 1D       		.uleb128 0x1d
 2814 01fa 01       		.byte	0x1
 2815 01fb 31       		.uleb128 0x31
 2816 01fc 13       		.uleb128 0x13
 2817 01fd 11       		.uleb128 0x11
 2818 01fe 01       		.uleb128 0x1
 2819 01ff 12       		.uleb128 0x12
 2820 0200 06       		.uleb128 0x6
 2821 0201 58       		.uleb128 0x58
 2822 0202 0B       		.uleb128 0xb
 2823 0203 59       		.uleb128 0x59
 2824 0204 05       		.uleb128 0x5
 2825 0205 01       		.uleb128 0x1
 2826 0206 13       		.uleb128 0x13
 2827 0207 00       		.byte	0
 2828 0208 00       		.byte	0
 2829 0209 2A       		.uleb128 0x2a
 2830 020a 898201   		.uleb128 0x4109
 2831 020d 01       		.byte	0x1
 2832 020e 11       		.uleb128 0x11
 2833 020f 01       		.uleb128 0x1
 2834 0210 00       		.byte	0
 2835 0211 00       		.byte	0
 2836 0212 2B       		.uleb128 0x2b
 2837 0213 2E       		.uleb128 0x2e
 2838 0214 01       		.byte	0x1
 2839 0215 3F       		.uleb128 0x3f
 2840 0216 19       		.uleb128 0x19
 2841 0217 03       		.uleb128 0x3
 2842 0218 0E       		.uleb128 0xe
 2843 0219 3A       		.uleb128 0x3a
 2844 021a 0B       		.uleb128 0xb
 2845 021b 3B       		.uleb128 0x3b
 2846 021c 0B       		.uleb128 0xb
 2847 021d 27       		.uleb128 0x27
 2848 021e 19       		.uleb128 0x19
 2849 021f 11       		.uleb128 0x11
 2850 0220 01       		.uleb128 0x1
 2851 0221 12       		.uleb128 0x12
 2852 0222 06       		.uleb128 0x6
 2853 0223 40       		.uleb128 0x40
 2854 0224 18       		.uleb128 0x18
 2855 0225 9742     		.uleb128 0x2117
 2856 0227 19       		.uleb128 0x19
 2857 0228 01       		.uleb128 0x1
 2858 0229 13       		.uleb128 0x13
 2859 022a 00       		.byte	0
ARM GAS  /tmp/ccqx83oc.s 			page 80


 2860 022b 00       		.byte	0
 2861 022c 2C       		.uleb128 0x2c
 2862 022d 898201   		.uleb128 0x4109
 2863 0230 01       		.byte	0x1
 2864 0231 11       		.uleb128 0x11
 2865 0232 01       		.uleb128 0x1
 2866 0233 31       		.uleb128 0x31
 2867 0234 13       		.uleb128 0x13
 2868 0235 01       		.uleb128 0x1
 2869 0236 13       		.uleb128 0x13
 2870 0237 00       		.byte	0
 2871 0238 00       		.byte	0
 2872 0239 2D       		.uleb128 0x2d
 2873 023a 898201   		.uleb128 0x4109
 2874 023d 00       		.byte	0
 2875 023e 11       		.uleb128 0x11
 2876 023f 01       		.uleb128 0x1
 2877 0240 9542     		.uleb128 0x2115
 2878 0242 19       		.uleb128 0x19
 2879 0243 31       		.uleb128 0x31
 2880 0244 13       		.uleb128 0x13
 2881 0245 00       		.byte	0
 2882 0246 00       		.byte	0
 2883 0247 2E       		.uleb128 0x2e
 2884 0248 34       		.uleb128 0x34
 2885 0249 00       		.byte	0
 2886 024a 03       		.uleb128 0x3
 2887 024b 0E       		.uleb128 0xe
 2888 024c 3A       		.uleb128 0x3a
 2889 024d 0B       		.uleb128 0xb
 2890 024e 3B       		.uleb128 0x3b
 2891 024f 05       		.uleb128 0x5
 2892 0250 49       		.uleb128 0x49
 2893 0251 13       		.uleb128 0x13
 2894 0252 3F       		.uleb128 0x3f
 2895 0253 19       		.uleb128 0x19
 2896 0254 3C       		.uleb128 0x3c
 2897 0255 19       		.uleb128 0x19
 2898 0256 00       		.byte	0
 2899 0257 00       		.byte	0
 2900 0258 2F       		.uleb128 0x2f
 2901 0259 34       		.uleb128 0x34
 2902 025a 00       		.byte	0
 2903 025b 03       		.uleb128 0x3
 2904 025c 08       		.uleb128 0x8
 2905 025d 3A       		.uleb128 0x3a
 2906 025e 0B       		.uleb128 0xb
 2907 025f 3B       		.uleb128 0x3b
 2908 0260 05       		.uleb128 0x5
 2909 0261 49       		.uleb128 0x49
 2910 0262 13       		.uleb128 0x13
 2911 0263 3F       		.uleb128 0x3f
 2912 0264 19       		.uleb128 0x19
 2913 0265 3C       		.uleb128 0x3c
 2914 0266 19       		.uleb128 0x19
 2915 0267 00       		.byte	0
 2916 0268 00       		.byte	0
ARM GAS  /tmp/ccqx83oc.s 			page 81


 2917 0269 30       		.uleb128 0x30
 2918 026a 34       		.uleb128 0x34
 2919 026b 00       		.byte	0
 2920 026c 03       		.uleb128 0x3
 2921 026d 0E       		.uleb128 0xe
 2922 026e 3A       		.uleb128 0x3a
 2923 026f 0B       		.uleb128 0xb
 2924 0270 3B       		.uleb128 0x3b
 2925 0271 0B       		.uleb128 0xb
 2926 0272 49       		.uleb128 0x49
 2927 0273 13       		.uleb128 0x13
 2928 0274 3F       		.uleb128 0x3f
 2929 0275 19       		.uleb128 0x19
 2930 0276 02       		.uleb128 0x2
 2931 0277 18       		.uleb128 0x18
 2932 0278 00       		.byte	0
 2933 0279 00       		.byte	0
 2934 027a 31       		.uleb128 0x31
 2935 027b 2E       		.uleb128 0x2e
 2936 027c 01       		.byte	0x1
 2937 027d 3F       		.uleb128 0x3f
 2938 027e 19       		.uleb128 0x19
 2939 027f 03       		.uleb128 0x3
 2940 0280 0E       		.uleb128 0xe
 2941 0281 3A       		.uleb128 0x3a
 2942 0282 0B       		.uleb128 0xb
 2943 0283 3B       		.uleb128 0x3b
 2944 0284 0B       		.uleb128 0xb
 2945 0285 27       		.uleb128 0x27
 2946 0286 19       		.uleb128 0x19
 2947 0287 3C       		.uleb128 0x3c
 2948 0288 19       		.uleb128 0x19
 2949 0289 01       		.uleb128 0x1
 2950 028a 13       		.uleb128 0x13
 2951 028b 00       		.byte	0
 2952 028c 00       		.byte	0
 2953 028d 32       		.uleb128 0x32
 2954 028e 2E       		.uleb128 0x2e
 2955 028f 00       		.byte	0
 2956 0290 3F       		.uleb128 0x3f
 2957 0291 19       		.uleb128 0x19
 2958 0292 03       		.uleb128 0x3
 2959 0293 0E       		.uleb128 0xe
 2960 0294 3A       		.uleb128 0x3a
 2961 0295 0B       		.uleb128 0xb
 2962 0296 3B       		.uleb128 0x3b
 2963 0297 05       		.uleb128 0x5
 2964 0298 27       		.uleb128 0x27
 2965 0299 19       		.uleb128 0x19
 2966 029a 3C       		.uleb128 0x3c
 2967 029b 19       		.uleb128 0x19
 2968 029c 00       		.byte	0
 2969 029d 00       		.byte	0
 2970 029e 00       		.byte	0
 2971              		.section	.debug_loc,"",%progbits
 2972              	.Ldebug_loc0:
 2973              	.LLST0:
ARM GAS  /tmp/ccqx83oc.s 			page 82


 2974 0000 00000000 		.4byte	.LVL1
 2975 0004 0A000000 		.4byte	.LVL2
 2976 0008 0100     		.2byte	0x1
 2977 000a 50       		.byte	0x50
 2978 000b 0A000000 		.4byte	.LVL2
 2979 000f 1C000000 		.4byte	.LVL3
 2980 0013 0100     		.2byte	0x1
 2981 0015 54       		.byte	0x54
 2982 0016 1C000000 		.4byte	.LVL3
 2983 001a 30000000 		.4byte	.LVL5
 2984 001e 0400     		.2byte	0x4
 2985 0020 F3       		.byte	0xf3
 2986 0021 01       		.uleb128 0x1
 2987 0022 50       		.byte	0x50
 2988 0023 9F       		.byte	0x9f
 2989 0024 30000000 		.4byte	.LVL5
 2990 0028 52000000 		.4byte	.LVL6
 2991 002c 0100     		.2byte	0x1
 2992 002e 50       		.byte	0x50
 2993 002f 52000000 		.4byte	.LVL6
 2994 0033 6C000000 		.4byte	.LFE219
 2995 0037 0100     		.2byte	0x1
 2996 0039 54       		.byte	0x54
 2997 003a 00000000 		.4byte	0
 2998 003e 00000000 		.4byte	0
 2999              	.LLST1:
 3000 0042 1E000000 		.4byte	.LVL4
 3001 0046 30000000 		.4byte	.LVL5
 3002 004a 0100     		.2byte	0x1
 3003 004c 51       		.byte	0x51
 3004 004d 00000000 		.4byte	0
 3005 0051 00000000 		.4byte	0
 3006              	.LLST2:
 3007 0055 00000000 		.4byte	.LVL8
 3008 0059 08000000 		.4byte	.LVL9
 3009 005d 0100     		.2byte	0x1
 3010 005f 50       		.byte	0x50
 3011 0060 08000000 		.4byte	.LVL9
 3012 0064 0A000000 		.4byte	.LVL10
 3013 0068 0400     		.2byte	0x4
 3014 006a F3       		.byte	0xf3
 3015 006b 01       		.uleb128 0x1
 3016 006c 50       		.byte	0x50
 3017 006d 9F       		.byte	0x9f
 3018 006e 0A000000 		.4byte	.LVL10
 3019 0072 22000000 		.4byte	.LVL12
 3020 0076 0100     		.2byte	0x1
 3021 0078 50       		.byte	0x50
 3022 0079 22000000 		.4byte	.LVL12
 3023 007d 38000000 		.4byte	.LFE220
 3024 0081 0400     		.2byte	0x4
 3025 0083 F3       		.byte	0xf3
 3026 0084 01       		.uleb128 0x1
 3027 0085 50       		.byte	0x50
 3028 0086 9F       		.byte	0x9f
 3029 0087 00000000 		.4byte	0
 3030 008b 00000000 		.4byte	0
ARM GAS  /tmp/ccqx83oc.s 			page 83


 3031              	.LLST3:
 3032 008f 00000000 		.4byte	.LVL14
 3033 0093 06000000 		.4byte	.LVL15
 3034 0097 0100     		.2byte	0x1
 3035 0099 50       		.byte	0x50
 3036 009a 06000000 		.4byte	.LVL15
 3037 009e 26000000 		.4byte	.LFE221
 3038 00a2 0400     		.2byte	0x4
 3039 00a4 F3       		.byte	0xf3
 3040 00a5 01       		.uleb128 0x1
 3041 00a6 50       		.byte	0x50
 3042 00a7 9F       		.byte	0x9f
 3043 00a8 00000000 		.4byte	0
 3044 00ac 00000000 		.4byte	0
 3045              	.LLST4:
 3046 00b0 00000000 		.4byte	.LVL17
 3047 00b4 06000000 		.4byte	.LVL18
 3048 00b8 0100     		.2byte	0x1
 3049 00ba 50       		.byte	0x50
 3050 00bb 06000000 		.4byte	.LVL18
 3051 00bf 22000000 		.4byte	.LFE223
 3052 00c3 0400     		.2byte	0x4
 3053 00c5 F3       		.byte	0xf3
 3054 00c6 01       		.uleb128 0x1
 3055 00c7 50       		.byte	0x50
 3056 00c8 9F       		.byte	0x9f
 3057 00c9 00000000 		.4byte	0
 3058 00cd 00000000 		.4byte	0
 3059              	.LLST5:
 3060 00d1 00000000 		.4byte	.LVL19
 3061 00d5 23000000 		.4byte	.LVL22-1
 3062 00d9 0100     		.2byte	0x1
 3063 00db 50       		.byte	0x50
 3064 00dc 23000000 		.4byte	.LVL22-1
 3065 00e0 26000000 		.4byte	.LFE224
 3066 00e4 0400     		.2byte	0x4
 3067 00e6 F3       		.byte	0xf3
 3068 00e7 01       		.uleb128 0x1
 3069 00e8 50       		.byte	0x50
 3070 00e9 9F       		.byte	0x9f
 3071 00ea 00000000 		.4byte	0
 3072 00ee 00000000 		.4byte	0
 3073              	.LLST6:
 3074 00f2 12000000 		.4byte	.LVL20
 3075 00f6 1E000000 		.4byte	.LVL21
 3076 00fa 0100     		.2byte	0x1
 3077 00fc 50       		.byte	0x50
 3078 00fd 00000000 		.4byte	0
 3079 0101 00000000 		.4byte	0
 3080              		.section	.debug_aranges,"",%progbits
 3081 0000 54000000 		.4byte	0x54
 3082 0004 0200     		.2byte	0x2
 3083 0006 00000000 		.4byte	.Ldebug_info0
 3084 000a 04       		.byte	0x4
 3085 000b 00       		.byte	0
 3086 000c 0000     		.2byte	0
 3087 000e 0000     		.2byte	0
ARM GAS  /tmp/ccqx83oc.s 			page 84


 3088 0010 00000000 		.4byte	.LFB218
 3089 0014 18000000 		.4byte	.LFE218-.LFB218
 3090 0018 00000000 		.4byte	.LFB219
 3091 001c 6C000000 		.4byte	.LFE219-.LFB219
 3092 0020 00000000 		.4byte	.LFB220
 3093 0024 38000000 		.4byte	.LFE220-.LFB220
 3094 0028 00000000 		.4byte	.LFB221
 3095 002c 26000000 		.4byte	.LFE221-.LFB221
 3096 0030 00000000 		.4byte	.LFB222
 3097 0034 12000000 		.4byte	.LFE222-.LFB222
 3098 0038 00000000 		.4byte	.LFB223
 3099 003c 22000000 		.4byte	.LFE223-.LFB223
 3100 0040 00000000 		.4byte	.LFB224
 3101 0044 26000000 		.4byte	.LFE224-.LFB224
 3102 0048 00000000 		.4byte	.LFB217
 3103 004c 16000000 		.4byte	.LFE217-.LFB217
 3104 0050 00000000 		.4byte	0
 3105 0054 00000000 		.4byte	0
 3106              		.section	.debug_ranges,"",%progbits
 3107              	.Ldebug_ranges0:
 3108 0000 00000000 		.4byte	.LFB218
 3109 0004 18000000 		.4byte	.LFE218
 3110 0008 00000000 		.4byte	.LFB219
 3111 000c 6C000000 		.4byte	.LFE219
 3112 0010 00000000 		.4byte	.LFB220
 3113 0014 38000000 		.4byte	.LFE220
 3114 0018 00000000 		.4byte	.LFB221
 3115 001c 26000000 		.4byte	.LFE221
 3116 0020 00000000 		.4byte	.LFB222
 3117 0024 12000000 		.4byte	.LFE222
 3118 0028 00000000 		.4byte	.LFB223
 3119 002c 22000000 		.4byte	.LFE223
 3120 0030 00000000 		.4byte	.LFB224
 3121 0034 26000000 		.4byte	.LFE224
 3122 0038 00000000 		.4byte	.LFB217
 3123 003c 16000000 		.4byte	.LFE217
 3124 0040 00000000 		.4byte	0
 3125 0044 00000000 		.4byte	0
 3126              		.section	.debug_line,"",%progbits
 3127              	.Ldebug_line0:
 3128 0000 4C030000 		.section	.debug_str,"MS",%progbits,1
 3128      02005602 
 3128      00000201 
 3128      FB0E0D00 
 3128      01010101 
 3129              	.LASF47:
 3130 0000 72656164 		.ascii	"ready_list_t\000"
 3130      795F6C69 
 3130      73745F74 
 3130      00
 3131              	.LASF82:
 3132 000d 44494552 		.ascii	"DIER\000"
 3132      00
 3133              	.LASF96:
 3134 0012 77747472 		.ascii	"wttrp\000"
 3134      7000
 3135              	.LASF43:
ARM GAS  /tmp/ccqx83oc.s 			page 85


 3136 0018 6E657874 		.ascii	"next\000"
 3136      00
 3137              	.LASF53:
 3138 001d 64656C74 		.ascii	"delta\000"
 3138      6100
 3139              	.LASF93:
 3140 0023 7264796D 		.ascii	"rdymsg\000"
 3140      736700
 3141              	.LASF12:
 3142 002a 75696E74 		.ascii	"uint64_t\000"
 3142      36345F74 
 3142      00
 3143              	.LASF132:
 3144 0033 56656374 		.ascii	"VectorA4\000"
 3144      6F724134 
 3144      00
 3145              	.LASF46:
 3146 003c 70726576 		.ascii	"prev\000"
 3146      00
 3147              	.LASF111:
 3148 0041 4750545F 		.ascii	"GPT_ONESHOT\000"
 3148      4F4E4553 
 3148      484F5400 
 3149              	.LASF45:
 3150 004d 63685F74 		.ascii	"ch_threads_queue\000"
 3150      68726561 
 3150      64735F71 
 3150      75657565 
 3150      00
 3151              	.LASF58:
 3152 005e 73797374 		.ascii	"system_debug_t\000"
 3152      656D5F64 
 3152      65627567 
 3152      5F7400
 3153              	.LASF13:
 3154 006d 6C6F6E67 		.ascii	"long long unsigned int\000"
 3154      206C6F6E 
 3154      6720756E 
 3154      7369676E 
 3154      65642069 
 3155              	.LASF94:
 3156 0084 65786974 		.ascii	"exitcode\000"
 3156      636F6465 
 3156      00
 3157              	.LASF65:
 3158 008d 6D61696E 		.ascii	"mainthread\000"
 3158      74687265 
 3158      616400
 3159              	.LASF97:
 3160 0098 73656E74 		.ascii	"sentmsg\000"
 3160      6D736700 
 3161              	.LASF55:
 3162 00a0 76697274 		.ascii	"virtual_timers_list_t\000"
 3162      75616C5F 
 3162      74696D65 
 3162      72735F6C 
 3162      6973745F 
ARM GAS  /tmp/ccqx83oc.s 			page 86


 3163              	.LASF134:
 3164 00b6 47505444 		.ascii	"GPTD1\000"
 3164      3100
 3165              	.LASF86:
 3166 00bc 42445452 		.ascii	"BDTR\000"
 3166      00
 3167              	.LASF119:
 3168 00c1 66726571 		.ascii	"frequency\000"
 3168      75656E63 
 3168      7900
 3169              	.LASF136:
 3170 00cb 6E766963 		.ascii	"nvicEnableVector\000"
 3170      456E6162 
 3170      6C655665 
 3170      63746F72 
 3170      00
 3171              	.LASF83:
 3172 00dc 43434D52 		.ascii	"CCMR1\000"
 3172      3100
 3173              	.LASF84:
 3174 00e2 43434D52 		.ascii	"CCMR2\000"
 3174      3200
 3175              	.LASF88:
 3176 00e8 43434D52 		.ascii	"CCMR3\000"
 3176      3300
 3177              	.LASF1:
 3178 00ee 7369676E 		.ascii	"signed char\000"
 3178      65642063 
 3178      68617200 
 3179              	.LASF69:
 3180 00fa 41504231 		.ascii	"APB1RSTR\000"
 3180      52535452 
 3180      00
 3181              	.LASF110:
 3182 0103 4750545F 		.ascii	"GPT_CONTINUOUS\000"
 3182      434F4E54 
 3182      494E554F 
 3182      555300
 3183              	.LASF141:
 3184 0112 5F5F6675 		.ascii	"__func__.6629\000"
 3184      6E635F5F 
 3184      2E363632 
 3184      3900
 3185              	.LASF34:
 3186 0120 6D736771 		.ascii	"msgqueue\000"
 3186      75657565 
 3186      00
 3187              	.LASF30:
 3188 0129 73746174 		.ascii	"state\000"
 3188      6500
 3189              	.LASF62:
 3190 012f 63685F73 		.ascii	"ch_system\000"
 3190      79737465 
 3190      6D00
 3191              	.LASF8:
 3192 0139 6C6F6E67 		.ascii	"long int\000"
 3192      20696E74 
ARM GAS  /tmp/ccqx83oc.s 			page 87


 3192      00
 3193              	.LASF118:
 3194 0142 67707463 		.ascii	"gptcnt_t\000"
 3194      6E745F74 
 3194      00
 3195              	.LASF68:
 3196 014b 41504232 		.ascii	"APB2RSTR\000"
 3196      52535452 
 3196      00
 3197              	.LASF16:
 3198 0154 74737461 		.ascii	"tstate_t\000"
 3198      74655F74 
 3198      00
 3199              	.LASF54:
 3200 015d 66756E63 		.ascii	"func\000"
 3200      00
 3201              	.LASF85:
 3202 0162 43434552 		.ascii	"CCER\000"
 3202      00
 3203              	.LASF11:
 3204 0167 6C6F6E67 		.ascii	"long long int\000"
 3204      206C6F6E 
 3204      6720696E 
 3204      7400
 3205              	.LASF5:
 3206 0175 75696E74 		.ascii	"uint16_t\000"
 3206      31365F74 
 3206      00
 3207              	.LASF61:
 3208 017e 63685F73 		.ascii	"ch_system_t\000"
 3208      79737465 
 3208      6D5F7400 
 3209              	.LASF116:
 3210 018a 67707463 		.ascii	"gptcallback_t\000"
 3210      616C6C62 
 3210      61636B5F 
 3210      7400
 3211              	.LASF129:
 3212 0198 696E7465 		.ascii	"interval\000"
 3212      7276616C 
 3212      00
 3213              	.LASF113:
 3214 01a1 47505444 		.ascii	"GPTDriver\000"
 3214      72697665 
 3214      7200
 3215              	.LASF77:
 3216 01ab 72656761 		.ascii	"regarm_t\000"
 3216      726D5F74 
 3216      00
 3217              	.LASF64:
 3218 01b4 76746C69 		.ascii	"vtlist\000"
 3218      737400
 3219              	.LASF33:
 3220 01bb 77616974 		.ascii	"waiting\000"
 3220      696E6700 
 3221              	.LASF105:
 3222 01c3 6D757465 		.ascii	"mutex_t\000"
ARM GAS  /tmp/ccqx83oc.s 			page 88


 3222      785F7400 
 3223              	.LASF112:
 3224 01cb 67707473 		.ascii	"gptstate_t\000"
 3224      74617465 
 3224      5F7400
 3225              	.LASF0:
 3226 01d6 756E7369 		.ascii	"unsigned int\000"
 3226      676E6564 
 3226      20696E74 
 3226      00
 3227              	.LASF135:
 3228 01e3 6770744F 		.ascii	"gptObjectInit\000"
 3228      626A6563 
 3228      74496E69 
 3228      7400
 3229              	.LASF137:
 3230 01f1 6E766963 		.ascii	"nvicDisableVector\000"
 3230      44697361 
 3230      626C6556 
 3230      6563746F 
 3230      7200
 3231              	.LASF98:
 3232 0203 77747365 		.ascii	"wtsemp\000"
 3232      6D7000
 3233              	.LASF130:
 3234 020a 6770745F 		.ascii	"gpt_lld_polled_delay\000"
 3234      6C6C645F 
 3234      706F6C6C 
 3234      65645F64 
 3234      656C6179 
 3235              	.LASF10:
 3236 021f 6C6F6E67 		.ascii	"long unsigned int\000"
 3236      20756E73 
 3236      69676E65 
 3236      6420696E 
 3236      7400
 3237              	.LASF76:
 3238 0231 5243435F 		.ascii	"RCC_TypeDef\000"
 3238      54797065 
 3238      44656600 
 3239              	.LASF41:
 3240 023d 63685F74 		.ascii	"ch_thread\000"
 3240      68726561 
 3240      6400
 3241              	.LASF28:
 3242 0247 6E616D65 		.ascii	"name\000"
 3242      00
 3243              	.LASF125:
 3244 024c 67707470 		.ascii	"gptp\000"
 3244      00
 3245              	.LASF24:
 3246 0251 71756575 		.ascii	"queue\000"
 3246      6500
 3247              	.LASF107:
 3248 0257 4750545F 		.ascii	"GPT_UNINIT\000"
 3248      554E494E 
 3248      495400
ARM GAS  /tmp/ccqx83oc.s 			page 89


 3249              	.LASF117:
 3250 0262 67707466 		.ascii	"gptfreq_t\000"
 3250      7265715F 
 3250      7400
 3251              	.LASF19:
 3252 026c 6D73675F 		.ascii	"msg_t\000"
 3252      7400
 3253              	.LASF35:
 3254 0272 6570656E 		.ascii	"epending\000"
 3254      64696E67 
 3254      00
 3255              	.LASF142:
 3256 027b 5F706F72 		.ascii	"_port_irq_epilogue\000"
 3256      745F6972 
 3256      715F6570 
 3256      696C6F67 
 3256      756500
 3257              	.LASF120:
 3258 028e 63616C6C 		.ascii	"callback\000"
 3258      6261636B 
 3258      00
 3259              	.LASF126:
 3260 0297 6770745F 		.ascii	"gpt_lld_init\000"
 3260      6C6C645F 
 3260      696E6974 
 3260      00
 3261              	.LASF90:
 3262 02a4 73746D33 		.ascii	"stm32_tim_t\000"
 3262      325F7469 
 3262      6D5F7400 
 3263              	.LASF48:
 3264 02b0 63685F72 		.ascii	"ch_ready_list\000"
 3264      65616479 
 3264      5F6C6973 
 3264      7400
 3265              	.LASF20:
 3266 02be 6576656E 		.ascii	"eventmask_t\000"
 3266      746D6173 
 3266      6B5F7400 
 3267              	.LASF78:
 3268 02ca 73746B61 		.ascii	"stkalign_t\000"
 3268      6C69676E 
 3268      5F7400
 3269              	.LASF26:
 3270 02d5 6E657765 		.ascii	"newer\000"
 3270      7200
 3271              	.LASF40:
 3272 02db 74687265 		.ascii	"threads_list_t\000"
 3272      6164735F 
 3272      6C697374 
 3272      5F7400
 3273              	.LASF51:
 3274 02ea 76697274 		.ascii	"virtual_timer_t\000"
 3274      75616C5F 
 3274      74696D65 
 3274      725F7400 
 3275              	.LASF37:
ARM GAS  /tmp/ccqx83oc.s 			page 90


 3276 02fa 7265616C 		.ascii	"realprio\000"
 3276      7072696F 
 3276      00
 3277              	.LASF66:
 3278 0303 73697A65 		.ascii	"sizetype\000"
 3278      74797065 
 3278      00
 3279              	.LASF39:
 3280 030c 74687265 		.ascii	"thread_reference_t\000"
 3280      61645F72 
 3280      65666572 
 3280      656E6365 
 3280      5F7400
 3281              	.LASF56:
 3282 031f 63685F76 		.ascii	"ch_virtual_timers_list\000"
 3282      69727475 
 3282      616C5F74 
 3282      696D6572 
 3282      735F6C69 
 3283              	.LASF109:
 3284 0336 4750545F 		.ascii	"GPT_READY\000"
 3284      52454144 
 3284      5900
 3285              	.LASF21:
 3286 0340 636E745F 		.ascii	"cnt_t\000"
 3286      7400
 3287              	.LASF124:
 3288 0346 6770745F 		.ascii	"gpt_lld_stop_timer\000"
 3288      6C6C645F 
 3288      73746F70 
 3288      5F74696D 
 3288      657200
 3289              	.LASF79:
 3290 0359 706F7274 		.ascii	"port_context\000"
 3290      5F636F6E 
 3290      74657874 
 3290      00
 3291              	.LASF92:
 3292 0366 746D5F63 		.ascii	"tm_calibration_t\000"
 3292      616C6962 
 3292      72617469 
 3292      6F6E5F74 
 3292      00
 3293              	.LASF25:
 3294 0377 7072696F 		.ascii	"prio\000"
 3294      00
 3295              	.LASF128:
 3296 037c 6770745F 		.ascii	"gpt_lld_start_timer\000"
 3296      6C6C645F 
 3296      73746172 
 3296      745F7469 
 3296      6D657200 
 3297              	.LASF49:
 3298 0390 63757272 		.ascii	"current\000"
 3298      656E7400 
 3299              	.LASF140:
 3300 0398 2F686F6D 		.ascii	"/home/alex/Embebidos Proyecto/ChibiOS_17.6.1/demos/"
ARM GAS  /tmp/ccqx83oc.s 			page 91


 3300      652F616C 
 3300      65782F45 
 3300      6D626562 
 3300      69646F73 
 3301 03cb 53544D33 		.ascii	"STM32/RT-STM32F100-DISCOVERY\000"
 3301      322F5254 
 3301      2D53544D 
 3301      33324631 
 3301      30302D44 
 3302              	.LASF131:
 3303 03e8 6770745F 		.ascii	"gpt_lld_serve_interrupt\000"
 3303      6C6C645F 
 3303      73657276 
 3303      655F696E 
 3303      74657272 
 3304              	.LASF17:
 3305 0400 74726566 		.ascii	"trefs_t\000"
 3305      735F7400 
 3306              	.LASF74:
 3307 0408 52455345 		.ascii	"RESERVED0\000"
 3307      52564544 
 3307      3000
 3308              	.LASF80:
 3309 0412 706F7274 		.ascii	"port_intctx\000"
 3309      5F696E74 
 3309      63747800 
 3310              	.LASF32:
 3311 041e 72656673 		.ascii	"refs\000"
 3311      00
 3312              	.LASF139:
 3313 0423 2E2E2F2E 		.ascii	"../../../os/hal/ports/STM32/LLD/TIMv1/hal_gpt_lld.c"
 3313      2E2F2E2E 
 3313      2F6F732F 
 3313      68616C2F 
 3313      706F7274 
 3314 0456 00       		.ascii	"\000"
 3315              	.LASF18:
 3316 0457 74707269 		.ascii	"tprio_t\000"
 3316      6F5F7400 
 3317              	.LASF59:
 3318 045f 63685F73 		.ascii	"ch_system_debug\000"
 3318      79737465 
 3318      6D5F6465 
 3318      62756700 
 3319              	.LASF106:
 3320 046f 5F426F6F 		.ascii	"_Bool\000"
 3320      6C00
 3321              	.LASF7:
 3322 0475 696E7433 		.ascii	"int32_t\000"
 3322      325F7400 
 3323              	.LASF2:
 3324 047d 756E7369 		.ascii	"unsigned char\000"
 3324      676E6564 
 3324      20636861 
 3324      7200
 3325              	.LASF133:
 3326 048b 49544D5F 		.ascii	"ITM_RxBuffer\000"
ARM GAS  /tmp/ccqx83oc.s 			page 92


 3326      52784275 
 3326      66666572 
 3326      00
 3327              	.LASF3:
 3328 0498 73686F72 		.ascii	"short int\000"
 3328      7420696E 
 3328      7400
 3329              	.LASF57:
 3330 04a2 6C617374 		.ascii	"lasttime\000"
 3330      74696D65 
 3330      00
 3331              	.LASF100:
 3332 04ab 65776D61 		.ascii	"ewmask\000"
 3332      736B00
 3333              	.LASF71:
 3334 04b2 41504232 		.ascii	"APB2ENR\000"
 3334      454E5200 
 3335              	.LASF52:
 3336 04ba 63685F76 		.ascii	"ch_virtual_timer\000"
 3336      69727475 
 3336      616C5F74 
 3336      696D6572 
 3336      00
 3337              	.LASF101:
 3338 04cb 63685F73 		.ascii	"ch_semaphore\000"
 3338      656D6170 
 3338      686F7265 
 3338      00
 3339              	.LASF89:
 3340 04d8 43435852 		.ascii	"CCXR\000"
 3340      00
 3341              	.LASF108:
 3342 04dd 4750545F 		.ascii	"GPT_STOP\000"
 3342      53544F50 
 3342      00
 3343              	.LASF9:
 3344 04e6 75696E74 		.ascii	"uint32_t\000"
 3344      33325F74 
 3344      00
 3345              	.LASF99:
 3346 04ef 77746D74 		.ascii	"wtmtxp\000"
 3346      787000
 3347              	.LASF42:
 3348 04f6 63685F74 		.ascii	"ch_threads_list\000"
 3348      68726561 
 3348      64735F6C 
 3348      69737400 
 3349              	.LASF103:
 3350 0506 6F776E65 		.ascii	"owner\000"
 3350      7200
 3351              	.LASF29:
 3352 050c 77616261 		.ascii	"wabase\000"
 3352      736500
 3353              	.LASF104:
 3354 0513 63686172 		.ascii	"char\000"
 3354      00
 3355              	.LASF27:
ARM GAS  /tmp/ccqx83oc.s 			page 93


 3356 0518 6F6C6465 		.ascii	"older\000"
 3356      7200
 3357              	.LASF81:
 3358 051e 534D4352 		.ascii	"SMCR\000"
 3358      00
 3359              	.LASF114:
 3360 0523 636F6E66 		.ascii	"config\000"
 3360      696700
 3361              	.LASF87:
 3362 052a 444D4152 		.ascii	"DMAR\000"
 3362      00
 3363              	.LASF23:
 3364 052f 74687265 		.ascii	"thread_t\000"
 3364      61645F74 
 3364      00
 3365              	.LASF22:
 3366 0538 73797374 		.ascii	"systime_t\000"
 3366      696D655F 
 3366      7400
 3367              	.LASF50:
 3368 0542 76746675 		.ascii	"vtfunc_t\000"
 3368      6E635F74 
 3368      00
 3369              	.LASF60:
 3370 054b 70616E69 		.ascii	"panic_msg\000"
 3370      635F6D73 
 3370      6700
 3371              	.LASF91:
 3372 0555 6F666673 		.ascii	"offset\000"
 3372      657400
 3373              	.LASF72:
 3374 055c 41504231 		.ascii	"APB1ENR\000"
 3374      454E5200 
 3375              	.LASF122:
 3376 0564 47505443 		.ascii	"GPTConfig\000"
 3376      6F6E6669 
 3376      6700
 3377              	.LASF6:
 3378 056e 73686F72 		.ascii	"short unsigned int\000"
 3378      7420756E 
 3378      7369676E 
 3378      65642069 
 3378      6E7400
 3379              	.LASF38:
 3380 0581 6D706F6F 		.ascii	"mpool\000"
 3380      6C00
 3381              	.LASF14:
 3382 0587 7274636E 		.ascii	"rtcnt_t\000"
 3382      745F7400 
 3383              	.LASF127:
 3384 058f 6770745F 		.ascii	"gpt_lld_start\000"
 3384      6C6C645F 
 3384      73746172 
 3384      7400
 3385              	.LASF138:
 3386 059d 474E5520 		.ascii	"GNU C 4.8.1 -mcpu=cortex-m3 -mno-thumb-interwork -m"
 3386      4320342E 
ARM GAS  /tmp/ccqx83oc.s 			page 94


 3386      382E3120 
 3386      2D6D6370 
 3386      753D636F 
 3387 05d0 7468756D 		.ascii	"thumb -ggdb -O2 -fomit-frame-pointer -falign-functi"
 3387      62202D67 
 3387      67646220 
 3387      2D4F3220 
 3387      2D666F6D 
 3388 0603 6F6E733D 		.ascii	"ons=16 -ffunction-sections -fdata-sections -fno-com"
 3388      3136202D 
 3388      6666756E 
 3388      6374696F 
 3388      6E2D7365 
 3389 0636 6D6F6E20 		.ascii	"mon -flto\000"
 3389      2D666C74 
 3389      6F00
 3390              	.LASF44:
 3391 0640 74687265 		.ascii	"threads_queue_t\000"
 3391      6164735F 
 3391      71756575 
 3391      655F7400 
 3392              	.LASF102:
 3393 0650 63685F6D 		.ascii	"ch_mutex\000"
 3393      75746578 
 3393      00
 3394              	.LASF123:
 3395 0659 6770745F 		.ascii	"gpt_lld_stop\000"
 3395      6C6C645F 
 3395      73746F70 
 3395      00
 3396              	.LASF73:
 3397 0666 42444352 		.ascii	"BDCR\000"
 3397      00
 3398              	.LASF63:
 3399 066b 726C6973 		.ascii	"rlist\000"
 3399      7400
 3400              	.LASF75:
 3401 0671 43464752 		.ascii	"CFGR2\000"
 3401      3200
 3402              	.LASF4:
 3403 0677 75696E74 		.ascii	"uint8_t\000"
 3403      385F7400 
 3404              	.LASF31:
 3405 067f 666C6167 		.ascii	"flags\000"
 3405      7300
 3406              	.LASF95:
 3407 0685 77746F62 		.ascii	"wtobjp\000"
 3407      6A7000
 3408              	.LASF67:
 3409 068c 43464752 		.ascii	"CFGR\000"
 3409      00
 3410              	.LASF15:
 3411 0691 746D6F64 		.ascii	"tmode_t\000"
 3411      655F7400 
 3412              	.LASF115:
 3413 0699 636C6F63 		.ascii	"clock\000"
 3413      6B00
ARM GAS  /tmp/ccqx83oc.s 			page 95


 3414              	.LASF36:
 3415 069f 6D74786C 		.ascii	"mtxlist\000"
 3415      69737400 
 3416              	.LASF70:
 3417 06a7 41484245 		.ascii	"AHBENR\000"
 3417      4E5200
 3418              	.LASF121:
 3419 06ae 64696572 		.ascii	"dier\000"
 3419      00
 3420              		.comm	__gnu_lto_v1,1,1
 3421              		.ident	"GCC: (Sourcery CodeBench Lite 2013.11-24) 4.8.1"
ARM GAS  /tmp/ccqx83oc.s 			page 96


DEFINED SYMBOLS
                            *ABS*:00000000 hal_gpt_lld.c
     /tmp/ccqx83oc.s:497    .text.gpt_lld_init:00000000 $t
     /tmp/ccqx83oc.s:503    .text.gpt_lld_init:00000000 gpt_lld_init
     /tmp/ccqx83oc.s:912    .bss.GPTD1:00000000 .LANCHOR0
     /tmp/ccqx83oc.s:527    .text.gpt_lld_start:00000000 $t
     /tmp/ccqx83oc.s:533    .text.gpt_lld_start:00000000 gpt_lld_start
     /tmp/ccqx83oc.s:625    .text.gpt_lld_stop:00000000 $t
     /tmp/ccqx83oc.s:631    .text.gpt_lld_stop:00000000 gpt_lld_stop
     /tmp/ccqx83oc.s:690    .text.gpt_lld_start_timer:00000000 $t
     /tmp/ccqx83oc.s:696    .text.gpt_lld_start_timer:00000000 gpt_lld_start_timer
     /tmp/ccqx83oc.s:744    .text.gpt_lld_stop_timer:00000000 $t
     /tmp/ccqx83oc.s:750    .text.gpt_lld_stop_timer:00000000 gpt_lld_stop_timer
     /tmp/ccqx83oc.s:773    .text.gpt_lld_polled_delay:00000000 $t
     /tmp/ccqx83oc.s:779    .text.gpt_lld_polled_delay:00000000 gpt_lld_polled_delay
     /tmp/ccqx83oc.s:823    .text.gpt_lld_serve_interrupt:00000000 $t
     /tmp/ccqx83oc.s:829    .text.gpt_lld_serve_interrupt:00000000 gpt_lld_serve_interrupt
     /tmp/ccqx83oc.s:880    .text.VectorA4:00000000 $t
     /tmp/ccqx83oc.s:886    .text.VectorA4:00000000 VectorA4
     /tmp/ccqx83oc.s:915    .bss.GPTD1:00000000 GPTD1
     /tmp/ccqx83oc.s:911    .bss.GPTD1:00000000 $d
                            *COM*:00000001 __gnu_lto_v1
                     .debug_frame:00000010 $d

UNDEFINED SYMBOLS
gptObjectInit
nvicEnableVector
nvicDisableVector
_port_irq_epilogue
