ARM GAS  /tmp/ccDsCKUe.s 			page 1


   1              		.syntax unified
   2              		.cpu cortex-m3
   3              		.fpu softvfp
   4              		.eabi_attribute 20, 1
   5              		.eabi_attribute 21, 1
   6              		.eabi_attribute 23, 3
   7              		.eabi_attribute 24, 1
   8              		.eabi_attribute 25, 1
   9              		.eabi_attribute 26, 1
  10              		.eabi_attribute 30, 2
  11              		.eabi_attribute 34, 1
  12              		.eabi_attribute 18, 4
  13              		.thumb
  14              		.file	"hal_st_lld.c"
  15              		.text
  16              	.Ltext0:
  17              		.section	.gnu.lto_.jmpfuncs.2d72a47e3c862c26,"",%progbits
  18 0000 789C6362 		.ascii	"x\234cb`b\300\006\244\2414X\226\221\201\211)\2021\223"
  18      6062C006 
  18      A4A13458 
  18      96918189 
  18      29823193 
  19 0014 91410628 		.ascii	"\221A\006(\000fp\000E\001\031\363\001\323"
  19      00667000 
  19      450119F3 
  19      01D3
  20              		.text
  21              		.section	.gnu.lto_.inline.2d72a47e3c862c26,"",%progbits
  22 0000 789C6362 		.ascii	"x\234cb`b\300\006\254\2404P\226G\224\221\201\211\357"
  22      6062C006 
  22      ACA03450 
  22      96479491 
  22      8189EF
  23 0013 5E0003DB 		.ascii	"^\000\003\333\002y\260bF.8\301 \"\003\224\224yp\213"
  23      0279B062 
  23      462E38C1 
  23      20220394 
  23      9479708B 
  24 0027 112ECBCC 		.ascii	"\021.\313\314\003\326\305\000\000\260\004\005a"
  24      03D6C500 
  24      00B00405 
  24      61
  25              		.text
  26              		.section	.gnu.lto_.pureconst.2d72a47e3c862c26,"",%progbits
  27 0000 789C6362 		.ascii	"x\234cb`b`e\200\000&\006+F)\000\001f\000a"
  27      60626065 
  27      80002606 
  27      2B462900 
  27      01660061 
  28              		.text
  29              		.section	.gnu.lto_VectorB0.2d72a47e3c862c26,"",%progbits
  30 0000 789C8D53 		.ascii	"x\234\215S_HSQ\030\377\276s\357\3344\007\372\332\303"
  30      5F485351 
  30      18FFBE73 
  30      EFDC3407 
  30      FADAC3
  31 0013 1C421494 		.ascii	"\034B\024\224\273\251\017\275\026\366\"\270\0277\241"
ARM GAS  /tmp/ccDsCKUe.s 			page 2


  31      BBA90FBD 
  31      16F622B8 
  31      1737A1
  32 0022 9EC6F53A 		.ascii	"\236\306\365:\334\205\315\311\356\024\245\007\317\334"
  32      DC85CDC9 
  32      EE14A507 
  32      CFDC
  33 0030 1E0283C4 		.ascii	"\036\002\203\304\210\"\321\360!\243\036\222\"\"\024"
  33      8822D1F0 
  33      21A31E92 
  33      222214
  34 003f 4A7B3242 		.ascii	"J{2BE\212\010)\230/\202\364O\361\241Hm}\347^ww\035R"
  34      458A0829 
  34      982F82F4 
  34      4FF1A148 
  34      6D7DE75E 
  35 0057 7DEC3BDF 		.ascii	"}\354;\337w\276\177\347w~\347\216\001\203ri\"\235\224"
  35      77BE7FE7 
  35      777EE78E 
  35      01837269 
  35      229D94
  36 006a 007E9045 		.ascii	"\000~\220E\027 \033]\006\310x\030\223f}\300\253\344"
  36      17201B5D 
  36      06C87818 
  36      93667DC0 
  36      ABE4
  37 007c F70AF06A 		.ascii	"\367\012\360j\011e+,#\012\007\020\206\230$\343\320e"
  37      09652B2C 
  37      230A0710 
  37      869824E3 
  37      D065
  38 008e 3487CCB0 		.ascii	"4\207\314\260\371|\241\360\350\305\365\273{\370\222"
  38      F97CA1F0 
  38      E8C5F5BB 
  38      7BF892
  39 009d 7925D011 		.ascii	"y%\320\021d\261\220\270 \307\371\250\037@3\267aZ\305"
  39      64B190B8 
  39      20C7F9A8 
  39      1F4033B7 
  39      615AC5
  40 00b0 880E64C2 		.ascii	"\210\016d\302JK\360j\355\303\356:Sq\212\216\357F\351"
  40      4A4BF06A 
  40      EDC3EE3A 
  40      53718A8E 
  40      EF46E9
  41 00c3 343CE439 		.ascii	"4<\3449\324\021\307\341\016\031v\211\026\211\223\310"
  41      D411C7E1 
  41      0E197689 
  41      168993C8 
  42 00d3 60BAE681 		.ascii	"`\272\346\201\235X\304\277\004\331\271\354\006\026\333"
  42      9D58C4BF 
  42      04D9B9EC 
  42      0616DB
  43 00e2 659A20CA 		.ascii	"e\232 \312\314\233.B\356K\306k\247\314\270S:h\332\254"
  43      CC9B2E42 
  43      EE4BC66B 
  43      A7CCB853 
ARM GAS  /tmp/ccDsCKUe.s 			page 3


  43      3A68DAAC 
  44 00f6 4F4078FE 		.ascii	"O@x\376sw\373\000\202y~\206\207\376\023\201\210\230"
  44      7377FB00 
  44      82797E86 
  44      87FE1381 
  44      8898
  45 0108 EE6B18F6 		.ascii	"\356k\030\366\000\324\303\024\347c\371O\017\226\026"
  45      00D4C314 
  45      E763F94F 
  45      0F9616
  46 0117 702CCB17 		.ascii	"p,\313\027yn\276P\300:\035e\006](8\020\015.\277i*\344"
  46      796EBE50 
  46      C03A1D65 
  46      065D2838 
  46      100D2EBF 
  47 012e C36F2162 		.ascii	"\303o!b21\005\3130\274\275\226\235>nsg9\363so\307\245"
  47      323105CB 
  47      30BCBD96 
  47      9D3E6E73 
  47      6739F373 
  48 0145 532A4E63 		.ascii	"S*Nc\275M,\377\276\262 \331\005;7\027\275\015\245\335"
  48      BD4D2CFF 
  48      BEB220D9 
  48      053B3717 
  48      BD0DA5DD 
  49 0159 AD91DAC7 		.ascii	"\255\221\332\307.{\373fo\2076\326-5\024`\030\251D*\223"
  49      2E7BFB66 
  49      6F8736D6 
  49      2D351460 
  49      18A9442A 
  50 016e BAC07C57 		.ascii	"\272\300|W\204\217\024\"\366$\353c\361\301W\234\340"
  50      848F1422 
  50      F624EB63 
  50      F1C1579C 
  50      E0
  51 017f B7CFEBE8 		.ascii	"\267\317\353\350>\004\261\224\337:\310{\254K\254@vk"
  51      3E04B194 
  51      DF3AC87B 
  51      AC4BAC40 
  51      766B
  52 0191 EFDEC6B5 		.ascii	"\357\336\306\265\206r\360#\373Yw\351\370\012\253\372"
  52      8672F023 
  52      FB5977E9 
  52      F80AABFA 
  53 01a1 0AFCE257 		.ascii	"\012\374\342Wy\215\216\225\032\272U|j\301\320\261\252"
  53      798D8E95 
  53      1ABA557C 
  53      6AC1D0B1 
  53      AA
  54 01b2 9CD0CDE5 		.ascii	"\234\320\315\345rBU\274o^\340\237\214\302\337\030\375"
  54      724255BC 
  54      6F5EE09F 
  54      8CC2DF18 
  54      FD
  55 01c3 3C21187D 		.ascii	"<!\030}\346dt\356\335\272\223\321o^\305\301\350d\355"
  55      E66474EE 
  55      DDBA93D1 
ARM GAS  /tmp/ccDsCKUe.s 			page 4


  55      6F5EC5C1 
  55      E864ED
  56 01d6 AA83D1FD 		.ascii	"\252\203\321\375\033\216+yH+I\253H\217\035\301\250\212"
  56      1B8E2B79 
  56      482B49AB 
  56      488F1DC1 
  56      A88A
  57 01e8 33E4D890 		.ascii	"3\344\330\220\212\014\252\370\004}\316\217R6\377\030"
  57      8A0CAAF8 
  57      047DCE8F 
  57      5236FF18 
  58 01f8 C463FE77 		.ascii	"\304c\376w\2675\3730O\325`s\264\012\231|\341d\261\310"
  58      B735FB30 
  58      4FD56073 
  58      B40A997C 
  58      E164B1C8 
  59 020c 92303D2D 		.ascii	"\2220=-\015\020\263\233\003\001\305\372%\015%\246\306"
  59      0D10B39B 
  59      0301C5FA 
  59      250D25A6 
  59      C6
  60 021d 95DE642A 		.ascii	"\225\336d*m(\241p\260\271Iik\273\250\204[\203\375\215"
  60      6D28A170 
  60      B0B94969 
  60      6BBBA884 
  60      5B83FD8D 
  61 0231 221331D2 		.ascii	"\"\0231\322\221x\274+\240A\203\263GK&\022\311\236\203"
  61      9178BC2B 
  61      A04183B3 
  61      474B2612 
  61      C99E83
  62 0244 B60BEDC1 		.ascii	"\266\013\355\301\226\340\200\242\305\264d*\032\351?"
  62      96E080A2 
  62      C5B4642A 
  62      1AE93F
  63 0253 9708C4C0 		.ascii	"\227\010\304\300\325\257\306\373\242\215G\364D\007\322"
  63      D5AFC6FB 
  63      A28D47F4 
  63      4407D2
  64 0262 4A4B30D4 		.ascii	"JK0\324\032R\364\036-\336\327\025U\264\204\241\033\221"
  64      1A52F41E 
  64      2DDED715 
  64      55B484A1 
  64      1B91
  65 0274 6E4DA3BE 		.ascii	"nM\243\276:gG*]\252\211\031\203Fy^ O\032\264P\241\260"
  65      3A67472A 
  65      5DAA8919 
  65      8346795E 
  65      204F1AB4 
  66 028b 94AF0986 		.ascii	"\224\257\011\206\332\375\235\252\021\355M\351g\374'"
  66      DAFD9DAA 
  66      11ED4DE9 
  66      67FC27
  67 029a CE024B81 		.ascii	"\316\002K\201;\021M$S\203\360\007h\2222f"
  67      3B114D24 
  67      5383F007 
  67      68923266 
ARM GAS  /tmp/ccDsCKUe.s 			page 5


  68              		.text
  69              		.section	.gnu.lto_st_lld_init.2d72a47e3c862c26,"",%progbits
  70 0000 789C95D3 		.ascii	"x\234\225\3231O\302@\024\000\340\367\356(\0244F\335"
  70      314FC240 
  70      1400E0F7 
  70      EE281434 
  70      46DD
  71 0012 340EAEC6 		.ascii	"4\016\256\306H\243\304\331\305\205\004&k\"\023AL\220"
  71      48A3C4D9 
  71      C5850426 
  71      6B221341 
  71      4C90
  72 0024 840423C4 		.ascii	"\204\004#\304\305\201#b\302\340@\234\210:\350\012\006"
  72      C5812362 
  72      C2E0409C 
  72      883AE80A 
  72      06
  73 0035 365337C2 		.ascii	"6S7\302\346\000\306\315\270\310\250\377\200\270\340"
  73      E600C6CD 
  73      B8C8A8FF 
  73      80B8E0
  74 0044 5DAFA502 		.ascii	"]\257\245\002\206\244\227\366]\333\273\367\365\265\275"
  74      86A497F6 
  74      5DDBBBF7 
  74      F5B5BD
  75 0053 122030DE 		.ascii	"\022 0\336\226\304\356\001\330\346=R@R\351\002\024U"
  75      96C4EE01 
  75      D8E63D52 
  75      4052E902 
  75      1455
  76 0065 82280E00 		.ascii	"\202(\016\000\241@\260\020Csn\223\264z\203A\343\351"
  76      A140B010 
  76      43736E93 
  76      B47A8341 
  76      E3E9
  77 0077 FAEE0ABB 		.ascii	"\372\356\012\273d\201@\032\201\212\240\210\340\025\201"
  77      6481401A 
  77      818AA088 
  77      E01581
  78 0086 37054A8C 		.ascii	"7\005J\214UV\001\222\346\251\316\243\240\366\221\210"
  78      55560192 
  78      E6A9CEA3 
  78      A0F69188 
  79 0096 9E76A0FD 		.ascii	"\236v\240\375a\324\226\023\370\200\012\244\220\254C"
  79      61D49613 
  79      F8800AA4 
  79      90AC43
  80 00a5 8D958AF3 		.ascii	"\215\225\212\363i\304[\270\3014\222\003\036(\273/3\017"
  80      69C45BB8 
  80      C1349203 
  80      1E28BB2F 
  80      330F
  81 00b7 9887E6AD 		.ascii	"\230\207\346\255\017\321.\270\003\027\317\324\316\246"
  81      0FD12EB8 
  81      0317CFD4 
  81      CEA6
  82 00c5 29391FD0 		.ascii	")9\037\320\034i\207\345\200;3%\316EY\345:\261ae\234"
ARM GAS  /tmp/ccDsCKUe.s 			page 6


  82      1C6987E5 
  82      803B3325 
  82      CE4559E5 
  82      3AB16165 
  83 00da F0883C85 		.ascii	"\360\210<\205\265*l\316$\024\213\300\377\312\362r\300"
  83      B52A6CCE 
  83      24148BC0 
  83      FFCAF272 
  83      C0
  84 00eb 2C8BCD4F 		.ascii	",\213\315O\255k:\312\0353\331\350\327\333\364/\300v"
  84      AD6B3ACA 
  84      1D33D9E8 
  84      D7DBF42F 
  84      C076
  85 00fd 868257A4 		.ascii	"\206\202W\244\371\030o\362\311|\226 ?\264\270\202\237"
  85      F9186FF2 
  85      C97C9620 
  85      3FB4B882 
  85      9F
  86 010e 8BB206A3 		.ascii	"\213\262\006\243\332p\315P\207\031\014\250\345\030\356"
  86      DA70CD50 
  86      87190CA8 
  86      E518EE
  87 011d 1D8FE380 		.ascii	"\035\217\343\200\245\274\017\225\015x\024J\214\017:"
  87      A5BC0F95 
  87      0D78144A 
  87      8C0F3A
  88 012c A03A1D54 		.ascii	"\240:\035T\206\240\177\270\224G\370\276\373\"\275\223"
  88      86A07FB8 
  88      9447F8BE 
  88      FB22BD93 
  89 013c 4AB5E95A 		.ascii	"J\265\351Z\361M*\206{Eu\024\264_\230{\305?\252\274\302"
  89      F14D2A86 
  89      7B457514 
  89      B45F987B 
  89      C53FAABC 
  90 0151 65EFE53B 		.ascii	"e\357\345; \021\200s\370ae\306Wc i\25581sfEv*\377\235"
  90      20118073 
  90      F86165C6 
  90      57632069 
  90      AD383173 
  91 016b 6701DEA0 		.ascii	"g\001\336\240\330\373Z\263Sd\323\371t\376+\2135\026"
  91      D8FB5AB3 
  91      5364D3F9 
  91      74FE2B8B 
  91      3516
  92 017d 0A0635B9 		.ascii	"\012\0065\271es\332q\"\243\235dO\3639mO\217\206\266"
  92      6573DA71 
  92      22A39D64 
  92      4FF3396D 
  92      4F8F86B6 
  93 0191 B4486457 		.ascii	"\264HdW\323\303\321\263M1\022\317\345\343\231\314Q0"
  93      D3C3D1B3 
  93      4D3112CF 
  93      E5E399CC 
  93      5130
  94 01a3 09BF57C5 		.ascii	"\011\277W\305\366\324"
ARM GAS  /tmp/ccDsCKUe.s 			page 7


  94      F6D4
  95              		.text
  96              		.section	.gnu.lto_.symbol_nodes.2d72a47e3c862c26,"",%progbits
  97 0000 789C6362 		.ascii	"x\234cb`bHd\200\002\246\233\214\365\014\014\023\316"
  97      60624864 
  97      8002A69B 
  97      8CF50C0C 
  97      13CE
  98 0012 3130D4D7 		.ascii	"10\324\327\317\353`d\272\305X\317\210\3402\336f\254"
  98      CFEB6064 
  98      BAC558CF 
  98      88E032DE 
  98      66AC
  99 0024 6782701B 		.ascii	"g\202p\033\032\030\031\3570\3263#xw\031\353Y\340<f\006"
  99      1A1819EF 
  99      30D63323 
  99      787719EB 
  99      59E03C66 
 100 0039 6686C35B 		.ascii	"f\206\303[M\230\201f/n{#\317\314\310\302p\270\375\215"
 100      4D988166 
 100      2F6E7B23 
 100      CFCCC8C2 
 100      70B8FD8D 
 101 004d 3C0300C6 		.ascii	"<\003\000\306\025\035&"
 101      151D26
 102              		.text
 103              		.section	.gnu.lto_.refs.2d72a47e3c862c26,"",%progbits
 104 0000 789C6362 		.ascii	"x\234cb`b`d\200\002\000\000F\000\006"
 104      60626064 
 104      80020000 
 104      460006
 105              		.text
 106              		.section	.gnu.lto_.decls.2d72a47e3c862c26,"",%progbits
 107 0000 789C9D57 		.ascii	"x\234\235W{l\024\307\031\237\331\363\2636\216\343<\344"
 107      7B6C14C7 
 107      199FD9F3 
 107      B3368EE3 
 107      3CE4
 108 0012 F41F8CD4 		.ascii	"\364\037\214\324TQ*8?\2444j\253\010\373\356\260-q`\355"
 108      54512A38 
 108      3FA4346A 
 108      AB08FBEE 
 108      B02D7160 
 109 0027 9908A952 		.ascii	"\231\010\251R\267\313y\211O\275\007\275;S\363\027\353"
 109      B7CB7989 
 109      4FBD07BD 
 109      3B53F317 
 109      EB
 110 0038 98109234 		.ascii	"\230\020\2224\265c\342\326<\344\232\024S\214R\227\247"
 110      B563E2D6 
 110      3CE49A14 
 110      538C5297 
 110      A7
 111 0049 4DC02407 		.ascii	"M\300$\007(\201\010E\024\007Rd\242\366D\243@H\223\230"
 111      28810845 
 111      14075264 
 111      A2F644A3 
ARM GAS  /tmp/ccDsCKUe.s 			page 8


 111      40489398 
 112 005d 140C2181 		.ascii	"\024\014!\201\3537\263{\347\231\365\356\261\227\225"
 112      EB37B37B 
 112      E799F5EE 
 112      B19795
 113 006c BF6FE776 		.ascii	"\277o\347vg~\277\337|\337\354x>\001\011\310\215\021"
 113      677EBFDF 
 113      7CDFEC78 
 113      3E0109C8 
 113      8D11
 114 007e 4AC115AD 		.ascii	"J\301\025\255D\350\244\003!\370C\317\200\301c\264\003"
 114      44E8A403 
 114      21F843CF 
 114      80C163B4 
 114      03
 115 008f 69573ED8 		.ascii	"iW>\3300\330\010\330\233`\243`{\321\334\213\364)\001"
 115      30D808D8 
 115      9B60A360 
 115      7BD1DC8B 
 115      F42901
 116 00a2 2B043B04 		.ascii	"+\004;\0046\006\366\231\216S\006V\012v\015\354K\260"
 116      3606F699 
 116      8E530656 
 116      0A760DEC 
 116      4BB0
 117 00b4 69B05D3A 		.ascii	"i\260]:\317I\260y\372\370\353`7\300n\201\335\001\273"
 117      CF49B079 
 117      FAF8EB60 
 117      37C06E81 
 117      DD01BB
 118 00c7 0B568035 		.ascii	"\013V\2005\316b\270\227\202=\000V\2015-\306kD\307Jk"
 118      CE62B897 
 118      823D0056 
 118      81352DC6 
 118      6B44C74A 
 119 00dc 7804FAD5 		.ascii	"x\004\372\325\202\325\201\375\034\317j\372\010,\017"
 119      82D581FD 
 119      1CCF6AFA 
 119      082C0F
 120 00eb EC1758D3 		.ascii	"\354\027X\323\267\017\354\007`O\300\357\237\201\235"
 120      B70FEC07 
 120      604FC0EF 
 120      9F819D
 121 00fa 85F639B0 		.ascii	"\205\3669\260S`\027\300\216\203\035\003{\027\354(\230"
 121      536017C0 
 121      8E831D03 
 121      7B17EC28 
 121      98
 122 010b A07399C5 		.ascii	"\240s\231\305\241\030mR\325\347\325\241\215j\323i\230"
 122      A1186D52 
 122      D5E7D5A1 
 122      8D6AD369 
 122      98
 123 011c F74A2CE3 		.ascii	"\367J,\343\262bTE\033\245\305\224\366q\264SU{\223/\\"
 123      B2625445 
 123      1BA5C594 
 123      F671B453 
ARM GAS  /tmp/ccDsCKUe.s 			page 9


 123      557B932F 
 124 0131 BB2DA86A 		.ascii	"\273-\250j\221\214w\340b\200\2241z\022\215\250\360F"
 124      918C77E0 
 124      62809431 
 124      7A128DA8 
 124      F046
 125 0143 554F3C85 		.ascii	"UO<\205M\240e\\X<\347\267\214w\342'\221FD_\353\015\222"
 125      4DA0655C 
 125      583CE7B7 
 125      8C77E227 
 125      9146445F 
 126 015a D707109A 		.ascii	"\327\007\020\232\217\006\325\241d\362\303S_=\264EMl"
 126      8F06D5A1 
 126      64F2C353 
 126      5F3DB445 
 126      4D6C
 127 016c 5053A9F5 		.ascii	"PS\251\365\350Q\324\0174D\242\212\3432~\346\021S\225"
 127      E851D40F 
 127      3444A28A 
 127      E3327EE6 
 127      115395
 128 017f 047F177E 		.ascii	"\004\177\027~To\255ph\234\002\032\3068C\252]?F\303\004"
 128      546FAD70 
 128      689C021A 
 128      C63843AA 
 128      5D3F46C3 
 129 0194 4FDDAD3A 		.ascii	"O\335\255:(\032\351?\214\347\363R\377\212\005\366\201"
 129      281AE93F 
 129      8CE7F352 
 129      FF8A05F6 
 129      81
 130 01a5 A62B31DE 		.ascii	"\246+1\336w\006\253}\352w\251\224C\247\023\320\250-"
 130      7706AB7D 
 130      EA77A994 
 130      43A713D0 
 130      A82D
 131 01b7 821123C1 		.ascii	"\202\021#\301\236\271\004\311\336\344\315W\276x\021"
 131      9EB904C9 
 131      DEE4CD57 
 131      BE7811
 132 01c6 BFD63D74 		.ascii	"\277\326=tZ\235&\361Hs\\\235\303\241\201\374\315\024"
 132      5A9D26F1 
 132      48735C9D 
 132      C3A181FC 
 132      CD14
 133 01d8 64A66726 		.ascii	"d\246g&o\213zB\213^\032b\233`\016\361wS\210\211\315"
 133      6F8B7A42 
 133      8B5E1A62 
 133      9B600EF1 
 133      77538889 
 134 01ed 677106C2 		.ascii	"gq\006\302~\002\366\351\011p\3205\207\264\265\302\375"
 134      7E02F6E9 
 134      0970D035 
 134      87B4B5C2 
 134      FD
 135 01fe E0B24313 		.ascii	"\340\262C\0234e!\354 /\214.\324\356\254\013U\306o\340"
 135      346521EC 
ARM GAS  /tmp/ccDsCKUe.s 			page 10


 135      202F8C2E 
 135      D4EEAC0B 
 135      55C66FE0 
 136 0212 C76D2DB3 		.ascii	"\307m-\263\012\364\032\231Q\025\203\244\026\244\241"
 136      0AF41A99 
 136      511583A4 
 136      16A4A1
 137 0221 7E8D326B 		.ascii	"~\2152k~\374O\267\236\242k~\014W\200\324A\007/\365\276"
 137      7EFC4FB7 
 137      9EA26B7E 
 137      0C5780D4 
 137      41072FF5 
 138 0236 3044D35B 		.ascii	"0D\323[0T\033DA\325\304\346K\245j\236\366\034\231\314"
 138      30541B44 
 138      41D5C4E6 
 138      4BA56A9E 
 138      F61C99CC 
 139 024a 5CBF16A0 		.ascii	"\\\277\026\240!uCw\242\377\322\366\307\324\241\023\000"
 139      21754377 
 139      A2FFD2F6 
 139      C7D4A113 
 139      00
 140 025b 79887E76 		.ascii	"y\210~v{\250\0042\326,\002zS\273\364\016<\336\037/\225"
 140      7BA80432 
 140      D62C027A 
 140      53BBF40E 
 140      3CDE1F2F 
 141 0270 F6CA69B0 		.ascii	"\366\312i\260\321\234\301\2528\260\001\026l\277\035"
 141      D19CC1AA 
 141      38B00116 
 141      6CBF1D
 142 027f B0226B65 		.ascii	"\260\"ke[Y\260\361\234\301xe\333Y\260\011;`\345\326"
 142      5B59B0F1 
 142      9CC17865 
 142      DB59B009 
 142      3B60E5D6 
 143 0293 CA0659B0 		.ascii	"\312\006Y\260wr\006\343\225\355e\301N\332\001\253\264"
 143      777206E3 
 143      95ED65C1 
 143      4EDA01AB 
 143      B4
 144 02a4 56B69F05 		.ascii	"V\266\237\005{?g0^\331A\026\354\254\035\260*kec,\330"
 144      7B3F6730 
 144      5ED94116 
 144      ECAC1DB0 
 144      2A6B6563 
 145 02ba F99CC178 		.ascii	"\371\234\301xe\207Y\260\213v\300\236\260Vv\204\005\373"
 145      658759B0 
 145      8B76C09E 
 145      B0567684 
 145      05FB
 146 02cc 3867305E 		.ascii	"8g0^\331\004\013\226\264\003Vm\245\254+\361\366/{\345"
 146      D9040B96 
 146      B403566D 
 146      A5AC2BF1 
 146      F62F7BE5 
 147 02e0 0751AFBE 		.ascii	"\007Q\257\276\245h\250\351m\005\363K\213\355\266\303"
ARM GAS  /tmp/ccDsCKUe.s 			page 11


 147      A568A8E9 
 147      6D05F34B 
 147      8BEDB6C3 
 148 02f0 BA9B8CFF 		.ascii	"\272\233\214\377\211\037\244-\272}\252\372\366I{X\355"
 148      891FA42D 
 148      BA7DAAFA 
 148      F6497B58 
 148      ED
 149 0301 E117B55D 		.ascii	"\341\027\265]z\366\363\327\033\263{6\333\013\246\375"
 149      7AF6F3D7 
 149      1BB37B36 
 149      DB0BA6FD 
 150 0311 8971DABC 		.ascii	"\211q\332\274\012\263y\363A\374\007\033\304\253v\202"
 150      0AB379F3 
 150      41FC071B 
 150      C4AB7682 
 151 0321 B8D81A6C 		.ascii	"\270\330\032l\222\005\373\302\016X\223\365Z9\317\202"
 151      9205FBC2 
 151      0E5893F5 
 151      5A39CF82 
 152 0331 5DCF198C 		.ascii	"]\317\031\214W\366\021\0136c\007\254\305Z\331E\026\354"
 152      57F6110B 
 152      366307AC 
 152      C55AD945 
 152      16EC
 153 0343 9B9CC158 		.ascii	"\233\234\301Xe]\211\251\331\2057\264\330\260\362\026"
 153      655D89A9 
 153      D98537B4 
 153      D8B0F216 
 154 0353 F3BB2DD7 		.ascii	"\363\273-\327m\207e7\031\177\232\363\302\273b\261\360"
 154      6D876537 
 154      197F9AF3 
 154      C2BB62B1 
 154      F0
 155 0364 D8B3E56C 		.ascii	"\330\263\345l/\230v\3128mN\204\336\\i\022C\263\213\375"
 155      2F9876CA 
 155      386D4E84 
 155      DE5C6912 
 155      43B38BFD 
 156 0378 472DE323 		.ascii	"G-\343#\364 q\024/\000\177\214\372w\250?N\375I\352\337"
 156      F4207114 
 156      2F007F8C 
 156      FA77A83F 
 156      4EFD49EA 
 157 038d A5FE14F5 		.ascii	"\245\376\024\365\357S\177\206\372\017\250?K\3759\352"
 157      EF537F86 
 157      FA0FA83F 
 157      4BFD39EA 
 158 039d 3FA4FE02 		.ascii	"?\244\376\002\365S\324\177L\375\277\250OR\177\231\372"
 158      F553D47F 
 158      4CFDBFA8 
 158      4F527F99 
 158      FA
 159 03ae 4FC067AE 		.ascii	"O\300g\256\022\364\362\354\331\\;\203X\305\3563\\\222"
 159      12F4F2EC 
 159      D95C3B83 
 159      58C5EE33 
ARM GAS  /tmp/ccDsCKUe.s 			page 12


 159      5C92
 160 03c0 1E95C9D0 		.ascii	"\036\225\311\320@\231~\270O\016\253\225\225\231\030"
 160      40997EB8 
 160      4F0EAB95 
 160      959918
 161 03cf 14B171D5 		.ascii	"\024\261q\325\216$0@\220\361\347t-m\3103;\313S\222\317"
 161      8E243040 
 161      90F1E774 
 161      2D6DC833 
 161      3BCB5392 
 162 03e4 990469ED 		.ascii	"\231\004i\355t+\2053\360\345ixA\037uM_\010L\352\322"
 162      742B8533 
 162      F0E56978 
 162      411F754D 
 162      5F084CEA 
 163 03f9 BBD74099 		.ascii	"\273\327@\2316\\\037\372tzh\241>\340\313\234\327\320"
 163      365C1FFA 
 163      747A68A1 
 163      3EE0CB9C 
 163      D7D0
 164 040b 57166BA8 		.ascii	"W\026k\250\300<\244\344hl\0055\015!eNg\344`\234\230"
 164      C03CA4E4 
 164      686C0535 
 164      0D21654E 
 164      67E4609C 
 165 0420 4E1EB87C 		.ascii	"N\036\270|z\023>>\274Q\355\355J\246\326\3779Q\236>_"
 165      7A133E3E 
 165      BC51EDED 
 165      4AA6D6FF 
 165      39519E3E 
 166 0435 8FE4D929 		.ascii	"\217\344\331)\003\256\033\313\200\257\347\036\277\201"
 166      03AE1BCB 
 166      80AFE71E 
 166      BF81
 167 0443 65A6E7DF 		.ascii	"e\246\347\337\005\351\372gA\232a\302\026\303\015#\303"
 167      05E9FA67 
 167      419A61C2 
 167      16C30D23 
 167      C3
 168 0454 4D53861B 		.ascii	"MS\206\033g\276{l\016\303\007\266\030n\031\031n\233"
 168      67BE7B6C 
 168      0EC307B6 
 168      186E1919 
 168      6E9B
 169 0466 3124CE7F 		.ascii	"1$\316\177zZ\257\225\2727\011\2312$i\213\342\216\221"
 169      7A5AAF95 
 169      BA370999 
 169      3224698B 
 169      E28E91
 170 0479 E25BD349 		.ascii	"\342[\323I\034\2722\335\364\315~U}I\275\227Z\337\265"
 170      1CBA32DD 
 170      F4CD7E55 
 170      7D49BD97 
 170      5ADFB5
 171 048c 6181FD42 		.ascii	"a\201\375B\345\236Y\241b(L\266\347\263RiO8\177\347\353"
 171      E59E59A1 
 171      62284CB6 
ARM GAS  /tmp/ccDsCKUe.s 			page 13


 171      E7B35269 
 171      4F387FE7 
 172 04a1 9FC78FD0 		.ascii	"\237\307\217\320_T\230\336\271\367J{q\272&>LG\334\005"
 172      5F5498DE 
 172      B9F74A7B 
 172      71BA263E 
 172      4C47DC05 
 173 04b5 F1E6E589 		.ascii	"\361\346\345\211^\000\3513\376_WKef\306w\2153V\005\263"
 173      5E00E933 
 173      FE5F574B 
 173      6566C677 
 173      8D335605 
 174 04ca 191FB87C 		.ascii	"\031\037\270|{\300t\371\275\235o'\256\033\005\003\313"
 174      7BC074F9 
 174      BD9D6F27 
 174      AE1B0503 
 174      CB
 175 04db 8B662C89 		.ascii	"\213f,\211\303\227\315R7i\213\342%#\305\313\246\023"
 175      C397CD52 
 175      37698BE2 
 175      2523C5CB 
 175      A613
 176 04ed 99E9B939 		.ascii	"\231\351\2719w\205_\261\305\360{#\303\253\246\0147^"
 176      77855FB1 
 176      C5F07B23 
 176      C3ABA60C 
 176      375E
 177 04ff 79EF8773 		.ascii	"y\357\207s\030\356\330b\35012\364\232\206\351\340\025"
 177      18EED862 
 177      E83132F4 
 177      9A86E9E0 
 177      15
 178 0510 B330F514 		.ascii	"\2630\365\024\330\241\3503Rl\346)\314JK\007{\226\322"
 178      D8A1E833 
 178      526CE629 
 178      CC4A4B07 
 178      7B96D2
 179 0523 2BD45B5F 		.ascii	"+\324[__\015u\303r\227q\277@J\324\363\006\366\373\342"
 179      5F0D75C3 
 179      729771BF 
 179      404AD4F3 
 179      06F6FBE2 
 180 0537 10EE01C1 		.ascii	"\020\356\001\301P\242~;EKT\362\374\376%jj\352u\256D"
 180      50A27E3B 
 180      454B54F2 
 180      FCFE256A 
 180      6AEA75AE 
 181 054c 4D520964 		.ascii	"MR\011d\354\367+Q{\331\243\315\177r\006\253\342\300"
 181      ECF72B51 
 181      7BD9A3CD 
 181      7F7206AB 
 181      E2C0
 182 055e FAB8B3A5 		.ascii	"\372\270\263\245\035\260,%\352\353,\330\177s\006\343"
 182      1DB02C25 
 182      EAEB2CD8 
 182      7F7306E3 
 183 056e 957195F8 		.ascii	"\225q\225\370M;`YJT\256\022\277\2273\030\257\214\253"
ARM GAS  /tmp/ccDsCKUe.s 			page 14


 183      4D3B6059 
 183      4A54AE12 
 183      BF973318 
 183      AF8CAB
 184 0581 C45F28B4 		.ascii	"\304_(\264\001\226\245D\345*\361Ws\006\343\225q\225"
 184      0196A544 
 184      E52AF157 
 184      7306E395 
 184      7195
 185 0593 78BF1DB0 		.ascii	"x\277\035\260*ke\\%\2765g0F\231\372|b|\333\037\364\217"
 185      2A6B655C 
 185      25BE3567 
 185      304699FA 
 185      7C627CDB 
 186 05aa 40FB5730 		.ascii	"@\373W0h\007/K\225\372\326%\376\243\332\2353^\025\262"
 186      68072F4B 
 186      95FAD625 
 186      FEA3DA9D 
 186      335E15B2 
 187 05be BCD82F5E 		.ascii	"\274\330/^\306[\004r\326\335*\220\363\347v\352\007\251"
 187      C65B0472 
 187      D6DD2A90 
 187      F3E776EA 
 187      07A9
 188 05d0 1FA2FE0D 		.ascii	"\037\242\376\015\352wR\277\213\372\335\324\357\241\376"
 188      EA7752BF 
 188      8BFADDD4 
 188      EFA1FE
 189 05df 4DEA47A9 		.ascii	"M\352G\251\337+X\237]\373-\204\023-\373\205\314\331"
 189      DF2B589F 
 189      5DFB2D84 
 189      132DFB85 
 189      CCD9
 190 05f1 55DFAD48 		.ascii	"U\337\255Hu\221\231\007w\250\327v\275\304\205>\\%\343"
 190      75919907 
 190      77A8D776 
 190      BDC4853E 
 190      5C25E3
 191 0604 0374C71B 		.ascii	"\003t\307\033-4\335\361\2541\010\347\230q\307;6Iw\274"
 191      2D34DDF1 
 191      AC3108E7 
 191      9871C73B 
 191      364977BC 
 192 0618 315B3BDE 		.ascii	"1[;\336\271I>9\307\250\204\261\357\275\343MNfV\242\214"
 192      B9493E39 
 192      C7A884B1 
 192      EFBDE34D 
 192      4E6656A2 
 193 062d B709428E 		.ascii	"\267\011B\216`Y3=\306dz\234f\3720\315\326\221,\331:"
 193      6059333D 
 193      C6647A9C 
 193      66FA30CD 
 193      D6912CD9 
 194 0642 90255B47 		.ascii	"\220%[Gg\263e\030\265/\313azbv\024\372\225\263=\022"
 194      67B36518 
 194      B52FCB61 
 194      7A627614 
ARM GAS  /tmp/ccDsCKUe.s 			page 15


 194      FA95B33D 
 195 0657 529C7250 		.ascii	"R\234rP\351tz\225p<\022m\214\312k\332\003\376\230\323"
 195      E9747A95 
 195      703C126D 
 195      8CCA6BDA 
 195      03FE98D3 
 196 066b 17E988FA 		.ascii	"\027\351\210\372\225\350:\311\025iS\032\224\260\277"
 196      95E83AC9 
 196      1569531A 
 196      94B0BF
 197 067a 5D5A1A88 		.ascii	"]Z\032\210+\322\352HT\252\027\275\222\247\276\241\331"
 197      2BD2EA48 
 197      54AA17BD 
 197      92A7BEA1 
 197      D9
 198 068b 2947430B 		.ascii	")GC\013\303\221\260\262P\221W\005\234\201\260?\330\321"
 198      C391B0B2 
 198      50915705 
 198      9C81B03F 
 198      D8D1
 199 069d A63863F1 		.ascii	"\2468c\361\266@8\276\250\035\025u\300\275\256V\212\027"
 199      B64038BE 
 199      A81D1575 
 199      C0BDAE56 
 199      8A17
 200 06af 342E5B51 		.ascii	"4.[Q\345Bu\213\0269\265\277H\314\331.\007\235k\"\321"
 200      E542758B 
 200      1639B5BF 
 200      48CCD92E 
 200      079D6B22 
 201 06c4 3850B57A 		.ascii	"8P\265z\353j\235K\227\272\235\255\315\336\2655\344\215"
 201      EB6A9D4B 
 201      97BA9DAD 
 201      CDDEB535 
 201      E48D
 202 06d6 148B4BC1 		.ascii	"\024\213K\301`\333\"?*zV\361\203\256\206\352\022\355"
 202      60DB223F 
 202      2A7A56F1 
 202      83AE86EA 
 202      12ED
 203 06e8 91140807 		.ascii	"\221\024\010\007\342\013Y \177$\024\212\204u,\220\346"
 203      E20B5920 
 203      7F24148A 
 203      84752C90 
 203      E6
 204 06f9 F2763AFD 		.ascii	"\362v:\375\355\376HT\221\326\3764\0042*$\362N\012D\177"
 204      EDFE4854 
 204      91D6FE34 
 204      04322A24 
 204      F24E0A44 
 205 070e 2B296B02 		.ascii	"+)k\002\301\310s\035\312|\026 \032\317H\367\267\307"
 205      C1C8731D 
 205      CA7C1620 
 205      1ACF48F7 
 205      B7C7
 206 0720 D6C5C810 		.ascii	"\326\305\310\020\177\273o]\2545\020R\242Mr\270-\250"
 206      7FBB6F5D 
ARM GAS  /tmp/ccDsCKUe.s 			page 16


 206      AC351052 
 206      A24D72B8 
 206      2DA8
 207 0732 449B7F62 		.ascii	"D\233\177b.^g\327y\303k\003~\030^N\356\236\260\274*"
 207      2E5E67D7 
 207      79C36B03 
 207      7E185E4E 
 207      EE9EB0BC 
 208 0747 A868F26B 		.ascii	"\250h\362k\355\315<\026\017\221p\005\210\352\222\314"
 208      EDCD3C16 
 208      0F917005 
 208      88EA92CC 
 209 0757 0F29EE70 		.ascii	"\017)\356p\2115`\265y>\257K\314s7{D\301':<\215b\276"
 209      893560B5 
 209      793EAF4B 
 209      CC73377B 
 209      44C1273A 
 210 076f CBE5156B 		.ascii	"\313\345\025k\250\257\315s\271<\242\303\265\254\325"
 210      A8AFCD73 
 210      B93CA2C3 
 210      B5ACD5
 211 077e D1E27339 		.ascii	"\321\342s9\352E\321!\272\3407\014hp\267\212\0167\031"
 211      EA45D121 
 211      BAE0370C 
 211      6870B78A 
 211      0E3719
 212 0791 E9AD1785 		.ascii	"\351\255\027\205\345\332\250:\350\277R\314\363\267\313"
 212      E5DAA83A 
 212      E8BF52CC 
 212      F3B7CB
 213 07a0 D1F94675 		.ascii	"\321\371Fu\221\0308\010\013\271\223h\220;\304ci\304"
 213      91183808 
 213      0BB99368 
 213      903BC463 
 213      69C4
 214 07b2 FF9B25D1 		.ascii	"\377\233%\321H\250\331'\226\323\0001\017*h\214\203\360"
 214      48A8D927 
 214      96D30031 
 214      0F2A688C 
 214      83F0
 215 07c4 405A0D4F 		.ascii	"@Z\015O\244@,Z\234yTc"
 215      A4402C5A 
 215      9C795463 
 216 07d0 922FA533 		.ascii	"\222/\2453\356ty}\315\276\331\340\207b\201\230\364\234"
 216      EE74797D 
 216      CDBED9E0 
 216      87628198 
 216      F49C
 217 07e2 9F44709E 		.ascii	"\237Dp\236$\305\224\270\324P\357\363\264\210\315\363"
 217      24C594B8 
 217      D450EFF3 
 217      B488CDF3 
 218 07f2 E4E0EFE4 		.ascii	"\344\340\357\344u1\310}0\020V\362\327\312\301\016\345"
 218      7531C87D 
 218      301056F2 
 218      D7CAC10E 
 218      E5
ARM GAS  /tmp/ccDsCKUe.s 			page 17


 219 0803 21226A39 		.ascii	"!\"j9\237\243\207u\241+\302AF\031\225\312=z\230*\353"
 219      9FA38775 
 219      A12BC241 
 219      461995CA 
 219      3D7A982A 
 220 0818 0873724B 		.ascii	"\010srK\230\207Og\025\354k\3252\267\244\246\263S\313"
 220      98874F67 
 220      15EC6BD5 
 220      32B7A4A6 
 220      B353CB
 221 082b D9EA9AEA 		.ascii	"\331\352\232\352\352\316U$k\242\313%\265\256[\243\270"
 221      EACE5524 
 221      6BA2CB25 
 221      B5AE5BA3 
 221      B8
 222 083c 95D50244 		.ascii	"\225\325\002D\334\265\244\021r\320,\026\325\2674\324"
 222      DCB5A411 
 222      72D02C16 
 222      D5B734D4 
 223 084c 8ABE56DA 		.ascii	"\212\276V\332\250!\215\202\372\246\006\3172\261\220"
 223      A8218D82 
 223      FAA606CF 
 223      32B190
 224 085b BCD0EF35 		.ascii	"\274\320\3575p\207d\221\254\371\304b\321\343\363\210"
 224      70876491 
 224      ACF9C462 
 224      D1E3F388 
 225 086b CF7ADCD5 		.ascii	"\317z\334\325\371\004\244\266\314\335\320\350u\255H"
 225      F904A4B6 
 225      CCDDD0E8 
 225      75AD48
 226 087a 831734BB 		.ascii	"\203\0274\273]\313\335\236\377\003\346/\275\344"
 226      5DCBDD9E 
 226      FF03E62F 
 226      BDE4
 227              		.text
 228              		.section	.gnu.lto_.symtab.2d72a47e3c862c26,"",%progbits
 229 0000 56656374 		.ascii	"VectorB0\000\000\000\000\000\000\000\000\000\000\000"
 229      6F724230 
 229      00000000 
 229      00000000 
 229      000000
 230 0013 00A50000 		.ascii	"\000\245\000\000\000st_lld_init\000\000\000\000\000"
 230      0073745F 
 230      6C6C645F 
 230      696E6974 
 230      00000000 
 231 0028 00000000 		.ascii	"\000\000\000\000\000\000\000\251\000\000\000_port_i"
 231      000000A9 
 231      0000005F 
 231      706F7274 
 231      5F69
 232 003a 72715F65 		.ascii	"rq_epilogue\000\000\002\000\000\000\000\000\000\000"
 232      70696C6F 
 232      67756500 
 232      00020000 
 232      00000000 
ARM GAS  /tmp/ccDsCKUe.s 			page 18


 233 004f 0000AC00 		.ascii	"\000\000\254\000\000\000chSysTimerHandlerI\000\000\002"
 233      00006368 
 233      53797354 
 233      696D6572 
 233      48616E64 
 234 006a 00000000 		.ascii	"\000\000\000\000\000\000\000\000\000\256\000\000\000"
 234      00000000 
 234      00AE0000 
 234      00
 235 0077 6E766963 		.ascii	"nvicEnableVector\000\000\002\000\000\000\000\000\000"
 235      456E6162 
 235      6C655665 
 235      63746F72 
 235      00000200 
 236 0090 000000B0 		.ascii	"\000\000\000\260\000\000\000"
 236      000000
 237              		.text
 238              		.section	.gnu.lto_.opts,"",%progbits
 239 0000 272D6D63 		.ascii	"'-mcpu=cortex-m3' '-mno-thumb-interwork' '-mthumb' "
 239      70753D63 
 239      6F727465 
 239      782D6D33 
 239      2720272D 
 240 0033 272D6767 		.ascii	"'-ggdb' '-O2' '-fomit-frame-pointer' '-falign-funct"
 240      64622720 
 240      272D4F32 
 240      2720272D 
 240      666F6D69 
 241 0066 696F6E73 		.ascii	"ions=16' '-ffunction-sections' '-fdata-sections' '-"
 241      3D313627 
 241      20272D66 
 241      66756E63 
 241      74696F6E 
 242 0099 666E6F2D 		.ascii	"fno-common' '-flto'\000"
 242      636F6D6D 
 242      6F6E2720 
 242      272D666C 
 242      746F2700 
 243              		.text
 244              		.cfi_sections	.debug_frame
 245              		.section	.text.VectorB0,"ax",%progbits
 246              		.align	2
 247              		.p2align 4,,15
 248              		.global	VectorB0
 249              		.thumb
 250              		.thumb_func
 251              		.type	VectorB0, %function
 252              	VectorB0:
 253              	.LFB217:
 254              		.file 1 "../../../os/hal/ports/STM32/LLD/TIMv1/hal_st_lld.c"
 255              		.loc 1 239 0
 256              		.cfi_startproc
 257              		@ args = 0, pretend = 0, frame = 0
 258              		@ frame_needed = 0, uses_anonymous_args = 0
 259 0000 08B5     		push	{r3, lr}
 260              		.cfi_def_cfa_offset 8
 261              		.cfi_offset 3, -8
ARM GAS  /tmp/ccDsCKUe.s 			page 19


 262              		.cfi_offset 14, -4
 263              		.loc 1 246 0
 264 0002 4FF08043 		mov	r3, #1073741824
 265 0006 1A69     		ldr	r2, [r3, #16]
 266 0008 9207     		lsls	r2, r2, #30
 267 000a 09D5     		bpl	.L2
 268              		.loc 1 247 0
 269 000c 0022     		movs	r2, #0
 270 000e 1A61     		str	r2, [r3, #16]
 271              	.LVL0:
 272              	.LBB52:
 273              	.LBB53:
 274              	.LBB54:
 275              	.LBB55:
 276              	.LBB56:
 277              	.LBB57:
 278              		.file 2 "../../../os/common/ext/CMSIS/include/cmsis_gcc.h"
 279              		.loc 2 264 0
 280 0010 2023     		movs	r3, #32
 281              	@ 264 "../../../os/common/ext/CMSIS/include/cmsis_gcc.h" 1
 282 0012 83F31188 		MSR basepri, r3
 283              	@ 0 "" 2
 284              		.thumb
 285              	.LBE57:
 286              	.LBE56:
 287              	.LBE55:
 288              	.LBE54:
 289              	.LBE53:
 290              	.LBE52:
 291              	.LBB58:
 292              	.LBB59:
 293              		.file 3 "../../../os/hal/osal/rt/osal.h"
 294              		.loc 3 585 0
 295 0016 FFF7FEFF 		bl	chSysTimerHandlerI
 296              	.LVL1:
 297              	.LBE59:
 298              	.LBE58:
 299              	.LBB60:
 300              	.LBB61:
 301              	.LBB62:
 302              	.LBB63:
 303              	.LBB64:
 304              	.LBB65:
 305              		.loc 2 264 0
 306 001a 0023     		movs	r3, #0
 307              	@ 264 "../../../os/common/ext/CMSIS/include/cmsis_gcc.h" 1
 308 001c 83F31188 		MSR basepri, r3
 309              	@ 0 "" 2
 310              	.LVL2:
 311              		.thumb
 312              	.L2:
 313              	.LBE65:
 314              	.LBE64:
 315              	.LBE63:
 316              	.LBE62:
 317              	.LBE61:
 318              	.LBE60:
ARM GAS  /tmp/ccDsCKUe.s 			page 20


 319              		.loc 1 255 0
 320 0020 BDE80840 		pop	{r3, lr}
 321              		.loc 1 254 0
 322 0024 FFF7FEBF 		b	_port_irq_epilogue
 323              	.LVL3:
 324              		.cfi_endproc
 325              	.LFE217:
 326              		.size	VectorB0, .-VectorB0
 327 0028 AFF30080 		.section	.text.st_lld_init,"ax",%progbits
 327      AFF30080 
 328              		.align	2
 329              		.p2align 4,,15
 330              		.global	st_lld_init
 331              		.thumb
 332              		.thumb_func
 333              		.type	st_lld_init, %function
 334              	st_lld_init:
 335              	.LFB218:
 336              		.loc 1 267 0
 337              		.cfi_startproc
 338              		@ args = 0, pretend = 0, frame = 0
 339              		@ frame_needed = 0, uses_anonymous_args = 0
 340              		@ link register save eliminated.
 341              		.loc 1 273 0
 342 0000 4FF48053 		mov	r3, #4096
 343 0004 C4F20203 		movt	r3, 16386
 344 0008 DA69     		ldr	r2, [r3, #28]
 345              		.loc 1 267 0
 346 000a 70B4     		push	{r4, r5, r6}
 347              		.cfi_def_cfa_offset 12
 348              		.cfi_offset 4, -12
 349              		.cfi_offset 5, -8
 350              		.cfi_offset 6, -4
 351              		.loc 1 273 0
 352 000c 42F00102 		orr	r2, r2, #1
 353              		.loc 1 276 0
 354 0010 4FF40051 		mov	r1, #8192
 355              		.loc 1 273 0
 356 0014 DA61     		str	r2, [r3, #28]
 357              		.loc 1 276 0
 358 0016 CEF20401 		movt	r1, 57348
 359 001a 4868     		ldr	r0, [r1, #4]
 360              		.loc 1 279 0
 361 001c 4FF08043 		mov	r3, #1073741824
 362              		.loc 1 281 0
 363 0020 0022     		movs	r2, #0
 364              		.loc 1 285 0
 365 0022 0124     		movs	r4, #1
 366              		.loc 1 276 0
 367 0024 40F40060 		orr	r0, r0, #2048
 368              		.loc 1 279 0
 369 0028 40F65F16 		movw	r6, #2399
 370              		.loc 1 280 0
 371 002c 4FF6FF75 		movw	r5, #65535
 372              		.loc 1 276 0
 373 0030 4860     		str	r0, [r1, #4]
 374              		.loc 1 279 0
ARM GAS  /tmp/ccDsCKUe.s 			page 21


 375 0032 9E62     		str	r6, [r3, #40]
 376              		.loc 1 289 0
 377 0034 1C20     		movs	r0, #28
 378              		.loc 1 280 0
 379 0036 DD62     		str	r5, [r3, #44]
 380              		.loc 1 289 0
 381 0038 0821     		movs	r1, #8
 382              		.loc 1 281 0
 383 003a 9A61     		str	r2, [r3, #24]
 384              		.loc 1 282 0
 385 003c 5A63     		str	r2, [r3, #52]
 386              		.loc 1 283 0
 387 003e DA60     		str	r2, [r3, #12]
 388              		.loc 1 284 0
 389 0040 5A60     		str	r2, [r3, #4]
 390              		.loc 1 285 0
 391 0042 5C61     		str	r4, [r3, #20]
 392              		.loc 1 286 0
 393 0044 1C60     		str	r4, [r3]
 394              		.loc 1 304 0
 395 0046 70BC     		pop	{r4, r5, r6}
 396              		.loc 1 289 0
 397 0048 FFF7FEBF 		b	nvicEnableVector
 398              	.LVL4:
 399              		.cfi_endproc
 400              	.LFE218:
 401              		.size	st_lld_init, .-st_lld_init
 402 004c AFF30080 		.text
 403              	.Letext0:
 404              		.file 4 "/home/alex/MentorGraphics/Sourcery_CodeBench_Lite_for_ARM_EABI/arm-none-eabi/include/stdi
 405              		.file 5 "../../../os/common/ports/ARMCMx/compilers/GCC/chtypes.h"
 406              		.file 6 "../../../os/rt/include/chsystypes.h"
 407              		.file 7 "../../../os/rt/include/chschd.h"
 408              		.file 8 "../../../os/common/ext/CMSIS/ST/STM32F1xx/stm32f100xb.h"
 409              		.file 9 "../../../os/common/ports/ARMCMx/chcore.h"
 410              		.file 10 "../../../os/common/ports/ARMCMx/chcore_v7m.h"
 411              		.file 11 "../../../os/hal/ports/STM32/LLD/TIMv1/stm32_tim.h"
 412              		.file 12 "../../../os/rt/include/chtm.h"
 413              		.file 13 "../../../os/rt/include/chsem.h"
 414              		.file 14 "../../../os/rt/include/chmtx.h"
 415              		.file 15 "../../../os/rt/include/chsys.h"
 416              		.file 16 "../../../os/common/ext/CMSIS/include/core_cm3.h"
 417              		.file 17 "../../../os/hal/ports/common/ARMCMx/nvic.h"
 418              		.section	.debug_info,"",%progbits
 419              	.Ldebug_info0:
 420 0000 D1090000 		.4byte	0x9d1
 421 0004 0400     		.2byte	0x4
 422 0006 00000000 		.4byte	.Ldebug_abbrev0
 423 000a 04       		.byte	0x4
 424 000b 01       		.uleb128 0x1
 425 000c 30050000 		.4byte	.LASF123
 426 0010 01       		.byte	0x1
 427 0011 33000000 		.4byte	.LASF124
 428 0015 2F030000 		.4byte	.LASF125
 429 0019 00000000 		.4byte	.Ldebug_ranges0+0
 430 001d 00000000 		.4byte	0
 431 0021 00000000 		.4byte	.Ldebug_line0
ARM GAS  /tmp/ccDsCKUe.s 			page 22


 432 0025 02       		.uleb128 0x2
 433 0026 04       		.byte	0x4
 434 0027 05       		.byte	0x5
 435 0028 696E7400 		.ascii	"int\000"
 436 002c 03       		.uleb128 0x3
 437 002d 04       		.byte	0x4
 438 002e 07       		.byte	0x7
 439 002f F6010000 		.4byte	.LASF0
 440 0033 03       		.uleb128 0x3
 441 0034 01       		.byte	0x1
 442 0035 06       		.byte	0x6
 443 0036 35010000 		.4byte	.LASF1
 444 003a 04       		.uleb128 0x4
 445 003b FD050000 		.4byte	.LASF4
 446 003f 04       		.byte	0x4
 447 0040 2A       		.byte	0x2a
 448 0041 45000000 		.4byte	0x45
 449 0045 03       		.uleb128 0x3
 450 0046 01       		.byte	0x1
 451 0047 08       		.byte	0x8
 452 0048 DF030000 		.4byte	.LASF2
 453 004c 03       		.uleb128 0x3
 454 004d 02       		.byte	0x2
 455 004e 05       		.byte	0x5
 456 004f FA030000 		.4byte	.LASF3
 457 0053 04       		.uleb128 0x4
 458 0054 AE010000 		.4byte	.LASF5
 459 0058 04       		.byte	0x4
 460 0059 36       		.byte	0x36
 461 005a 5E000000 		.4byte	0x5e
 462 005e 03       		.uleb128 0x3
 463 005f 02       		.byte	0x2
 464 0060 07       		.byte	0x7
 465 0061 F6040000 		.4byte	.LASF6
 466 0065 04       		.uleb128 0x4
 467 0066 D7030000 		.4byte	.LASF7
 468 006a 04       		.byte	0x4
 469 006b 4F       		.byte	0x4f
 470 006c 70000000 		.4byte	0x70
 471 0070 03       		.uleb128 0x3
 472 0071 04       		.byte	0x4
 473 0072 05       		.byte	0x5
 474 0073 7B010000 		.4byte	.LASF8
 475 0077 04       		.uleb128 0x4
 476 0078 4E040000 		.4byte	.LASF9
 477 007c 04       		.byte	0x4
 478 007d 50       		.byte	0x50
 479 007e 82000000 		.4byte	0x82
 480 0082 03       		.uleb128 0x3
 481 0083 04       		.byte	0x4
 482 0084 07       		.byte	0x7
 483 0085 0A020000 		.4byte	.LASF10
 484 0089 03       		.uleb128 0x3
 485 008a 08       		.byte	0x8
 486 008b 05       		.byte	0x5
 487 008c A0010000 		.4byte	.LASF11
 488 0090 04       		.uleb128 0x4
ARM GAS  /tmp/ccDsCKUe.s 			page 23


 489 0091 2A000000 		.4byte	.LASF12
 490 0095 04       		.byte	0x4
 491 0096 78       		.byte	0x78
 492 0097 9B000000 		.4byte	0x9b
 493 009b 03       		.uleb128 0x3
 494 009c 08       		.byte	0x8
 495 009d 07       		.byte	0x7
 496 009e 8B000000 		.4byte	.LASF13
 497 00a2 04       		.uleb128 0x4
 498 00a3 15050000 		.4byte	.LASF14
 499 00a7 05       		.byte	0x5
 500 00a8 39       		.byte	0x39
 501 00a9 77000000 		.4byte	0x77
 502 00ad 04       		.uleb128 0x4
 503 00ae 21060000 		.4byte	.LASF15
 504 00b2 05       		.byte	0x5
 505 00b3 3C       		.byte	0x3c
 506 00b4 3A000000 		.4byte	0x3a
 507 00b8 04       		.uleb128 0x4
 508 00b9 8D010000 		.4byte	.LASF16
 509 00bd 05       		.byte	0x5
 510 00be 3D       		.byte	0x3d
 511 00bf 3A000000 		.4byte	0x3a
 512 00c3 04       		.uleb128 0x4
 513 00c4 7F030000 		.4byte	.LASF17
 514 00c8 05       		.byte	0x5
 515 00c9 3E       		.byte	0x3e
 516 00ca 3A000000 		.4byte	0x3a
 517 00ce 04       		.uleb128 0x4
 518 00cf A6030000 		.4byte	.LASF18
 519 00d3 05       		.byte	0x5
 520 00d4 40       		.byte	0x40
 521 00d5 77000000 		.4byte	0x77
 522 00d9 04       		.uleb128 0x4
 523 00da 48020000 		.4byte	.LASF19
 524 00de 05       		.byte	0x5
 525 00df 41       		.byte	0x41
 526 00e0 65000000 		.4byte	0x65
 527 00e4 04       		.uleb128 0x4
 528 00e5 7F020000 		.4byte	.LASF20
 529 00e9 05       		.byte	0x5
 530 00ea 43       		.byte	0x43
 531 00eb 77000000 		.4byte	0x77
 532 00ef 04       		.uleb128 0x4
 533 00f0 F0010000 		.4byte	.LASF21
 534 00f4 05       		.byte	0x5
 535 00f5 45       		.byte	0x45
 536 00f6 65000000 		.4byte	0x65
 537 00fa 04       		.uleb128 0x4
 538 00fb A9040000 		.4byte	.LASF22
 539 00ff 06       		.byte	0x6
 540 0100 35       		.byte	0x35
 541 0101 53000000 		.4byte	0x53
 542 0105 04       		.uleb128 0x4
 543 0106 A0040000 		.4byte	.LASF23
 544 010a 06       		.byte	0x6
 545 010b 3F       		.byte	0x3f
ARM GAS  /tmp/ccDsCKUe.s 			page 24


 546 010c 10010000 		.4byte	0x110
 547 0110 05       		.uleb128 0x5
 548 0111 3E020000 		.4byte	.LASF41
 549 0115 44       		.byte	0x44
 550 0116 07       		.byte	0x7
 551 0117 9A       		.byte	0x9a
 552 0118 EE010000 		.4byte	0x1ee
 553 011c 06       		.uleb128 0x6
 554 011d 2D020000 		.4byte	.LASF24
 555 0121 07       		.byte	0x7
 556 0122 9B       		.byte	0x9b
 557 0123 23020000 		.4byte	0x223
 558 0127 00       		.byte	0
 559 0128 06       		.uleb128 0x6
 560 0129 19030000 		.4byte	.LASF25
 561 012d 07       		.byte	0x7
 562 012e 9C       		.byte	0x9c
 563 012f CE000000 		.4byte	0xce
 564 0133 08       		.byte	0x8
 565 0134 07       		.uleb128 0x7
 566 0135 63747800 		.ascii	"ctx\000"
 567 0139 07       		.byte	0x7
 568 013a 9D       		.byte	0x9d
 569 013b 20050000 		.4byte	0x520
 570 013f 0C       		.byte	0xc
 571 0140 06       		.uleb128 0x6
 572 0141 AA020000 		.4byte	.LASF26
 573 0145 07       		.byte	0x7
 574 0146 9F       		.byte	0x9f
 575 0147 F9010000 		.4byte	0x1f9
 576 014b 10       		.byte	0x10
 577 014c 06       		.uleb128 0x6
 578 014d 80040000 		.4byte	.LASF27
 579 0151 07       		.byte	0x7
 580 0152 A0       		.byte	0xa0
 581 0153 F9010000 		.4byte	0x1f9
 582 0157 14       		.byte	0x14
 583 0158 06       		.uleb128 0x6
 584 0159 28020000 		.4byte	.LASF28
 585 015d 07       		.byte	0x7
 586 015e A7       		.byte	0xa7
 587 015f C7070000 		.4byte	0x7c7
 588 0163 18       		.byte	0x18
 589 0164 06       		.uleb128 0x6
 590 0165 74040000 		.4byte	.LASF29
 591 0169 07       		.byte	0x7
 592 016a B0       		.byte	0xb0
 593 016b D9070000 		.4byte	0x7d9
 594 016f 1C       		.byte	0x1c
 595 0170 06       		.uleb128 0x6
 596 0171 6B010000 		.4byte	.LASF30
 597 0175 07       		.byte	0x7
 598 0176 B5       		.byte	0xb5
 599 0177 B8000000 		.4byte	0xb8
 600 017b 20       		.byte	0x20
 601 017c 06       		.uleb128 0x6
 602 017d 05060000 		.4byte	.LASF31
ARM GAS  /tmp/ccDsCKUe.s 			page 25


 603 0181 07       		.byte	0x7
 604 0182 B9       		.byte	0xb9
 605 0183 AD000000 		.4byte	0xad
 606 0187 21       		.byte	0x21
 607 0188 06       		.uleb128 0x6
 608 0189 91030000 		.4byte	.LASF32
 609 018d 07       		.byte	0x7
 610 018e BE       		.byte	0xbe
 611 018f C3000000 		.4byte	0xc3
 612 0193 22       		.byte	0x22
 613 0194 08       		.uleb128 0x8
 614 0195 7500     		.ascii	"u\000"
 615 0197 07       		.byte	0x7
 616 0198 0F01     		.2byte	0x10f
 617 019a FC060000 		.4byte	0x6fc
 618 019e 24       		.byte	0x24
 619 019f 09       		.uleb128 0x9
 620 01a0 DA010000 		.4byte	.LASF33
 621 01a4 07       		.byte	0x7
 622 01a5 1401     		.2byte	0x114
 623 01a7 FF010000 		.4byte	0x1ff
 624 01ab 28       		.byte	0x28
 625 01ac 09       		.uleb128 0x9
 626 01ad 62010000 		.4byte	.LASF34
 627 01b1 07       		.byte	0x7
 628 01b2 1A01     		.2byte	0x11a
 629 01b4 23020000 		.4byte	0x223
 630 01b8 2C       		.byte	0x2c
 631 01b9 09       		.uleb128 0x9
 632 01ba 4E020000 		.4byte	.LASF35
 633 01be 07       		.byte	0x7
 634 01bf 2001     		.2byte	0x120
 635 01c1 E4000000 		.4byte	0xe4
 636 01c5 34       		.byte	0x34
 637 01c6 09       		.uleb128 0x9
 638 01c7 2E060000 		.4byte	.LASF36
 639 01cb 07       		.byte	0x7
 640 01cc 2701     		.2byte	0x127
 641 01ce C1070000 		.4byte	0x7c1
 642 01d2 38       		.byte	0x38
 643 01d3 09       		.uleb128 0x9
 644 01d4 BF020000 		.4byte	.LASF37
 645 01d8 07       		.byte	0x7
 646 01d9 2B01     		.2byte	0x12b
 647 01db CE000000 		.4byte	0xce
 648 01df 3C       		.byte	0x3c
 649 01e0 09       		.uleb128 0x9
 650 01e1 33020000 		.4byte	.LASF38
 651 01e5 07       		.byte	0x7
 652 01e6 3201     		.2byte	0x132
 653 01e8 D6020000 		.4byte	0x2d6
 654 01ec 40       		.byte	0x40
 655 01ed 00       		.byte	0
 656 01ee 04       		.uleb128 0x4
 657 01ef D1020000 		.4byte	.LASF39
 658 01f3 06       		.byte	0x6
 659 01f4 44       		.byte	0x44
ARM GAS  /tmp/ccDsCKUe.s 			page 26


 660 01f5 F9010000 		.4byte	0x1f9
 661 01f9 0A       		.uleb128 0xa
 662 01fa 04       		.byte	0x4
 663 01fb 05010000 		.4byte	0x105
 664 01ff 04       		.uleb128 0x4
 665 0200 B0020000 		.4byte	.LASF40
 666 0204 06       		.byte	0x6
 667 0205 49       		.byte	0x49
 668 0206 0A020000 		.4byte	0x20a
 669 020a 05       		.uleb128 0x5
 670 020b 5E040000 		.4byte	.LASF42
 671 020f 04       		.byte	0x4
 672 0210 07       		.byte	0x7
 673 0211 88       		.byte	0x88
 674 0212 23020000 		.4byte	0x223
 675 0216 06       		.uleb128 0x6
 676 0217 18000000 		.4byte	.LASF43
 677 021b 07       		.byte	0x7
 678 021c 89       		.byte	0x89
 679 021d F9010000 		.4byte	0x1f9
 680 0221 00       		.byte	0
 681 0222 00       		.byte	0
 682 0223 04       		.uleb128 0x4
 683 0224 D3050000 		.4byte	.LASF44
 684 0228 06       		.byte	0x6
 685 0229 50       		.byte	0x50
 686 022a 2E020000 		.4byte	0x22e
 687 022e 05       		.uleb128 0x5
 688 022f 01010000 		.4byte	.LASF45
 689 0233 08       		.byte	0x8
 690 0234 07       		.byte	0x7
 691 0235 8F       		.byte	0x8f
 692 0236 53020000 		.4byte	0x253
 693 023a 06       		.uleb128 0x6
 694 023b 18000000 		.4byte	.LASF43
 695 023f 07       		.byte	0x7
 696 0240 90       		.byte	0x90
 697 0241 F9010000 		.4byte	0x1f9
 698 0245 00       		.byte	0
 699 0246 06       		.uleb128 0x6
 700 0247 29060000 		.4byte	.LASF46
 701 024b 07       		.byte	0x7
 702 024c 91       		.byte	0x91
 703 024d F9010000 		.4byte	0x1f9
 704 0251 04       		.byte	0x4
 705 0252 00       		.byte	0
 706 0253 04       		.uleb128 0x4
 707 0254 00000000 		.4byte	.LASF47
 708 0258 06       		.byte	0x6
 709 0259 57       		.byte	0x57
 710 025a 5E020000 		.4byte	0x25e
 711 025e 0B       		.uleb128 0xb
 712 025f 71020000 		.4byte	.LASF48
 713 0263 1C       		.byte	0x1c
 714 0264 07       		.byte	0x7
 715 0265 6A01     		.2byte	0x16a
 716 0267 BA020000 		.4byte	0x2ba
ARM GAS  /tmp/ccDsCKUe.s 			page 27


 717 026b 09       		.uleb128 0x9
 718 026c 2D020000 		.4byte	.LASF24
 719 0270 07       		.byte	0x7
 720 0271 6B01     		.2byte	0x16b
 721 0273 23020000 		.4byte	0x223
 722 0277 00       		.byte	0
 723 0278 09       		.uleb128 0x9
 724 0279 19030000 		.4byte	.LASF25
 725 027d 07       		.byte	0x7
 726 027e 6C01     		.2byte	0x16c
 727 0280 CE000000 		.4byte	0xce
 728 0284 08       		.byte	0x8
 729 0285 08       		.uleb128 0x8
 730 0286 63747800 		.ascii	"ctx\000"
 731 028a 07       		.byte	0x7
 732 028b 6E01     		.2byte	0x16e
 733 028d 20050000 		.4byte	0x520
 734 0291 0C       		.byte	0xc
 735 0292 09       		.uleb128 0x9
 736 0293 AA020000 		.4byte	.LASF26
 737 0297 07       		.byte	0x7
 738 0298 7101     		.2byte	0x171
 739 029a F9010000 		.4byte	0x1f9
 740 029e 10       		.byte	0x10
 741 029f 09       		.uleb128 0x9
 742 02a0 80040000 		.4byte	.LASF27
 743 02a4 07       		.byte	0x7
 744 02a5 7201     		.2byte	0x172
 745 02a7 F9010000 		.4byte	0x1f9
 746 02ab 14       		.byte	0x14
 747 02ac 09       		.uleb128 0x9
 748 02ad 27030000 		.4byte	.LASF49
 749 02b1 07       		.byte	0x7
 750 02b2 7501     		.2byte	0x175
 751 02b4 F9010000 		.4byte	0x1f9
 752 02b8 18       		.byte	0x18
 753 02b9 00       		.byte	0
 754 02ba 04       		.uleb128 0x4
 755 02bb C6040000 		.4byte	.LASF50
 756 02bf 06       		.byte	0x6
 757 02c0 5C       		.byte	0x5c
 758 02c1 C5020000 		.4byte	0x2c5
 759 02c5 0A       		.uleb128 0xa
 760 02c6 04       		.byte	0x4
 761 02c7 CB020000 		.4byte	0x2cb
 762 02cb 0C       		.uleb128 0xc
 763 02cc D6020000 		.4byte	0x2d6
 764 02d0 0D       		.uleb128 0xd
 765 02d1 D6020000 		.4byte	0x2d6
 766 02d5 00       		.byte	0
 767 02d6 0E       		.uleb128 0xe
 768 02d7 04       		.byte	0x4
 769 02d8 04       		.uleb128 0x4
 770 02d9 96030000 		.4byte	.LASF51
 771 02dd 06       		.byte	0x6
 772 02de 61       		.byte	0x61
 773 02df E3020000 		.4byte	0x2e3
ARM GAS  /tmp/ccDsCKUe.s 			page 28


 774 02e3 0B       		.uleb128 0xb
 775 02e4 1C040000 		.4byte	.LASF52
 776 02e8 14       		.byte	0x14
 777 02e9 07       		.byte	0x7
 778 02ea 4501     		.2byte	0x145
 779 02ec 32030000 		.4byte	0x332
 780 02f0 09       		.uleb128 0x9
 781 02f1 18000000 		.4byte	.LASF43
 782 02f5 07       		.byte	0x7
 783 02f6 4601     		.2byte	0x146
 784 02f8 DF070000 		.4byte	0x7df
 785 02fc 00       		.byte	0
 786 02fd 09       		.uleb128 0x9
 787 02fe 29060000 		.4byte	.LASF46
 788 0302 07       		.byte	0x7
 789 0303 4701     		.2byte	0x147
 790 0305 DF070000 		.4byte	0x7df
 791 0309 04       		.byte	0x4
 792 030a 09       		.uleb128 0x9
 793 030b 1D000000 		.4byte	.LASF53
 794 030f 07       		.byte	0x7
 795 0310 4801     		.2byte	0x148
 796 0312 FA000000 		.4byte	0xfa
 797 0316 08       		.byte	0x8
 798 0317 09       		.uleb128 0x9
 799 0318 96010000 		.4byte	.LASF54
 800 031c 07       		.byte	0x7
 801 031d 4901     		.2byte	0x149
 802 031f BA020000 		.4byte	0x2ba
 803 0323 0C       		.byte	0xc
 804 0324 08       		.uleb128 0x8
 805 0325 70617200 		.ascii	"par\000"
 806 0329 07       		.byte	0x7
 807 032a 4B01     		.2byte	0x14b
 808 032c D6020000 		.4byte	0x2d6
 809 0330 10       		.byte	0x10
 810 0331 00       		.byte	0
 811 0332 04       		.uleb128 0x4
 812 0333 C5000000 		.4byte	.LASF55
 813 0337 06       		.byte	0x6
 814 0338 66       		.byte	0x66
 815 0339 3D030000 		.4byte	0x33d
 816 033d 0B       		.uleb128 0xb
 817 033e E4020000 		.4byte	.LASF56
 818 0342 0C       		.byte	0xc
 819 0343 07       		.byte	0x7
 820 0344 5501     		.2byte	0x155
 821 0346 7F030000 		.4byte	0x37f
 822 034a 09       		.uleb128 0x9
 823 034b 18000000 		.4byte	.LASF43
 824 034f 07       		.byte	0x7
 825 0350 5601     		.2byte	0x156
 826 0352 DF070000 		.4byte	0x7df
 827 0356 00       		.byte	0
 828 0357 09       		.uleb128 0x9
 829 0358 29060000 		.4byte	.LASF46
 830 035c 07       		.byte	0x7
ARM GAS  /tmp/ccDsCKUe.s 			page 29


 831 035d 5801     		.2byte	0x158
 832 035f DF070000 		.4byte	0x7df
 833 0363 04       		.byte	0x4
 834 0364 09       		.uleb128 0x9
 835 0365 1D000000 		.4byte	.LASF53
 836 0369 07       		.byte	0x7
 837 036a 5A01     		.2byte	0x15a
 838 036c FA000000 		.4byte	0xfa
 839 0370 08       		.byte	0x8
 840 0371 09       		.uleb128 0x9
 841 0372 04040000 		.4byte	.LASF57
 842 0376 07       		.byte	0x7
 843 0377 6201     		.2byte	0x162
 844 0379 FA000000 		.4byte	0xfa
 845 037d 0A       		.byte	0xa
 846 037e 00       		.byte	0
 847 037f 04       		.uleb128 0x4
 848 0380 72000000 		.4byte	.LASF58
 849 0384 06       		.byte	0x6
 850 0385 6B       		.byte	0x6b
 851 0386 8A030000 		.4byte	0x38a
 852 038a 0B       		.uleb128 0xb
 853 038b C1030000 		.4byte	.LASF59
 854 038f 04       		.byte	0x4
 855 0390 07       		.byte	0x7
 856 0391 7C01     		.2byte	0x17c
 857 0393 A5030000 		.4byte	0x3a5
 858 0397 09       		.uleb128 0x9
 859 0398 DD040000 		.4byte	.LASF60
 860 039c 07       		.byte	0x7
 861 039d 8401     		.2byte	0x184
 862 039f E5070000 		.4byte	0x7e5
 863 03a3 00       		.byte	0
 864 03a4 00       		.byte	0
 865 03a5 04       		.uleb128 0x4
 866 03a6 09050000 		.4byte	.LASF61
 867 03aa 06       		.byte	0x6
 868 03ab 70       		.byte	0x70
 869 03ac B0030000 		.4byte	0x3b0
 870 03b0 0B       		.uleb128 0xb
 871 03b1 71010000 		.4byte	.LASF62
 872 03b5 74       		.byte	0x74
 873 03b6 07       		.byte	0x7
 874 03b7 9C01     		.2byte	0x19c
 875 03b9 FE030000 		.4byte	0x3fe
 876 03bd 09       		.uleb128 0x9
 877 03be F1050000 		.4byte	.LASF63
 878 03c2 07       		.byte	0x7
 879 03c3 A001     		.2byte	0x1a0
 880 03c5 53020000 		.4byte	0x253
 881 03c9 00       		.byte	0
 882 03ca 09       		.uleb128 0x9
 883 03cb C0010000 		.4byte	.LASF64
 884 03cf 07       		.byte	0x7
 885 03d0 A401     		.2byte	0x1a4
 886 03d2 32030000 		.4byte	0x332
 887 03d6 1C       		.byte	0x1c
ARM GAS  /tmp/ccDsCKUe.s 			page 30


 888 03d7 08       		.uleb128 0x8
 889 03d8 64626700 		.ascii	"dbg\000"
 890 03dc 07       		.byte	0x7
 891 03dd A801     		.2byte	0x1a8
 892 03df 7F030000 		.4byte	0x37f
 893 03e3 28       		.byte	0x28
 894 03e4 09       		.uleb128 0x9
 895 03e5 B2000000 		.4byte	.LASF65
 896 03e9 07       		.byte	0x7
 897 03ea AC01     		.2byte	0x1ac
 898 03ec 05010000 		.4byte	0x105
 899 03f0 2C       		.byte	0x2c
 900 03f1 08       		.uleb128 0x8
 901 03f2 746D00   		.ascii	"tm\000"
 902 03f5 07       		.byte	0x7
 903 03f6 B101     		.2byte	0x1b1
 904 03f8 F1060000 		.4byte	0x6f1
 905 03fc 70       		.byte	0x70
 906 03fd 00       		.byte	0
 907 03fe 03       		.uleb128 0x3
 908 03ff 04       		.byte	0x4
 909 0400 07       		.byte	0x7
 910 0401 C8020000 		.4byte	.LASF66
 911 0405 0F       		.uleb128 0xf
 912 0406 77000000 		.4byte	0x77
 913 040a 10       		.uleb128 0x10
 914 040b 77000000 		.4byte	0x77
 915 040f 1A040000 		.4byte	0x41a
 916 0413 11       		.uleb128 0x11
 917 0414 FE030000 		.4byte	0x3fe
 918 0418 01       		.byte	0x1
 919 0419 00       		.byte	0
 920 041a 10       		.uleb128 0x10
 921 041b 77000000 		.4byte	0x77
 922 041f 2A040000 		.4byte	0x42a
 923 0423 11       		.uleb128 0x11
 924 0424 FE030000 		.4byte	0x3fe
 925 0428 03       		.byte	0x3
 926 0429 00       		.byte	0
 927 042a 12       		.uleb128 0x12
 928 042b 08       		.byte	0x8
 929 042c 08       		.byte	0x8
 930 042d 0E01     		.2byte	0x10e
 931 042f 4D040000 		.4byte	0x44d
 932 0433 09       		.uleb128 0x9
 933 0434 A2000000 		.4byte	.LASF67
 934 0438 08       		.byte	0x8
 935 0439 1001     		.2byte	0x110
 936 043b 05040000 		.4byte	0x405
 937 043f 00       		.byte	0
 938 0440 08       		.uleb128 0x8
 939 0441 435200   		.ascii	"CR\000"
 940 0444 08       		.byte	0x8
 941 0445 1101     		.2byte	0x111
 942 0447 05040000 		.4byte	0x405
 943 044b 04       		.byte	0x4
 944 044c 00       		.byte	0
ARM GAS  /tmp/ccDsCKUe.s 			page 31


 945 044d 13       		.uleb128 0x13
 946 044e 3F040000 		.4byte	.LASF68
 947 0452 08       		.byte	0x8
 948 0453 1201     		.2byte	0x112
 949 0455 2A040000 		.4byte	0x42a
 950 0459 12       		.uleb128 0x12
 951 045a 30       		.byte	0x30
 952 045b 08       		.byte	0x8
 953 045c 9D01     		.2byte	0x19d
 954 045e FE040000 		.4byte	0x4fe
 955 0462 08       		.uleb128 0x8
 956 0463 435200   		.ascii	"CR\000"
 957 0466 08       		.byte	0x8
 958 0467 9F01     		.2byte	0x19f
 959 0469 05040000 		.4byte	0x405
 960 046d 00       		.byte	0
 961 046e 09       		.uleb128 0x9
 962 046f 1C060000 		.4byte	.LASF69
 963 0473 08       		.byte	0x8
 964 0474 A001     		.2byte	0x1a0
 965 0476 05040000 		.4byte	0x405
 966 047a 04       		.byte	0x4
 967 047b 08       		.uleb128 0x8
 968 047c 43495200 		.ascii	"CIR\000"
 969 0480 08       		.byte	0x8
 970 0481 A101     		.2byte	0x1a1
 971 0483 05040000 		.4byte	0x405
 972 0487 08       		.byte	0x8
 973 0488 09       		.uleb128 0x9
 974 0489 84010000 		.4byte	.LASF70
 975 048d 08       		.byte	0x8
 976 048e A201     		.2byte	0x1a2
 977 0490 05040000 		.4byte	0x405
 978 0494 0C       		.byte	0xc
 979 0495 09       		.uleb128 0x9
 980 0496 1E030000 		.4byte	.LASF71
 981 049a 08       		.byte	0x8
 982 049b A301     		.2byte	0x1a3
 983 049d 05040000 		.4byte	0x405
 984 04a1 10       		.byte	0x10
 985 04a2 09       		.uleb128 0x9
 986 04a3 36060000 		.4byte	.LASF72
 987 04a7 08       		.byte	0x8
 988 04a8 A401     		.2byte	0x1a4
 989 04aa 05040000 		.4byte	0x405
 990 04ae 14       		.byte	0x14
 991 04af 09       		.uleb128 0x9
 992 04b0 14040000 		.4byte	.LASF73
 993 04b4 08       		.byte	0x8
 994 04b5 A501     		.2byte	0x1a5
 995 04b7 05040000 		.4byte	0x405
 996 04bb 18       		.byte	0x18
 997 04bc 09       		.uleb128 0x9
 998 04bd EE040000 		.4byte	.LASF74
 999 04c1 08       		.byte	0x8
 1000 04c2 A601     		.2byte	0x1a6
 1001 04c4 05040000 		.4byte	0x405
ARM GAS  /tmp/ccDsCKUe.s 			page 32


 1002 04c8 1C       		.byte	0x1c
 1003 04c9 09       		.uleb128 0x9
 1004 04ca EC050000 		.4byte	.LASF75
 1005 04ce 08       		.byte	0x8
 1006 04cf A701     		.2byte	0x1a7
 1007 04d1 05040000 		.4byte	0x405
 1008 04d5 20       		.byte	0x20
 1009 04d6 08       		.uleb128 0x8
 1010 04d7 43535200 		.ascii	"CSR\000"
 1011 04db 08       		.byte	0x8
 1012 04dc A801     		.2byte	0x1a8
 1013 04de 05040000 		.4byte	0x405
 1014 04e2 24       		.byte	0x24
 1015 04e3 09       		.uleb128 0x9
 1016 04e4 87030000 		.4byte	.LASF76
 1017 04e8 08       		.byte	0x8
 1018 04e9 AB01     		.2byte	0x1ab
 1019 04eb 77000000 		.4byte	0x77
 1020 04ef 28       		.byte	0x28
 1021 04f0 09       		.uleb128 0x9
 1022 04f1 F7050000 		.4byte	.LASF77
 1023 04f5 08       		.byte	0x8
 1024 04f6 AC01     		.2byte	0x1ac
 1025 04f8 05040000 		.4byte	0x405
 1026 04fc 2C       		.byte	0x2c
 1027 04fd 00       		.byte	0
 1028 04fe 13       		.uleb128 0x13
 1029 04ff 1C020000 		.4byte	.LASF78
 1030 0503 08       		.byte	0x8
 1031 0504 AD01     		.2byte	0x1ad
 1032 0506 59040000 		.4byte	0x459
 1033 050a 04       		.uleb128 0x4
 1034 050b B7010000 		.4byte	.LASF79
 1035 050f 09       		.byte	0x9
 1036 0510 65       		.byte	0x65
 1037 0511 D6020000 		.4byte	0x2d6
 1038 0515 04       		.uleb128 0x4
 1039 0516 8B020000 		.4byte	.LASF80
 1040 051a 09       		.byte	0x9
 1041 051b 6D       		.byte	0x6d
 1042 051c 90000000 		.4byte	0x90
 1043 0520 05       		.uleb128 0x5
 1044 0521 FB020000 		.4byte	.LASF81
 1045 0525 04       		.byte	0x4
 1046 0526 09       		.byte	0x9
 1047 0527 89       		.byte	0x89
 1048 0528 38050000 		.4byte	0x538
 1049 052c 07       		.uleb128 0x7
 1050 052d 737000   		.ascii	"sp\000"
 1051 0530 09       		.byte	0x9
 1052 0531 8A       		.byte	0x8a
 1053 0532 B4050000 		.4byte	0x5b4
 1054 0536 00       		.byte	0
 1055 0537 00       		.byte	0
 1056 0538 0B       		.uleb128 0xb
 1057 0539 66000000 		.4byte	.LASF82
 1058 053d 24       		.byte	0x24
ARM GAS  /tmp/ccDsCKUe.s 			page 33


 1059 053e 0A       		.byte	0xa
 1060 053f 5901     		.2byte	0x159
 1061 0541 B4050000 		.4byte	0x5b4
 1062 0545 08       		.uleb128 0x8
 1063 0546 723400   		.ascii	"r4\000"
 1064 0549 0A       		.byte	0xa
 1065 054a 6C01     		.2byte	0x16c
 1066 054c 0A050000 		.4byte	0x50a
 1067 0550 00       		.byte	0
 1068 0551 08       		.uleb128 0x8
 1069 0552 723500   		.ascii	"r5\000"
 1070 0555 0A       		.byte	0xa
 1071 0556 6D01     		.2byte	0x16d
 1072 0558 0A050000 		.4byte	0x50a
 1073 055c 04       		.byte	0x4
 1074 055d 08       		.uleb128 0x8
 1075 055e 723600   		.ascii	"r6\000"
 1076 0561 0A       		.byte	0xa
 1077 0562 6E01     		.2byte	0x16e
 1078 0564 0A050000 		.4byte	0x50a
 1079 0568 08       		.byte	0x8
 1080 0569 08       		.uleb128 0x8
 1081 056a 723700   		.ascii	"r7\000"
 1082 056d 0A       		.byte	0xa
 1083 056e 6F01     		.2byte	0x16f
 1084 0570 0A050000 		.4byte	0x50a
 1085 0574 0C       		.byte	0xc
 1086 0575 08       		.uleb128 0x8
 1087 0576 723800   		.ascii	"r8\000"
 1088 0579 0A       		.byte	0xa
 1089 057a 7001     		.2byte	0x170
 1090 057c 0A050000 		.4byte	0x50a
 1091 0580 10       		.byte	0x10
 1092 0581 08       		.uleb128 0x8
 1093 0582 723900   		.ascii	"r9\000"
 1094 0585 0A       		.byte	0xa
 1095 0586 7101     		.2byte	0x171
 1096 0588 0A050000 		.4byte	0x50a
 1097 058c 14       		.byte	0x14
 1098 058d 08       		.uleb128 0x8
 1099 058e 72313000 		.ascii	"r10\000"
 1100 0592 0A       		.byte	0xa
 1101 0593 7201     		.2byte	0x172
 1102 0595 0A050000 		.4byte	0x50a
 1103 0599 18       		.byte	0x18
 1104 059a 08       		.uleb128 0x8
 1105 059b 72313100 		.ascii	"r11\000"
 1106 059f 0A       		.byte	0xa
 1107 05a0 7301     		.2byte	0x173
 1108 05a2 0A050000 		.4byte	0x50a
 1109 05a6 1C       		.byte	0x1c
 1110 05a7 08       		.uleb128 0x8
 1111 05a8 6C7200   		.ascii	"lr\000"
 1112 05ab 0A       		.byte	0xa
 1113 05ac 7401     		.2byte	0x174
 1114 05ae 0A050000 		.4byte	0x50a
 1115 05b2 20       		.byte	0x20
ARM GAS  /tmp/ccDsCKUe.s 			page 34


 1116 05b3 00       		.byte	0
 1117 05b4 0A       		.uleb128 0xa
 1118 05b5 04       		.byte	0x4
 1119 05b6 38050000 		.4byte	0x538
 1120 05ba 12       		.uleb128 0x12
 1121 05bb 60       		.byte	0x60
 1122 05bc 0B       		.byte	0xb
 1123 05bd A101     		.2byte	0x1a1
 1124 05bf C6060000 		.4byte	0x6c6
 1125 05c3 08       		.uleb128 0x8
 1126 05c4 43523100 		.ascii	"CR1\000"
 1127 05c8 0B       		.byte	0xb
 1128 05c9 A201     		.2byte	0x1a2
 1129 05cb 05040000 		.4byte	0x405
 1130 05cf 00       		.byte	0
 1131 05d0 08       		.uleb128 0x8
 1132 05d1 43523200 		.ascii	"CR2\000"
 1133 05d5 0B       		.byte	0xb
 1134 05d6 A301     		.2byte	0x1a3
 1135 05d8 05040000 		.4byte	0x405
 1136 05dc 04       		.byte	0x4
 1137 05dd 09       		.uleb128 0x9
 1138 05de 39020000 		.4byte	.LASF83
 1139 05e2 0B       		.byte	0xb
 1140 05e3 A401     		.2byte	0x1a4
 1141 05e5 05040000 		.4byte	0x405
 1142 05e9 08       		.byte	0x8
 1143 05ea 09       		.uleb128 0x9
 1144 05eb 0D000000 		.4byte	.LASF84
 1145 05ef 0B       		.byte	0xb
 1146 05f0 A501     		.2byte	0x1a5
 1147 05f2 05040000 		.4byte	0x405
 1148 05f6 0C       		.byte	0xc
 1149 05f7 08       		.uleb128 0x8
 1150 05f8 535200   		.ascii	"SR\000"
 1151 05fb 0B       		.byte	0xb
 1152 05fc A601     		.2byte	0x1a6
 1153 05fe 05040000 		.4byte	0x405
 1154 0602 10       		.byte	0x10
 1155 0603 08       		.uleb128 0x8
 1156 0604 45475200 		.ascii	"EGR\000"
 1157 0608 0B       		.byte	0xb
 1158 0609 A701     		.2byte	0x1a7
 1159 060b 05040000 		.4byte	0x405
 1160 060f 14       		.byte	0x14
 1161 0610 09       		.uleb128 0x9
 1162 0611 23010000 		.4byte	.LASF85
 1163 0615 0B       		.byte	0xb
 1164 0616 A801     		.2byte	0x1a8
 1165 0618 05040000 		.4byte	0x405
 1166 061c 18       		.byte	0x18
 1167 061d 09       		.uleb128 0x9
 1168 061e 29010000 		.4byte	.LASF86
 1169 0622 0B       		.byte	0xb
 1170 0623 A901     		.2byte	0x1a9
 1171 0625 05040000 		.4byte	0x405
 1172 0629 1C       		.byte	0x1c
ARM GAS  /tmp/ccDsCKUe.s 			page 35


 1173 062a 09       		.uleb128 0x9
 1174 062b 9B010000 		.4byte	.LASF87
 1175 062f 0B       		.byte	0xb
 1176 0630 AA01     		.2byte	0x1aa
 1177 0632 05040000 		.4byte	0x405
 1178 0636 20       		.byte	0x20
 1179 0637 08       		.uleb128 0x8
 1180 0638 434E5400 		.ascii	"CNT\000"
 1181 063c 0B       		.byte	0xb
 1182 063d AB01     		.2byte	0x1ab
 1183 063f 05040000 		.4byte	0x405
 1184 0643 24       		.byte	0x24
 1185 0644 08       		.uleb128 0x8
 1186 0645 50534300 		.ascii	"PSC\000"
 1187 0649 0B       		.byte	0xb
 1188 064a AC01     		.2byte	0x1ac
 1189 064c 05040000 		.4byte	0x405
 1190 0650 28       		.byte	0x28
 1191 0651 08       		.uleb128 0x8
 1192 0652 41525200 		.ascii	"ARR\000"
 1193 0656 0B       		.byte	0xb
 1194 0657 AD01     		.2byte	0x1ad
 1195 0659 05040000 		.4byte	0x405
 1196 065d 2C       		.byte	0x2c
 1197 065e 08       		.uleb128 0x8
 1198 065f 52435200 		.ascii	"RCR\000"
 1199 0663 0B       		.byte	0xb
 1200 0664 AE01     		.2byte	0x1ae
 1201 0666 05040000 		.4byte	0x405
 1202 066a 30       		.byte	0x30
 1203 066b 08       		.uleb128 0x8
 1204 066c 43435200 		.ascii	"CCR\000"
 1205 0670 0B       		.byte	0xb
 1206 0671 AF01     		.2byte	0x1af
 1207 0673 C6060000 		.4byte	0x6c6
 1208 0677 34       		.byte	0x34
 1209 0678 09       		.uleb128 0x9
 1210 0679 FC000000 		.4byte	.LASF88
 1211 067d 0B       		.byte	0xb
 1212 067e B001     		.2byte	0x1b0
 1213 0680 05040000 		.4byte	0x405
 1214 0684 44       		.byte	0x44
 1215 0685 08       		.uleb128 0x8
 1216 0686 44435200 		.ascii	"DCR\000"
 1217 068a 0B       		.byte	0xb
 1218 068b B101     		.2byte	0x1b1
 1219 068d 05040000 		.4byte	0x405
 1220 0691 48       		.byte	0x48
 1221 0692 09       		.uleb128 0x9
 1222 0693 86040000 		.4byte	.LASF89
 1223 0697 0B       		.byte	0xb
 1224 0698 B201     		.2byte	0x1b2
 1225 069a 05040000 		.4byte	0x405
 1226 069e 4C       		.byte	0x4c
 1227 069f 08       		.uleb128 0x8
 1228 06a0 4F5200   		.ascii	"OR\000"
 1229 06a3 0B       		.byte	0xb
ARM GAS  /tmp/ccDsCKUe.s 			page 36


 1230 06a4 B301     		.2byte	0x1b3
 1231 06a6 05040000 		.4byte	0x405
 1232 06aa 50       		.byte	0x50
 1233 06ab 09       		.uleb128 0x9
 1234 06ac 2F010000 		.4byte	.LASF90
 1235 06b0 0B       		.byte	0xb
 1236 06b1 B401     		.2byte	0x1b4
 1237 06b3 05040000 		.4byte	0x405
 1238 06b7 54       		.byte	0x54
 1239 06b8 09       		.uleb128 0x9
 1240 06b9 3A040000 		.4byte	.LASF91
 1241 06bd 0B       		.byte	0xb
 1242 06be B501     		.2byte	0x1b5
 1243 06c0 CB060000 		.4byte	0x6cb
 1244 06c4 58       		.byte	0x58
 1245 06c5 00       		.byte	0
 1246 06c6 0F       		.uleb128 0xf
 1247 06c7 1A040000 		.4byte	0x41a
 1248 06cb 0F       		.uleb128 0xf
 1249 06cc 0A040000 		.4byte	0x40a
 1250 06d0 13       		.uleb128 0x13
 1251 06d1 41010000 		.4byte	.LASF92
 1252 06d5 0B       		.byte	0xb
 1253 06d6 B601     		.2byte	0x1b6
 1254 06d8 BA050000 		.4byte	0x5ba
 1255 06dc 14       		.uleb128 0x14
 1256 06dd 04       		.byte	0x4
 1257 06de 0C       		.byte	0xc
 1258 06df 38       		.byte	0x38
 1259 06e0 F1060000 		.4byte	0x6f1
 1260 06e4 06       		.uleb128 0x6
 1261 06e5 E7040000 		.4byte	.LASF93
 1262 06e9 0C       		.byte	0xc
 1263 06ea 3C       		.byte	0x3c
 1264 06eb A2000000 		.4byte	0xa2
 1265 06ef 00       		.byte	0
 1266 06f0 00       		.byte	0
 1267 06f1 04       		.uleb128 0x4
 1268 06f2 08030000 		.4byte	.LASF94
 1269 06f6 0C       		.byte	0xc
 1270 06f7 3D       		.byte	0x3d
 1271 06f8 DC060000 		.4byte	0x6dc
 1272 06fc 15       		.uleb128 0x15
 1273 06fd 04       		.byte	0x4
 1274 06fe 07       		.byte	0x7
 1275 06ff D2       		.byte	0xd2
 1276 0700 5F070000 		.4byte	0x75f
 1277 0704 16       		.uleb128 0x16
 1278 0705 23000000 		.4byte	.LASF95
 1279 0709 07       		.byte	0x7
 1280 070a D9       		.byte	0xd9
 1281 070b D9000000 		.4byte	0xd9
 1282 070f 16       		.uleb128 0x16
 1283 0710 A9000000 		.4byte	.LASF96
 1284 0714 07       		.byte	0x7
 1285 0715 E0       		.byte	0xe0
 1286 0716 D9000000 		.4byte	0xd9
ARM GAS  /tmp/ccDsCKUe.s 			page 37


 1287 071a 16       		.uleb128 0x16
 1288 071b 6A020000 		.4byte	.LASF97
 1289 071f 07       		.byte	0x7
 1290 0720 E7       		.byte	0xe7
 1291 0721 D6020000 		.4byte	0x2d6
 1292 0725 16       		.uleb128 0x16
 1293 0726 12000000 		.4byte	.LASF98
 1294 072a 07       		.byte	0x7
 1295 072b EE       		.byte	0xee
 1296 072c 5F070000 		.4byte	0x75f
 1297 0730 16       		.uleb128 0x16
 1298 0731 BD000000 		.4byte	.LASF99
 1299 0735 07       		.byte	0x7
 1300 0736 F3       		.byte	0xf3
 1301 0737 D9000000 		.4byte	0xd9
 1302 073b 16       		.uleb128 0x16
 1303 073c 03020000 		.4byte	.LASF100
 1304 0740 07       		.byte	0x7
 1305 0741 FC       		.byte	0xfc
 1306 0742 8A070000 		.4byte	0x78a
 1307 0746 17       		.uleb128 0x17
 1308 0747 57040000 		.4byte	.LASF101
 1309 074b 07       		.byte	0x7
 1310 074c 0501     		.2byte	0x105
 1311 074e C1070000 		.4byte	0x7c1
 1312 0752 17       		.uleb128 0x17
 1313 0753 0D040000 		.4byte	.LASF102
 1314 0757 07       		.byte	0x7
 1315 0758 0D01     		.2byte	0x10d
 1316 075a E4000000 		.4byte	0xe4
 1317 075e 00       		.byte	0
 1318 075f 0A       		.uleb128 0xa
 1319 0760 04       		.byte	0x4
 1320 0761 EE010000 		.4byte	0x1ee
 1321 0765 05       		.uleb128 0x5
 1322 0766 2D040000 		.4byte	.LASF103
 1323 076a 0C       		.byte	0xc
 1324 076b 0D       		.byte	0xd
 1325 076c 34       		.byte	0x34
 1326 076d 8A070000 		.4byte	0x78a
 1327 0771 06       		.uleb128 0x6
 1328 0772 2D020000 		.4byte	.LASF24
 1329 0776 0D       		.byte	0xd
 1330 0777 35       		.byte	0x35
 1331 0778 23020000 		.4byte	0x223
 1332 077c 00       		.byte	0
 1333 077d 07       		.uleb128 0x7
 1334 077e 636E7400 		.ascii	"cnt\000"
 1335 0782 0D       		.byte	0xd
 1336 0783 37       		.byte	0x37
 1337 0784 EF000000 		.4byte	0xef
 1338 0788 08       		.byte	0x8
 1339 0789 00       		.byte	0
 1340 078a 0A       		.uleb128 0xa
 1341 078b 04       		.byte	0x4
 1342 078c 65070000 		.4byte	0x765
 1343 0790 05       		.uleb128 0x5
ARM GAS  /tmp/ccDsCKUe.s 			page 38


 1344 0791 E3050000 		.4byte	.LASF104
 1345 0795 10       		.byte	0x10
 1346 0796 0E       		.byte	0xe
 1347 0797 39       		.byte	0x39
 1348 0798 C1070000 		.4byte	0x7c1
 1349 079c 06       		.uleb128 0x6
 1350 079d 2D020000 		.4byte	.LASF24
 1351 07a1 0E       		.byte	0xe
 1352 07a2 3A       		.byte	0x3a
 1353 07a3 23020000 		.4byte	0x223
 1354 07a7 00       		.byte	0
 1355 07a8 06       		.uleb128 0x6
 1356 07a9 6E040000 		.4byte	.LASF105
 1357 07ad 0E       		.byte	0xe
 1358 07ae 3C       		.byte	0x3c
 1359 07af F9010000 		.4byte	0x1f9
 1360 07b3 08       		.byte	0x8
 1361 07b4 06       		.uleb128 0x6
 1362 07b5 18000000 		.4byte	.LASF43
 1363 07b9 0E       		.byte	0xe
 1364 07ba 3E       		.byte	0x3e
 1365 07bb F5070000 		.4byte	0x7f5
 1366 07bf 0C       		.byte	0xc
 1367 07c0 00       		.byte	0
 1368 07c1 0A       		.uleb128 0xa
 1369 07c2 04       		.byte	0x4
 1370 07c3 90070000 		.4byte	0x790
 1371 07c7 0A       		.uleb128 0xa
 1372 07c8 04       		.byte	0x4
 1373 07c9 CD070000 		.4byte	0x7cd
 1374 07cd 18       		.uleb128 0x18
 1375 07ce D2070000 		.4byte	0x7d2
 1376 07d2 03       		.uleb128 0x3
 1377 07d3 01       		.byte	0x1
 1378 07d4 08       		.byte	0x8
 1379 07d5 7B040000 		.4byte	.LASF106
 1380 07d9 0A       		.uleb128 0xa
 1381 07da 04       		.byte	0x4
 1382 07db 15050000 		.4byte	0x515
 1383 07df 0A       		.uleb128 0xa
 1384 07e0 04       		.byte	0x4
 1385 07e1 D8020000 		.4byte	0x2d8
 1386 07e5 0F       		.uleb128 0xf
 1387 07e6 C7070000 		.4byte	0x7c7
 1388 07ea 04       		.uleb128 0x4
 1389 07eb E2010000 		.4byte	.LASF107
 1390 07ef 0E       		.byte	0xe
 1391 07f0 34       		.byte	0x34
 1392 07f1 90070000 		.4byte	0x790
 1393 07f5 0A       		.uleb128 0xa
 1394 07f6 04       		.byte	0x4
 1395 07f7 EA070000 		.4byte	0x7ea
 1396 07fb 03       		.uleb128 0x3
 1397 07fc 01       		.byte	0x1
 1398 07fd 02       		.byte	0x2
 1399 07fe D1030000 		.4byte	.LASF108
 1400 0802 19       		.uleb128 0x19
ARM GAS  /tmp/ccDsCKUe.s 			page 39


 1401 0803 CF040000 		.4byte	.LASF126
 1402 0807 02       		.byte	0x2
 1403 0808 0601     		.2byte	0x106
 1404 080a 03       		.byte	0x3
 1405 080b 1C080000 		.4byte	0x81c
 1406 080f 1A       		.uleb128 0x1a
 1407 0810 EA010000 		.4byte	.LASF127
 1408 0814 02       		.byte	0x2
 1409 0815 0601     		.2byte	0x106
 1410 0817 77000000 		.4byte	0x77
 1411 081b 00       		.byte	0
 1412 081c 1B       		.uleb128 0x1b
 1413 081d 81000000 		.4byte	.LASF109
 1414 0821 0A       		.byte	0xa
 1415 0822 5202     		.2byte	0x252
 1416 0824 03       		.byte	0x3
 1417 0825 1B       		.uleb128 0x1b
 1418 0826 56010000 		.4byte	.LASF110
 1419 082a 0A       		.byte	0xa
 1420 082b 6A02     		.2byte	0x26a
 1421 082d 03       		.byte	0x3
 1422 082e 1B       		.uleb128 0x1b
 1423 082f 1D050000 		.4byte	.LASF111
 1424 0833 0A       		.byte	0xa
 1425 0834 7902     		.2byte	0x279
 1426 0836 03       		.byte	0x3
 1427 0837 1B       		.uleb128 0x1b
 1428 0838 8B040000 		.4byte	.LASF112
 1429 083c 0A       		.byte	0xa
 1430 083d 8402     		.2byte	0x284
 1431 083f 03       		.byte	0x3
 1432 0840 1B       		.uleb128 0x1b
 1433 0841 0B060000 		.4byte	.LASF113
 1434 0845 0F       		.byte	0xf
 1435 0846 9E01     		.2byte	0x19e
 1436 0848 03       		.byte	0x3
 1437 0849 1B       		.uleb128 0x1b
 1438 084a AE030000 		.4byte	.LASF114
 1439 084e 0F       		.byte	0xf
 1440 084f B201     		.2byte	0x1b2
 1441 0851 03       		.byte	0x3
 1442 0852 1B       		.uleb128 0x1b
 1443 0853 C7010000 		.4byte	.LASF115
 1444 0857 03       		.byte	0x3
 1445 0858 0102     		.2byte	0x201
 1446 085a 03       		.byte	0x3
 1447 085b 1B       		.uleb128 0x1b
 1448 085c 96020000 		.4byte	.LASF116
 1449 0860 03       		.byte	0x3
 1450 0861 4702     		.2byte	0x247
 1451 0863 03       		.byte	0x3
 1452 0864 1B       		.uleb128 0x1b
 1453 0865 DB000000 		.4byte	.LASF117
 1454 0869 03       		.byte	0x3
 1455 086a 0C02     		.2byte	0x20c
 1456 086c 03       		.byte	0x3
 1457 086d 1C       		.uleb128 0x1c
ARM GAS  /tmp/ccDsCKUe.s 			page 40


 1458 086e 4D010000 		.4byte	.LASF118
 1459 0872 01       		.byte	0x1
 1460 0873 EF       		.byte	0xef
 1461 0874 00000000 		.4byte	.LFB217
 1462 0878 28000000 		.4byte	.LFE217-.LFB217
 1463 087c 01       		.uleb128 0x1
 1464 087d 9C       		.byte	0x9c
 1465 087e 6B090000 		.4byte	0x96b
 1466 0882 1D       		.uleb128 0x1d
 1467 0883 52080000 		.4byte	0x852
 1468 0887 10000000 		.4byte	.LBB52
 1469 088b 06000000 		.4byte	.LBE52-.LBB52
 1470 088f 01       		.byte	0x1
 1471 0890 F9       		.byte	0xf9
 1472 0891 E3080000 		.4byte	0x8e3
 1473 0895 1E       		.uleb128 0x1e
 1474 0896 40080000 		.4byte	0x840
 1475 089a 10000000 		.4byte	.LBB53
 1476 089e 06000000 		.4byte	.LBE53-.LBB53
 1477 08a2 03       		.byte	0x3
 1478 08a3 0302     		.2byte	0x203
 1479 08a5 1E       		.uleb128 0x1e
 1480 08a6 2E080000 		.4byte	0x82e
 1481 08aa 10000000 		.4byte	.LBB54
 1482 08ae 06000000 		.4byte	.LBE54-.LBB54
 1483 08b2 0F       		.byte	0xf
 1484 08b3 A001     		.2byte	0x1a0
 1485 08b5 1E       		.uleb128 0x1e
 1486 08b6 1C080000 		.4byte	0x81c
 1487 08ba 10000000 		.4byte	.LBB55
 1488 08be 06000000 		.4byte	.LBE55-.LBB55
 1489 08c2 0A       		.byte	0xa
 1490 08c3 7B02     		.2byte	0x27b
 1491 08c5 1E       		.uleb128 0x1e
 1492 08c6 02080000 		.4byte	0x802
 1493 08ca 10000000 		.4byte	.LBB56
 1494 08ce 06000000 		.4byte	.LBE56-.LBB56
 1495 08d2 0A       		.byte	0xa
 1496 08d3 5A02     		.2byte	0x25a
 1497 08d5 1F       		.uleb128 0x1f
 1498 08d6 0F080000 		.4byte	0x80f
 1499 08da 00000000 		.4byte	.LLST0
 1500 08de 00       		.byte	0
 1501 08df 00       		.byte	0
 1502 08e0 00       		.byte	0
 1503 08e1 00       		.byte	0
 1504 08e2 00       		.byte	0
 1505 08e3 1D       		.uleb128 0x1d
 1506 08e4 5B080000 		.4byte	0x85b
 1507 08e8 16000000 		.4byte	.LBB58
 1508 08ec 04000000 		.4byte	.LBE58-.LBB58
 1509 08f0 01       		.byte	0x1
 1510 08f1 FA       		.byte	0xfa
 1511 08f2 00090000 		.4byte	0x900
 1512 08f6 20       		.uleb128 0x20
 1513 08f7 1A000000 		.4byte	.LVL1
 1514 08fb B2090000 		.4byte	0x9b2
ARM GAS  /tmp/ccDsCKUe.s 			page 41


 1515 08ff 00       		.byte	0
 1516 0900 1D       		.uleb128 0x1d
 1517 0901 64080000 		.4byte	0x864
 1518 0905 1A000000 		.4byte	.LBB60
 1519 0909 06000000 		.4byte	.LBE60-.LBB60
 1520 090d 01       		.byte	0x1
 1521 090e FB       		.byte	0xfb
 1522 090f 61090000 		.4byte	0x961
 1523 0913 1E       		.uleb128 0x1e
 1524 0914 49080000 		.4byte	0x849
 1525 0918 1A000000 		.4byte	.LBB61
 1526 091c 06000000 		.4byte	.LBE61-.LBB61
 1527 0920 03       		.byte	0x3
 1528 0921 0E02     		.2byte	0x20e
 1529 0923 1E       		.uleb128 0x1e
 1530 0924 37080000 		.4byte	0x837
 1531 0928 1A000000 		.4byte	.LBB62
 1532 092c 06000000 		.4byte	.LBE62-.LBB62
 1533 0930 0F       		.byte	0xf
 1534 0931 B601     		.2byte	0x1b6
 1535 0933 1E       		.uleb128 0x1e
 1536 0934 25080000 		.4byte	0x825
 1537 0938 1A000000 		.4byte	.LBB63
 1538 093c 06000000 		.4byte	.LBE63-.LBB63
 1539 0940 0A       		.byte	0xa
 1540 0941 8602     		.2byte	0x286
 1541 0943 1E       		.uleb128 0x1e
 1542 0944 02080000 		.4byte	0x802
 1543 0948 1A000000 		.4byte	.LBB64
 1544 094c 06000000 		.4byte	.LBE64-.LBB64
 1545 0950 0A       		.byte	0xa
 1546 0951 6D02     		.2byte	0x26d
 1547 0953 1F       		.uleb128 0x1f
 1548 0954 0F080000 		.4byte	0x80f
 1549 0958 15000000 		.4byte	.LLST1
 1550 095c 00       		.byte	0
 1551 095d 00       		.byte	0
 1552 095e 00       		.byte	0
 1553 095f 00       		.byte	0
 1554 0960 00       		.byte	0
 1555 0961 21       		.uleb128 0x21
 1556 0962 28000000 		.4byte	.LVL3
 1557 0966 BA090000 		.4byte	0x9ba
 1558 096a 00       		.byte	0
 1559 096b 22       		.uleb128 0x22
 1560 096c F0000000 		.4byte	.LASF119
 1561 0970 01       		.byte	0x1
 1562 0971 0B01     		.2byte	0x10b
 1563 0973 00000000 		.4byte	.LFB218
 1564 0977 4C000000 		.4byte	.LFE218-.LFB218
 1565 097b 01       		.uleb128 0x1
 1566 097c 9C       		.byte	0x9c
 1567 097d 96090000 		.4byte	0x996
 1568 0981 23       		.uleb128 0x23
 1569 0982 4C000000 		.4byte	.LVL4
 1570 0986 C2090000 		.4byte	0x9c2
 1571 098a 24       		.uleb128 0x24
ARM GAS  /tmp/ccDsCKUe.s 			page 42


 1572 098b 01       		.uleb128 0x1
 1573 098c 51       		.byte	0x51
 1574 098d 01       		.uleb128 0x1
 1575 098e 38       		.byte	0x38
 1576 098f 24       		.uleb128 0x24
 1577 0990 01       		.uleb128 0x1
 1578 0991 50       		.byte	0x50
 1579 0992 01       		.uleb128 0x1
 1580 0993 4C       		.byte	0x4c
 1581 0994 00       		.byte	0
 1582 0995 00       		.byte	0
 1583 0996 25       		.uleb128 0x25
 1584 0997 ED030000 		.4byte	.LASF120
 1585 099b 10       		.byte	0x10
 1586 099c 9606     		.2byte	0x696
 1587 099e A2090000 		.4byte	0x9a2
 1588 09a2 0F       		.uleb128 0xf
 1589 09a3 65000000 		.4byte	0x65
 1590 09a7 26       		.uleb128 0x26
 1591 09a8 636800   		.ascii	"ch\000"
 1592 09ab 07       		.byte	0x7
 1593 09ac D201     		.2byte	0x1d2
 1594 09ae A5030000 		.4byte	0x3a5
 1595 09b2 27       		.uleb128 0x27
 1596 09b3 B3040000 		.4byte	.LASF121
 1597 09b7 0F       		.byte	0xf
 1598 09b8 3401     		.2byte	0x134
 1599 09ba 27       		.uleb128 0x27
 1600 09bb 57020000 		.4byte	.LASF122
 1601 09bf 0A       		.byte	0xa
 1602 09c0 EA01     		.2byte	0x1ea
 1603 09c2 28       		.uleb128 0x28
 1604 09c3 12010000 		.4byte	.LASF128
 1605 09c7 11       		.byte	0x11
 1606 09c8 4E       		.byte	0x4e
 1607 09c9 0D       		.uleb128 0xd
 1608 09ca 77000000 		.4byte	0x77
 1609 09ce 0D       		.uleb128 0xd
 1610 09cf 77000000 		.4byte	0x77
 1611 09d3 00       		.byte	0
 1612 09d4 00       		.byte	0
 1613              		.section	.debug_abbrev,"",%progbits
 1614              	.Ldebug_abbrev0:
 1615 0000 01       		.uleb128 0x1
 1616 0001 11       		.uleb128 0x11
 1617 0002 01       		.byte	0x1
 1618 0003 25       		.uleb128 0x25
 1619 0004 0E       		.uleb128 0xe
 1620 0005 13       		.uleb128 0x13
 1621 0006 0B       		.uleb128 0xb
 1622 0007 03       		.uleb128 0x3
 1623 0008 0E       		.uleb128 0xe
 1624 0009 1B       		.uleb128 0x1b
 1625 000a 0E       		.uleb128 0xe
 1626 000b 55       		.uleb128 0x55
 1627 000c 17       		.uleb128 0x17
 1628 000d 11       		.uleb128 0x11
ARM GAS  /tmp/ccDsCKUe.s 			page 43


 1629 000e 01       		.uleb128 0x1
 1630 000f 10       		.uleb128 0x10
 1631 0010 17       		.uleb128 0x17
 1632 0011 00       		.byte	0
 1633 0012 00       		.byte	0
 1634 0013 02       		.uleb128 0x2
 1635 0014 24       		.uleb128 0x24
 1636 0015 00       		.byte	0
 1637 0016 0B       		.uleb128 0xb
 1638 0017 0B       		.uleb128 0xb
 1639 0018 3E       		.uleb128 0x3e
 1640 0019 0B       		.uleb128 0xb
 1641 001a 03       		.uleb128 0x3
 1642 001b 08       		.uleb128 0x8
 1643 001c 00       		.byte	0
 1644 001d 00       		.byte	0
 1645 001e 03       		.uleb128 0x3
 1646 001f 24       		.uleb128 0x24
 1647 0020 00       		.byte	0
 1648 0021 0B       		.uleb128 0xb
 1649 0022 0B       		.uleb128 0xb
 1650 0023 3E       		.uleb128 0x3e
 1651 0024 0B       		.uleb128 0xb
 1652 0025 03       		.uleb128 0x3
 1653 0026 0E       		.uleb128 0xe
 1654 0027 00       		.byte	0
 1655 0028 00       		.byte	0
 1656 0029 04       		.uleb128 0x4
 1657 002a 16       		.uleb128 0x16
 1658 002b 00       		.byte	0
 1659 002c 03       		.uleb128 0x3
 1660 002d 0E       		.uleb128 0xe
 1661 002e 3A       		.uleb128 0x3a
 1662 002f 0B       		.uleb128 0xb
 1663 0030 3B       		.uleb128 0x3b
 1664 0031 0B       		.uleb128 0xb
 1665 0032 49       		.uleb128 0x49
 1666 0033 13       		.uleb128 0x13
 1667 0034 00       		.byte	0
 1668 0035 00       		.byte	0
 1669 0036 05       		.uleb128 0x5
 1670 0037 13       		.uleb128 0x13
 1671 0038 01       		.byte	0x1
 1672 0039 03       		.uleb128 0x3
 1673 003a 0E       		.uleb128 0xe
 1674 003b 0B       		.uleb128 0xb
 1675 003c 0B       		.uleb128 0xb
 1676 003d 3A       		.uleb128 0x3a
 1677 003e 0B       		.uleb128 0xb
 1678 003f 3B       		.uleb128 0x3b
 1679 0040 0B       		.uleb128 0xb
 1680 0041 01       		.uleb128 0x1
 1681 0042 13       		.uleb128 0x13
 1682 0043 00       		.byte	0
 1683 0044 00       		.byte	0
 1684 0045 06       		.uleb128 0x6
 1685 0046 0D       		.uleb128 0xd
ARM GAS  /tmp/ccDsCKUe.s 			page 44


 1686 0047 00       		.byte	0
 1687 0048 03       		.uleb128 0x3
 1688 0049 0E       		.uleb128 0xe
 1689 004a 3A       		.uleb128 0x3a
 1690 004b 0B       		.uleb128 0xb
 1691 004c 3B       		.uleb128 0x3b
 1692 004d 0B       		.uleb128 0xb
 1693 004e 49       		.uleb128 0x49
 1694 004f 13       		.uleb128 0x13
 1695 0050 38       		.uleb128 0x38
 1696 0051 0B       		.uleb128 0xb
 1697 0052 00       		.byte	0
 1698 0053 00       		.byte	0
 1699 0054 07       		.uleb128 0x7
 1700 0055 0D       		.uleb128 0xd
 1701 0056 00       		.byte	0
 1702 0057 03       		.uleb128 0x3
 1703 0058 08       		.uleb128 0x8
 1704 0059 3A       		.uleb128 0x3a
 1705 005a 0B       		.uleb128 0xb
 1706 005b 3B       		.uleb128 0x3b
 1707 005c 0B       		.uleb128 0xb
 1708 005d 49       		.uleb128 0x49
 1709 005e 13       		.uleb128 0x13
 1710 005f 38       		.uleb128 0x38
 1711 0060 0B       		.uleb128 0xb
 1712 0061 00       		.byte	0
 1713 0062 00       		.byte	0
 1714 0063 08       		.uleb128 0x8
 1715 0064 0D       		.uleb128 0xd
 1716 0065 00       		.byte	0
 1717 0066 03       		.uleb128 0x3
 1718 0067 08       		.uleb128 0x8
 1719 0068 3A       		.uleb128 0x3a
 1720 0069 0B       		.uleb128 0xb
 1721 006a 3B       		.uleb128 0x3b
 1722 006b 05       		.uleb128 0x5
 1723 006c 49       		.uleb128 0x49
 1724 006d 13       		.uleb128 0x13
 1725 006e 38       		.uleb128 0x38
 1726 006f 0B       		.uleb128 0xb
 1727 0070 00       		.byte	0
 1728 0071 00       		.byte	0
 1729 0072 09       		.uleb128 0x9
 1730 0073 0D       		.uleb128 0xd
 1731 0074 00       		.byte	0
 1732 0075 03       		.uleb128 0x3
 1733 0076 0E       		.uleb128 0xe
 1734 0077 3A       		.uleb128 0x3a
 1735 0078 0B       		.uleb128 0xb
 1736 0079 3B       		.uleb128 0x3b
 1737 007a 05       		.uleb128 0x5
 1738 007b 49       		.uleb128 0x49
 1739 007c 13       		.uleb128 0x13
 1740 007d 38       		.uleb128 0x38
 1741 007e 0B       		.uleb128 0xb
 1742 007f 00       		.byte	0
ARM GAS  /tmp/ccDsCKUe.s 			page 45


 1743 0080 00       		.byte	0
 1744 0081 0A       		.uleb128 0xa
 1745 0082 0F       		.uleb128 0xf
 1746 0083 00       		.byte	0
 1747 0084 0B       		.uleb128 0xb
 1748 0085 0B       		.uleb128 0xb
 1749 0086 49       		.uleb128 0x49
 1750 0087 13       		.uleb128 0x13
 1751 0088 00       		.byte	0
 1752 0089 00       		.byte	0
 1753 008a 0B       		.uleb128 0xb
 1754 008b 13       		.uleb128 0x13
 1755 008c 01       		.byte	0x1
 1756 008d 03       		.uleb128 0x3
 1757 008e 0E       		.uleb128 0xe
 1758 008f 0B       		.uleb128 0xb
 1759 0090 0B       		.uleb128 0xb
 1760 0091 3A       		.uleb128 0x3a
 1761 0092 0B       		.uleb128 0xb
 1762 0093 3B       		.uleb128 0x3b
 1763 0094 05       		.uleb128 0x5
 1764 0095 01       		.uleb128 0x1
 1765 0096 13       		.uleb128 0x13
 1766 0097 00       		.byte	0
 1767 0098 00       		.byte	0
 1768 0099 0C       		.uleb128 0xc
 1769 009a 15       		.uleb128 0x15
 1770 009b 01       		.byte	0x1
 1771 009c 27       		.uleb128 0x27
 1772 009d 19       		.uleb128 0x19
 1773 009e 01       		.uleb128 0x1
 1774 009f 13       		.uleb128 0x13
 1775 00a0 00       		.byte	0
 1776 00a1 00       		.byte	0
 1777 00a2 0D       		.uleb128 0xd
 1778 00a3 05       		.uleb128 0x5
 1779 00a4 00       		.byte	0
 1780 00a5 49       		.uleb128 0x49
 1781 00a6 13       		.uleb128 0x13
 1782 00a7 00       		.byte	0
 1783 00a8 00       		.byte	0
 1784 00a9 0E       		.uleb128 0xe
 1785 00aa 0F       		.uleb128 0xf
 1786 00ab 00       		.byte	0
 1787 00ac 0B       		.uleb128 0xb
 1788 00ad 0B       		.uleb128 0xb
 1789 00ae 00       		.byte	0
 1790 00af 00       		.byte	0
 1791 00b0 0F       		.uleb128 0xf
 1792 00b1 35       		.uleb128 0x35
 1793 00b2 00       		.byte	0
 1794 00b3 49       		.uleb128 0x49
 1795 00b4 13       		.uleb128 0x13
 1796 00b5 00       		.byte	0
 1797 00b6 00       		.byte	0
 1798 00b7 10       		.uleb128 0x10
 1799 00b8 01       		.uleb128 0x1
ARM GAS  /tmp/ccDsCKUe.s 			page 46


 1800 00b9 01       		.byte	0x1
 1801 00ba 49       		.uleb128 0x49
 1802 00bb 13       		.uleb128 0x13
 1803 00bc 01       		.uleb128 0x1
 1804 00bd 13       		.uleb128 0x13
 1805 00be 00       		.byte	0
 1806 00bf 00       		.byte	0
 1807 00c0 11       		.uleb128 0x11
 1808 00c1 21       		.uleb128 0x21
 1809 00c2 00       		.byte	0
 1810 00c3 49       		.uleb128 0x49
 1811 00c4 13       		.uleb128 0x13
 1812 00c5 2F       		.uleb128 0x2f
 1813 00c6 0B       		.uleb128 0xb
 1814 00c7 00       		.byte	0
 1815 00c8 00       		.byte	0
 1816 00c9 12       		.uleb128 0x12
 1817 00ca 13       		.uleb128 0x13
 1818 00cb 01       		.byte	0x1
 1819 00cc 0B       		.uleb128 0xb
 1820 00cd 0B       		.uleb128 0xb
 1821 00ce 3A       		.uleb128 0x3a
 1822 00cf 0B       		.uleb128 0xb
 1823 00d0 3B       		.uleb128 0x3b
 1824 00d1 05       		.uleb128 0x5
 1825 00d2 01       		.uleb128 0x1
 1826 00d3 13       		.uleb128 0x13
 1827 00d4 00       		.byte	0
 1828 00d5 00       		.byte	0
 1829 00d6 13       		.uleb128 0x13
 1830 00d7 16       		.uleb128 0x16
 1831 00d8 00       		.byte	0
 1832 00d9 03       		.uleb128 0x3
 1833 00da 0E       		.uleb128 0xe
 1834 00db 3A       		.uleb128 0x3a
 1835 00dc 0B       		.uleb128 0xb
 1836 00dd 3B       		.uleb128 0x3b
 1837 00de 05       		.uleb128 0x5
 1838 00df 49       		.uleb128 0x49
 1839 00e0 13       		.uleb128 0x13
 1840 00e1 00       		.byte	0
 1841 00e2 00       		.byte	0
 1842 00e3 14       		.uleb128 0x14
 1843 00e4 13       		.uleb128 0x13
 1844 00e5 01       		.byte	0x1
 1845 00e6 0B       		.uleb128 0xb
 1846 00e7 0B       		.uleb128 0xb
 1847 00e8 3A       		.uleb128 0x3a
 1848 00e9 0B       		.uleb128 0xb
 1849 00ea 3B       		.uleb128 0x3b
 1850 00eb 0B       		.uleb128 0xb
 1851 00ec 01       		.uleb128 0x1
 1852 00ed 13       		.uleb128 0x13
 1853 00ee 00       		.byte	0
 1854 00ef 00       		.byte	0
 1855 00f0 15       		.uleb128 0x15
 1856 00f1 17       		.uleb128 0x17
ARM GAS  /tmp/ccDsCKUe.s 			page 47


 1857 00f2 01       		.byte	0x1
 1858 00f3 0B       		.uleb128 0xb
 1859 00f4 0B       		.uleb128 0xb
 1860 00f5 3A       		.uleb128 0x3a
 1861 00f6 0B       		.uleb128 0xb
 1862 00f7 3B       		.uleb128 0x3b
 1863 00f8 0B       		.uleb128 0xb
 1864 00f9 01       		.uleb128 0x1
 1865 00fa 13       		.uleb128 0x13
 1866 00fb 00       		.byte	0
 1867 00fc 00       		.byte	0
 1868 00fd 16       		.uleb128 0x16
 1869 00fe 0D       		.uleb128 0xd
 1870 00ff 00       		.byte	0
 1871 0100 03       		.uleb128 0x3
 1872 0101 0E       		.uleb128 0xe
 1873 0102 3A       		.uleb128 0x3a
 1874 0103 0B       		.uleb128 0xb
 1875 0104 3B       		.uleb128 0x3b
 1876 0105 0B       		.uleb128 0xb
 1877 0106 49       		.uleb128 0x49
 1878 0107 13       		.uleb128 0x13
 1879 0108 00       		.byte	0
 1880 0109 00       		.byte	0
 1881 010a 17       		.uleb128 0x17
 1882 010b 0D       		.uleb128 0xd
 1883 010c 00       		.byte	0
 1884 010d 03       		.uleb128 0x3
 1885 010e 0E       		.uleb128 0xe
 1886 010f 3A       		.uleb128 0x3a
 1887 0110 0B       		.uleb128 0xb
 1888 0111 3B       		.uleb128 0x3b
 1889 0112 05       		.uleb128 0x5
 1890 0113 49       		.uleb128 0x49
 1891 0114 13       		.uleb128 0x13
 1892 0115 00       		.byte	0
 1893 0116 00       		.byte	0
 1894 0117 18       		.uleb128 0x18
 1895 0118 26       		.uleb128 0x26
 1896 0119 00       		.byte	0
 1897 011a 49       		.uleb128 0x49
 1898 011b 13       		.uleb128 0x13
 1899 011c 00       		.byte	0
 1900 011d 00       		.byte	0
 1901 011e 19       		.uleb128 0x19
 1902 011f 2E       		.uleb128 0x2e
 1903 0120 01       		.byte	0x1
 1904 0121 03       		.uleb128 0x3
 1905 0122 0E       		.uleb128 0xe
 1906 0123 3A       		.uleb128 0x3a
 1907 0124 0B       		.uleb128 0xb
 1908 0125 3B       		.uleb128 0x3b
 1909 0126 05       		.uleb128 0x5
 1910 0127 27       		.uleb128 0x27
 1911 0128 19       		.uleb128 0x19
 1912 0129 20       		.uleb128 0x20
 1913 012a 0B       		.uleb128 0xb
ARM GAS  /tmp/ccDsCKUe.s 			page 48


 1914 012b 01       		.uleb128 0x1
 1915 012c 13       		.uleb128 0x13
 1916 012d 00       		.byte	0
 1917 012e 00       		.byte	0
 1918 012f 1A       		.uleb128 0x1a
 1919 0130 05       		.uleb128 0x5
 1920 0131 00       		.byte	0
 1921 0132 03       		.uleb128 0x3
 1922 0133 0E       		.uleb128 0xe
 1923 0134 3A       		.uleb128 0x3a
 1924 0135 0B       		.uleb128 0xb
 1925 0136 3B       		.uleb128 0x3b
 1926 0137 05       		.uleb128 0x5
 1927 0138 49       		.uleb128 0x49
 1928 0139 13       		.uleb128 0x13
 1929 013a 00       		.byte	0
 1930 013b 00       		.byte	0
 1931 013c 1B       		.uleb128 0x1b
 1932 013d 2E       		.uleb128 0x2e
 1933 013e 00       		.byte	0
 1934 013f 03       		.uleb128 0x3
 1935 0140 0E       		.uleb128 0xe
 1936 0141 3A       		.uleb128 0x3a
 1937 0142 0B       		.uleb128 0xb
 1938 0143 3B       		.uleb128 0x3b
 1939 0144 05       		.uleb128 0x5
 1940 0145 27       		.uleb128 0x27
 1941 0146 19       		.uleb128 0x19
 1942 0147 20       		.uleb128 0x20
 1943 0148 0B       		.uleb128 0xb
 1944 0149 00       		.byte	0
 1945 014a 00       		.byte	0
 1946 014b 1C       		.uleb128 0x1c
 1947 014c 2E       		.uleb128 0x2e
 1948 014d 01       		.byte	0x1
 1949 014e 3F       		.uleb128 0x3f
 1950 014f 19       		.uleb128 0x19
 1951 0150 03       		.uleb128 0x3
 1952 0151 0E       		.uleb128 0xe
 1953 0152 3A       		.uleb128 0x3a
 1954 0153 0B       		.uleb128 0xb
 1955 0154 3B       		.uleb128 0x3b
 1956 0155 0B       		.uleb128 0xb
 1957 0156 27       		.uleb128 0x27
 1958 0157 19       		.uleb128 0x19
 1959 0158 11       		.uleb128 0x11
 1960 0159 01       		.uleb128 0x1
 1961 015a 12       		.uleb128 0x12
 1962 015b 06       		.uleb128 0x6
 1963 015c 40       		.uleb128 0x40
 1964 015d 18       		.uleb128 0x18
 1965 015e 9742     		.uleb128 0x2117
 1966 0160 19       		.uleb128 0x19
 1967 0161 01       		.uleb128 0x1
 1968 0162 13       		.uleb128 0x13
 1969 0163 00       		.byte	0
 1970 0164 00       		.byte	0
ARM GAS  /tmp/ccDsCKUe.s 			page 49


 1971 0165 1D       		.uleb128 0x1d
 1972 0166 1D       		.uleb128 0x1d
 1973 0167 01       		.byte	0x1
 1974 0168 31       		.uleb128 0x31
 1975 0169 13       		.uleb128 0x13
 1976 016a 11       		.uleb128 0x11
 1977 016b 01       		.uleb128 0x1
 1978 016c 12       		.uleb128 0x12
 1979 016d 06       		.uleb128 0x6
 1980 016e 58       		.uleb128 0x58
 1981 016f 0B       		.uleb128 0xb
 1982 0170 59       		.uleb128 0x59
 1983 0171 0B       		.uleb128 0xb
 1984 0172 01       		.uleb128 0x1
 1985 0173 13       		.uleb128 0x13
 1986 0174 00       		.byte	0
 1987 0175 00       		.byte	0
 1988 0176 1E       		.uleb128 0x1e
 1989 0177 1D       		.uleb128 0x1d
 1990 0178 01       		.byte	0x1
 1991 0179 31       		.uleb128 0x31
 1992 017a 13       		.uleb128 0x13
 1993 017b 11       		.uleb128 0x11
 1994 017c 01       		.uleb128 0x1
 1995 017d 12       		.uleb128 0x12
 1996 017e 06       		.uleb128 0x6
 1997 017f 58       		.uleb128 0x58
 1998 0180 0B       		.uleb128 0xb
 1999 0181 59       		.uleb128 0x59
 2000 0182 05       		.uleb128 0x5
 2001 0183 00       		.byte	0
 2002 0184 00       		.byte	0
 2003 0185 1F       		.uleb128 0x1f
 2004 0186 05       		.uleb128 0x5
 2005 0187 00       		.byte	0
 2006 0188 31       		.uleb128 0x31
 2007 0189 13       		.uleb128 0x13
 2008 018a 02       		.uleb128 0x2
 2009 018b 17       		.uleb128 0x17
 2010 018c 00       		.byte	0
 2011 018d 00       		.byte	0
 2012 018e 20       		.uleb128 0x20
 2013 018f 898201   		.uleb128 0x4109
 2014 0192 00       		.byte	0
 2015 0193 11       		.uleb128 0x11
 2016 0194 01       		.uleb128 0x1
 2017 0195 31       		.uleb128 0x31
 2018 0196 13       		.uleb128 0x13
 2019 0197 00       		.byte	0
 2020 0198 00       		.byte	0
 2021 0199 21       		.uleb128 0x21
 2022 019a 898201   		.uleb128 0x4109
 2023 019d 00       		.byte	0
 2024 019e 11       		.uleb128 0x11
 2025 019f 01       		.uleb128 0x1
 2026 01a0 9542     		.uleb128 0x2115
 2027 01a2 19       		.uleb128 0x19
ARM GAS  /tmp/ccDsCKUe.s 			page 50


 2028 01a3 31       		.uleb128 0x31
 2029 01a4 13       		.uleb128 0x13
 2030 01a5 00       		.byte	0
 2031 01a6 00       		.byte	0
 2032 01a7 22       		.uleb128 0x22
 2033 01a8 2E       		.uleb128 0x2e
 2034 01a9 01       		.byte	0x1
 2035 01aa 3F       		.uleb128 0x3f
 2036 01ab 19       		.uleb128 0x19
 2037 01ac 03       		.uleb128 0x3
 2038 01ad 0E       		.uleb128 0xe
 2039 01ae 3A       		.uleb128 0x3a
 2040 01af 0B       		.uleb128 0xb
 2041 01b0 3B       		.uleb128 0x3b
 2042 01b1 05       		.uleb128 0x5
 2043 01b2 27       		.uleb128 0x27
 2044 01b3 19       		.uleb128 0x19
 2045 01b4 11       		.uleb128 0x11
 2046 01b5 01       		.uleb128 0x1
 2047 01b6 12       		.uleb128 0x12
 2048 01b7 06       		.uleb128 0x6
 2049 01b8 40       		.uleb128 0x40
 2050 01b9 18       		.uleb128 0x18
 2051 01ba 9742     		.uleb128 0x2117
 2052 01bc 19       		.uleb128 0x19
 2053 01bd 01       		.uleb128 0x1
 2054 01be 13       		.uleb128 0x13
 2055 01bf 00       		.byte	0
 2056 01c0 00       		.byte	0
 2057 01c1 23       		.uleb128 0x23
 2058 01c2 898201   		.uleb128 0x4109
 2059 01c5 01       		.byte	0x1
 2060 01c6 11       		.uleb128 0x11
 2061 01c7 01       		.uleb128 0x1
 2062 01c8 9542     		.uleb128 0x2115
 2063 01ca 19       		.uleb128 0x19
 2064 01cb 31       		.uleb128 0x31
 2065 01cc 13       		.uleb128 0x13
 2066 01cd 00       		.byte	0
 2067 01ce 00       		.byte	0
 2068 01cf 24       		.uleb128 0x24
 2069 01d0 8A8201   		.uleb128 0x410a
 2070 01d3 00       		.byte	0
 2071 01d4 02       		.uleb128 0x2
 2072 01d5 18       		.uleb128 0x18
 2073 01d6 9142     		.uleb128 0x2111
 2074 01d8 18       		.uleb128 0x18
 2075 01d9 00       		.byte	0
 2076 01da 00       		.byte	0
 2077 01db 25       		.uleb128 0x25
 2078 01dc 34       		.uleb128 0x34
 2079 01dd 00       		.byte	0
 2080 01de 03       		.uleb128 0x3
 2081 01df 0E       		.uleb128 0xe
 2082 01e0 3A       		.uleb128 0x3a
 2083 01e1 0B       		.uleb128 0xb
 2084 01e2 3B       		.uleb128 0x3b
ARM GAS  /tmp/ccDsCKUe.s 			page 51


 2085 01e3 05       		.uleb128 0x5
 2086 01e4 49       		.uleb128 0x49
 2087 01e5 13       		.uleb128 0x13
 2088 01e6 3F       		.uleb128 0x3f
 2089 01e7 19       		.uleb128 0x19
 2090 01e8 3C       		.uleb128 0x3c
 2091 01e9 19       		.uleb128 0x19
 2092 01ea 00       		.byte	0
 2093 01eb 00       		.byte	0
 2094 01ec 26       		.uleb128 0x26
 2095 01ed 34       		.uleb128 0x34
 2096 01ee 00       		.byte	0
 2097 01ef 03       		.uleb128 0x3
 2098 01f0 08       		.uleb128 0x8
 2099 01f1 3A       		.uleb128 0x3a
 2100 01f2 0B       		.uleb128 0xb
 2101 01f3 3B       		.uleb128 0x3b
 2102 01f4 05       		.uleb128 0x5
 2103 01f5 49       		.uleb128 0x49
 2104 01f6 13       		.uleb128 0x13
 2105 01f7 3F       		.uleb128 0x3f
 2106 01f8 19       		.uleb128 0x19
 2107 01f9 3C       		.uleb128 0x3c
 2108 01fa 19       		.uleb128 0x19
 2109 01fb 00       		.byte	0
 2110 01fc 00       		.byte	0
 2111 01fd 27       		.uleb128 0x27
 2112 01fe 2E       		.uleb128 0x2e
 2113 01ff 00       		.byte	0
 2114 0200 3F       		.uleb128 0x3f
 2115 0201 19       		.uleb128 0x19
 2116 0202 03       		.uleb128 0x3
 2117 0203 0E       		.uleb128 0xe
 2118 0204 3A       		.uleb128 0x3a
 2119 0205 0B       		.uleb128 0xb
 2120 0206 3B       		.uleb128 0x3b
 2121 0207 05       		.uleb128 0x5
 2122 0208 27       		.uleb128 0x27
 2123 0209 19       		.uleb128 0x19
 2124 020a 3C       		.uleb128 0x3c
 2125 020b 19       		.uleb128 0x19
 2126 020c 00       		.byte	0
 2127 020d 00       		.byte	0
 2128 020e 28       		.uleb128 0x28
 2129 020f 2E       		.uleb128 0x2e
 2130 0210 01       		.byte	0x1
 2131 0211 3F       		.uleb128 0x3f
 2132 0212 19       		.uleb128 0x19
 2133 0213 03       		.uleb128 0x3
 2134 0214 0E       		.uleb128 0xe
 2135 0215 3A       		.uleb128 0x3a
 2136 0216 0B       		.uleb128 0xb
 2137 0217 3B       		.uleb128 0x3b
 2138 0218 0B       		.uleb128 0xb
 2139 0219 27       		.uleb128 0x27
 2140 021a 19       		.uleb128 0x19
 2141 021b 3C       		.uleb128 0x3c
ARM GAS  /tmp/ccDsCKUe.s 			page 52


 2142 021c 19       		.uleb128 0x19
 2143 021d 00       		.byte	0
 2144 021e 00       		.byte	0
 2145 021f 00       		.byte	0
 2146              		.section	.debug_loc,"",%progbits
 2147              	.Ldebug_loc0:
 2148              	.LLST0:
 2149 0000 10000000 		.4byte	.LVL0
 2150 0004 20000000 		.4byte	.LVL2
 2151 0008 0300     		.2byte	0x3
 2152 000a 08       		.byte	0x8
 2153 000b 20       		.byte	0x20
 2154 000c 9F       		.byte	0x9f
 2155 000d 00000000 		.4byte	0
 2156 0011 00000000 		.4byte	0
 2157              	.LLST1:
 2158 0015 1A000000 		.4byte	.LVL1
 2159 0019 20000000 		.4byte	.LVL2
 2160 001d 0200     		.2byte	0x2
 2161 001f 30       		.byte	0x30
 2162 0020 9F       		.byte	0x9f
 2163 0021 00000000 		.4byte	0
 2164 0025 00000000 		.4byte	0
 2165              		.section	.debug_aranges,"",%progbits
 2166 0000 24000000 		.4byte	0x24
 2167 0004 0200     		.2byte	0x2
 2168 0006 00000000 		.4byte	.Ldebug_info0
 2169 000a 04       		.byte	0x4
 2170 000b 00       		.byte	0
 2171 000c 0000     		.2byte	0
 2172 000e 0000     		.2byte	0
 2173 0010 00000000 		.4byte	.LFB217
 2174 0014 28000000 		.4byte	.LFE217-.LFB217
 2175 0018 00000000 		.4byte	.LFB218
 2176 001c 4C000000 		.4byte	.LFE218-.LFB218
 2177 0020 00000000 		.4byte	0
 2178 0024 00000000 		.4byte	0
 2179              		.section	.debug_ranges,"",%progbits
 2180              	.Ldebug_ranges0:
 2181 0000 00000000 		.4byte	.LFB217
 2182 0004 28000000 		.4byte	.LFE217
 2183 0008 00000000 		.4byte	.LFB218
 2184 000c 4C000000 		.4byte	.LFE218
 2185 0010 00000000 		.4byte	0
 2186 0014 00000000 		.4byte	0
 2187              		.section	.debug_line,"",%progbits
 2188              	.Ldebug_line0:
 2189 0000 C3020000 		.section	.debug_str,"MS",%progbits,1
 2189      02005B02 
 2189      00000201 
 2189      FB0E0D00 
 2189      01010101 
 2190              	.LASF47:
 2191 0000 72656164 		.ascii	"ready_list_t\000"
 2191      795F6C69 
 2191      73745F74 
 2191      00
ARM GAS  /tmp/ccDsCKUe.s 			page 53


 2192              	.LASF84:
 2193 000d 44494552 		.ascii	"DIER\000"
 2193      00
 2194              	.LASF98:
 2195 0012 77747472 		.ascii	"wttrp\000"
 2195      7000
 2196              	.LASF43:
 2197 0018 6E657874 		.ascii	"next\000"
 2197      00
 2198              	.LASF53:
 2199 001d 64656C74 		.ascii	"delta\000"
 2199      6100
 2200              	.LASF95:
 2201 0023 7264796D 		.ascii	"rdymsg\000"
 2201      736700
 2202              	.LASF12:
 2203 002a 75696E74 		.ascii	"uint64_t\000"
 2203      36345F74 
 2203      00
 2204              	.LASF124:
 2205 0033 2E2E2F2E 		.ascii	"../../../os/hal/ports/STM32/LLD/TIMv1/hal_st_lld.c\000"
 2205      2E2F2E2E 
 2205      2F6F732F 
 2205      68616C2F 
 2205      706F7274 
 2206              	.LASF82:
 2207 0066 706F7274 		.ascii	"port_intctx\000"
 2207      5F696E74 
 2207      63747800 
 2208              	.LASF58:
 2209 0072 73797374 		.ascii	"system_debug_t\000"
 2209      656D5F64 
 2209      65627567 
 2209      5F7400
 2210              	.LASF109:
 2211 0081 706F7274 		.ascii	"port_lock\000"
 2211      5F6C6F63 
 2211      6B00
 2212              	.LASF13:
 2213 008b 6C6F6E67 		.ascii	"long long unsigned int\000"
 2213      206C6F6E 
 2213      6720756E 
 2213      7369676E 
 2213      65642069 
 2214              	.LASF67:
 2215 00a2 4944434F 		.ascii	"IDCODE\000"
 2215      444500
 2216              	.LASF96:
 2217 00a9 65786974 		.ascii	"exitcode\000"
 2217      636F6465 
 2217      00
 2218              	.LASF65:
 2219 00b2 6D61696E 		.ascii	"mainthread\000"
 2219      74687265 
 2219      616400
 2220              	.LASF99:
 2221 00bd 73656E74 		.ascii	"sentmsg\000"
ARM GAS  /tmp/ccDsCKUe.s 			page 54


 2221      6D736700 
 2222              	.LASF55:
 2223 00c5 76697274 		.ascii	"virtual_timers_list_t\000"
 2223      75616C5F 
 2223      74696D65 
 2223      72735F6C 
 2223      6973745F 
 2224              	.LASF117:
 2225 00db 6F73616C 		.ascii	"osalSysUnlockFromISR\000"
 2225      53797355 
 2225      6E6C6F63 
 2225      6B46726F 
 2225      6D495352 
 2226              	.LASF119:
 2227 00f0 73745F6C 		.ascii	"st_lld_init\000"
 2227      6C645F69 
 2227      6E697400 
 2228              	.LASF88:
 2229 00fc 42445452 		.ascii	"BDTR\000"
 2229      00
 2230              	.LASF45:
 2231 0101 63685F74 		.ascii	"ch_threads_queue\000"
 2231      68726561 
 2231      64735F71 
 2231      75657565 
 2231      00
 2232              	.LASF128:
 2233 0112 6E766963 		.ascii	"nvicEnableVector\000"
 2233      456E6162 
 2233      6C655665 
 2233      63746F72 
 2233      00
 2234              	.LASF85:
 2235 0123 43434D52 		.ascii	"CCMR1\000"
 2235      3100
 2236              	.LASF86:
 2237 0129 43434D52 		.ascii	"CCMR2\000"
 2237      3200
 2238              	.LASF90:
 2239 012f 43434D52 		.ascii	"CCMR3\000"
 2239      3300
 2240              	.LASF1:
 2241 0135 7369676E 		.ascii	"signed char\000"
 2241      65642063 
 2241      68617200 
 2242              	.LASF92:
 2243 0141 73746D33 		.ascii	"stm32_tim_t\000"
 2243      325F7469 
 2243      6D5F7400 
 2244              	.LASF118:
 2245 014d 56656374 		.ascii	"VectorB0\000"
 2245      6F724230 
 2245      00
 2246              	.LASF110:
 2247 0156 706F7274 		.ascii	"port_unlock\000"
 2247      5F756E6C 
 2247      6F636B00 
ARM GAS  /tmp/ccDsCKUe.s 			page 55


 2248              	.LASF34:
 2249 0162 6D736771 		.ascii	"msgqueue\000"
 2249      75657565 
 2249      00
 2250              	.LASF30:
 2251 016b 73746174 		.ascii	"state\000"
 2251      6500
 2252              	.LASF62:
 2253 0171 63685F73 		.ascii	"ch_system\000"
 2253      79737465 
 2253      6D00
 2254              	.LASF8:
 2255 017b 6C6F6E67 		.ascii	"long int\000"
 2255      20696E74 
 2255      00
 2256              	.LASF70:
 2257 0184 41504232 		.ascii	"APB2RSTR\000"
 2257      52535452 
 2257      00
 2258              	.LASF16:
 2259 018d 74737461 		.ascii	"tstate_t\000"
 2259      74655F74 
 2259      00
 2260              	.LASF54:
 2261 0196 66756E63 		.ascii	"func\000"
 2261      00
 2262              	.LASF87:
 2263 019b 43434552 		.ascii	"CCER\000"
 2263      00
 2264              	.LASF11:
 2265 01a0 6C6F6E67 		.ascii	"long long int\000"
 2265      206C6F6E 
 2265      6720696E 
 2265      7400
 2266              	.LASF5:
 2267 01ae 75696E74 		.ascii	"uint16_t\000"
 2267      31365F74 
 2267      00
 2268              	.LASF79:
 2269 01b7 72656761 		.ascii	"regarm_t\000"
 2269      726D5F74 
 2269      00
 2270              	.LASF64:
 2271 01c0 76746C69 		.ascii	"vtlist\000"
 2271      737400
 2272              	.LASF115:
 2273 01c7 6F73616C 		.ascii	"osalSysLockFromISR\000"
 2273      5379734C 
 2273      6F636B46 
 2273      726F6D49 
 2273      535200
 2274              	.LASF33:
 2275 01da 77616974 		.ascii	"waiting\000"
 2275      696E6700 
 2276              	.LASF107:
 2277 01e2 6D757465 		.ascii	"mutex_t\000"
 2277      785F7400 
ARM GAS  /tmp/ccDsCKUe.s 			page 56


 2278              	.LASF127:
 2279 01ea 76616C75 		.ascii	"value\000"
 2279      6500
 2280              	.LASF21:
 2281 01f0 636E745F 		.ascii	"cnt_t\000"
 2281      7400
 2282              	.LASF0:
 2283 01f6 756E7369 		.ascii	"unsigned int\000"
 2283      676E6564 
 2283      20696E74 
 2283      00
 2284              	.LASF100:
 2285 0203 77747365 		.ascii	"wtsemp\000"
 2285      6D7000
 2286              	.LASF10:
 2287 020a 6C6F6E67 		.ascii	"long unsigned int\000"
 2287      20756E73 
 2287      69676E65 
 2287      6420696E 
 2287      7400
 2288              	.LASF78:
 2289 021c 5243435F 		.ascii	"RCC_TypeDef\000"
 2289      54797065 
 2289      44656600 
 2290              	.LASF28:
 2291 0228 6E616D65 		.ascii	"name\000"
 2291      00
 2292              	.LASF24:
 2293 022d 71756575 		.ascii	"queue\000"
 2293      6500
 2294              	.LASF38:
 2295 0233 6D706F6F 		.ascii	"mpool\000"
 2295      6C00
 2296              	.LASF83:
 2297 0239 534D4352 		.ascii	"SMCR\000"
 2297      00
 2298              	.LASF41:
 2299 023e 63685F74 		.ascii	"ch_thread\000"
 2299      68726561 
 2299      6400
 2300              	.LASF19:
 2301 0248 6D73675F 		.ascii	"msg_t\000"
 2301      7400
 2302              	.LASF35:
 2303 024e 6570656E 		.ascii	"epending\000"
 2303      64696E67 
 2303      00
 2304              	.LASF122:
 2305 0257 5F706F72 		.ascii	"_port_irq_epilogue\000"
 2305      745F6972 
 2305      715F6570 
 2305      696C6F67 
 2305      756500
 2306              	.LASF97:
 2307 026a 77746F62 		.ascii	"wtobjp\000"
 2307      6A7000
 2308              	.LASF48:
ARM GAS  /tmp/ccDsCKUe.s 			page 57


 2309 0271 63685F72 		.ascii	"ch_ready_list\000"
 2309      65616479 
 2309      5F6C6973 
 2309      7400
 2310              	.LASF20:
 2311 027f 6576656E 		.ascii	"eventmask_t\000"
 2311      746D6173 
 2311      6B5F7400 
 2312              	.LASF80:
 2313 028b 73746B61 		.ascii	"stkalign_t\000"
 2313      6C69676E 
 2313      5F7400
 2314              	.LASF116:
 2315 0296 6F73616C 		.ascii	"osalOsTimerHandlerI\000"
 2315      4F735469 
 2315      6D657248 
 2315      616E646C 
 2315      65724900 
 2316              	.LASF26:
 2317 02aa 6E657765 		.ascii	"newer\000"
 2317      7200
 2318              	.LASF40:
 2319 02b0 74687265 		.ascii	"threads_list_t\000"
 2319      6164735F 
 2319      6C697374 
 2319      5F7400
 2320              	.LASF37:
 2321 02bf 7265616C 		.ascii	"realprio\000"
 2321      7072696F 
 2321      00
 2322              	.LASF66:
 2323 02c8 73697A65 		.ascii	"sizetype\000"
 2323      74797065 
 2323      00
 2324              	.LASF39:
 2325 02d1 74687265 		.ascii	"thread_reference_t\000"
 2325      61645F72 
 2325      65666572 
 2325      656E6365 
 2325      5F7400
 2326              	.LASF56:
 2327 02e4 63685F76 		.ascii	"ch_virtual_timers_list\000"
 2327      69727475 
 2327      616C5F74 
 2327      696D6572 
 2327      735F6C69 
 2328              	.LASF81:
 2329 02fb 706F7274 		.ascii	"port_context\000"
 2329      5F636F6E 
 2329      74657874 
 2329      00
 2330              	.LASF94:
 2331 0308 746D5F63 		.ascii	"tm_calibration_t\000"
 2331      616C6962 
 2331      72617469 
 2331      6F6E5F74 
 2331      00
ARM GAS  /tmp/ccDsCKUe.s 			page 58


 2332              	.LASF25:
 2333 0319 7072696F 		.ascii	"prio\000"
 2333      00
 2334              	.LASF71:
 2335 031e 41504231 		.ascii	"APB1RSTR\000"
 2335      52535452 
 2335      00
 2336              	.LASF49:
 2337 0327 63757272 		.ascii	"current\000"
 2337      656E7400 
 2338              	.LASF125:
 2339 032f 2F686F6D 		.ascii	"/home/alex/Embebidos Proyecto/ChibiOS_17.6.1/demos/"
 2339      652F616C 
 2339      65782F45 
 2339      6D626562 
 2339      69646F73 
 2340 0362 53544D33 		.ascii	"STM32/RT-STM32F100-DISCOVERY\000"
 2340      322F5254 
 2340      2D53544D 
 2340      33324631 
 2340      30302D44 
 2341              	.LASF17:
 2342 037f 74726566 		.ascii	"trefs_t\000"
 2342      735F7400 
 2343              	.LASF76:
 2344 0387 52455345 		.ascii	"RESERVED0\000"
 2344      52564544 
 2344      3000
 2345              	.LASF32:
 2346 0391 72656673 		.ascii	"refs\000"
 2346      00
 2347              	.LASF51:
 2348 0396 76697274 		.ascii	"virtual_timer_t\000"
 2348      75616C5F 
 2348      74696D65 
 2348      725F7400 
 2349              	.LASF18:
 2350 03a6 74707269 		.ascii	"tprio_t\000"
 2350      6F5F7400 
 2351              	.LASF114:
 2352 03ae 63685379 		.ascii	"chSysUnlockFromISR\000"
 2352      73556E6C 
 2352      6F636B46 
 2352      726F6D49 
 2352      535200
 2353              	.LASF59:
 2354 03c1 63685F73 		.ascii	"ch_system_debug\000"
 2354      79737465 
 2354      6D5F6465 
 2354      62756700 
 2355              	.LASF108:
 2356 03d1 5F426F6F 		.ascii	"_Bool\000"
 2356      6C00
 2357              	.LASF7:
 2358 03d7 696E7433 		.ascii	"int32_t\000"
 2358      325F7400 
 2359              	.LASF2:
ARM GAS  /tmp/ccDsCKUe.s 			page 59


 2360 03df 756E7369 		.ascii	"unsigned char\000"
 2360      676E6564 
 2360      20636861 
 2360      7200
 2361              	.LASF120:
 2362 03ed 49544D5F 		.ascii	"ITM_RxBuffer\000"
 2362      52784275 
 2362      66666572 
 2362      00
 2363              	.LASF3:
 2364 03fa 73686F72 		.ascii	"short int\000"
 2364      7420696E 
 2364      7400
 2365              	.LASF57:
 2366 0404 6C617374 		.ascii	"lasttime\000"
 2366      74696D65 
 2366      00
 2367              	.LASF102:
 2368 040d 65776D61 		.ascii	"ewmask\000"
 2368      736B00
 2369              	.LASF73:
 2370 0414 41504232 		.ascii	"APB2ENR\000"
 2370      454E5200 
 2371              	.LASF52:
 2372 041c 63685F76 		.ascii	"ch_virtual_timer\000"
 2372      69727475 
 2372      616C5F74 
 2372      696D6572 
 2372      00
 2373              	.LASF103:
 2374 042d 63685F73 		.ascii	"ch_semaphore\000"
 2374      656D6170 
 2374      686F7265 
 2374      00
 2375              	.LASF91:
 2376 043a 43435852 		.ascii	"CCXR\000"
 2376      00
 2377              	.LASF68:
 2378 043f 4442474D 		.ascii	"DBGMCU_TypeDef\000"
 2378      43555F54 
 2378      79706544 
 2378      656600
 2379              	.LASF9:
 2380 044e 75696E74 		.ascii	"uint32_t\000"
 2380      33325F74 
 2380      00
 2381              	.LASF101:
 2382 0457 77746D74 		.ascii	"wtmtxp\000"
 2382      787000
 2383              	.LASF42:
 2384 045e 63685F74 		.ascii	"ch_threads_list\000"
 2384      68726561 
 2384      64735F6C 
 2384      69737400 
 2385              	.LASF105:
 2386 046e 6F776E65 		.ascii	"owner\000"
 2386      7200
ARM GAS  /tmp/ccDsCKUe.s 			page 60


 2387              	.LASF29:
 2388 0474 77616261 		.ascii	"wabase\000"
 2388      736500
 2389              	.LASF106:
 2390 047b 63686172 		.ascii	"char\000"
 2390      00
 2391              	.LASF27:
 2392 0480 6F6C6465 		.ascii	"older\000"
 2392      7200
 2393              	.LASF89:
 2394 0486 444D4152 		.ascii	"DMAR\000"
 2394      00
 2395              	.LASF112:
 2396 048b 706F7274 		.ascii	"port_unlock_from_isr\000"
 2396      5F756E6C 
 2396      6F636B5F 
 2396      66726F6D 
 2396      5F697372 
 2397              	.LASF23:
 2398 04a0 74687265 		.ascii	"thread_t\000"
 2398      61645F74 
 2398      00
 2399              	.LASF22:
 2400 04a9 73797374 		.ascii	"systime_t\000"
 2400      696D655F 
 2400      7400
 2401              	.LASF121:
 2402 04b3 63685379 		.ascii	"chSysTimerHandlerI\000"
 2402      7354696D 
 2402      65724861 
 2402      6E646C65 
 2402      724900
 2403              	.LASF50:
 2404 04c6 76746675 		.ascii	"vtfunc_t\000"
 2404      6E635F74 
 2404      00
 2405              	.LASF126:
 2406 04cf 5F5F7365 		.ascii	"__set_BASEPRI\000"
 2406      745F4241 
 2406      53455052 
 2406      4900
 2407              	.LASF60:
 2408 04dd 70616E69 		.ascii	"panic_msg\000"
 2408      635F6D73 
 2408      6700
 2409              	.LASF93:
 2410 04e7 6F666673 		.ascii	"offset\000"
 2410      657400
 2411              	.LASF74:
 2412 04ee 41504231 		.ascii	"APB1ENR\000"
 2412      454E5200 
 2413              	.LASF6:
 2414 04f6 73686F72 		.ascii	"short unsigned int\000"
 2414      7420756E 
 2414      7369676E 
 2414      65642069 
 2414      6E7400
ARM GAS  /tmp/ccDsCKUe.s 			page 61


 2415              	.LASF61:
 2416 0509 63685F73 		.ascii	"ch_system_t\000"
 2416      79737465 
 2416      6D5F7400 
 2417              	.LASF14:
 2418 0515 7274636E 		.ascii	"rtcnt_t\000"
 2418      745F7400 
 2419              	.LASF111:
 2420 051d 706F7274 		.ascii	"port_lock_from_isr\000"
 2420      5F6C6F63 
 2420      6B5F6672 
 2420      6F6D5F69 
 2420      737200
 2421              	.LASF123:
 2422 0530 474E5520 		.ascii	"GNU C 4.8.1 -mcpu=cortex-m3 -mno-thumb-interwork -m"
 2422      4320342E 
 2422      382E3120 
 2422      2D6D6370 
 2422      753D636F 
 2423 0563 7468756D 		.ascii	"thumb -ggdb -O2 -fomit-frame-pointer -falign-functi"
 2423      62202D67 
 2423      67646220 
 2423      2D4F3220 
 2423      2D666F6D 
 2424 0596 6F6E733D 		.ascii	"ons=16 -ffunction-sections -fdata-sections -fno-com"
 2424      3136202D 
 2424      6666756E 
 2424      6374696F 
 2424      6E2D7365 
 2425 05c9 6D6F6E20 		.ascii	"mon -flto\000"
 2425      2D666C74 
 2425      6F00
 2426              	.LASF44:
 2427 05d3 74687265 		.ascii	"threads_queue_t\000"
 2427      6164735F 
 2427      71756575 
 2427      655F7400 
 2428              	.LASF104:
 2429 05e3 63685F6D 		.ascii	"ch_mutex\000"
 2429      75746578 
 2429      00
 2430              	.LASF75:
 2431 05ec 42444352 		.ascii	"BDCR\000"
 2431      00
 2432              	.LASF63:
 2433 05f1 726C6973 		.ascii	"rlist\000"
 2433      7400
 2434              	.LASF77:
 2435 05f7 43464752 		.ascii	"CFGR2\000"
 2435      3200
 2436              	.LASF4:
 2437 05fd 75696E74 		.ascii	"uint8_t\000"
 2437      385F7400 
 2438              	.LASF31:
 2439 0605 666C6167 		.ascii	"flags\000"
 2439      7300
 2440              	.LASF113:
ARM GAS  /tmp/ccDsCKUe.s 			page 62


 2441 060b 63685379 		.ascii	"chSysLockFromISR\000"
 2441      734C6F63 
 2441      6B46726F 
 2441      6D495352 
 2441      00
 2442              	.LASF69:
 2443 061c 43464752 		.ascii	"CFGR\000"
 2443      00
 2444              	.LASF15:
 2445 0621 746D6F64 		.ascii	"tmode_t\000"
 2445      655F7400 
 2446              	.LASF46:
 2447 0629 70726576 		.ascii	"prev\000"
 2447      00
 2448              	.LASF36:
 2449 062e 6D74786C 		.ascii	"mtxlist\000"
 2449      69737400 
 2450              	.LASF72:
 2451 0636 41484245 		.ascii	"AHBENR\000"
 2451      4E5200
 2452              		.comm	__gnu_lto_v1,1,1
 2453              		.ident	"GCC: (Sourcery CodeBench Lite 2013.11-24) 4.8.1"
ARM GAS  /tmp/ccDsCKUe.s 			page 63


DEFINED SYMBOLS
                            *ABS*:00000000 hal_st_lld.c
     /tmp/ccDsCKUe.s:246    .text.VectorB0:00000000 $t
     /tmp/ccDsCKUe.s:252    .text.VectorB0:00000000 VectorB0
     /tmp/ccDsCKUe.s:328    .text.st_lld_init:00000000 $t
     /tmp/ccDsCKUe.s:334    .text.st_lld_init:00000000 st_lld_init
                            *COM*:00000001 __gnu_lto_v1
                     .debug_frame:00000010 $d

UNDEFINED SYMBOLS
chSysTimerHandlerI
_port_irq_epilogue
nvicEnableVector
