ARM GAS  /tmp/ccWgxlfU.s 			page 1


   1              		.syntax unified
   2              		.cpu cortex-m3
   3              		.fpu softvfp
   4              		.eabi_attribute 20, 1
   5              		.eabi_attribute 21, 1
   6              		.eabi_attribute 23, 3
   7              		.eabi_attribute 24, 1
   8              		.eabi_attribute 25, 1
   9              		.eabi_attribute 26, 1
  10              		.eabi_attribute 30, 2
  11              		.eabi_attribute 34, 1
  12              		.eabi_attribute 18, 4
  13              		.thumb
  14              		.file	"hal_st.c"
  15              		.text
  16              	.Ltext0:
  17              		.section	.gnu.lto_.jmpfuncs.a60f740eab2b18ca,"",%progbits
  18 0000 789C6362 		.ascii	"x\234cb`b\300\006x\2414+\020322103\26200\000\000\002"
  18      6062C006 
  18      78A1342B 
  18      10333232 
  18      313033B2 
  19 0019 6D0023   		.ascii	"m\000#"
  20              		.text
  21              		.section	.gnu.lto_.inline.a60f740eab2b18ca,"",%progbits
  22 0000 789C6362 		.ascii	"x\234cb`b\300\006\362\2414+\003\003\013\017#X\021\333"
  22      6062C006 
  22      F2A1342B 
  22      03030B0F 
  22      235811DB 
  23 0014 0279B05A 		.ascii	"\002y\260ZF.\020\301\300\306\312\310\010\244\030\030"
  23      462E10C1 
  23      C0C6CAC8 
  23      08A41818 
  24 0024 98D83EE8 		.ascii	"\230\330>\350\301%\231\030X\230\201\312\231.\360\303"
  24      C1259918 
  24      589881CA 
  24      992EF0C3 
  25 0034 85984142 		.ascii	"\205\230ABP\245\310\342,\230J\031\000\300\002\010{"
  25      50A5C8E2 
  25      2C984A19 
  25      00C00208 
  25      7B
  26              		.text
  27              		.section	.gnu.lto_.pureconst.a60f740eab2b18ca,"",%progbits
  28 0000 789C6362 		.ascii	"x\234cb`b\340f\200\000V\006\011F)&)f)\026)\000\004\027"
  28      6062E066 
  28      80005606 
  28      09462926 
  28      29662916 
  29 0018 009F     		.ascii	"\000\237"
  30              		.text
  31              		.section	.gnu.lto_stInit.a60f740eab2b18ca,"",%progbits
  32 0000 789C6362 		.ascii	"x\234cb`b@\007\222@\\\011\304\362@\314\310\314\300\310"
  32      60624007 
  32      92405C09 
  32      C4F240CC 
ARM GAS  /tmp/ccWgxlfU.s 			page 2


  32      C8CCC0C8 
  33 0014 34E11C03 		.ascii	"4\341\034\003C#\007\023##\210\301\300\310P\317\304X"
  33      43230713 
  33      232388C1 
  33      C0C850CF 
  33      C458
  34 0026 1FC90856 		.ascii	"\037\311\010V\273\236\351\300\203\377\377\327\375X\373"
  34      BB9EE9C0 
  34      83FFFFD7 
  34      FD58FB
  35 0035 B01EA894 		.ascii	"\260\036\250\224\201\201\225\241\245\241a\202\002\003"
  35      818195A1 
  35      A5A16182 
  35      0203
  36 0043 4332583E 		.ascii	"C2X>\004H\2024\20522\201h\346\363\014\315\017\376\331"
  36      04488234 
  36      85323281 
  36      68E6F30C 
  36      CD0FFED9 
  37 0057 24322E64 		.ascii	"$2.dd\005\312V3\374j\350h\020\310d\004\252\206\030\227"
  37      6405CA56 
  37      33FC6AE8 
  37      6810C864 
  37      04AA8618 
  38 006c 09A22F32 		.ascii	"\011\242/24>\370\317\004S\004\001!@\011\240\001 \307"
  38      343EF8CF 
  38      04530401 
  38      214009A0 
  38      0120C7
  39 007f CAEAE9E9 		.ascii	"\312\352\351\351CP~\261~Fb\216~qQ2\210\216/.\321Kf\000"
  39      43507EB1 
  39      7E46628E 
  39      7E715132 
  39      888E2F2E 
  40 0097 0032792A 		.ascii	"\0002y*\325"
  40      D5
  41              		.text
  42              		.section	.gnu.lto_stStartAlarm.a60f740eab2b18ca,"",%progbits
  43 0000 789C9D51 		.ascii	"x\234\235Q?K\303@\024\177\357r\261\335\354\352 \224"
  43      3F4BC340 
  43      147FEF72 
  43      B1DDECEA 
  43      2094
  44 0012 AE6282F6 		.ascii	"\256b\202\366\003\270\270\010\355d\004;\225X\305\036"
  44      03B8B808 
  44      ED64043B 
  44      9558C51E 
  45 0022 B4549AE0 		.ascii	"\264T\232\340\332K)\035t)\235\244\272T\024A\305Nb\005"
  45      DA4B291D 
  45      74299DA4 
  45      BA541441 
  45      C54E6205 
  46 0036 876AA70E 		.ascii	"\207j\247\016\012E'A\020\334\245\337 \336]R\244]\004"
  46      0A452741 
  46      10DCA5DF 
  46      20DE5D52 
  46      A45D04
ARM GAS  /tmp/ccWgxlfU.s 			page 3


  47 0049 1FB9BCBB 		.ascii	"\037\271\274\273\367~\177\036w\004\010L\307\234X_\010"
  47      F77E7F1E 
  47      7704084C 
  47      C79C585F 
  47      08
  48 005a B029326A 		.ascii	"\260)2j\200\244\361\002\340E\011\242\334\000B\205`%"
  48      80A4F102 
  48      E04509A2 
  48      DC004285 
  48      6025
  49 006c 830ADB21 		.ascii	"\203\012\333!\275O\337\277\351\326/N\260E\004\246\210"
  49      BD4FDFBF 
  49      E9D62F4E 
  49      B04504A6 
  49      88
  50 007d 4081A9A6 		.ascii	"@\201\251\246\0165\316\033\361\"\212SNU,\361\227\032"
  50      0E35CE1B 
  50      F1228A53 
  50      4E552CF1 
  50      971A
  51 008f 1B4864D6 		.ascii	"\033Hd\326\006P\215\002$\240\315y\263w_\357#?\340\336"
  51      06508D02 
  51      24A0CD79 
  51      B3775FEF 
  51      233FE0DE 
  52 00a3 C8F76719 		.ascii	"\310\367g\031\012D\034%m\023\031\222\230J\332\324\254"
  52      0A441C25 
  52      6D131992 
  52      984ADAD4 
  52      AC
  53 00b4 BB0204CF 		.ascii	"\273\002\004\317P\375\356\337\275_\271\241\335\330\267"
  53      50FDEEDF 
  53      BD5FB9A1 
  53      DDD8B7
  54 00c3 77F836D4 		.ascii	"w\3706\324m<\305\204@\332\330F]\250a@\243!\363i\360"
  54      6D3CC584 
  54      40DAD846 
  54      5DA86140 
  54      A321F369 
  55 00d8 F0FA518D 		.ascii	"\360\372Q\215\330x&\272\213p\315k\036\3170\244\013p"
  55      D87826BA 
  55      8B70CD6B 
  55      1ECF30A4 
  55      0B70
  56 00ea 29B72B0C 		.ascii	")\267+\014\365chy\015\036c8#'\210p\021T\015\023Q#l\241"
  56      F5636879 
  56      0D1E6338 
  56      23278870 
  56      11540D13 
  57 0102 523F177C 		.ascii	"R?\027|U\215\006\223\205\025\341\244l\272G\235G-p\371"
  57      558D0693 
  57      8515E1A4 
  57      6CBA479D 
  57      472D70F9 
  58 0116 95A67F4A 		.ascii	"\225\246\177J\343\2044\225E)\326\375\227\030\231\024"
  58      E3843495 
  58      4529D6FD 
ARM GAS  /tmp/ccWgxlfU.s 			page 4


  58      97189914 
  59 0126 93573904 		.ascii	"\223W9\004o\324\274\245\301\345\214\303\022\266\342"
  59      6FD4BCA5 
  59      C1E58CC3 
  59      12B6E2
  60 0135 6D647FDE 		.ascii	"md\177\3360\314\340+9f\336.\230N9's\326q\215\034P\227"
  60      30CCE02B 
  60      3966DE2E 
  60      984E3927 
  60      73D6718D 
  61 014c 157792D3 		.ascii	"\025w\222\323\220\275R\331u\314u+\235\\6S\251U\323Z"
  61      90BD52D9 
  61      75CC752B 
  61      9D5C3653 
  61      A955D35A 
  62 0160 4BEF2F85 		.ascii	"K\357/\205\244l\241\260m\344\341\007\310\\\220\343"
  62      A46CA1B0 
  62      6DE4E107 
  62      C85C90E3 
  63              		.text
  64              		.section	.gnu.lto_stStopAlarm.a60f740eab2b18ca,"",%progbits
  65 0000 789C6362 		.ascii	"x\234cb`b@\007\222@|\024\210\203\201\230\221\231\201"
  65      60624007 
  65      92407C14 
  65      88838198 
  65      919981
  66 0013 9169C239 		.ascii	"\221i\3029\006\206F\016&FF\020\203\201\221\241\236\211"
  66      0686460E 
  66      26464610 
  66      838191A1 
  66      9E89
  67 0025 B13E9211 		.ascii	"\261>\222\021\254v=\323\201\007\377\377\257\373\322"
  67      AC763DD3 
  67      8107FFFF 
  67      AFFBD2
  68 0034 36E70EE3 		.ascii	"6\347\016\343l&\026\240\010+CKC\303\004\005\006\206"
  68      6C2616A0 
  68      082B434B 
  68      43C30405 
  68      0686
  69 0046 64B08A10 		.ascii	"d\260\212\020 \011\322\026\312\310\004\242\231\3172"
  69      2009D216 
  69      CAC804A2 
  69      99CF32
  70 0055 1CDA31E7 		.ascii	"\034\3321\347\322\363G\254pu\020\306\201\356{\007Y\031"
  70      D2F347AC 
  70      707510C6 
  70      81EE7B07 
  70      5919
  71 0067 18121917 		.ascii	"\030\022\031\0272\262\002\265\202\365j3\254jhi|0q\357"
  71      32B202B5 
  71      82F56A33 
  71      AC6A6869 
  71      7C3071EF 
  72 007b 34F94C46 		.ascii	"4\371LF\206\331\014\263\032'4\010d22F0f225\000\001\013"
  72      86D90CB3 
  72      1A273408 
ARM GAS  /tmp/ccWgxlfU.s 			page 5


  72      64323246 
  72      30663232 
  73 0093 03980976 		.ascii	"\003\230\011vI\022HK\"\343b\240v\260(X\360\"C\343\207"
  73      4912484B 
  73      22E362A0 
  73      76B02858 
  73      F02243E3 
  74 00a8 4BDB5920 		.ascii	"K\333Y \246\302@\010\320t\240S@\332d\365\364\364!(\277"
  74      A6C24008 
  74      D074A053 
  74      40DA64F5 
  74      F4F42128 
  75 00bd 583F2331 		.ascii	"X?#1G\277\270(\031D\307\027\227\350%3\030\243\313\026"
  75      47BFB828 
  75      1944C717 
  75      97E82533 
  75      18A3CB16 
  76 00d1 E4179514 		.ascii	"\344\027\225\024\353\007\207\370\032\033\351\373\370"
  76      EB0787F8 
  76      1A1BE9FB 
  76      F8
  77 00de B8E88778 		.ascii	"\270\350\207x\372\226\031B\325\307\347\344\244\350e"
  77      FA961942 
  77      D5C7E7E4 
  77      A4E865
  78 00ed 30000080 		.ascii	"0\000\000\200\211PH"
  78      895048
  79              		.text
  80              		.section	.gnu.lto_stSetAlarm.a60f740eab2b18ca,"",%progbits
  81 0000 789C5D50 		.ascii	"x\234]P\261N\002A\020\235\267\334\001\235\264\026&\204"
  81      B14E0241 
  81      109DB7DC 
  81      019DB416 
  81      2684
  82 0012 D67817E5 		.ascii	"\326x\027\345\003llH\240\362L\240\"'\032\271\004\202"
  82      036C6C48 
  82      A0F24CA0 
  82      22271AB9 
  82      0482
  83 0024 E12EB6EC 		.ascii	"\341.\266\354\021\022\022m\210\245\306\002\242\026\306"
  83      1112126D 
  83      88A5C602 
  83      A216C6
  84 0033 A054165A 		.ascii	"\240T\026Z\020\251(4Q;c\341\027\020\032\353sw\357h\230"
  84      10A92834 
  84      513B63E1 
  84      17101AEB 
  84      7377EF68 
  85 0048 ECEECCCE 		.ascii	"\354\356\314\316\2747\363v\0311Z\266U\261s *\012\217"
  85      BC37F376 
  85      19315AB6 
  85      55B17320 
  85      2A0A8F
  86 005b 1881F5DE 		.ascii	"\030\201\365\336\211\374$\003d@\240\026C\253\004\205"
  86      89FC2403 
  86      6440A016 
  86      43AB0485 
ARM GAS  /tmp/ccWgxlfU.s 			page 6


  87 006b 7D60E3DF 		.ascii	"}`\343\337 \030>vo\177p\305\342\014u\220F\216*\352\324"
  87      20183E76 
  87      6F7F70C5 
  87      E20C7590 
  87      468E2AEA 
  88 0080 E1BC97AE 		.ascii	"\341\274\227\256C\334**c\211S\366\330\003\223>6\245"
  88      43DC2A2A 
  88      638953F6 
  88      D803933E 
  88      36A5
  89 0092 76922843 		.ascii	"v\222(C}\316\317\307\243\356\004\374\224\373\363 Xq"
  89      7DCECFC7 
  89      A3EE04FC 
  89      94FBF320 
  89      5871
  90 00a4 20106948 		.ascii	" \020iHZ\021\016XJ\271\330\222\326#\001\2427j\317&O"
  90      5A110E58 
  90      4AB9D892 
  90      D62301A2 
  90      376ACF26 
  91 00b9 DF432F1A 		.ascii	"\337C/\032\267\230;>\233\215t\033\003d\004\322F\037"
  91      B7983B3E 
  91      9B8D741B 
  91      036404D2 
  91      461F
  92 00cb BAE88690 		.ascii	"\272\350\206\220\246E\314\327\351\313\327_;a\343ZT7"
  92      A645CCD7 
  92      E9CBD75F 
  92      3B61E35A 
  92      5437
  93 00dd E89E777C 		.ascii	"\350\236w|^r\240\255\323\235\014\267\035\350\227t\341"
  93      5E72A0AD 
  93      D39D0CB7 
  93      1DE89774 
  93      E1
  94 00ee F778CA41 		.ascii	"\367x\312A\\*Hpa\232\022\223P\022\366\241\272\337\010"
  94      5C2A4870 
  94      619A1293 
  94      5012F6A1 
  94      BADF08
  95 0101 BECA2643 		.ascii	"\276\312&CeQFL\"\372 \177\376\371\254\205\022\026f\011"
  95      6551464C 
  95      22FA207F 
  95      FEF9AC85 
  95      12166609 
  96 0115 29E207E4 		.ascii	")\342\007\344\203\326\014\303\014W\3035\253v\315t\233"
  96      83D60CC3 
  96      0C57C335 
  96      AB76CD74 
  96      9B
  97 0126 15E9CBAE 		.ascii	"\025\351\313\256gTH\363\234\372av\031r\334hz\256\271"
  97      675448F3 
  97      9CFA6176 
  97      1972DC68 
  97      7AAEB9
  98 0139 6B15B25B 		.ascii	"k\025\262[f>\277cZ\271\302\311fD*\327j\007F\225\376"
  98      663EBF63 
ARM GAS  /tmp/ccWgxlfU.s 			page 7


  98      5AB9C2C9 
  98      66442AD7 
  98      6A074695 
  99 014e 01E6CB6C 		.ascii	"\001\346\313l\275"
  99      BD
 100              		.text
 101              		.section	.gnu.lto_stGetAlarm.a60f740eab2b18ca,"",%progbits
 102 0000 789C6362 		.ascii	"x\234cb`b@\007\222@\374\037\210\203\201\230\221\231"
 102      60624007 
 102      9240FC1F 
 102      88838198 
 102      9199
 103 0012 819169C2 		.ascii	"\201\221i\3029\006\206F\016&FF\020\203\201\221\241\236"
 103      39068646 
 103      0E264646 
 103      10838191 
 103      A19E
 104 0024 89B13E92 		.ascii	"\211\261>\222\021\254v=\323\201\007\377\377\257\373"
 104      11AC763D 
 104      D38107FF 
 104      FFAFFB
 105 0033 D03EEF0E 		.ascii	"\320>\357\016\343|&Vf\206LF\006\026 \001\222eehih\230"
 105      E37C2656 
 105      66864C46 
 105      06162001 
 105      92656568 
 106 004a A0900B62 		.ascii	"\240\220\013b'\203\225\207\000I\220\031\241\214L \232"
 106      27839587 
 106      00499019 
 106      A18C4C20 
 106      9A
 107 005b F92CC3A1 		.ascii	"\371,\303\241;s.\375\177\304\011U\012\323s\240\373\237"
 107      3B732EFD 
 107      7FC40955 
 107      0AD373A0 
 107      FB9F
 108 006d 21034322 		.ascii	"!\003C\"\343BFV\240N\260\326tFf]\2065\015-\215\017&"
 108      E3424656 
 108      A04EB0D6 
 108      7446665D 
 108      86350D2D 
 109 0084 FE9DEE97 		.ascii	"\376\235\356\227\311\310\244\315\260\012\310k\230\314"
 109      C9C8A4CD 
 109      B00AC86B 
 109      98CC
 110 0092 98C9C83C 		.ascii	"\230\311\310<\233aV\343\204\006\201LF\226\010 \227\265"
 110      9B6156E3 
 110      8406814C 
 110      46960820 
 110      97B5
 111 00a4 01085818 		.ascii	"\001\010X\030\300L\260#\223@&$2.\006qA\242l\020\177"
 111      C04CB023 
 111      93402624 
 111      322E0671 
 111      41A26C10 
 112 00b9 42451818 		.ascii	"BE\030\030\31624\275k\346Kd\\\004\344\2463\262\000\255"
 112      CE3234BD 
ARM GAS  /tmp/ccWgxlfU.s 			page 8


 112      6BE64B64 
 112      5C04E4A6 
 112      33B200AD 
 113 00cd 6260B8C8 		.ascii	"b`\270\310\320\270\341\220=\304\011@1\210\216\020\240"
 113      D0B8E190 
 113      3DC40940 
 113      31888E10 
 113      A0
 114 00de 5B80EE06 		.ascii	"[\200\356\006\005\231\254\236\236>\004\345\027\353g"
 114      0599AC9E 
 114      9E3E04E5 
 114      17EB67
 115 00ed 24E6E817 		.ascii	"$\346\350\027\027%\203\350\370\342\022\275d\006ct\331"
 115      172583E8 
 115      F8E212BD 
 115      64066374 
 115      D9
 116 00fe 82FCA292 		.ascii	"\202\374\242\222b\375\340\020_c#}\037\037\027\375\020"
 116      62FDE010 
 116      5F63237D 
 116      1F1F17FD 
 116      10
 117 010f 4FDF3243 		.ascii	"O\3372C\250\372\370\234\234\024\275\014\006\000\301"
 117      A8FAF89C 
 117      9C14BD0C 
 117      0600C1
 118 011e 285BC0   		.ascii	"([\300"
 119              		.text
 120              		.section	.gnu.lto_.symbol_nodes.a60f740eab2b18ca,"",%progbits
 121 0000 789C4DC7 		.ascii	"x\234M\307\271\015\2000\024D\301}\337\270R\012YK$\204"
 121      B90D8030 
 121      1444C17D 
 121      DFB8520A 
 121      594B2484 
 122 0014 544049E4 		.ascii	"T@I\344\230CT\202\010@\302\223M(\324\353\023+\226\246"
 122      98435482 
 122      0840C293 
 122      4D28D4EB 
 122      132B96A6 
 123 0028 45B2E791 		.ascii	"E\262\347\221\250\230\246\033\216\246;NM\017\334\375"
 123      A898A61B 
 123      8EA63B4E 
 123      4D0FDCFD 
 124 0038 E5C4F96D 		.ascii	"\345\304\371m)$e\015\327\215\036A>\037~"
 124      2924650D 
 124      D78D1E41 
 124      3E1F7E
 125              		.text
 126              		.section	.gnu.lto_.refs.a60f740eab2b18ca,"",%progbits
 127 0000 789C6362 		.ascii	"x\234cb`b`d\200\002\000\000F\000\006"
 127      60626064 
 127      80020000 
 127      460006
 128              		.text
 129              		.section	.gnu.lto_.decls.a60f740eab2b18ca,"",%progbits
 130 0000 789C9D58 		.ascii	"x\234\235X}L\024G\024\237\331=\371\020D\324\326\322"
 130      7D4C1447 
ARM GAS  /tmp/ccWgxlfU.s 			page 9


 130      149FD93D 
 130      F91044D4 
 130      D6D2
 131 0012 3F1AB1D1 		.ascii	"?\032\261\321\206\230\310\025hI\377\262\342A\220D\254"
 131      8698C815 
 131      6849FFB2 
 131      E2419044 
 131      AC
 132 0023 39302169 		.ascii	"90!i\322u=\316\336%pG\356\226\246\3767\200\020Z5\001"
 132      D2753DCE 
 132      DE257047 
 132      EE96A6FE 
 132      3780105A 
 133 0039 AC86B656 		.ascii	"\254\206\266V\361\243\012I\323R?\320 \325\023\203\220"
 133      F1A30A49 
 133      D3523FD0 
 133      20D51383 
 133      90
 134 004a D0462ADA 		.ascii	"\320F*\332V\351\307\265M\245M\323\024\322V\245Z\256"
 134      56E9C7B5 
 134      4DA54DD3 
 134      14D256A5 
 134      5AAE
 135 005c 6F6767EF 		.ascii	"ogg\357v\227]\274s\302{77\373\336o~\357\275\231\333"
 135      76975DBC 
 135      73C27B37 
 135      37FBDE6F 
 135      7EEFBD99 
 136 0071 1938C4A1 		.ascii	"\0318\304\241n\214P\004\332\312e\010\211\034BI\010\241"
 136      6E8C5004 
 136      DACA6508 
 136      891C4249 
 136      08A1
 137 0083 7528D6E4 		.ascii	"u(\326\344\357G@N\200\234\006\351\003\351\007\271\210"
 137      EF47404E 
 137      809C06E9 
 137      03E907B9 
 137      88
 138 0094 E636D90E 		.ascii	"\3466\331\016 P\010\344(\033\343\330\270\231\275\214"
 138      205008E4 
 138      281BE3D8 
 138      B899BD8C 
 139 00a4 990A920C 		.ascii	"\231\012\222\014\322\003\222\001\222\016r\031d\010d"
 139      D2039201 
 139      920E7219 
 139      640864
 140 00b3 04E43E88 		.ascii	"\004\344>\210\015\204\007\231\004\271\0112\316pe\377"
 140      0D840799 
 140      04B90932 
 140      CE7065FF 
 141 00c3 19D6EF05 		.ascii	"\031\326\357\005\2315\340\237f~\2275XX\343/?O\301sy"
 141      9935E09F 
 141      667E9735 
 141      5858E32F 
 141      3F4FC173 
 142 00d8 F525C00B 		.ascii	"\365%\300\0133^\034\363K\303J\377<\310b\003v?\303Tq"
 142      335E1CF3 
ARM GAS  /tmp/ccWgxlfU.s 			page 10


 142      4BC34AFF 
 142      3CC86203 
 142      763FC354 
 143 00ed 1F8527DB 		.ascii	"\037\205'\333?\201\225\261\247\014X+\320!\322\025\016"
 143      3F8195B1 
 143      A70C582B 
 143      D021D215 
 143      0E
 144 00fe 371F1EC5 		.ascii	"7\037\036\305\244\203<\214Dx\264\034\355'\320\272Z\010"
 144      A4833C8C 
 144      4478B41C 
 144      ED27D0BA 
 144      5A08
 145 0110 C19288D7 		.ascii	"\301\222\210\327=\211\252\260\2103RQ6\355\244\247\322"
 145      3D89AAB0 
 145      88335251 
 145      36EDA4A7 
 145      D2
 146 0121 09A0CCF8 		.ascii	"\011\240\314\370(^\316z[y\005\216C\331\030\255A=\340"
 146      285ECE7A 
 146      5B79058E 
 146      43D918AD 
 146      413DE0
 147 0134 DF46C84F 		.ascii	"\337F\310O\313\346&\005\332s\350Cy\002\322Mx\012/\003"
 147      CBE62605 
 147      DA73E843 
 147      7902D24D 
 147      780A2F03 
 148 0148 1CC12BB4 		.ascii	"\034\301+\264&\">\2069#\317\360T\350\374\325\364\266"
 148      26223E86 
 148      3923CFF0 
 148      54E8FCD5 
 148      F4B6
 149 015a 867024B2 		.ascii	"\206p$\262\"~\222'\031I\236\346\002\012\322JH#!-$\247"
 149      227E9227 
 149      19499EE6 
 149      020AD24A 
 149      4823212D 
 150 0170 1B0AC2BC 		.ascii	"\033\012\302\2742U/\331f5:\016\364\303\237\235\035\347"
 150      32552FD9 
 150      66353A0E 
 150      F4C39F9D 
 150      1DE7
 151 0182 08491171 		.ascii	"\010I\021q\017\226\307+0\200\035\307k\030\241\370q\036"
 151      0F96C72B 
 151      30801DC7 
 151      6B18A1F8 
 151      711E
 152 0194 B49C7B89 		.ascii	"\264\234{\211\342|Dq\006\260\036H\304|\252>t\370\256"
 152      E27C4471 
 152      06B01E48 
 152      C47CAA3E 
 152      74F8AE
 153 01a7 1AC868F4 		.ascii	"\032\310h\3641\353\310\365I\3148V\033Z\236!\303\354"
 153      31EBC8F5 
 153      49CC3856 
 153      1B5A9E21 
ARM GAS  /tmp/ccWgxlfU.s 			page 11


 153      C3EC
 154 01b9 ABD03142 		.ascii	"\253\3201B:\302\315\223\277\362\235$\304\251\301^\247"
 154      3AC2CD93 
 154      BFF29D24 
 154      C4A9C15E 
 154      A7
 155 01ca 6627A028 		.ascii	"f'\240(f\201)V\261J\356%\315\2318Z\312\023\306R~bZ\312"
 155      66812956 
 155      B14AEE25 
 155      CD99385A 
 155      CA13C652 
 156 01e2 BFD5522A 		.ascii	"\277\325R*\353\210C\267\015\324\314\027\312i#\372\031"
 156      EB8843B7 
 156      0DD4CC17 
 156      CA6923FA 
 156      19
 157 01f3 53F4DEE1 		.ascii	"S\364\336\341(\372I\212~\3074pro[\216\022\215\210?\005"
 157      28FA498A 
 157      7EC73470 
 157      726F5B8E 
 157      128D883F 
 158 0208 2011F73D 		.ascii	" \021\367=V\314}FV\347LYM\017\357}\232t5\206\"\221\227"
 158      56CC7D46 
 158      56E74C59 
 158      4D0FEF7D 
 158      9A743586 
 159 021f 8DDB4C46 		.ascii	"\215\333LF\267Z\302\027L\366\331\264y\266\032Io7Y\240"
 159      B75AC217 
 159      4CF6D9B4 
 159      79B61A49 
 159      6F3759A0 
 160 0233 921571BF 		.ascii	"\222\025q\277E8\014o\300\204f[x\346\332\177\015\270"
 160      45380C6F 
 160      C084665B 
 160      78E6DA7F 
 160      0DB8
 161 0245 BDA96B84 		.ascii	"\275\251k\204LE\"\213\221Z\240^\3168\245\002rI\017\222"
 161      4C45228B 
 161      915AA05E 
 161      CE38A502 
 161      72490F92 
 162 0259 86DE9679 		.ascii	"\206\336\226y@`\033G2\024_\253\300B8M\213H\367T\023"
 162      40601B47 
 162      32145FAB 
 162      C042384D 
 162      8B48F754 
 163 026e F344A65E 		.ascii	"\363D\246^\321=uc\032\303\356\303l\033\316\347\"\342"
 163      D13D7563 
 163      1AC3EEC3 
 163      6C1BCEE7 
 163      22E2
 164 0280 41BC1A74 		.ascii	"A\274\032t\262~\247$\247\306:\362\233k\261\234\325\001"
 164      B27EA724 
 164      A7C63AF2 
 164      9B6BB19C 
 164      D501
 165 0292 CEB83993 		.ascii	"\316\2709\223\015\233\363\321(KP\233\\\330l9\370\313"
ARM GAS  /tmp/ccWgxlfU.s 			page 12


 165      0D9BF3D1 
 165      284B509B 
 165      5CD86C39 
 165      F8CB
 166 02a4 B1AA12AC 		.ascii	"\261\252\022\254\222\312\244PZ\263+\326f\"\276\212\227"
 166      92CAA450 
 166      5AB32BD6 
 166      6622BE8A 
 166      97
 167 02b5 C4B243A2 		.ascii	"\304\262C\242yM\267^/\303\312JU\207\243\035^\027\211"
 167      794DB75E 
 167      2FC3CA4A 
 167      5587A31D 
 167      5E1789
 168 02c8 6A8596A2 		.ascii	"j\205\226\242v\306$\232@\222\244\372l\213%\375\375\003"
 168      76C6249A 
 168      4092A4FA 
 168      6C8B25FD 
 168      FD03
 169 02da F70AE90F 		.ascii	"\367\012\351\017\331\010^\012\271\272o\310\325#a\344"
 169      D9085E0A 
 169      B9BA6FC8 
 169      D52361E4 
 170 02ea 4947C155 		.ascii	"IG\301Uq\242\240$\264o\"\235\330\224qd\262\272X[\211"
 170      71A2A024 
 170      B46F229D 
 170      D8947164 
 170      B2BA585B 
 171 02ff BAC8AEA6 		.ascii	"\272\310\256\246\320\376\211\203\260\177\006\261\222"
 171      D0FE8983 
 171      B07F06B1 
 171      92
 172 030c 580EEDE2 		.ascii	"X\016\355\3421\3034KE4|5\027\031\251\006\274\003\023"
 172      31C3344B 
 172      45347C35 
 172      1719A906 
 172      BC0313
 173 031f E96DA20A 		.ascii	"\351m\242\012\326\2320X\266\016\254S\013\266'\036\260"
 173      D69A3058 
 173      B60EAC53 
 173      0BB6271E 
 173      B0
 174 0330 146B66EF 		.ascii	"\024kf\357i\301\332\023\006\3233;\250\005;\020\017X"
 174      69C1DA13 
 174      06D3333B 
 174      A8053B10 
 174      0F58
 175 0342 A635B343 		.ascii	"\2465\263CZ\260w\023\006\3233\353\325\202}\020\017X"
 175      5AB07713 
 175      06D333EB 
 175      D5827D10 
 175      0F58
 176 0354 9635B353 		.ascii	"\2265\263SZ\260c\011\203\351\231\235\321\202\365\304"
 176      5AB06309 
 176      83E9999D 
 176      D182F5C4 
 177 0364 03966DCD 		.ascii	"\003\226m\315\254O\013\366q\302`zf\347\265`\247\342"
ARM GAS  /tmp/ccWgxlfU.s 			page 13


 177      AC4F0BF6 
 177      71C2607A 
 177      66E7B560 
 177      A7E2
 178 0376 01CBB166 		.ascii	"\001\313\261f\326\257\005\353K\030L\317l@\013\326\037"
 178      D6AF05EB 
 178      4B184CCF 
 178      6C400BD6 
 178      1F
 179 0387 0FD8F356 		.ascii	"\017\330\363V\314\032B\027_\225\261\206\340\307\217"
 179      CC1A4217 
 179      5F95B186 
 179      E0C78F
 180 0396 43178D58 		.ascii	"C\027\215X\372_I30=\2631-\263\301x\230\255\267\006\273"
 180      FA5F4933 
 180      303DB331 
 180      2DB3C178 
 180      98ADB706 
 181 03ab AE051B8E 		.ascii	"\256\005\033\216\007l\243u\001nh\301F\023\006\3233\373"
 181      076CA375 
 181      016E68C1 
 181      461306D3 
 181      33FB
 182 03bd 4A0B3616 		.ascii	"J\0136\026\017\330\026kf\337h\301\306\023\006\3232k"
 182      0FD8166B 
 182      66DF68C1 
 182      C61306D3 
 182      326B
 183 03cf 08DD866A 		.ascii	"\010\335\206j\2627^\327z\303\233q\275\376'Lgv\305\322"
 183      B2375ED7 
 183      7AC39B71 
 183      BDFE274C 
 183      6776C5D2 
 184 03e3 4CC4FF24 		.ascii	"L\304\377$\374b\274k\361b\324^\212bV\020\366-c\330:"
 184      FC62BC6B 
 184      F162D45E 
 184      8A625610 
 184      F62D63D8 
 185 03f8 12AC5B65 		.ascii	"\022\254[e\222C\263\246}\373\211\370sz(\371\002\257"
 185      9243B3A6 
 185      7DFB89F8 
 185      737A28F9 
 185      02AF
 186 040a 047D8DEA 		.ascii	"\004}\215\352/\251\036\247\372&\325_S}\213\352\011\252"
 186      2FA91EA7 
 186      FA26D55F 
 186      537D8BEA 
 186      09AA
 187 041c BFA3FA07 		.ascii	"\277\243\372\007\252\177\244\372g\252\177\241z\222\352"
 187      AA7FA4FA 
 187      67AA7FA1 
 187      7A92EA
 188 042b DFA8FE9D 		.ascii	"\337\250\376\235\352?\250\376\223\352i\252\377\002\035"
 188      EA3FA8FE 
 188      93EA69AA 
 188      FF021D
 189 043a 6D86B3DA 		.ascii	"m\206\263\332\210E}e\356\367\341\254\306\232|L\014M"
ARM GAS  /tmp/ccWgxlfU.s 			page 14


 189      88457D65 
 189      EEF7E1AC 
 189      C69A7C4C 
 189      0C4D
 190 044c C131F1DB 		.ascii	"\3011\361\333A\334\321D\224cbW\212z\324\376\2367=j\217"
 190      41DCD144 
 190      94636257 
 190      8A7AD4FE 
 190      9E373D6A 
 191 0461 8B39EAF5 		.ascii	"\2139\352\365b\232Z\314\304y\324\276E\266dEO\3323\306"
 191      629A5ACC 
 191      C479D4BE 
 191      45B66445 
 191      4FDA33C6 
 192 0475 93F6BFFA 		.ascii	"\223\366\277\372\323\347\263\350\010\031\033\013\017"
 192      D3E7B3E8 
 192      08191B0B 
 192      0F
 193 0482 4D76E2D6 		.ascii	"Mv\342\3260\\Bg#\021\254\036\265:3\330q1\374a(\2533"
 193      305C4267 
 193      2311AC1E 
 193      B53A33D8 
 193      7131FC61 
 194 0499 764C49D1 		.ascii	"vLI\321\256\003\345\\\002\016\\\324\230de\231\333\212"
 194      AE03E55C 
 194      020E5CD4 
 194      98646599 
 194      DB8A
 195 04ab B88193AB 		.ascii	"\270\201\223\253\330\310\305\326\225\322W{\021z\217"
 195      D8C8C5D6 
 195      95D2577B 
 195      117A8F
 196 04ba BFCB9BFC 		.ascii	"\277\313\233\374{@\241?\277+\233\324\243N\272\210\332"
 196      7B40A13F 
 196      BF2B9BD4 
 196      A34EBA88 
 196      DA
 197 04cb C6E2512C 		.ascii	"\306\342Q,\315\255D\274\213Kt\2034s\346\033$]\307Y\265"
 197      CDAD44BC 
 197      8B4B7483 
 197      3473E61B 
 197      245DC759 
 198 04e0 82C81EF0 		.ascii	"\202\310\036\360\206\213\242\201\004\234\321l\230\271"
 198      868BA281 
 198      049CD16C 
 198      98B9
 199 04ee 2DC49AA5 		.ascii	"-\304\232\245s\307\260t\224+F\207-\236;`+gX\003oqs\256"
 199      73C7B074 
 199      942B4687 
 199      2D9E3B60 
 199      2B675803 
 200 0506 31A1A9D0 		.ascii	"1\241\251\320\365Q\345\016x8\224\251.\315\3436\323\245"
 200      F551E50E 
 200      783894A9 
 200      2ECDE336 
 200      D3A5
 201 0518 79498CDE 		.ascii	"yI\214\336\002\037\322[\340n\3561\226\346n#\255=\234"
ARM GAS  /tmp/ccWgxlfU.s 			page 15


 201      021FD25B 
 201      E06EEE31 
 201      96E66E23 
 201      AD3D9C
 202 052b E9D2BC6B 		.ascii	"\351\322\274k\2724ELb\245\254R'M\233\257\340\006+\021"
 202      BA34454C 
 202      62A5AC52 
 202      274D9BAF 
 202      E0062B11 
 203 053f B7275CF0 		.ascii	"\267'\\\360\016\213\202/\324\005\242ZA\267\2053\334"
 203      0E8B822F 
 203      D405A25A 
 203      41B78533 
 203      DC
 204 0550 920D2438 		.ascii	"\222\015$8t\326\274\340\263\035x\237\266\340\027hA\256"
 204      74D6BCE0 
 204      B31D789F 
 204      B6E01768 
 204      41AE
 205 0562 9817DC78 		.ascii	"\230\027\334x\215}\307\242\036l\242\375\346\211\236"
 205      8D7DC7A2 
 205      1E6CA2FD 
 205      E6899E
 206 0571 D5245AC4 		.ascii	"\325$Z\304m\220\034\225\177\377<\374o\350\370\243gr"
 206      6D901C95 
 206      7FFF3CFC 
 206      6FE8F8A3 
 206      6772
 207 0583 73EDCA9F 		.ascii	"s\355\312\237?h\367\2105\366`\300%\177\012A)\327\205"
 207      3F68F788 
 207      35F660C0 
 207      257F0A41 
 207      29D785
 208 0596 92825299 		.ascii	"\222\202R\231\317+%\225n\336\232\355@\253\264\266\001"
 208      CF2B2595 
 208      6EDE9AED 
 208      40ABB4B6 
 208      01
 209 05a7 C9EEF5B9 		.ascii	"\311\356\365\271j\352\253\335v\227'\2703(\355\254s\007"
 209      6AEAABDD 
 209      769727B8 
 209      3328EDAC 
 209      7307
 210 05b9 733D2855 		.ascii	"s=(U\356{k\335\202\364\232\335\343\257u\333\305\032"
 210      EE7B6BDD 
 210      82F49ADD 
 210      E3AF75DB 
 210      C51A
 211 05cb F79BF672 		.ascii	"\367\233\366r\267O\362\007J\003b\235\307\353\012\332"
 211      B74FF207 
 211      4A03629D 
 211      C7EB0ADA 
 212 05db 2BFCF501 		.ascii	"+\374\365\001\227;\260Sp\370\253\335\033\334>\227G\330"
 212      973BB053 
 212      70F8ABDD 
 212      1BDC3E97 
 212      47D8
ARM GAS  /tmp/ccWgxlfU.s 			page 16


 213 05ed E495DCC2 		.ascii	"\344\225\334\302\016\177@(r\226\013%E\033\312\354b\240"
 213      0E7F4028 
 213      72960B25 
 213      451BCAEC 
 213      62A0
 214 05ff 76ADCFEF 		.ascii	"v\255\317\357s\257u\213\333\275\321\311\202R\265\327"
 214      73AF758B 
 214      DBBDD1C9 
 214      8252B5D7 
 215 060f 27C14429 		.ascii	"'\301D)\365\360\231W(H\351A\251B\022\003RQ\015x$\213"
 215      F5F09957 
 215      2848E941 
 215      A9421203 
 215      52510D78 
 216 0625 DBE9F469 		.ascii	"\333\351\364i\362\240\277\216\216-\204\276[R\273\245"
 216      F2A0BF8E 
 216      8E2D84BE 
 216      5B52BBA5 
 217 0635 AC5B608C 		.ascii	"\254[`\214\274\316\037\220\200ZeyA\276}\323\246b{eY"
 217      BCCE1F90 
 217      805A6579 
 217      41BE7DD3 
 217      A6627B65 
 218 064a F91B792C 		.ascii	"\371\033y,\027BMM5\314\231\246\364\004/$\205\316_\220"
 218      17424D4D 
 218      35CC99A6 
 218      F4042F24 
 218      85CE5F90 
 219 065e 2F48F9F1 		.ascii	"/H\371\361\001\005\245Z\331\332[\253\340\260/\202\304"
 219      0105A55A 
 219      D9DA5BAB 
 219      E0B02F82 
 219      C4
 220 066f 3B9C7920 		.ascii	";\234y \371\266\212r\207\323V\\V\342\344*\234|I\251"
 220      F9B68A72 
 220      87D3565C 
 220      56E2E42A 
 220      9C7C49A9 
 221 0683 7381C351 		.ascii	"s\201\303Q\356\314\243:\337\346p\2248y\307\346J~K\205"
 221      EECCA33A 
 221      DFE67094 
 221      3879C7E6 
 221      4A7E4B85 
 222 0697 832F723A 		.ascii	"\203/r:y\247\003\276\203\303\206\342J'_,{\226\0279\271"
 222      79A703BE 
 222      83C386E2 
 222      4A275F2C 
 222      7B961739 
 223 06ac 5714AF02 		.ascii	"W\024\257\002\260\257r.el\203rv\004Q\016\332&\347\306"
 223      B0AF722E 
 223      656C8372 
 223      7604510E 
 223      DA26E7C6 
 224 06c0 E6F28881 		.ascii	"\346\362\210\201\024A\330Q\357s\011\302\"\265\223[X"
 224      1441D851 
 224      EF7309C2 
 224      22B5935B 
ARM GAS  /tmp/ccWgxlfU.s 			page 17


 224      58
 225 06d1 98FFC292 		.ascii	"\230\377\302\222\250\217\277Nq\311TG\334\014C\353P\220"
 225      A88FBF4E 
 225      71C95447 
 225      DC0C43EB 
 225      5090
 226 06e3 A73E7EDD 		.ascii	"\247>~\335\364\361\213\377\003)\265j\227"
 226      F4F18BFF 
 226      0329B56A 
 226      97
 227              		.text
 228              		.section	.gnu.lto_.symtab.a60f740eab2b18ca,"",%progbits
 229 0000 7374496E 		.ascii	"stInit\000\000\000\000\000\000\000\000\000\000\000\000"
 229      69740000 
 229      00000000 
 229      00000000 
 229      0000
 230 0012 A1000000 		.ascii	"\241\000\000\000stStartAlarm\000\000\000\000\000\000"
 230      73745374 
 230      61727441 
 230      6C61726D 
 230      00000000 
 231 0028 00000000 		.ascii	"\000\000\000\000\000\000\246\000\000\000stStopAlarm"
 231      0000A600 
 231      00007374 
 231      53746F70 
 231      416C6172 
 232 003d 00000000 		.ascii	"\000\000\000\000\000\000\000\000\000\000\000\000\263"
 232      00000000 
 232      00000000 
 232      B3
 233 004a 00000073 		.ascii	"\000\000\000stSetAlarm\000\000\000\000\000\000\000\000"
 233      74536574 
 233      416C6172 
 233      6D000000 
 233      00000000 
 234 005f 00000000 		.ascii	"\000\000\000\000\266\000\000\000stGetAlarm\000\000\000"
 234      B6000000 
 234      73744765 
 234      74416C61 
 234      726D0000 
 235 0074 00000000 		.ascii	"\000\000\000\000\000\000\000\000\000\272\000\000\000"
 235      00000000 
 235      00BA0000 
 235      00
 236 0081 73745F6C 		.ascii	"st_lld_init\000\000\002\000\000\000\000\000\000\000"
 236      6C645F69 
 236      6E697400 
 236      00020000 
 236      00000000 
 237 0096 0000BE00 		.ascii	"\000\000\276\000\000\000"
 237      0000
 238              		.text
 239              		.section	.gnu.lto_.opts,"",%progbits
 240 0000 272D6D63 		.ascii	"'-mcpu=cortex-m3' '-mno-thumb-interwork' '-mthumb' "
 240      70753D63 
 240      6F727465 
ARM GAS  /tmp/ccWgxlfU.s 			page 18


 240      782D6D33 
 240      2720272D 
 241 0033 272D6767 		.ascii	"'-ggdb' '-O2' '-fomit-frame-pointer' '-falign-funct"
 241      64622720 
 241      272D4F32 
 241      2720272D 
 241      666F6D69 
 242 0066 696F6E73 		.ascii	"ions=16' '-ffunction-sections' '-fdata-sections' '-"
 242      3D313627 
 242      20272D66 
 242      66756E63 
 242      74696F6E 
 243 0099 666E6F2D 		.ascii	"fno-common' '-flto'\000"
 243      636F6D6D 
 243      6F6E2720 
 243      272D666C 
 243      746F2700 
 244              		.text
 245              		.cfi_sections	.debug_frame
 246              		.section	.text.stInit,"ax",%progbits
 247              		.align	2
 248              		.p2align 4,,15
 249              		.global	stInit
 250              		.thumb
 251              		.thumb_func
 252              		.type	stInit, %function
 253              	stInit:
 254              	.LFB217:
 255              		.file 1 "../../../os/hal/src/hal_st.c"
 256              		.loc 1 60 0
 257              		.cfi_startproc
 258              		@ args = 0, pretend = 0, frame = 0
 259              		@ frame_needed = 0, uses_anonymous_args = 0
 260              		@ link register save eliminated.
 261              		.loc 1 62 0
 262 0000 FFF7FEBF 		b	st_lld_init
 263              	.LVL0:
 264              		.cfi_endproc
 265              	.LFE217:
 266              		.size	stInit, .-stInit
 267 0004 AFF30080 		.section	.text.stStartAlarm,"ax",%progbits
 267      AFF30080 
 267      AFF30080 
 268              		.align	2
 269              		.p2align 4,,15
 270              		.global	stStartAlarm
 271              		.thumb
 272              		.thumb_func
 273              		.type	stStartAlarm, %function
 274              	stStartAlarm:
 275              	.LFB218:
 276              		.loc 1 76 0
 277              		.cfi_startproc
 278              		@ args = 0, pretend = 0, frame = 0
 279              		@ frame_needed = 0, uses_anonymous_args = 0
 280              		@ link register save eliminated.
 281              	.LVL1:
ARM GAS  /tmp/ccWgxlfU.s 			page 19


 282              	.LBB10:
 283              	.LBB11:
 284              		.file 2 "../../../os/hal/ports/STM32/LLD/TIMv1/hal_st_lld.h"
 285              		.loc 2 155 0
 286 0000 4FF08043 		mov	r3, #1073741824
 287              		.loc 2 156 0
 288 0004 0021     		movs	r1, #0
 289              		.loc 2 157 0
 290 0006 0222     		movs	r2, #2
 291              		.loc 2 155 0
 292 0008 5863     		str	r0, [r3, #52]
 293              		.loc 2 156 0
 294 000a 1961     		str	r1, [r3, #16]
 295              		.loc 2 157 0
 296 000c DA60     		str	r2, [r3, #12]
 297 000e 7047     		bx	lr
 298              	.LBE11:
 299              	.LBE10:
 300              		.cfi_endproc
 301              	.LFE218:
 302              		.size	stStartAlarm, .-stStartAlarm
 303              		.section	.text.stStopAlarm,"ax",%progbits
 304              		.align	2
 305              		.p2align 4,,15
 306              		.global	stStopAlarm
 307              		.thumb
 308              		.thumb_func
 309              		.type	stStopAlarm, %function
 310              	stStopAlarm:
 311              	.LFB219:
 312              		.loc 1 90 0
 313              		.cfi_startproc
 314              		@ args = 0, pretend = 0, frame = 0
 315              		@ frame_needed = 0, uses_anonymous_args = 0
 316              		@ link register save eliminated.
 317              	.LBB12:
 318              	.LBB13:
 319              		.loc 2 167 0
 320 0000 4FF08043 		mov	r3, #1073741824
 321 0004 0022     		movs	r2, #0
 322 0006 DA60     		str	r2, [r3, #12]
 323 0008 7047     		bx	lr
 324              	.LBE13:
 325              	.LBE12:
 326              		.cfi_endproc
 327              	.LFE219:
 328              		.size	stStopAlarm, .-stStopAlarm
 329 000a 00BFAFF3 		.section	.text.stSetAlarm,"ax",%progbits
 329      0080
 330              		.align	2
 331              		.p2align 4,,15
 332              		.global	stSetAlarm
 333              		.thumb
 334              		.thumb_func
 335              		.type	stSetAlarm, %function
 336              	stSetAlarm:
 337              	.LFB220:
ARM GAS  /tmp/ccWgxlfU.s 			page 20


 338              		.loc 1 104 0
 339              		.cfi_startproc
 340              		@ args = 0, pretend = 0, frame = 0
 341              		@ frame_needed = 0, uses_anonymous_args = 0
 342              		@ link register save eliminated.
 343              	.LVL2:
 344              	.LBB14:
 345              	.LBB15:
 346              		.loc 2 179 0
 347 0000 4FF08043 		mov	r3, #1073741824
 348 0004 5863     		str	r0, [r3, #52]
 349 0006 7047     		bx	lr
 350              	.LBE15:
 351              	.LBE14:
 352              		.cfi_endproc
 353              	.LFE220:
 354              		.size	stSetAlarm, .-stSetAlarm
 355 0008 AFF30080 		.section	.text.stGetAlarm,"ax",%progbits
 355      AFF30080 
 356              		.align	2
 357              		.p2align 4,,15
 358              		.global	stGetAlarm
 359              		.thumb
 360              		.thumb_func
 361              		.type	stGetAlarm, %function
 362              	stGetAlarm:
 363              	.LFB221:
 364              		.loc 1 120 0
 365              		.cfi_startproc
 366              		@ args = 0, pretend = 0, frame = 0
 367              		@ frame_needed = 0, uses_anonymous_args = 0
 368              		@ link register save eliminated.
 369              	.LBB16:
 370              	.LBB17:
 371              		.loc 2 191 0
 372 0000 4FF08043 		mov	r3, #1073741824
 373 0004 586B     		ldr	r0, [r3, #52]
 374              	.LBE17:
 375              	.LBE16:
 376              		.loc 1 125 0
 377 0006 80B2     		uxth	r0, r0
 378 0008 7047     		bx	lr
 379              		.cfi_endproc
 380              	.LFE221:
 381              		.size	stGetAlarm, .-stGetAlarm
 382 000a 00BFAFF3 		.text
 382      0080
 383              	.Letext0:
 384              		.file 3 "/home/alex/MentorGraphics/Sourcery_CodeBench_Lite_for_ARM_EABI/arm-none-eabi/include/stdi
 385              		.file 4 "../../../os/common/ports/ARMCMx/compilers/GCC/chtypes.h"
 386              		.file 5 "../../../os/rt/include/chsystypes.h"
 387              		.file 6 "../../../os/rt/include/chschd.h"
 388              		.file 7 "../../../os/common/ports/ARMCMx/chcore.h"
 389              		.file 8 "../../../os/common/ports/ARMCMx/chcore_v7m.h"
 390              		.file 9 "../../../os/hal/ports/STM32/LLD/TIMv1/stm32_tim.h"
 391              		.file 10 "../../../os/rt/include/chtm.h"
 392              		.file 11 "../../../os/rt/include/chsem.h"
ARM GAS  /tmp/ccWgxlfU.s 			page 21


 393              		.file 12 "../../../os/rt/include/chmtx.h"
 394              		.file 13 "../../../os/common/ext/CMSIS/include/core_cm3.h"
 395              		.section	.debug_info,"",%progbits
 396              	.Ldebug_info0:
 397 0000 B1080000 		.4byte	0x8b1
 398 0004 0400     		.2byte	0x4
 399 0006 00000000 		.4byte	.Ldebug_abbrev0
 400 000a 04       		.byte	0x4
 401 000b 01       		.uleb128 0x1
 402 000c 6F040000 		.4byte	.LASF109
 403 0010 01       		.byte	0x1
 404 0011 6E030000 		.4byte	.LASF110
 405 0015 99020000 		.4byte	.LASF111
 406 0019 00000000 		.4byte	.Ldebug_ranges0+0
 407 001d 00000000 		.4byte	0
 408 0021 00000000 		.4byte	.Ldebug_line0
 409 0025 02       		.uleb128 0x2
 410 0026 04       		.byte	0x4
 411 0027 05       		.byte	0x5
 412 0028 696E7400 		.ascii	"int\000"
 413 002c 03       		.uleb128 0x3
 414 002d 04       		.byte	0x4
 415 002e 07       		.byte	0x7
 416 002f 82010000 		.4byte	.LASF0
 417 0033 03       		.uleb128 0x3
 418 0034 01       		.byte	0x1
 419 0035 06       		.byte	0x6
 420 0036 DD000000 		.4byte	.LASF1
 421 003a 04       		.uleb128 0x4
 422 003b 66030000 		.4byte	.LASF4
 423 003f 03       		.byte	0x3
 424 0040 2A       		.byte	0x2a
 425 0041 45000000 		.4byte	0x45
 426 0045 03       		.uleb128 0x3
 427 0046 01       		.byte	0x1
 428 0047 08       		.byte	0x8
 429 0048 2C030000 		.4byte	.LASF2
 430 004c 03       		.uleb128 0x3
 431 004d 02       		.byte	0x2
 432 004e 05       		.byte	0x5
 433 004f 3A030000 		.4byte	.LASF3
 434 0053 04       		.uleb128 0x4
 435 0054 3F010000 		.4byte	.LASF5
 436 0058 03       		.byte	0x3
 437 0059 36       		.byte	0x36
 438 005a 5E000000 		.4byte	0x5e
 439 005e 03       		.uleb128 0x3
 440 005f 02       		.byte	0x2
 441 0060 07       		.byte	0x7
 442 0061 42040000 		.4byte	.LASF6
 443 0065 04       		.uleb128 0x4
 444 0066 24030000 		.4byte	.LASF7
 445 006a 03       		.byte	0x3
 446 006b 4F       		.byte	0x4f
 447 006c 70000000 		.4byte	0x70
 448 0070 03       		.uleb128 0x3
 449 0071 04       		.byte	0x4
ARM GAS  /tmp/ccWgxlfU.s 			page 22


 450 0072 05       		.byte	0x5
 451 0073 0D010000 		.4byte	.LASF8
 452 0077 04       		.uleb128 0x4
 453 0078 BF030000 		.4byte	.LASF9
 454 007c 03       		.byte	0x3
 455 007d 50       		.byte	0x50
 456 007e 82000000 		.4byte	0x82
 457 0082 03       		.uleb128 0x3
 458 0083 04       		.byte	0x4
 459 0084 07       		.byte	0x7
 460 0085 96010000 		.4byte	.LASF10
 461 0089 03       		.uleb128 0x3
 462 008a 08       		.byte	0x8
 463 008b 05       		.byte	0x5
 464 008c 31010000 		.4byte	.LASF11
 465 0090 04       		.uleb128 0x4
 466 0091 2A000000 		.4byte	.LASF12
 467 0095 03       		.byte	0x3
 468 0096 78       		.byte	0x78
 469 0097 9B000000 		.4byte	0x9b
 470 009b 03       		.uleb128 0x3
 471 009c 08       		.byte	0x8
 472 009d 07       		.byte	0x7
 473 009e 53000000 		.4byte	.LASF13
 474 00a2 04       		.uleb128 0x4
 475 00a3 55040000 		.4byte	.LASF14
 476 00a7 04       		.byte	0x4
 477 00a8 39       		.byte	0x39
 478 00a9 77000000 		.4byte	0x77
 479 00ad 04       		.uleb128 0x4
 480 00ae 16010000 		.4byte	.LASF15
 481 00b2 04       		.byte	0x4
 482 00b3 3C       		.byte	0x3c
 483 00b4 3A000000 		.4byte	0x3a
 484 00b8 04       		.uleb128 0x4
 485 00b9 1E010000 		.4byte	.LASF16
 486 00bd 04       		.byte	0x4
 487 00be 3D       		.byte	0x3d
 488 00bf 3A000000 		.4byte	0x3a
 489 00c3 04       		.uleb128 0x4
 490 00c4 E9020000 		.4byte	.LASF17
 491 00c8 04       		.byte	0x4
 492 00c9 3E       		.byte	0x3e
 493 00ca 3A000000 		.4byte	0x3a
 494 00ce 04       		.uleb128 0x4
 495 00cf 06030000 		.4byte	.LASF18
 496 00d3 04       		.byte	0x4
 497 00d4 40       		.byte	0x40
 498 00d5 77000000 		.4byte	0x77
 499 00d9 04       		.uleb128 0x4
 500 00da C8010000 		.4byte	.LASF19
 501 00de 04       		.byte	0x4
 502 00df 41       		.byte	0x41
 503 00e0 65000000 		.4byte	0x65
 504 00e4 04       		.uleb128 0x4
 505 00e5 FD010000 		.4byte	.LASF20
 506 00e9 04       		.byte	0x4
ARM GAS  /tmp/ccWgxlfU.s 			page 23


 507 00ea 43       		.byte	0x43
 508 00eb 77000000 		.4byte	0x77
 509 00ef 04       		.uleb128 0x4
 510 00f0 7C010000 		.4byte	.LASF21
 511 00f4 04       		.byte	0x4
 512 00f5 45       		.byte	0x45
 513 00f6 65000000 		.4byte	0x65
 514 00fa 04       		.uleb128 0x4
 515 00fb 11040000 		.4byte	.LASF22
 516 00ff 05       		.byte	0x5
 517 0100 35       		.byte	0x35
 518 0101 53000000 		.4byte	0x53
 519 0105 04       		.uleb128 0x4
 520 0106 08040000 		.4byte	.LASF23
 521 010a 05       		.byte	0x5
 522 010b 3F       		.byte	0x3f
 523 010c 10010000 		.4byte	0x110
 524 0110 05       		.uleb128 0x5
 525 0111 BE010000 		.4byte	.LASF41
 526 0115 44       		.byte	0x44
 527 0116 06       		.byte	0x6
 528 0117 9A       		.byte	0x9a
 529 0118 EE010000 		.4byte	0x1ee
 530 011c 06       		.uleb128 0x6
 531 011d AD010000 		.4byte	.LASF24
 532 0121 06       		.byte	0x6
 533 0122 9B       		.byte	0x9b
 534 0123 23020000 		.4byte	0x223
 535 0127 00       		.byte	0
 536 0128 06       		.uleb128 0x6
 537 0129 8C020000 		.4byte	.LASF25
 538 012d 06       		.byte	0x6
 539 012e 9C       		.byte	0x9c
 540 012f CE000000 		.4byte	0xce
 541 0133 08       		.byte	0x8
 542 0134 07       		.uleb128 0x7
 543 0135 63747800 		.ascii	"ctx\000"
 544 0139 06       		.byte	0x6
 545 013a 9D       		.byte	0x9d
 546 013b 40040000 		.4byte	0x440
 547 013f 0C       		.byte	0xc
 548 0140 06       		.uleb128 0x6
 549 0141 27020000 		.4byte	.LASF26
 550 0145 06       		.byte	0x6
 551 0146 9F       		.byte	0x9f
 552 0147 F9010000 		.4byte	0x1f9
 553 014b 10       		.byte	0x10
 554 014c 06       		.uleb128 0x6
 555 014d FD030000 		.4byte	.LASF27
 556 0151 06       		.byte	0x6
 557 0152 A0       		.byte	0xa0
 558 0153 F9010000 		.4byte	0x1f9
 559 0157 14       		.byte	0x14
 560 0158 06       		.uleb128 0x6
 561 0159 A8010000 		.4byte	.LASF28
 562 015d 06       		.byte	0x6
 563 015e A7       		.byte	0xa7
ARM GAS  /tmp/ccWgxlfU.s 			page 24


 564 015f E7060000 		.4byte	0x6e7
 565 0163 18       		.byte	0x18
 566 0164 06       		.uleb128 0x6
 567 0165 E5030000 		.4byte	.LASF29
 568 0169 06       		.byte	0x6
 569 016a B0       		.byte	0xb0
 570 016b F9060000 		.4byte	0x6f9
 571 016f 1C       		.byte	0x1c
 572 0170 06       		.uleb128 0x6
 573 0171 07010000 		.4byte	.LASF30
 574 0175 06       		.byte	0x6
 575 0176 B5       		.byte	0xb5
 576 0177 B8000000 		.4byte	0xb8
 577 017b 20       		.byte	0x20
 578 017c 06       		.uleb128 0x6
 579 017d 3C050000 		.4byte	.LASF31
 580 0181 06       		.byte	0x6
 581 0182 B9       		.byte	0xb9
 582 0183 AD000000 		.4byte	0xad
 583 0187 21       		.byte	0x21
 584 0188 06       		.uleb128 0x6
 585 0189 F1020000 		.4byte	.LASF32
 586 018d 06       		.byte	0x6
 587 018e BE       		.byte	0xbe
 588 018f C3000000 		.4byte	0xc3
 589 0193 22       		.byte	0x22
 590 0194 08       		.uleb128 0x8
 591 0195 7500     		.ascii	"u\000"
 592 0197 06       		.byte	0x6
 593 0198 0F01     		.2byte	0x10f
 594 019a 1C060000 		.4byte	0x61c
 595 019e 24       		.byte	0x24
 596 019f 09       		.uleb128 0x9
 597 01a0 4D030000 		.4byte	.LASF33
 598 01a4 06       		.byte	0x6
 599 01a5 1401     		.2byte	0x114
 600 01a7 FF010000 		.4byte	0x1ff
 601 01ab 28       		.byte	0x28
 602 01ac 09       		.uleb128 0x9
 603 01ad FE000000 		.4byte	.LASF34
 604 01b1 06       		.byte	0x6
 605 01b2 1A01     		.2byte	0x11a
 606 01b4 23020000 		.4byte	0x223
 607 01b8 2C       		.byte	0x2c
 608 01b9 09       		.uleb128 0x9
 609 01ba CE010000 		.4byte	.LASF35
 610 01be 06       		.byte	0x6
 611 01bf 2001     		.2byte	0x120
 612 01c1 E4000000 		.4byte	0xe4
 613 01c5 34       		.byte	0x34
 614 01c6 09       		.uleb128 0x9
 615 01c7 7C050000 		.4byte	.LASF36
 616 01cb 06       		.byte	0x6
 617 01cc 2701     		.2byte	0x127
 618 01ce E1060000 		.4byte	0x6e1
 619 01d2 38       		.byte	0x38
 620 01d3 09       		.uleb128 0x9
ARM GAS  /tmp/ccWgxlfU.s 			page 25


 621 01d4 2D020000 		.4byte	.LASF37
 622 01d8 06       		.byte	0x6
 623 01d9 2B01     		.2byte	0x12b
 624 01db CE000000 		.4byte	0xce
 625 01df 3C       		.byte	0x3c
 626 01e0 09       		.uleb128 0x9
 627 01e1 B3010000 		.4byte	.LASF38
 628 01e5 06       		.byte	0x6
 629 01e6 3201     		.2byte	0x132
 630 01e8 D6020000 		.4byte	0x2d6
 631 01ec 40       		.byte	0x40
 632 01ed 00       		.byte	0
 633 01ee 04       		.uleb128 0x4
 634 01ef 3F020000 		.4byte	.LASF39
 635 01f3 05       		.byte	0x5
 636 01f4 44       		.byte	0x44
 637 01f5 F9010000 		.4byte	0x1f9
 638 01f9 0A       		.uleb128 0xa
 639 01fa 04       		.byte	0x4
 640 01fb 05010000 		.4byte	0x105
 641 01ff 04       		.uleb128 0x4
 642 0200 54050000 		.4byte	.LASF40
 643 0204 05       		.byte	0x5
 644 0205 49       		.byte	0x49
 645 0206 0A020000 		.4byte	0x20a
 646 020a 05       		.uleb128 0x5
 647 020b CF030000 		.4byte	.LASF42
 648 020f 04       		.byte	0x4
 649 0210 06       		.byte	0x6
 650 0211 88       		.byte	0x88
 651 0212 23020000 		.4byte	0x223
 652 0216 06       		.uleb128 0x6
 653 0217 18000000 		.4byte	.LASF43
 654 021b 06       		.byte	0x6
 655 021c 89       		.byte	0x89
 656 021d F9010000 		.4byte	0x1f9
 657 0221 00       		.byte	0
 658 0222 00       		.byte	0
 659 0223 04       		.uleb128 0x4
 660 0224 12050000 		.4byte	.LASF44
 661 0228 05       		.byte	0x5
 662 0229 50       		.byte	0x50
 663 022a 2E020000 		.4byte	0x22e
 664 022e 05       		.uleb128 0x5
 665 022f BA000000 		.4byte	.LASF45
 666 0233 08       		.byte	0x8
 667 0234 06       		.byte	0x6
 668 0235 8F       		.byte	0x8f
 669 0236 53020000 		.4byte	0x253
 670 023a 06       		.uleb128 0x6
 671 023b 18000000 		.4byte	.LASF43
 672 023f 06       		.byte	0x6
 673 0240 90       		.byte	0x90
 674 0241 F9010000 		.4byte	0x1f9
 675 0245 00       		.byte	0
 676 0246 06       		.uleb128 0x6
 677 0247 33000000 		.4byte	.LASF46
ARM GAS  /tmp/ccWgxlfU.s 			page 26


 678 024b 06       		.byte	0x6
 679 024c 91       		.byte	0x91
 680 024d F9010000 		.4byte	0x1f9
 681 0251 04       		.byte	0x4
 682 0252 00       		.byte	0
 683 0253 04       		.uleb128 0x4
 684 0254 00000000 		.4byte	.LASF47
 685 0258 05       		.byte	0x5
 686 0259 57       		.byte	0x57
 687 025a 5E020000 		.4byte	0x25e
 688 025e 0B       		.uleb128 0xb
 689 025f EF010000 		.4byte	.LASF48
 690 0263 1C       		.byte	0x1c
 691 0264 06       		.byte	0x6
 692 0265 6A01     		.2byte	0x16a
 693 0267 BA020000 		.4byte	0x2ba
 694 026b 09       		.uleb128 0x9
 695 026c AD010000 		.4byte	.LASF24
 696 0270 06       		.byte	0x6
 697 0271 6B01     		.2byte	0x16b
 698 0273 23020000 		.4byte	0x223
 699 0277 00       		.byte	0
 700 0278 09       		.uleb128 0x9
 701 0279 8C020000 		.4byte	.LASF25
 702 027d 06       		.byte	0x6
 703 027e 6C01     		.2byte	0x16c
 704 0280 CE000000 		.4byte	0xce
 705 0284 08       		.byte	0x8
 706 0285 08       		.uleb128 0x8
 707 0286 63747800 		.ascii	"ctx\000"
 708 028a 06       		.byte	0x6
 709 028b 6E01     		.2byte	0x16e
 710 028d 40040000 		.4byte	0x440
 711 0291 0C       		.byte	0xc
 712 0292 09       		.uleb128 0x9
 713 0293 27020000 		.4byte	.LASF26
 714 0297 06       		.byte	0x6
 715 0298 7101     		.2byte	0x171
 716 029a F9010000 		.4byte	0x1f9
 717 029e 10       		.byte	0x10
 718 029f 09       		.uleb128 0x9
 719 02a0 FD030000 		.4byte	.LASF27
 720 02a4 06       		.byte	0x6
 721 02a5 7201     		.2byte	0x172
 722 02a7 F9010000 		.4byte	0x1f9
 723 02ab 14       		.byte	0x14
 724 02ac 09       		.uleb128 0x9
 725 02ad 91020000 		.4byte	.LASF49
 726 02b1 06       		.byte	0x6
 727 02b2 7501     		.2byte	0x175
 728 02b4 F9010000 		.4byte	0x1f9
 729 02b8 18       		.byte	0x18
 730 02b9 00       		.byte	0
 731 02ba 04       		.uleb128 0x4
 732 02bb 1B040000 		.4byte	.LASF50
 733 02bf 05       		.byte	0x5
 734 02c0 5C       		.byte	0x5c
ARM GAS  /tmp/ccWgxlfU.s 			page 27


 735 02c1 C5020000 		.4byte	0x2c5
 736 02c5 0A       		.uleb128 0xa
 737 02c6 04       		.byte	0x4
 738 02c7 CB020000 		.4byte	0x2cb
 739 02cb 0C       		.uleb128 0xc
 740 02cc D6020000 		.4byte	0x2d6
 741 02d0 0D       		.uleb128 0xd
 742 02d1 D6020000 		.4byte	0x2d6
 743 02d5 00       		.byte	0
 744 02d6 0E       		.uleb128 0xe
 745 02d7 04       		.byte	0x4
 746 02d8 04       		.uleb128 0x4
 747 02d9 F6020000 		.4byte	.LASF51
 748 02dd 05       		.byte	0x5
 749 02de 61       		.byte	0x61
 750 02df E3020000 		.4byte	0x2e3
 751 02e3 0B       		.uleb128 0xb
 752 02e4 8B030000 		.4byte	.LASF52
 753 02e8 14       		.byte	0x14
 754 02e9 06       		.byte	0x6
 755 02ea 4501     		.2byte	0x145
 756 02ec 32030000 		.4byte	0x332
 757 02f0 09       		.uleb128 0x9
 758 02f1 18000000 		.4byte	.LASF43
 759 02f5 06       		.byte	0x6
 760 02f6 4601     		.2byte	0x146
 761 02f8 FF060000 		.4byte	0x6ff
 762 02fc 00       		.byte	0
 763 02fd 09       		.uleb128 0x9
 764 02fe 33000000 		.4byte	.LASF46
 765 0302 06       		.byte	0x6
 766 0303 4701     		.2byte	0x147
 767 0305 FF060000 		.4byte	0x6ff
 768 0309 04       		.byte	0x4
 769 030a 09       		.uleb128 0x9
 770 030b 1D000000 		.4byte	.LASF53
 771 030f 06       		.byte	0x6
 772 0310 4801     		.2byte	0x148
 773 0312 FA000000 		.4byte	0xfa
 774 0316 08       		.byte	0x8
 775 0317 09       		.uleb128 0x9
 776 0318 27010000 		.4byte	.LASF54
 777 031c 06       		.byte	0x6
 778 031d 4901     		.2byte	0x149
 779 031f BA020000 		.4byte	0x2ba
 780 0323 0C       		.byte	0xc
 781 0324 08       		.uleb128 0x8
 782 0325 70617200 		.ascii	"par\000"
 783 0329 06       		.byte	0x6
 784 032a 4B01     		.2byte	0x14b
 785 032c D6020000 		.4byte	0x2d6
 786 0330 10       		.byte	0x10
 787 0331 00       		.byte	0
 788 0332 04       		.uleb128 0x4
 789 0333 86000000 		.4byte	.LASF55
 790 0337 05       		.byte	0x5
 791 0338 66       		.byte	0x66
ARM GAS  /tmp/ccWgxlfU.s 			page 28


 792 0339 3D030000 		.4byte	0x33d
 793 033d 0B       		.uleb128 0xb
 794 033e 52020000 		.4byte	.LASF56
 795 0342 0C       		.byte	0xc
 796 0343 06       		.byte	0x6
 797 0344 5501     		.2byte	0x155
 798 0346 7F030000 		.4byte	0x37f
 799 034a 09       		.uleb128 0x9
 800 034b 18000000 		.4byte	.LASF43
 801 034f 06       		.byte	0x6
 802 0350 5601     		.2byte	0x156
 803 0352 FF060000 		.4byte	0x6ff
 804 0356 00       		.byte	0
 805 0357 09       		.uleb128 0x9
 806 0358 33000000 		.4byte	.LASF46
 807 035c 06       		.byte	0x6
 808 035d 5801     		.2byte	0x158
 809 035f FF060000 		.4byte	0x6ff
 810 0363 04       		.byte	0x4
 811 0364 09       		.uleb128 0x9
 812 0365 1D000000 		.4byte	.LASF53
 813 0369 06       		.byte	0x6
 814 036a 5A01     		.2byte	0x15a
 815 036c FA000000 		.4byte	0xfa
 816 0370 08       		.byte	0x8
 817 0371 09       		.uleb128 0x9
 818 0372 44030000 		.4byte	.LASF57
 819 0376 06       		.byte	0x6
 820 0377 6201     		.2byte	0x162
 821 0379 FA000000 		.4byte	0xfa
 822 037d 0A       		.byte	0xa
 823 037e 00       		.byte	0
 824 037f 04       		.uleb128 0x4
 825 0380 44000000 		.4byte	.LASF58
 826 0384 05       		.byte	0x5
 827 0385 6B       		.byte	0x6b
 828 0386 8A030000 		.4byte	0x38a
 829 038a 0B       		.uleb128 0xb
 830 038b 0E030000 		.4byte	.LASF59
 831 038f 04       		.byte	0x4
 832 0390 06       		.byte	0x6
 833 0391 7C01     		.2byte	0x17c
 834 0393 A5030000 		.4byte	0x3a5
 835 0397 09       		.uleb128 0x9
 836 0398 24040000 		.4byte	.LASF60
 837 039c 06       		.byte	0x6
 838 039d 8401     		.2byte	0x184
 839 039f 05070000 		.4byte	0x705
 840 03a3 00       		.byte	0
 841 03a4 00       		.byte	0
 842 03a5 04       		.uleb128 0x4
 843 03a6 D7010000 		.4byte	.LASF61
 844 03aa 05       		.byte	0x5
 845 03ab 70       		.byte	0x70
 846 03ac B0030000 		.4byte	0x3b0
 847 03b0 0B       		.uleb128 0xb
 848 03b1 5C030000 		.4byte	.LASF62
ARM GAS  /tmp/ccWgxlfU.s 			page 29


 849 03b5 74       		.byte	0x74
 850 03b6 06       		.byte	0x6
 851 03b7 9C01     		.2byte	0x19c
 852 03b9 FE030000 		.4byte	0x3fe
 853 03bd 09       		.uleb128 0x9
 854 03be 2B050000 		.4byte	.LASF63
 855 03c2 06       		.byte	0x6
 856 03c3 A001     		.2byte	0x1a0
 857 03c5 53020000 		.4byte	0x253
 858 03c9 00       		.byte	0
 859 03ca 09       		.uleb128 0x9
 860 03cb F7000000 		.4byte	.LASF64
 861 03cf 06       		.byte	0x6
 862 03d0 A401     		.2byte	0x1a4
 863 03d2 32030000 		.4byte	0x332
 864 03d6 1C       		.byte	0x1c
 865 03d7 08       		.uleb128 0x8
 866 03d8 64626700 		.ascii	"dbg\000"
 867 03dc 06       		.byte	0x6
 868 03dd A801     		.2byte	0x1a8
 869 03df 7F030000 		.4byte	0x37f
 870 03e3 28       		.byte	0x28
 871 03e4 09       		.uleb128 0x9
 872 03e5 73000000 		.4byte	.LASF65
 873 03e9 06       		.byte	0x6
 874 03ea AC01     		.2byte	0x1ac
 875 03ec 05010000 		.4byte	0x105
 876 03f0 2C       		.byte	0x2c
 877 03f1 08       		.uleb128 0x8
 878 03f2 746D00   		.ascii	"tm\000"
 879 03f5 06       		.byte	0x6
 880 03f6 B101     		.2byte	0x1b1
 881 03f8 11060000 		.4byte	0x611
 882 03fc 70       		.byte	0x70
 883 03fd 00       		.byte	0
 884 03fe 03       		.uleb128 0x3
 885 03ff 04       		.byte	0x4
 886 0400 07       		.byte	0x7
 887 0401 36020000 		.4byte	.LASF66
 888 0405 0F       		.uleb128 0xf
 889 0406 77000000 		.4byte	0x77
 890 040a 10       		.uleb128 0x10
 891 040b 77000000 		.4byte	0x77
 892 040f 1A040000 		.4byte	0x41a
 893 0413 11       		.uleb128 0x11
 894 0414 FE030000 		.4byte	0x3fe
 895 0418 01       		.byte	0x1
 896 0419 00       		.byte	0
 897 041a 10       		.uleb128 0x10
 898 041b 77000000 		.4byte	0x77
 899 041f 2A040000 		.4byte	0x42a
 900 0423 11       		.uleb128 0x11
 901 0424 FE030000 		.4byte	0x3fe
 902 0428 03       		.byte	0x3
 903 0429 00       		.byte	0
 904 042a 04       		.uleb128 0x4
 905 042b 48010000 		.4byte	.LASF67
ARM GAS  /tmp/ccWgxlfU.s 			page 30


 906 042f 07       		.byte	0x7
 907 0430 65       		.byte	0x65
 908 0431 D6020000 		.4byte	0x2d6
 909 0435 04       		.uleb128 0x4
 910 0436 1C020000 		.4byte	.LASF68
 911 043a 07       		.byte	0x7
 912 043b 6D       		.byte	0x6d
 913 043c 90000000 		.4byte	0x90
 914 0440 05       		.uleb128 0x5
 915 0441 69020000 		.4byte	.LASF69
 916 0445 04       		.byte	0x4
 917 0446 07       		.byte	0x7
 918 0447 89       		.byte	0x89
 919 0448 58040000 		.4byte	0x458
 920 044c 07       		.uleb128 0x7
 921 044d 737000   		.ascii	"sp\000"
 922 0450 07       		.byte	0x7
 923 0451 8A       		.byte	0x8a
 924 0452 D4040000 		.4byte	0x4d4
 925 0456 00       		.byte	0
 926 0457 00       		.byte	0
 927 0458 0B       		.uleb128 0xb
 928 0459 38000000 		.4byte	.LASF70
 929 045d 24       		.byte	0x24
 930 045e 08       		.byte	0x8
 931 045f 5901     		.2byte	0x159
 932 0461 D4040000 		.4byte	0x4d4
 933 0465 08       		.uleb128 0x8
 934 0466 723400   		.ascii	"r4\000"
 935 0469 08       		.byte	0x8
 936 046a 6C01     		.2byte	0x16c
 937 046c 2A040000 		.4byte	0x42a
 938 0470 00       		.byte	0
 939 0471 08       		.uleb128 0x8
 940 0472 723500   		.ascii	"r5\000"
 941 0475 08       		.byte	0x8
 942 0476 6D01     		.2byte	0x16d
 943 0478 2A040000 		.4byte	0x42a
 944 047c 04       		.byte	0x4
 945 047d 08       		.uleb128 0x8
 946 047e 723600   		.ascii	"r6\000"
 947 0481 08       		.byte	0x8
 948 0482 6E01     		.2byte	0x16e
 949 0484 2A040000 		.4byte	0x42a
 950 0488 08       		.byte	0x8
 951 0489 08       		.uleb128 0x8
 952 048a 723700   		.ascii	"r7\000"
 953 048d 08       		.byte	0x8
 954 048e 6F01     		.2byte	0x16f
 955 0490 2A040000 		.4byte	0x42a
 956 0494 0C       		.byte	0xc
 957 0495 08       		.uleb128 0x8
 958 0496 723800   		.ascii	"r8\000"
 959 0499 08       		.byte	0x8
 960 049a 7001     		.2byte	0x170
 961 049c 2A040000 		.4byte	0x42a
 962 04a0 10       		.byte	0x10
ARM GAS  /tmp/ccWgxlfU.s 			page 31


 963 04a1 08       		.uleb128 0x8
 964 04a2 723900   		.ascii	"r9\000"
 965 04a5 08       		.byte	0x8
 966 04a6 7101     		.2byte	0x171
 967 04a8 2A040000 		.4byte	0x42a
 968 04ac 14       		.byte	0x14
 969 04ad 08       		.uleb128 0x8
 970 04ae 72313000 		.ascii	"r10\000"
 971 04b2 08       		.byte	0x8
 972 04b3 7201     		.2byte	0x172
 973 04b5 2A040000 		.4byte	0x42a
 974 04b9 18       		.byte	0x18
 975 04ba 08       		.uleb128 0x8
 976 04bb 72313100 		.ascii	"r11\000"
 977 04bf 08       		.byte	0x8
 978 04c0 7301     		.2byte	0x173
 979 04c2 2A040000 		.4byte	0x42a
 980 04c6 1C       		.byte	0x1c
 981 04c7 08       		.uleb128 0x8
 982 04c8 6C7200   		.ascii	"lr\000"
 983 04cb 08       		.byte	0x8
 984 04cc 7401     		.2byte	0x174
 985 04ce 2A040000 		.4byte	0x42a
 986 04d2 20       		.byte	0x20
 987 04d3 00       		.byte	0
 988 04d4 0A       		.uleb128 0xa
 989 04d5 04       		.byte	0x4
 990 04d6 58040000 		.4byte	0x458
 991 04da 12       		.uleb128 0x12
 992 04db 60       		.byte	0x60
 993 04dc 09       		.byte	0x9
 994 04dd A101     		.2byte	0x1a1
 995 04df E6050000 		.4byte	0x5e6
 996 04e3 08       		.uleb128 0x8
 997 04e4 43523100 		.ascii	"CR1\000"
 998 04e8 09       		.byte	0x9
 999 04e9 A201     		.2byte	0x1a2
 1000 04eb 05040000 		.4byte	0x405
 1001 04ef 00       		.byte	0
 1002 04f0 08       		.uleb128 0x8
 1003 04f1 43523200 		.ascii	"CR2\000"
 1004 04f5 09       		.byte	0x9
 1005 04f6 A301     		.2byte	0x1a3
 1006 04f8 05040000 		.4byte	0x405
 1007 04fc 04       		.byte	0x4
 1008 04fd 09       		.uleb128 0x9
 1009 04fe B9010000 		.4byte	.LASF71
 1010 0502 09       		.byte	0x9
 1011 0503 A401     		.2byte	0x1a4
 1012 0505 05040000 		.4byte	0x405
 1013 0509 08       		.byte	0x8
 1014 050a 09       		.uleb128 0x9
 1015 050b 0D000000 		.4byte	.LASF72
 1016 050f 09       		.byte	0x9
 1017 0510 A501     		.2byte	0x1a5
 1018 0512 05040000 		.4byte	0x405
 1019 0516 0C       		.byte	0xc
ARM GAS  /tmp/ccWgxlfU.s 			page 32


 1020 0517 08       		.uleb128 0x8
 1021 0518 535200   		.ascii	"SR\000"
 1022 051b 09       		.byte	0x9
 1023 051c A601     		.2byte	0x1a6
 1024 051e 05040000 		.4byte	0x405
 1025 0522 10       		.byte	0x10
 1026 0523 08       		.uleb128 0x8
 1027 0524 45475200 		.ascii	"EGR\000"
 1028 0528 09       		.byte	0x9
 1029 0529 A701     		.2byte	0x1a7
 1030 052b 05040000 		.4byte	0x405
 1031 052f 14       		.byte	0x14
 1032 0530 09       		.uleb128 0x9
 1033 0531 CB000000 		.4byte	.LASF73
 1034 0535 09       		.byte	0x9
 1035 0536 A801     		.2byte	0x1a8
 1036 0538 05040000 		.4byte	0x405
 1037 053c 18       		.byte	0x18
 1038 053d 09       		.uleb128 0x9
 1039 053e D1000000 		.4byte	.LASF74
 1040 0542 09       		.byte	0x9
 1041 0543 A901     		.2byte	0x1a9
 1042 0545 05040000 		.4byte	0x405
 1043 0549 1C       		.byte	0x1c
 1044 054a 09       		.uleb128 0x9
 1045 054b 2C010000 		.4byte	.LASF75
 1046 054f 09       		.byte	0x9
 1047 0550 AA01     		.2byte	0x1aa
 1048 0552 05040000 		.4byte	0x405
 1049 0556 20       		.byte	0x20
 1050 0557 08       		.uleb128 0x8
 1051 0558 434E5400 		.ascii	"CNT\000"
 1052 055c 09       		.byte	0x9
 1053 055d AB01     		.2byte	0x1ab
 1054 055f 05040000 		.4byte	0x405
 1055 0563 24       		.byte	0x24
 1056 0564 08       		.uleb128 0x8
 1057 0565 50534300 		.ascii	"PSC\000"
 1058 0569 09       		.byte	0x9
 1059 056a AC01     		.2byte	0x1ac
 1060 056c 05040000 		.4byte	0x405
 1061 0570 28       		.byte	0x28
 1062 0571 08       		.uleb128 0x8
 1063 0572 41525200 		.ascii	"ARR\000"
 1064 0576 09       		.byte	0x9
 1065 0577 AD01     		.2byte	0x1ad
 1066 0579 05040000 		.4byte	0x405
 1067 057d 2C       		.byte	0x2c
 1068 057e 08       		.uleb128 0x8
 1069 057f 52435200 		.ascii	"RCR\000"
 1070 0583 09       		.byte	0x9
 1071 0584 AE01     		.2byte	0x1ae
 1072 0586 05040000 		.4byte	0x405
 1073 058a 30       		.byte	0x30
 1074 058b 08       		.uleb128 0x8
 1075 058c 43435200 		.ascii	"CCR\000"
 1076 0590 09       		.byte	0x9
ARM GAS  /tmp/ccWgxlfU.s 			page 33


 1077 0591 AF01     		.2byte	0x1af
 1078 0593 E6050000 		.4byte	0x5e6
 1079 0597 34       		.byte	0x34
 1080 0598 09       		.uleb128 0x9
 1081 0599 B5000000 		.4byte	.LASF76
 1082 059d 09       		.byte	0x9
 1083 059e B001     		.2byte	0x1b0
 1084 05a0 05040000 		.4byte	0x405
 1085 05a4 44       		.byte	0x44
 1086 05a5 08       		.uleb128 0x8
 1087 05a6 44435200 		.ascii	"DCR\000"
 1088 05aa 09       		.byte	0x9
 1089 05ab B101     		.2byte	0x1b1
 1090 05ad 05040000 		.4byte	0x405
 1091 05b1 48       		.byte	0x48
 1092 05b2 09       		.uleb128 0x9
 1093 05b3 03040000 		.4byte	.LASF77
 1094 05b7 09       		.byte	0x9
 1095 05b8 B201     		.2byte	0x1b2
 1096 05ba 05040000 		.4byte	0x405
 1097 05be 4C       		.byte	0x4c
 1098 05bf 08       		.uleb128 0x8
 1099 05c0 4F5200   		.ascii	"OR\000"
 1100 05c3 09       		.byte	0x9
 1101 05c4 B301     		.2byte	0x1b3
 1102 05c6 05040000 		.4byte	0x405
 1103 05ca 50       		.byte	0x50
 1104 05cb 09       		.uleb128 0x9
 1105 05cc D7000000 		.4byte	.LASF78
 1106 05d0 09       		.byte	0x9
 1107 05d1 B401     		.2byte	0x1b4
 1108 05d3 05040000 		.4byte	0x405
 1109 05d7 54       		.byte	0x54
 1110 05d8 09       		.uleb128 0x9
 1111 05d9 BA030000 		.4byte	.LASF79
 1112 05dd 09       		.byte	0x9
 1113 05de B501     		.2byte	0x1b5
 1114 05e0 EB050000 		.4byte	0x5eb
 1115 05e4 58       		.byte	0x58
 1116 05e5 00       		.byte	0
 1117 05e6 0F       		.uleb128 0xf
 1118 05e7 1A040000 		.4byte	0x41a
 1119 05eb 0F       		.uleb128 0xf
 1120 05ec 0A040000 		.4byte	0x40a
 1121 05f0 13       		.uleb128 0x13
 1122 05f1 E3010000 		.4byte	.LASF80
 1123 05f5 09       		.byte	0x9
 1124 05f6 B601     		.2byte	0x1b6
 1125 05f8 DA040000 		.4byte	0x4da
 1126 05fc 14       		.uleb128 0x14
 1127 05fd 04       		.byte	0x4
 1128 05fe 0A       		.byte	0xa
 1129 05ff 38       		.byte	0x38
 1130 0600 11060000 		.4byte	0x611
 1131 0604 06       		.uleb128 0x6
 1132 0605 2E040000 		.4byte	.LASF81
 1133 0609 0A       		.byte	0xa
ARM GAS  /tmp/ccWgxlfU.s 			page 34


 1134 060a 3C       		.byte	0x3c
 1135 060b A2000000 		.4byte	0xa2
 1136 060f 00       		.byte	0
 1137 0610 00       		.byte	0
 1138 0611 04       		.uleb128 0x4
 1139 0612 76020000 		.4byte	.LASF82
 1140 0616 0A       		.byte	0xa
 1141 0617 3D       		.byte	0x3d
 1142 0618 FC050000 		.4byte	0x5fc
 1143 061c 15       		.uleb128 0x15
 1144 061d 04       		.byte	0x4
 1145 061e 06       		.byte	0x6
 1146 061f D2       		.byte	0xd2
 1147 0620 7F060000 		.4byte	0x67f
 1148 0624 16       		.uleb128 0x16
 1149 0625 23000000 		.4byte	.LASF83
 1150 0629 06       		.byte	0x6
 1151 062a D9       		.byte	0xd9
 1152 062b D9000000 		.4byte	0xd9
 1153 062f 16       		.uleb128 0x16
 1154 0630 6A000000 		.4byte	.LASF84
 1155 0634 06       		.byte	0x6
 1156 0635 E0       		.byte	0xe0
 1157 0636 D9000000 		.4byte	0xd9
 1158 063a 16       		.uleb128 0x16
 1159 063b 4D050000 		.4byte	.LASF85
 1160 063f 06       		.byte	0x6
 1161 0640 E7       		.byte	0xe7
 1162 0641 D6020000 		.4byte	0x2d6
 1163 0645 16       		.uleb128 0x16
 1164 0646 12000000 		.4byte	.LASF86
 1165 064a 06       		.byte	0x6
 1166 064b EE       		.byte	0xee
 1167 064c 7F060000 		.4byte	0x67f
 1168 0650 16       		.uleb128 0x16
 1169 0651 7E000000 		.4byte	.LASF87
 1170 0655 06       		.byte	0x6
 1171 0656 F3       		.byte	0xf3
 1172 0657 D9000000 		.4byte	0xd9
 1173 065b 16       		.uleb128 0x16
 1174 065c 8F010000 		.4byte	.LASF88
 1175 0660 06       		.byte	0x6
 1176 0661 FC       		.byte	0xfc
 1177 0662 AA060000 		.4byte	0x6aa
 1178 0666 17       		.uleb128 0x17
 1179 0667 C8030000 		.4byte	.LASF89
 1180 066b 06       		.byte	0x6
 1181 066c 0501     		.2byte	0x105
 1182 066e E1060000 		.4byte	0x6e1
 1183 0672 17       		.uleb128 0x17
 1184 0673 55030000 		.4byte	.LASF90
 1185 0677 06       		.byte	0x6
 1186 0678 0D01     		.2byte	0x10d
 1187 067a E4000000 		.4byte	0xe4
 1188 067e 00       		.byte	0
 1189 067f 0A       		.uleb128 0xa
 1190 0680 04       		.byte	0x4
ARM GAS  /tmp/ccWgxlfU.s 			page 35


 1191 0681 EE010000 		.4byte	0x1ee
 1192 0685 05       		.uleb128 0x5
 1193 0686 AD030000 		.4byte	.LASF91
 1194 068a 0C       		.byte	0xc
 1195 068b 0B       		.byte	0xb
 1196 068c 34       		.byte	0x34
 1197 068d AA060000 		.4byte	0x6aa
 1198 0691 06       		.uleb128 0x6
 1199 0692 AD010000 		.4byte	.LASF24
 1200 0696 0B       		.byte	0xb
 1201 0697 35       		.byte	0x35
 1202 0698 23020000 		.4byte	0x223
 1203 069c 00       		.byte	0
 1204 069d 07       		.uleb128 0x7
 1205 069e 636E7400 		.ascii	"cnt\000"
 1206 06a2 0B       		.byte	0xb
 1207 06a3 37       		.byte	0x37
 1208 06a4 EF000000 		.4byte	0xef
 1209 06a8 08       		.byte	0x8
 1210 06a9 00       		.byte	0
 1211 06aa 0A       		.uleb128 0xa
 1212 06ab 04       		.byte	0x4
 1213 06ac 85060000 		.4byte	0x685
 1214 06b0 05       		.uleb128 0x5
 1215 06b1 22050000 		.4byte	.LASF92
 1216 06b5 10       		.byte	0x10
 1217 06b6 0C       		.byte	0xc
 1218 06b7 39       		.byte	0x39
 1219 06b8 E1060000 		.4byte	0x6e1
 1220 06bc 06       		.uleb128 0x6
 1221 06bd AD010000 		.4byte	.LASF24
 1222 06c1 0C       		.byte	0xc
 1223 06c2 3A       		.byte	0x3a
 1224 06c3 23020000 		.4byte	0x223
 1225 06c7 00       		.byte	0
 1226 06c8 06       		.uleb128 0x6
 1227 06c9 DF030000 		.4byte	.LASF93
 1228 06cd 0C       		.byte	0xc
 1229 06ce 3C       		.byte	0x3c
 1230 06cf F9010000 		.4byte	0x1f9
 1231 06d3 08       		.byte	0x8
 1232 06d4 06       		.uleb128 0x6
 1233 06d5 18000000 		.4byte	.LASF43
 1234 06d9 0C       		.byte	0xc
 1235 06da 3E       		.byte	0x3e
 1236 06db 15070000 		.4byte	0x715
 1237 06df 0C       		.byte	0xc
 1238 06e0 00       		.byte	0
 1239 06e1 0A       		.uleb128 0xa
 1240 06e2 04       		.byte	0x4
 1241 06e3 B0060000 		.4byte	0x6b0
 1242 06e7 0A       		.uleb128 0xa
 1243 06e8 04       		.byte	0x4
 1244 06e9 ED060000 		.4byte	0x6ed
 1245 06ed 18       		.uleb128 0x18
 1246 06ee F2060000 		.4byte	0x6f2
 1247 06f2 03       		.uleb128 0x3
ARM GAS  /tmp/ccWgxlfU.s 			page 36


 1248 06f3 01       		.byte	0x1
 1249 06f4 08       		.byte	0x8
 1250 06f5 F8030000 		.4byte	.LASF94
 1251 06f9 0A       		.uleb128 0xa
 1252 06fa 04       		.byte	0x4
 1253 06fb 35040000 		.4byte	0x435
 1254 06ff 0A       		.uleb128 0xa
 1255 0700 04       		.byte	0x4
 1256 0701 D8020000 		.4byte	0x2d8
 1257 0705 0F       		.uleb128 0xf
 1258 0706 E7060000 		.4byte	0x6e7
 1259 070a 04       		.uleb128 0x4
 1260 070b 74010000 		.4byte	.LASF95
 1261 070f 0C       		.byte	0xc
 1262 0710 34       		.byte	0x34
 1263 0711 B0060000 		.4byte	0x6b0
 1264 0715 0A       		.uleb128 0xa
 1265 0716 04       		.byte	0x4
 1266 0717 0A070000 		.4byte	0x70a
 1267 071b 03       		.uleb128 0x3
 1268 071c 01       		.byte	0x1
 1269 071d 02       		.byte	0x2
 1270 071e 1E030000 		.4byte	.LASF96
 1271 0722 19       		.uleb128 0x19
 1272 0723 09020000 		.4byte	.LASF97
 1273 0727 02       		.byte	0x2
 1274 0728 99       		.byte	0x99
 1275 0729 03       		.byte	0x3
 1276 072a 3A070000 		.4byte	0x73a
 1277 072e 1A       		.uleb128 0x1a
 1278 072f 87020000 		.4byte	.LASF99
 1279 0733 02       		.byte	0x2
 1280 0734 99       		.byte	0x99
 1281 0735 FA000000 		.4byte	0xfa
 1282 0739 00       		.byte	0
 1283 073a 1B       		.uleb128 0x1b
 1284 073b 5D040000 		.4byte	.LASF112
 1285 073f 02       		.byte	0x2
 1286 0740 A5       		.byte	0xa5
 1287 0741 03       		.byte	0x3
 1288 0742 19       		.uleb128 0x19
 1289 0743 6B050000 		.4byte	.LASF98
 1290 0747 02       		.byte	0x2
 1291 0748 B1       		.byte	0xb1
 1292 0749 03       		.byte	0x3
 1293 074a 5A070000 		.4byte	0x75a
 1294 074e 1A       		.uleb128 0x1a
 1295 074f 87020000 		.4byte	.LASF99
 1296 0753 02       		.byte	0x2
 1297 0754 B1       		.byte	0xb1
 1298 0755 FA000000 		.4byte	0xfa
 1299 0759 00       		.byte	0
 1300 075a 1C       		.uleb128 0x1c
 1301 075b 9C030000 		.4byte	.LASF113
 1302 075f 02       		.byte	0x2
 1303 0760 BD       		.byte	0xbd
 1304 0761 FA000000 		.4byte	0xfa
ARM GAS  /tmp/ccWgxlfU.s 			page 37


 1305 0765 03       		.byte	0x3
 1306 0766 1D       		.uleb128 0x1d
 1307 0767 51010000 		.4byte	.LASF100
 1308 076b 01       		.byte	0x1
 1309 076c 3C       		.byte	0x3c
 1310 076d 00000000 		.4byte	.LFB217
 1311 0771 04000000 		.4byte	.LFE217-.LFB217
 1312 0775 01       		.uleb128 0x1
 1313 0776 9C       		.byte	0x9c
 1314 0777 85070000 		.4byte	0x785
 1315 077b 1E       		.uleb128 0x1e
 1316 077c 04000000 		.4byte	.LVL0
 1317 0780 AD080000 		.4byte	0x8ad
 1318 0784 00       		.byte	0
 1319 0785 1D       		.uleb128 0x1d
 1320 0786 35040000 		.4byte	.LASF101
 1321 078a 01       		.byte	0x1
 1322 078b 4C       		.byte	0x4c
 1323 078c 00000000 		.4byte	.LFB218
 1324 0790 10000000 		.4byte	.LFE218-.LFB218
 1325 0794 01       		.uleb128 0x1
 1326 0795 9C       		.byte	0x9c
 1327 0796 C8070000 		.4byte	0x7c8
 1328 079a 1F       		.uleb128 0x1f
 1329 079b 63050000 		.4byte	.LASF104
 1330 079f 01       		.byte	0x1
 1331 07a0 4C       		.byte	0x4c
 1332 07a1 FA000000 		.4byte	0xfa
 1333 07a5 01       		.uleb128 0x1
 1334 07a6 50       		.byte	0x50
 1335 07a7 20       		.uleb128 0x20
 1336 07a8 E9000000 		.4byte	.LASF105
 1337 07ac D8070000 		.4byte	0x7d8
 1338 07b0 21       		.uleb128 0x21
 1339 07b1 22070000 		.4byte	0x722
 1340 07b5 00000000 		.4byte	.LBB10
 1341 07b9 10000000 		.4byte	.LBE10-.LBB10
 1342 07bd 01       		.byte	0x1
 1343 07be 50       		.byte	0x50
 1344 07bf 22       		.uleb128 0x22
 1345 07c0 2E070000 		.4byte	0x72e
 1346 07c4 01       		.uleb128 0x1
 1347 07c5 50       		.byte	0x50
 1348 07c6 00       		.byte	0
 1349 07c7 00       		.byte	0
 1350 07c8 10       		.uleb128 0x10
 1351 07c9 F2060000 		.4byte	0x6f2
 1352 07cd D8070000 		.4byte	0x7d8
 1353 07d1 11       		.uleb128 0x11
 1354 07d2 FE030000 		.4byte	0x3fe
 1355 07d6 0C       		.byte	0xc
 1356 07d7 00       		.byte	0
 1357 07d8 18       		.uleb128 0x18
 1358 07d9 C8070000 		.4byte	0x7c8
 1359 07dd 1D       		.uleb128 0x1d
 1360 07de EC030000 		.4byte	.LASF102
 1361 07e2 01       		.byte	0x1
ARM GAS  /tmp/ccWgxlfU.s 			page 38


 1362 07e3 5A       		.byte	0x5a
 1363 07e4 00000000 		.4byte	.LFB219
 1364 07e8 0A000000 		.4byte	.LFE219-.LFB219
 1365 07ec 01       		.uleb128 0x1
 1366 07ed 9C       		.byte	0x9c
 1367 07ee 02080000 		.4byte	0x802
 1368 07f2 23       		.uleb128 0x23
 1369 07f3 3A070000 		.4byte	0x73a
 1370 07f7 00000000 		.4byte	.LBB12
 1371 07fb 0A000000 		.4byte	.LBE12-.LBB12
 1372 07ff 01       		.byte	0x1
 1373 0800 5C       		.byte	0x5c
 1374 0801 00       		.byte	0
 1375 0802 1D       		.uleb128 0x1d
 1376 0803 31050000 		.4byte	.LASF103
 1377 0807 01       		.byte	0x1
 1378 0808 68       		.byte	0x68
 1379 0809 00000000 		.4byte	.LFB220
 1380 080d 08000000 		.4byte	.LFE220-.LFB220
 1381 0811 01       		.uleb128 0x1
 1382 0812 9C       		.byte	0x9c
 1383 0813 45080000 		.4byte	0x845
 1384 0817 1F       		.uleb128 0x1f
 1385 0818 63050000 		.4byte	.LASF104
 1386 081c 01       		.byte	0x1
 1387 081d 68       		.byte	0x68
 1388 081e FA000000 		.4byte	0xfa
 1389 0822 01       		.uleb128 0x1
 1390 0823 50       		.byte	0x50
 1391 0824 20       		.uleb128 0x20
 1392 0825 58010000 		.4byte	.LASF106
 1393 0829 55080000 		.4byte	0x855
 1394 082d 21       		.uleb128 0x21
 1395 082e 42070000 		.4byte	0x742
 1396 0832 00000000 		.4byte	.LBB14
 1397 0836 08000000 		.4byte	.LBE14-.LBB14
 1398 083a 01       		.byte	0x1
 1399 083b 6C       		.byte	0x6c
 1400 083c 22       		.uleb128 0x22
 1401 083d 4E070000 		.4byte	0x74e
 1402 0841 01       		.uleb128 0x1
 1403 0842 50       		.byte	0x50
 1404 0843 00       		.byte	0
 1405 0844 00       		.byte	0
 1406 0845 10       		.uleb128 0x10
 1407 0846 F2060000 		.4byte	0x6f2
 1408 084a 55080000 		.4byte	0x855
 1409 084e 11       		.uleb128 0x11
 1410 084f FE030000 		.4byte	0x3fe
 1411 0853 0A       		.byte	0xa
 1412 0854 00       		.byte	0
 1413 0855 18       		.uleb128 0x18
 1414 0856 45080000 		.4byte	0x845
 1415 085a 24       		.uleb128 0x24
 1416 085b 42050000 		.4byte	.LASF114
 1417 085f 01       		.byte	0x1
 1418 0860 78       		.byte	0x78
ARM GAS  /tmp/ccWgxlfU.s 			page 39


 1419 0861 FA000000 		.4byte	0xfa
 1420 0865 00000000 		.4byte	.LFB221
 1421 0869 0A000000 		.4byte	.LFE221-.LFB221
 1422 086d 01       		.uleb128 0x1
 1423 086e 9C       		.byte	0x9c
 1424 086f 8C080000 		.4byte	0x88c
 1425 0873 20       		.uleb128 0x20
 1426 0874 66010000 		.4byte	.LASF107
 1427 0878 8C080000 		.4byte	0x88c
 1428 087c 23       		.uleb128 0x23
 1429 087d 5A070000 		.4byte	0x75a
 1430 0881 00000000 		.4byte	.LBB16
 1431 0885 06000000 		.4byte	.LBE16-.LBB16
 1432 0889 01       		.byte	0x1
 1433 088a 7C       		.byte	0x7c
 1434 088b 00       		.byte	0
 1435 088c 18       		.uleb128 0x18
 1436 088d 45080000 		.4byte	0x845
 1437 0891 25       		.uleb128 0x25
 1438 0892 9C000000 		.4byte	.LASF108
 1439 0896 0D       		.byte	0xd
 1440 0897 9606     		.2byte	0x696
 1441 0899 9D080000 		.4byte	0x89d
 1442 089d 0F       		.uleb128 0xf
 1443 089e 65000000 		.4byte	0x65
 1444 08a2 26       		.uleb128 0x26
 1445 08a3 636800   		.ascii	"ch\000"
 1446 08a6 06       		.byte	0x6
 1447 08a7 D201     		.2byte	0x1d2
 1448 08a9 A5030000 		.4byte	0x3a5
 1449 08ad 27       		.uleb128 0x27
 1450 08ae A9000000 		.4byte	.LASF115
 1451 08b2 02       		.byte	0x2
 1452 08b3 7B       		.byte	0x7b
 1453 08b4 00       		.byte	0
 1454              		.section	.debug_abbrev,"",%progbits
 1455              	.Ldebug_abbrev0:
 1456 0000 01       		.uleb128 0x1
 1457 0001 11       		.uleb128 0x11
 1458 0002 01       		.byte	0x1
 1459 0003 25       		.uleb128 0x25
 1460 0004 0E       		.uleb128 0xe
 1461 0005 13       		.uleb128 0x13
 1462 0006 0B       		.uleb128 0xb
 1463 0007 03       		.uleb128 0x3
 1464 0008 0E       		.uleb128 0xe
 1465 0009 1B       		.uleb128 0x1b
 1466 000a 0E       		.uleb128 0xe
 1467 000b 55       		.uleb128 0x55
 1468 000c 17       		.uleb128 0x17
 1469 000d 11       		.uleb128 0x11
 1470 000e 01       		.uleb128 0x1
 1471 000f 10       		.uleb128 0x10
 1472 0010 17       		.uleb128 0x17
 1473 0011 00       		.byte	0
 1474 0012 00       		.byte	0
 1475 0013 02       		.uleb128 0x2
ARM GAS  /tmp/ccWgxlfU.s 			page 40


 1476 0014 24       		.uleb128 0x24
 1477 0015 00       		.byte	0
 1478 0016 0B       		.uleb128 0xb
 1479 0017 0B       		.uleb128 0xb
 1480 0018 3E       		.uleb128 0x3e
 1481 0019 0B       		.uleb128 0xb
 1482 001a 03       		.uleb128 0x3
 1483 001b 08       		.uleb128 0x8
 1484 001c 00       		.byte	0
 1485 001d 00       		.byte	0
 1486 001e 03       		.uleb128 0x3
 1487 001f 24       		.uleb128 0x24
 1488 0020 00       		.byte	0
 1489 0021 0B       		.uleb128 0xb
 1490 0022 0B       		.uleb128 0xb
 1491 0023 3E       		.uleb128 0x3e
 1492 0024 0B       		.uleb128 0xb
 1493 0025 03       		.uleb128 0x3
 1494 0026 0E       		.uleb128 0xe
 1495 0027 00       		.byte	0
 1496 0028 00       		.byte	0
 1497 0029 04       		.uleb128 0x4
 1498 002a 16       		.uleb128 0x16
 1499 002b 00       		.byte	0
 1500 002c 03       		.uleb128 0x3
 1501 002d 0E       		.uleb128 0xe
 1502 002e 3A       		.uleb128 0x3a
 1503 002f 0B       		.uleb128 0xb
 1504 0030 3B       		.uleb128 0x3b
 1505 0031 0B       		.uleb128 0xb
 1506 0032 49       		.uleb128 0x49
 1507 0033 13       		.uleb128 0x13
 1508 0034 00       		.byte	0
 1509 0035 00       		.byte	0
 1510 0036 05       		.uleb128 0x5
 1511 0037 13       		.uleb128 0x13
 1512 0038 01       		.byte	0x1
 1513 0039 03       		.uleb128 0x3
 1514 003a 0E       		.uleb128 0xe
 1515 003b 0B       		.uleb128 0xb
 1516 003c 0B       		.uleb128 0xb
 1517 003d 3A       		.uleb128 0x3a
 1518 003e 0B       		.uleb128 0xb
 1519 003f 3B       		.uleb128 0x3b
 1520 0040 0B       		.uleb128 0xb
 1521 0041 01       		.uleb128 0x1
 1522 0042 13       		.uleb128 0x13
 1523 0043 00       		.byte	0
 1524 0044 00       		.byte	0
 1525 0045 06       		.uleb128 0x6
 1526 0046 0D       		.uleb128 0xd
 1527 0047 00       		.byte	0
 1528 0048 03       		.uleb128 0x3
 1529 0049 0E       		.uleb128 0xe
 1530 004a 3A       		.uleb128 0x3a
 1531 004b 0B       		.uleb128 0xb
 1532 004c 3B       		.uleb128 0x3b
ARM GAS  /tmp/ccWgxlfU.s 			page 41


 1533 004d 0B       		.uleb128 0xb
 1534 004e 49       		.uleb128 0x49
 1535 004f 13       		.uleb128 0x13
 1536 0050 38       		.uleb128 0x38
 1537 0051 0B       		.uleb128 0xb
 1538 0052 00       		.byte	0
 1539 0053 00       		.byte	0
 1540 0054 07       		.uleb128 0x7
 1541 0055 0D       		.uleb128 0xd
 1542 0056 00       		.byte	0
 1543 0057 03       		.uleb128 0x3
 1544 0058 08       		.uleb128 0x8
 1545 0059 3A       		.uleb128 0x3a
 1546 005a 0B       		.uleb128 0xb
 1547 005b 3B       		.uleb128 0x3b
 1548 005c 0B       		.uleb128 0xb
 1549 005d 49       		.uleb128 0x49
 1550 005e 13       		.uleb128 0x13
 1551 005f 38       		.uleb128 0x38
 1552 0060 0B       		.uleb128 0xb
 1553 0061 00       		.byte	0
 1554 0062 00       		.byte	0
 1555 0063 08       		.uleb128 0x8
 1556 0064 0D       		.uleb128 0xd
 1557 0065 00       		.byte	0
 1558 0066 03       		.uleb128 0x3
 1559 0067 08       		.uleb128 0x8
 1560 0068 3A       		.uleb128 0x3a
 1561 0069 0B       		.uleb128 0xb
 1562 006a 3B       		.uleb128 0x3b
 1563 006b 05       		.uleb128 0x5
 1564 006c 49       		.uleb128 0x49
 1565 006d 13       		.uleb128 0x13
 1566 006e 38       		.uleb128 0x38
 1567 006f 0B       		.uleb128 0xb
 1568 0070 00       		.byte	0
 1569 0071 00       		.byte	0
 1570 0072 09       		.uleb128 0x9
 1571 0073 0D       		.uleb128 0xd
 1572 0074 00       		.byte	0
 1573 0075 03       		.uleb128 0x3
 1574 0076 0E       		.uleb128 0xe
 1575 0077 3A       		.uleb128 0x3a
 1576 0078 0B       		.uleb128 0xb
 1577 0079 3B       		.uleb128 0x3b
 1578 007a 05       		.uleb128 0x5
 1579 007b 49       		.uleb128 0x49
 1580 007c 13       		.uleb128 0x13
 1581 007d 38       		.uleb128 0x38
 1582 007e 0B       		.uleb128 0xb
 1583 007f 00       		.byte	0
 1584 0080 00       		.byte	0
 1585 0081 0A       		.uleb128 0xa
 1586 0082 0F       		.uleb128 0xf
 1587 0083 00       		.byte	0
 1588 0084 0B       		.uleb128 0xb
 1589 0085 0B       		.uleb128 0xb
ARM GAS  /tmp/ccWgxlfU.s 			page 42


 1590 0086 49       		.uleb128 0x49
 1591 0087 13       		.uleb128 0x13
 1592 0088 00       		.byte	0
 1593 0089 00       		.byte	0
 1594 008a 0B       		.uleb128 0xb
 1595 008b 13       		.uleb128 0x13
 1596 008c 01       		.byte	0x1
 1597 008d 03       		.uleb128 0x3
 1598 008e 0E       		.uleb128 0xe
 1599 008f 0B       		.uleb128 0xb
 1600 0090 0B       		.uleb128 0xb
 1601 0091 3A       		.uleb128 0x3a
 1602 0092 0B       		.uleb128 0xb
 1603 0093 3B       		.uleb128 0x3b
 1604 0094 05       		.uleb128 0x5
 1605 0095 01       		.uleb128 0x1
 1606 0096 13       		.uleb128 0x13
 1607 0097 00       		.byte	0
 1608 0098 00       		.byte	0
 1609 0099 0C       		.uleb128 0xc
 1610 009a 15       		.uleb128 0x15
 1611 009b 01       		.byte	0x1
 1612 009c 27       		.uleb128 0x27
 1613 009d 19       		.uleb128 0x19
 1614 009e 01       		.uleb128 0x1
 1615 009f 13       		.uleb128 0x13
 1616 00a0 00       		.byte	0
 1617 00a1 00       		.byte	0
 1618 00a2 0D       		.uleb128 0xd
 1619 00a3 05       		.uleb128 0x5
 1620 00a4 00       		.byte	0
 1621 00a5 49       		.uleb128 0x49
 1622 00a6 13       		.uleb128 0x13
 1623 00a7 00       		.byte	0
 1624 00a8 00       		.byte	0
 1625 00a9 0E       		.uleb128 0xe
 1626 00aa 0F       		.uleb128 0xf
 1627 00ab 00       		.byte	0
 1628 00ac 0B       		.uleb128 0xb
 1629 00ad 0B       		.uleb128 0xb
 1630 00ae 00       		.byte	0
 1631 00af 00       		.byte	0
 1632 00b0 0F       		.uleb128 0xf
 1633 00b1 35       		.uleb128 0x35
 1634 00b2 00       		.byte	0
 1635 00b3 49       		.uleb128 0x49
 1636 00b4 13       		.uleb128 0x13
 1637 00b5 00       		.byte	0
 1638 00b6 00       		.byte	0
 1639 00b7 10       		.uleb128 0x10
 1640 00b8 01       		.uleb128 0x1
 1641 00b9 01       		.byte	0x1
 1642 00ba 49       		.uleb128 0x49
 1643 00bb 13       		.uleb128 0x13
 1644 00bc 01       		.uleb128 0x1
 1645 00bd 13       		.uleb128 0x13
 1646 00be 00       		.byte	0
ARM GAS  /tmp/ccWgxlfU.s 			page 43


 1647 00bf 00       		.byte	0
 1648 00c0 11       		.uleb128 0x11
 1649 00c1 21       		.uleb128 0x21
 1650 00c2 00       		.byte	0
 1651 00c3 49       		.uleb128 0x49
 1652 00c4 13       		.uleb128 0x13
 1653 00c5 2F       		.uleb128 0x2f
 1654 00c6 0B       		.uleb128 0xb
 1655 00c7 00       		.byte	0
 1656 00c8 00       		.byte	0
 1657 00c9 12       		.uleb128 0x12
 1658 00ca 13       		.uleb128 0x13
 1659 00cb 01       		.byte	0x1
 1660 00cc 0B       		.uleb128 0xb
 1661 00cd 0B       		.uleb128 0xb
 1662 00ce 3A       		.uleb128 0x3a
 1663 00cf 0B       		.uleb128 0xb
 1664 00d0 3B       		.uleb128 0x3b
 1665 00d1 05       		.uleb128 0x5
 1666 00d2 01       		.uleb128 0x1
 1667 00d3 13       		.uleb128 0x13
 1668 00d4 00       		.byte	0
 1669 00d5 00       		.byte	0
 1670 00d6 13       		.uleb128 0x13
 1671 00d7 16       		.uleb128 0x16
 1672 00d8 00       		.byte	0
 1673 00d9 03       		.uleb128 0x3
 1674 00da 0E       		.uleb128 0xe
 1675 00db 3A       		.uleb128 0x3a
 1676 00dc 0B       		.uleb128 0xb
 1677 00dd 3B       		.uleb128 0x3b
 1678 00de 05       		.uleb128 0x5
 1679 00df 49       		.uleb128 0x49
 1680 00e0 13       		.uleb128 0x13
 1681 00e1 00       		.byte	0
 1682 00e2 00       		.byte	0
 1683 00e3 14       		.uleb128 0x14
 1684 00e4 13       		.uleb128 0x13
 1685 00e5 01       		.byte	0x1
 1686 00e6 0B       		.uleb128 0xb
 1687 00e7 0B       		.uleb128 0xb
 1688 00e8 3A       		.uleb128 0x3a
 1689 00e9 0B       		.uleb128 0xb
 1690 00ea 3B       		.uleb128 0x3b
 1691 00eb 0B       		.uleb128 0xb
 1692 00ec 01       		.uleb128 0x1
 1693 00ed 13       		.uleb128 0x13
 1694 00ee 00       		.byte	0
 1695 00ef 00       		.byte	0
 1696 00f0 15       		.uleb128 0x15
 1697 00f1 17       		.uleb128 0x17
 1698 00f2 01       		.byte	0x1
 1699 00f3 0B       		.uleb128 0xb
 1700 00f4 0B       		.uleb128 0xb
 1701 00f5 3A       		.uleb128 0x3a
 1702 00f6 0B       		.uleb128 0xb
 1703 00f7 3B       		.uleb128 0x3b
ARM GAS  /tmp/ccWgxlfU.s 			page 44


 1704 00f8 0B       		.uleb128 0xb
 1705 00f9 01       		.uleb128 0x1
 1706 00fa 13       		.uleb128 0x13
 1707 00fb 00       		.byte	0
 1708 00fc 00       		.byte	0
 1709 00fd 16       		.uleb128 0x16
 1710 00fe 0D       		.uleb128 0xd
 1711 00ff 00       		.byte	0
 1712 0100 03       		.uleb128 0x3
 1713 0101 0E       		.uleb128 0xe
 1714 0102 3A       		.uleb128 0x3a
 1715 0103 0B       		.uleb128 0xb
 1716 0104 3B       		.uleb128 0x3b
 1717 0105 0B       		.uleb128 0xb
 1718 0106 49       		.uleb128 0x49
 1719 0107 13       		.uleb128 0x13
 1720 0108 00       		.byte	0
 1721 0109 00       		.byte	0
 1722 010a 17       		.uleb128 0x17
 1723 010b 0D       		.uleb128 0xd
 1724 010c 00       		.byte	0
 1725 010d 03       		.uleb128 0x3
 1726 010e 0E       		.uleb128 0xe
 1727 010f 3A       		.uleb128 0x3a
 1728 0110 0B       		.uleb128 0xb
 1729 0111 3B       		.uleb128 0x3b
 1730 0112 05       		.uleb128 0x5
 1731 0113 49       		.uleb128 0x49
 1732 0114 13       		.uleb128 0x13
 1733 0115 00       		.byte	0
 1734 0116 00       		.byte	0
 1735 0117 18       		.uleb128 0x18
 1736 0118 26       		.uleb128 0x26
 1737 0119 00       		.byte	0
 1738 011a 49       		.uleb128 0x49
 1739 011b 13       		.uleb128 0x13
 1740 011c 00       		.byte	0
 1741 011d 00       		.byte	0
 1742 011e 19       		.uleb128 0x19
 1743 011f 2E       		.uleb128 0x2e
 1744 0120 01       		.byte	0x1
 1745 0121 03       		.uleb128 0x3
 1746 0122 0E       		.uleb128 0xe
 1747 0123 3A       		.uleb128 0x3a
 1748 0124 0B       		.uleb128 0xb
 1749 0125 3B       		.uleb128 0x3b
 1750 0126 0B       		.uleb128 0xb
 1751 0127 27       		.uleb128 0x27
 1752 0128 19       		.uleb128 0x19
 1753 0129 20       		.uleb128 0x20
 1754 012a 0B       		.uleb128 0xb
 1755 012b 01       		.uleb128 0x1
 1756 012c 13       		.uleb128 0x13
 1757 012d 00       		.byte	0
 1758 012e 00       		.byte	0
 1759 012f 1A       		.uleb128 0x1a
 1760 0130 05       		.uleb128 0x5
ARM GAS  /tmp/ccWgxlfU.s 			page 45


 1761 0131 00       		.byte	0
 1762 0132 03       		.uleb128 0x3
 1763 0133 0E       		.uleb128 0xe
 1764 0134 3A       		.uleb128 0x3a
 1765 0135 0B       		.uleb128 0xb
 1766 0136 3B       		.uleb128 0x3b
 1767 0137 0B       		.uleb128 0xb
 1768 0138 49       		.uleb128 0x49
 1769 0139 13       		.uleb128 0x13
 1770 013a 00       		.byte	0
 1771 013b 00       		.byte	0
 1772 013c 1B       		.uleb128 0x1b
 1773 013d 2E       		.uleb128 0x2e
 1774 013e 00       		.byte	0
 1775 013f 03       		.uleb128 0x3
 1776 0140 0E       		.uleb128 0xe
 1777 0141 3A       		.uleb128 0x3a
 1778 0142 0B       		.uleb128 0xb
 1779 0143 3B       		.uleb128 0x3b
 1780 0144 0B       		.uleb128 0xb
 1781 0145 27       		.uleb128 0x27
 1782 0146 19       		.uleb128 0x19
 1783 0147 20       		.uleb128 0x20
 1784 0148 0B       		.uleb128 0xb
 1785 0149 00       		.byte	0
 1786 014a 00       		.byte	0
 1787 014b 1C       		.uleb128 0x1c
 1788 014c 2E       		.uleb128 0x2e
 1789 014d 00       		.byte	0
 1790 014e 03       		.uleb128 0x3
 1791 014f 0E       		.uleb128 0xe
 1792 0150 3A       		.uleb128 0x3a
 1793 0151 0B       		.uleb128 0xb
 1794 0152 3B       		.uleb128 0x3b
 1795 0153 0B       		.uleb128 0xb
 1796 0154 27       		.uleb128 0x27
 1797 0155 19       		.uleb128 0x19
 1798 0156 49       		.uleb128 0x49
 1799 0157 13       		.uleb128 0x13
 1800 0158 20       		.uleb128 0x20
 1801 0159 0B       		.uleb128 0xb
 1802 015a 00       		.byte	0
 1803 015b 00       		.byte	0
 1804 015c 1D       		.uleb128 0x1d
 1805 015d 2E       		.uleb128 0x2e
 1806 015e 01       		.byte	0x1
 1807 015f 3F       		.uleb128 0x3f
 1808 0160 19       		.uleb128 0x19
 1809 0161 03       		.uleb128 0x3
 1810 0162 0E       		.uleb128 0xe
 1811 0163 3A       		.uleb128 0x3a
 1812 0164 0B       		.uleb128 0xb
 1813 0165 3B       		.uleb128 0x3b
 1814 0166 0B       		.uleb128 0xb
 1815 0167 27       		.uleb128 0x27
 1816 0168 19       		.uleb128 0x19
 1817 0169 11       		.uleb128 0x11
ARM GAS  /tmp/ccWgxlfU.s 			page 46


 1818 016a 01       		.uleb128 0x1
 1819 016b 12       		.uleb128 0x12
 1820 016c 06       		.uleb128 0x6
 1821 016d 40       		.uleb128 0x40
 1822 016e 18       		.uleb128 0x18
 1823 016f 9742     		.uleb128 0x2117
 1824 0171 19       		.uleb128 0x19
 1825 0172 01       		.uleb128 0x1
 1826 0173 13       		.uleb128 0x13
 1827 0174 00       		.byte	0
 1828 0175 00       		.byte	0
 1829 0176 1E       		.uleb128 0x1e
 1830 0177 898201   		.uleb128 0x4109
 1831 017a 00       		.byte	0
 1832 017b 11       		.uleb128 0x11
 1833 017c 01       		.uleb128 0x1
 1834 017d 9542     		.uleb128 0x2115
 1835 017f 19       		.uleb128 0x19
 1836 0180 31       		.uleb128 0x31
 1837 0181 13       		.uleb128 0x13
 1838 0182 00       		.byte	0
 1839 0183 00       		.byte	0
 1840 0184 1F       		.uleb128 0x1f
 1841 0185 05       		.uleb128 0x5
 1842 0186 00       		.byte	0
 1843 0187 03       		.uleb128 0x3
 1844 0188 0E       		.uleb128 0xe
 1845 0189 3A       		.uleb128 0x3a
 1846 018a 0B       		.uleb128 0xb
 1847 018b 3B       		.uleb128 0x3b
 1848 018c 0B       		.uleb128 0xb
 1849 018d 49       		.uleb128 0x49
 1850 018e 13       		.uleb128 0x13
 1851 018f 02       		.uleb128 0x2
 1852 0190 18       		.uleb128 0x18
 1853 0191 00       		.byte	0
 1854 0192 00       		.byte	0
 1855 0193 20       		.uleb128 0x20
 1856 0194 34       		.uleb128 0x34
 1857 0195 00       		.byte	0
 1858 0196 03       		.uleb128 0x3
 1859 0197 0E       		.uleb128 0xe
 1860 0198 49       		.uleb128 0x49
 1861 0199 13       		.uleb128 0x13
 1862 019a 34       		.uleb128 0x34
 1863 019b 19       		.uleb128 0x19
 1864 019c 00       		.byte	0
 1865 019d 00       		.byte	0
 1866 019e 21       		.uleb128 0x21
 1867 019f 1D       		.uleb128 0x1d
 1868 01a0 01       		.byte	0x1
 1869 01a1 31       		.uleb128 0x31
 1870 01a2 13       		.uleb128 0x13
 1871 01a3 11       		.uleb128 0x11
 1872 01a4 01       		.uleb128 0x1
 1873 01a5 12       		.uleb128 0x12
 1874 01a6 06       		.uleb128 0x6
ARM GAS  /tmp/ccWgxlfU.s 			page 47


 1875 01a7 58       		.uleb128 0x58
 1876 01a8 0B       		.uleb128 0xb
 1877 01a9 59       		.uleb128 0x59
 1878 01aa 0B       		.uleb128 0xb
 1879 01ab 00       		.byte	0
 1880 01ac 00       		.byte	0
 1881 01ad 22       		.uleb128 0x22
 1882 01ae 05       		.uleb128 0x5
 1883 01af 00       		.byte	0
 1884 01b0 31       		.uleb128 0x31
 1885 01b1 13       		.uleb128 0x13
 1886 01b2 02       		.uleb128 0x2
 1887 01b3 18       		.uleb128 0x18
 1888 01b4 00       		.byte	0
 1889 01b5 00       		.byte	0
 1890 01b6 23       		.uleb128 0x23
 1891 01b7 1D       		.uleb128 0x1d
 1892 01b8 00       		.byte	0
 1893 01b9 31       		.uleb128 0x31
 1894 01ba 13       		.uleb128 0x13
 1895 01bb 11       		.uleb128 0x11
 1896 01bc 01       		.uleb128 0x1
 1897 01bd 12       		.uleb128 0x12
 1898 01be 06       		.uleb128 0x6
 1899 01bf 58       		.uleb128 0x58
 1900 01c0 0B       		.uleb128 0xb
 1901 01c1 59       		.uleb128 0x59
 1902 01c2 0B       		.uleb128 0xb
 1903 01c3 00       		.byte	0
 1904 01c4 00       		.byte	0
 1905 01c5 24       		.uleb128 0x24
 1906 01c6 2E       		.uleb128 0x2e
 1907 01c7 01       		.byte	0x1
 1908 01c8 3F       		.uleb128 0x3f
 1909 01c9 19       		.uleb128 0x19
 1910 01ca 03       		.uleb128 0x3
 1911 01cb 0E       		.uleb128 0xe
 1912 01cc 3A       		.uleb128 0x3a
 1913 01cd 0B       		.uleb128 0xb
 1914 01ce 3B       		.uleb128 0x3b
 1915 01cf 0B       		.uleb128 0xb
 1916 01d0 27       		.uleb128 0x27
 1917 01d1 19       		.uleb128 0x19
 1918 01d2 49       		.uleb128 0x49
 1919 01d3 13       		.uleb128 0x13
 1920 01d4 11       		.uleb128 0x11
 1921 01d5 01       		.uleb128 0x1
 1922 01d6 12       		.uleb128 0x12
 1923 01d7 06       		.uleb128 0x6
 1924 01d8 40       		.uleb128 0x40
 1925 01d9 18       		.uleb128 0x18
 1926 01da 9742     		.uleb128 0x2117
 1927 01dc 19       		.uleb128 0x19
 1928 01dd 01       		.uleb128 0x1
 1929 01de 13       		.uleb128 0x13
 1930 01df 00       		.byte	0
 1931 01e0 00       		.byte	0
ARM GAS  /tmp/ccWgxlfU.s 			page 48


 1932 01e1 25       		.uleb128 0x25
 1933 01e2 34       		.uleb128 0x34
 1934 01e3 00       		.byte	0
 1935 01e4 03       		.uleb128 0x3
 1936 01e5 0E       		.uleb128 0xe
 1937 01e6 3A       		.uleb128 0x3a
 1938 01e7 0B       		.uleb128 0xb
 1939 01e8 3B       		.uleb128 0x3b
 1940 01e9 05       		.uleb128 0x5
 1941 01ea 49       		.uleb128 0x49
 1942 01eb 13       		.uleb128 0x13
 1943 01ec 3F       		.uleb128 0x3f
 1944 01ed 19       		.uleb128 0x19
 1945 01ee 3C       		.uleb128 0x3c
 1946 01ef 19       		.uleb128 0x19
 1947 01f0 00       		.byte	0
 1948 01f1 00       		.byte	0
 1949 01f2 26       		.uleb128 0x26
 1950 01f3 34       		.uleb128 0x34
 1951 01f4 00       		.byte	0
 1952 01f5 03       		.uleb128 0x3
 1953 01f6 08       		.uleb128 0x8
 1954 01f7 3A       		.uleb128 0x3a
 1955 01f8 0B       		.uleb128 0xb
 1956 01f9 3B       		.uleb128 0x3b
 1957 01fa 05       		.uleb128 0x5
 1958 01fb 49       		.uleb128 0x49
 1959 01fc 13       		.uleb128 0x13
 1960 01fd 3F       		.uleb128 0x3f
 1961 01fe 19       		.uleb128 0x19
 1962 01ff 3C       		.uleb128 0x3c
 1963 0200 19       		.uleb128 0x19
 1964 0201 00       		.byte	0
 1965 0202 00       		.byte	0
 1966 0203 27       		.uleb128 0x27
 1967 0204 2E       		.uleb128 0x2e
 1968 0205 00       		.byte	0
 1969 0206 3F       		.uleb128 0x3f
 1970 0207 19       		.uleb128 0x19
 1971 0208 03       		.uleb128 0x3
 1972 0209 0E       		.uleb128 0xe
 1973 020a 3A       		.uleb128 0x3a
 1974 020b 0B       		.uleb128 0xb
 1975 020c 3B       		.uleb128 0x3b
 1976 020d 0B       		.uleb128 0xb
 1977 020e 27       		.uleb128 0x27
 1978 020f 19       		.uleb128 0x19
 1979 0210 3C       		.uleb128 0x3c
 1980 0211 19       		.uleb128 0x19
 1981 0212 00       		.byte	0
 1982 0213 00       		.byte	0
 1983 0214 00       		.byte	0
 1984              		.section	.debug_aranges,"",%progbits
 1985 0000 3C000000 		.4byte	0x3c
 1986 0004 0200     		.2byte	0x2
 1987 0006 00000000 		.4byte	.Ldebug_info0
 1988 000a 04       		.byte	0x4
ARM GAS  /tmp/ccWgxlfU.s 			page 49


 1989 000b 00       		.byte	0
 1990 000c 0000     		.2byte	0
 1991 000e 0000     		.2byte	0
 1992 0010 00000000 		.4byte	.LFB217
 1993 0014 04000000 		.4byte	.LFE217-.LFB217
 1994 0018 00000000 		.4byte	.LFB218
 1995 001c 10000000 		.4byte	.LFE218-.LFB218
 1996 0020 00000000 		.4byte	.LFB219
 1997 0024 0A000000 		.4byte	.LFE219-.LFB219
 1998 0028 00000000 		.4byte	.LFB220
 1999 002c 08000000 		.4byte	.LFE220-.LFB220
 2000 0030 00000000 		.4byte	.LFB221
 2001 0034 0A000000 		.4byte	.LFE221-.LFB221
 2002 0038 00000000 		.4byte	0
 2003 003c 00000000 		.4byte	0
 2004              		.section	.debug_ranges,"",%progbits
 2005              	.Ldebug_ranges0:
 2006 0000 00000000 		.4byte	.LFB217
 2007 0004 04000000 		.4byte	.LFE217
 2008 0008 00000000 		.4byte	.LFB218
 2009 000c 10000000 		.4byte	.LFE218
 2010 0010 00000000 		.4byte	.LFB219
 2011 0014 0A000000 		.4byte	.LFE219
 2012 0018 00000000 		.4byte	.LFB220
 2013 001c 08000000 		.4byte	.LFE220
 2014 0020 00000000 		.4byte	.LFB221
 2015 0024 0A000000 		.4byte	.LFE221
 2016 0028 00000000 		.4byte	0
 2017 002c 00000000 		.4byte	0
 2018              		.section	.debug_line,"",%progbits
 2019              	.Ldebug_line0:
 2020 0000 4F020000 		.section	.debug_str,"MS",%progbits,1
 2020      0200D601 
 2020      00000201 
 2020      FB0E0D00 
 2020      01010101 
 2021              	.LASF47:
 2022 0000 72656164 		.ascii	"ready_list_t\000"
 2022      795F6C69 
 2022      73745F74 
 2022      00
 2023              	.LASF72:
 2024 000d 44494552 		.ascii	"DIER\000"
 2024      00
 2025              	.LASF86:
 2026 0012 77747472 		.ascii	"wttrp\000"
 2026      7000
 2027              	.LASF43:
 2028 0018 6E657874 		.ascii	"next\000"
 2028      00
 2029              	.LASF53:
 2030 001d 64656C74 		.ascii	"delta\000"
 2030      6100
 2031              	.LASF83:
 2032 0023 7264796D 		.ascii	"rdymsg\000"
 2032      736700
 2033              	.LASF12:
ARM GAS  /tmp/ccWgxlfU.s 			page 50


 2034 002a 75696E74 		.ascii	"uint64_t\000"
 2034      36345F74 
 2034      00
 2035              	.LASF46:
 2036 0033 70726576 		.ascii	"prev\000"
 2036      00
 2037              	.LASF70:
 2038 0038 706F7274 		.ascii	"port_intctx\000"
 2038      5F696E74 
 2038      63747800 
 2039              	.LASF58:
 2040 0044 73797374 		.ascii	"system_debug_t\000"
 2040      656D5F64 
 2040      65627567 
 2040      5F7400
 2041              	.LASF13:
 2042 0053 6C6F6E67 		.ascii	"long long unsigned int\000"
 2042      206C6F6E 
 2042      6720756E 
 2042      7369676E 
 2042      65642069 
 2043              	.LASF84:
 2044 006a 65786974 		.ascii	"exitcode\000"
 2044      636F6465 
 2044      00
 2045              	.LASF65:
 2046 0073 6D61696E 		.ascii	"mainthread\000"
 2046      74687265 
 2046      616400
 2047              	.LASF87:
 2048 007e 73656E74 		.ascii	"sentmsg\000"
 2048      6D736700 
 2049              	.LASF55:
 2050 0086 76697274 		.ascii	"virtual_timers_list_t\000"
 2050      75616C5F 
 2050      74696D65 
 2050      72735F6C 
 2050      6973745F 
 2051              	.LASF108:
 2052 009c 49544D5F 		.ascii	"ITM_RxBuffer\000"
 2052      52784275 
 2052      66666572 
 2052      00
 2053              	.LASF115:
 2054 00a9 73745F6C 		.ascii	"st_lld_init\000"
 2054      6C645F69 
 2054      6E697400 
 2055              	.LASF76:
 2056 00b5 42445452 		.ascii	"BDTR\000"
 2056      00
 2057              	.LASF45:
 2058 00ba 63685F74 		.ascii	"ch_threads_queue\000"
 2058      68726561 
 2058      64735F71 
 2058      75657565 
 2058      00
 2059              	.LASF73:
ARM GAS  /tmp/ccWgxlfU.s 			page 51


 2060 00cb 43434D52 		.ascii	"CCMR1\000"
 2060      3100
 2061              	.LASF74:
 2062 00d1 43434D52 		.ascii	"CCMR2\000"
 2062      3200
 2063              	.LASF78:
 2064 00d7 43434D52 		.ascii	"CCMR3\000"
 2064      3300
 2065              	.LASF1:
 2066 00dd 7369676E 		.ascii	"signed char\000"
 2066      65642063 
 2066      68617200 
 2067              	.LASF105:
 2068 00e9 5F5F6675 		.ascii	"__func__.6624\000"
 2068      6E635F5F 
 2068      2E363632 
 2068      3400
 2069              	.LASF64:
 2070 00f7 76746C69 		.ascii	"vtlist\000"
 2070      737400
 2071              	.LASF34:
 2072 00fe 6D736771 		.ascii	"msgqueue\000"
 2072      75657565 
 2072      00
 2073              	.LASF30:
 2074 0107 73746174 		.ascii	"state\000"
 2074      6500
 2075              	.LASF8:
 2076 010d 6C6F6E67 		.ascii	"long int\000"
 2076      20696E74 
 2076      00
 2077              	.LASF15:
 2078 0116 746D6F64 		.ascii	"tmode_t\000"
 2078      655F7400 
 2079              	.LASF16:
 2080 011e 74737461 		.ascii	"tstate_t\000"
 2080      74655F74 
 2080      00
 2081              	.LASF54:
 2082 0127 66756E63 		.ascii	"func\000"
 2082      00
 2083              	.LASF75:
 2084 012c 43434552 		.ascii	"CCER\000"
 2084      00
 2085              	.LASF11:
 2086 0131 6C6F6E67 		.ascii	"long long int\000"
 2086      206C6F6E 
 2086      6720696E 
 2086      7400
 2087              	.LASF5:
 2088 013f 75696E74 		.ascii	"uint16_t\000"
 2088      31365F74 
 2088      00
 2089              	.LASF67:
 2090 0148 72656761 		.ascii	"regarm_t\000"
 2090      726D5F74 
 2090      00
ARM GAS  /tmp/ccWgxlfU.s 			page 52


 2091              	.LASF100:
 2092 0151 7374496E 		.ascii	"stInit\000"
 2092      697400
 2093              	.LASF106:
 2094 0158 5F5F6675 		.ascii	"__func__.6631\000"
 2094      6E635F5F 
 2094      2E363633 
 2094      3100
 2095              	.LASF107:
 2096 0166 5F5F6675 		.ascii	"__func__.6635\000"
 2096      6E635F5F 
 2096      2E363633 
 2096      3500
 2097              	.LASF95:
 2098 0174 6D757465 		.ascii	"mutex_t\000"
 2098      785F7400 
 2099              	.LASF21:
 2100 017c 636E745F 		.ascii	"cnt_t\000"
 2100      7400
 2101              	.LASF0:
 2102 0182 756E7369 		.ascii	"unsigned int\000"
 2102      676E6564 
 2102      20696E74 
 2102      00
 2103              	.LASF88:
 2104 018f 77747365 		.ascii	"wtsemp\000"
 2104      6D7000
 2105              	.LASF10:
 2106 0196 6C6F6E67 		.ascii	"long unsigned int\000"
 2106      20756E73 
 2106      69676E65 
 2106      6420696E 
 2106      7400
 2107              	.LASF28:
 2108 01a8 6E616D65 		.ascii	"name\000"
 2108      00
 2109              	.LASF24:
 2110 01ad 71756575 		.ascii	"queue\000"
 2110      6500
 2111              	.LASF38:
 2112 01b3 6D706F6F 		.ascii	"mpool\000"
 2112      6C00
 2113              	.LASF71:
 2114 01b9 534D4352 		.ascii	"SMCR\000"
 2114      00
 2115              	.LASF41:
 2116 01be 63685F74 		.ascii	"ch_thread\000"
 2116      68726561 
 2116      6400
 2117              	.LASF19:
 2118 01c8 6D73675F 		.ascii	"msg_t\000"
 2118      7400
 2119              	.LASF35:
 2120 01ce 6570656E 		.ascii	"epending\000"
 2120      64696E67 
 2120      00
 2121              	.LASF61:
ARM GAS  /tmp/ccWgxlfU.s 			page 53


 2122 01d7 63685F73 		.ascii	"ch_system_t\000"
 2122      79737465 
 2122      6D5F7400 
 2123              	.LASF80:
 2124 01e3 73746D33 		.ascii	"stm32_tim_t\000"
 2124      325F7469 
 2124      6D5F7400 
 2125              	.LASF48:
 2126 01ef 63685F72 		.ascii	"ch_ready_list\000"
 2126      65616479 
 2126      5F6C6973 
 2126      7400
 2127              	.LASF20:
 2128 01fd 6576656E 		.ascii	"eventmask_t\000"
 2128      746D6173 
 2128      6B5F7400 
 2129              	.LASF97:
 2130 0209 73745F6C 		.ascii	"st_lld_start_alarm\000"
 2130      6C645F73 
 2130      74617274 
 2130      5F616C61 
 2130      726D00
 2131              	.LASF68:
 2132 021c 73746B61 		.ascii	"stkalign_t\000"
 2132      6C69676E 
 2132      5F7400
 2133              	.LASF26:
 2134 0227 6E657765 		.ascii	"newer\000"
 2134      7200
 2135              	.LASF37:
 2136 022d 7265616C 		.ascii	"realprio\000"
 2136      7072696F 
 2136      00
 2137              	.LASF66:
 2138 0236 73697A65 		.ascii	"sizetype\000"
 2138      74797065 
 2138      00
 2139              	.LASF39:
 2140 023f 74687265 		.ascii	"thread_reference_t\000"
 2140      61645F72 
 2140      65666572 
 2140      656E6365 
 2140      5F7400
 2141              	.LASF56:
 2142 0252 63685F76 		.ascii	"ch_virtual_timers_list\000"
 2142      69727475 
 2142      616C5F74 
 2142      696D6572 
 2142      735F6C69 
 2143              	.LASF69:
 2144 0269 706F7274 		.ascii	"port_context\000"
 2144      5F636F6E 
 2144      74657874 
 2144      00
 2145              	.LASF82:
 2146 0276 746D5F63 		.ascii	"tm_calibration_t\000"
 2146      616C6962 
ARM GAS  /tmp/ccWgxlfU.s 			page 54


 2146      72617469 
 2146      6F6E5F74 
 2146      00
 2147              	.LASF99:
 2148 0287 74696D65 		.ascii	"time\000"
 2148      00
 2149              	.LASF25:
 2150 028c 7072696F 		.ascii	"prio\000"
 2150      00
 2151              	.LASF49:
 2152 0291 63757272 		.ascii	"current\000"
 2152      656E7400 
 2153              	.LASF111:
 2154 0299 2F686F6D 		.ascii	"/home/alex/Embebidos Proyecto/ChibiOS_17.6.1/demos/"
 2154      652F616C 
 2154      65782F45 
 2154      6D626562 
 2154      69646F73 
 2155 02cc 53544D33 		.ascii	"STM32/RT-STM32F100-DISCOVERY\000"
 2155      322F5254 
 2155      2D53544D 
 2155      33324631 
 2155      30302D44 
 2156              	.LASF17:
 2157 02e9 74726566 		.ascii	"trefs_t\000"
 2157      735F7400 
 2158              	.LASF32:
 2159 02f1 72656673 		.ascii	"refs\000"
 2159      00
 2160              	.LASF51:
 2161 02f6 76697274 		.ascii	"virtual_timer_t\000"
 2161      75616C5F 
 2161      74696D65 
 2161      725F7400 
 2162              	.LASF18:
 2163 0306 74707269 		.ascii	"tprio_t\000"
 2163      6F5F7400 
 2164              	.LASF59:
 2165 030e 63685F73 		.ascii	"ch_system_debug\000"
 2165      79737465 
 2165      6D5F6465 
 2165      62756700 
 2166              	.LASF96:
 2167 031e 5F426F6F 		.ascii	"_Bool\000"
 2167      6C00
 2168              	.LASF7:
 2169 0324 696E7433 		.ascii	"int32_t\000"
 2169      325F7400 
 2170              	.LASF2:
 2171 032c 756E7369 		.ascii	"unsigned char\000"
 2171      676E6564 
 2171      20636861 
 2171      7200
 2172              	.LASF3:
 2173 033a 73686F72 		.ascii	"short int\000"
 2173      7420696E 
 2173      7400
ARM GAS  /tmp/ccWgxlfU.s 			page 55


 2174              	.LASF57:
 2175 0344 6C617374 		.ascii	"lasttime\000"
 2175      74696D65 
 2175      00
 2176              	.LASF33:
 2177 034d 77616974 		.ascii	"waiting\000"
 2177      696E6700 
 2178              	.LASF90:
 2179 0355 65776D61 		.ascii	"ewmask\000"
 2179      736B00
 2180              	.LASF62:
 2181 035c 63685F73 		.ascii	"ch_system\000"
 2181      79737465 
 2181      6D00
 2182              	.LASF4:
 2183 0366 75696E74 		.ascii	"uint8_t\000"
 2183      385F7400 
 2184              	.LASF110:
 2185 036e 2E2E2F2E 		.ascii	"../../../os/hal/src/hal_st.c\000"
 2185      2E2F2E2E 
 2185      2F6F732F 
 2185      68616C2F 
 2185      7372632F 
 2186              	.LASF52:
 2187 038b 63685F76 		.ascii	"ch_virtual_timer\000"
 2187      69727475 
 2187      616C5F74 
 2187      696D6572 
 2187      00
 2188              	.LASF113:
 2189 039c 73745F6C 		.ascii	"st_lld_get_alarm\000"
 2189      6C645F67 
 2189      65745F61 
 2189      6C61726D 
 2189      00
 2190              	.LASF91:
 2191 03ad 63685F73 		.ascii	"ch_semaphore\000"
 2191      656D6170 
 2191      686F7265 
 2191      00
 2192              	.LASF79:
 2193 03ba 43435852 		.ascii	"CCXR\000"
 2193      00
 2194              	.LASF9:
 2195 03bf 75696E74 		.ascii	"uint32_t\000"
 2195      33325F74 
 2195      00
 2196              	.LASF89:
 2197 03c8 77746D74 		.ascii	"wtmtxp\000"
 2197      787000
 2198              	.LASF42:
 2199 03cf 63685F74 		.ascii	"ch_threads_list\000"
 2199      68726561 
 2199      64735F6C 
 2199      69737400 
 2200              	.LASF93:
 2201 03df 6F776E65 		.ascii	"owner\000"
ARM GAS  /tmp/ccWgxlfU.s 			page 56


 2201      7200
 2202              	.LASF29:
 2203 03e5 77616261 		.ascii	"wabase\000"
 2203      736500
 2204              	.LASF102:
 2205 03ec 73745374 		.ascii	"stStopAlarm\000"
 2205      6F70416C 
 2205      61726D00 
 2206              	.LASF94:
 2207 03f8 63686172 		.ascii	"char\000"
 2207      00
 2208              	.LASF27:
 2209 03fd 6F6C6465 		.ascii	"older\000"
 2209      7200
 2210              	.LASF77:
 2211 0403 444D4152 		.ascii	"DMAR\000"
 2211      00
 2212              	.LASF23:
 2213 0408 74687265 		.ascii	"thread_t\000"
 2213      61645F74 
 2213      00
 2214              	.LASF22:
 2215 0411 73797374 		.ascii	"systime_t\000"
 2215      696D655F 
 2215      7400
 2216              	.LASF50:
 2217 041b 76746675 		.ascii	"vtfunc_t\000"
 2217      6E635F74 
 2217      00
 2218              	.LASF60:
 2219 0424 70616E69 		.ascii	"panic_msg\000"
 2219      635F6D73 
 2219      6700
 2220              	.LASF81:
 2221 042e 6F666673 		.ascii	"offset\000"
 2221      657400
 2222              	.LASF101:
 2223 0435 73745374 		.ascii	"stStartAlarm\000"
 2223      61727441 
 2223      6C61726D 
 2223      00
 2224              	.LASF6:
 2225 0442 73686F72 		.ascii	"short unsigned int\000"
 2225      7420756E 
 2225      7369676E 
 2225      65642069 
 2225      6E7400
 2226              	.LASF14:
 2227 0455 7274636E 		.ascii	"rtcnt_t\000"
 2227      745F7400 
 2228              	.LASF112:
 2229 045d 73745F6C 		.ascii	"st_lld_stop_alarm\000"
 2229      6C645F73 
 2229      746F705F 
 2229      616C6172 
 2229      6D00
 2230              	.LASF109:
ARM GAS  /tmp/ccWgxlfU.s 			page 57


 2231 046f 474E5520 		.ascii	"GNU C 4.8.1 -mcpu=cortex-m3 -mno-thumb-interwork -m"
 2231      4320342E 
 2231      382E3120 
 2231      2D6D6370 
 2231      753D636F 
 2232 04a2 7468756D 		.ascii	"thumb -ggdb -O2 -fomit-frame-pointer -falign-functi"
 2232      62202D67 
 2232      67646220 
 2232      2D4F3220 
 2232      2D666F6D 
 2233 04d5 6F6E733D 		.ascii	"ons=16 -ffunction-sections -fdata-sections -fno-com"
 2233      3136202D 
 2233      6666756E 
 2233      6374696F 
 2233      6E2D7365 
 2234 0508 6D6F6E20 		.ascii	"mon -flto\000"
 2234      2D666C74 
 2234      6F00
 2235              	.LASF44:
 2236 0512 74687265 		.ascii	"threads_queue_t\000"
 2236      6164735F 
 2236      71756575 
 2236      655F7400 
 2237              	.LASF92:
 2238 0522 63685F6D 		.ascii	"ch_mutex\000"
 2238      75746578 
 2238      00
 2239              	.LASF63:
 2240 052b 726C6973 		.ascii	"rlist\000"
 2240      7400
 2241              	.LASF103:
 2242 0531 73745365 		.ascii	"stSetAlarm\000"
 2242      74416C61 
 2242      726D00
 2243              	.LASF31:
 2244 053c 666C6167 		.ascii	"flags\000"
 2244      7300
 2245              	.LASF114:
 2246 0542 73744765 		.ascii	"stGetAlarm\000"
 2246      74416C61 
 2246      726D00
 2247              	.LASF85:
 2248 054d 77746F62 		.ascii	"wtobjp\000"
 2248      6A7000
 2249              	.LASF40:
 2250 0554 74687265 		.ascii	"threads_list_t\000"
 2250      6164735F 
 2250      6C697374 
 2250      5F7400
 2251              	.LASF104:
 2252 0563 61627374 		.ascii	"abstime\000"
 2252      696D6500 
 2253              	.LASF98:
 2254 056b 73745F6C 		.ascii	"st_lld_set_alarm\000"
 2254      6C645F73 
 2254      65745F61 
 2254      6C61726D 
ARM GAS  /tmp/ccWgxlfU.s 			page 58


 2254      00
 2255              	.LASF36:
 2256 057c 6D74786C 		.ascii	"mtxlist\000"
 2256      69737400 
 2257              		.comm	__gnu_lto_v1,1,1
 2258              		.ident	"GCC: (Sourcery CodeBench Lite 2013.11-24) 4.8.1"
ARM GAS  /tmp/ccWgxlfU.s 			page 59


DEFINED SYMBOLS
                            *ABS*:00000000 hal_st.c
     /tmp/ccWgxlfU.s:247    .text.stInit:00000000 $t
     /tmp/ccWgxlfU.s:253    .text.stInit:00000000 stInit
     /tmp/ccWgxlfU.s:268    .text.stStartAlarm:00000000 $t
     /tmp/ccWgxlfU.s:274    .text.stStartAlarm:00000000 stStartAlarm
     /tmp/ccWgxlfU.s:304    .text.stStopAlarm:00000000 $t
     /tmp/ccWgxlfU.s:310    .text.stStopAlarm:00000000 stStopAlarm
     /tmp/ccWgxlfU.s:330    .text.stSetAlarm:00000000 $t
     /tmp/ccWgxlfU.s:336    .text.stSetAlarm:00000000 stSetAlarm
     /tmp/ccWgxlfU.s:356    .text.stGetAlarm:00000000 $t
     /tmp/ccWgxlfU.s:362    .text.stGetAlarm:00000000 stGetAlarm
                            *COM*:00000001 __gnu_lto_v1
                     .debug_frame:00000010 $d

UNDEFINED SYMBOLS
st_lld_init
