ARM GAS  /tmp/ccDsCKUe.s 			page 1


   1              		.syntax unified
   2              		.cpu cortex-m3
   3              		.fpu softvfp
   4              		.eabi_attribute 20, 1
   5              		.eabi_attribute 21, 1
   6              		.eabi_attribute 23, 3
   7              		.eabi_attribute 24, 1
   8              		.eabi_attribute 25, 1
   9              		.eabi_attribute 26, 1
  10              		.eabi_attribute 30, 2
  11              		.eabi_attribute 34, 1
  12              		.eabi_attribute 18, 4
  13              		.thumb
  14              		.file	"hal_st_lld.c"
  15              		.text
  16              	.Ltext0:
  17              		.section	.gnu.lto_.jmpfuncs.2d72a47e3c862c26,"",%progbits
  18 0000 789C6362 		.ascii	"x\234cb`b\300\006\244\2414X\226\221\201\211)\2021\223"
  18      6062C006 
  18      A4A13458 
  18      96918189 
  18      29823193 
  19 0014 91410628 		.ascii	"\221A\006(\000fp\000E\001\031\363\001\323"
  19      00667000 
  19      450119F3 
  19      01D3
  20              		.text
  21              		.section	.gnu.lto_.inline.2d72a47e3c862c26,"",%progbits
  22 0000 789C6362 		.ascii	"x\234cb`b\300\006\254\2404P\226G\224\221\201\211\357"
  22      6062C006 
  22      ACA03450 
  22      96479491 
  22      8189EF
  23 0013 5E0003DB 		.ascii	"^\000\003\333\002y\260bF.8\301 \"\003\224\224yp\213"
  23      0279B062 
  23      462E38C1 
  23      20220394 
  23      9479708B 
  24 0027 112ECBCC 		.ascii	"\021.\313\314\003\326\305\000\000\260\004\005a"
  24      03D6C500 
  24      00B00405 
  24      61
  25              		.text
  26              		.section	.gnu.lto_.pureconst.2d72a47e3c862c26,"",%progbits
  27 0000 789C6362 		.ascii	"x\234cb`b`e\200\000&\006+F)\000\001f\000a"
  27      60626065 
  27      80002606 
  27      2B462900 
  27      01660061 
  28              		.text
  29              		.section	.gnu.lto_VectorB0.2d72a47e3c862c26,"",%progbits
  30 0000 789C8D53 		.ascii	"x\234\215S_HSQ\030\377\276s\357\3344\007\372\332\303"
  30      5F485351 
  30      18FFBE73 
  30      EFDC3407 
  30      FADAC3
  31 0013 1C421494 		.ascii	"\034B\024\224\273\251\017\275\026\366\"\270\0277\241"
ARM GAS  /tmp/ccDsCKUe.s 			page 2


  31      BBA90FBD 
  31      16F622B8 
  31      1737A1
  32 0022 9EC6F53A 		.ascii	"\236\306\365:\334\205\315\311\356\024\245\007\317\334"
  32      DC85CDC9 
  32      EE14A507 
  32      CFDC
  33 0030 1E0283C4 		.ascii	"\036\002\203\304\210\"\321\360!\243\036\222\"\"\024"
  33      8822D1F0 
  33      21A31E92 
  33      222214
  34 003f 4A7B3242 		.ascii	"J{2BE\212\010)\230/\202\364O\361\241Hm}\347^ww\035R"
  34      458A0829 
  34      982F82F4 
  34      4FF1A148 
  34      6D7DE75E 
  35 0057 7DEC3BDF 		.ascii	"}\354;\337w\276\177\347w~\347\216\001\203ri\"\235\224"
  35      77BE7FE7 
  35      777EE78E 
  35      01837269 
  35      229D94
  36 006a 007E9045 		.ascii	"\000~\220E\027 \033]\006\310x\030\223f}\300\253\344"
  36      17201B5D 
  36      06C87818 
  36      93667DC0 
  36      ABE4
  37 007c F70AF06A 		.ascii	"\367\012\360j\011e+,#\012\007\020\206\230$\343\320e"
  37      09652B2C 
  37      230A0710 
  37      869824E3 
  37      D065
  38 008e 3487CCB0 		.ascii	"4\207\314\260\371|\241\360\350\305\365\273{\370\222"
  38      F97CA1F0 
  38      E8C5F5BB 
  38      7BF892
  39 009d 7925D011 		.ascii	"y%\320\021d\261\220\270 \307\371\250\037@3\267aZ\305"
  39      64B190B8 
  39      20C7F9A8 
  39      1F4033B7 
  39      615AC5
  40 00b0 880E64C2 		.ascii	"\210\016d\302JK\360j\355\303\356:Sq\212\216\357F\351"
  40      4A4BF06A 
  40      EDC3EE3A 
  40      53718A8E 
  40      EF46E9
  41 00c3 343CE439 		.ascii	"4<\3449\324\021\307\341\016\031v\211\026\211\223\310"
  41      D411C7E1 
  41      0E197689 
  41      168993C8 
  42 00d3 60BAE681 		.ascii	"`\272\346\201\235X\304\277\004\331\271\354\006\026\333"
  42      9D58C4BF 
  42      04D9B9EC 
  42      0616DB
  43 00e2 659A20CA 		.ascii	"e\232 \312\314\233.B\356K\306k\247\314\270S:h\332\254"
  43      CC9B2E42 
  43      EE4BC66B 
  43      A7CCB853 
ARM GAS  /tmp/ccDsCKUe.s 			page 3


  43      3A68DAAC 
  44 00f6 4F4078FE 		.ascii	"O@x\376sw\373\000\202y~\206\207\376\023\201\210\230"
  44      7377FB00 
  44      82797E86 
  44      87FE1381 
  44      8898
  45 0108 EE6B18F6 		.ascii	"\356k\030\366\000\324\303\024\347c\371O\017\226\026"
  45      00D4C314 
  45      E763F94F 
  45      0F9616
  46 0117 702CCB17 		.ascii	"p,\313\027yn\276P\300:\035e\006](8\020\015.\277i*\344"
  46      796EBE50 
  46      C03A1D65 
  46      065D2838 
  46      100D2EBF 
  47 012e C36F2162 		.ascii	"\303o!b21\005\3130\274\275\226\235>nsg9\363so\307\245"
  47      323105CB 
  47      30BCBD96 
  47      9D3E6E73 
  47      6739F373 
  48 0145 532A4E63 		.ascii	"S*Nc\275M,\377\276\262 \331\005;7\027\275\015\245\335"
  48      BD4D2CFF 
  48      BEB220D9 
  48      053B3717 
  48      BD0DA5DD 
  49 0159 AD91DAC7 		.ascii	"\255\221\332\307.{\373fo\2076\326-5\024`\030\251D*\223"
  49      2E7BFB66 
  49      6F8736D6 
  49      2D351460 
  49      18A9442A 
  50 016e BAC07C57 		.ascii	"\272\300|W\204\217\024\"\366$\353c\361\301W\234\340"
  50      848F1422 
  50      F624EB63 
  50      F1C1579C 
  50      E0
  51 017f B7CFEBE8 		.ascii	"\267\317\353\350>\004\261\224\337:\310{\254K\254@vk"
  51      3E04B194 
  51      DF3AC87B 
  51      AC4BAC40 
  51      766B
  52 0191 EFDEC6B5 		.ascii	"\357\336\306\265\206r\360#\373Yw\351\370\012\253\372"
  52      8672F023 
  52      FB5977E9 
  52      F80AABFA 
  53 01a1 0AFCE257 		.ascii	"\012\374\342Wy\215\216\225\032\272U|j\301\320\261\252"
  53      798D8E95 
  53      1ABA557C 
  53      6AC1D0B1 
  53      AA
  54 01b2 9CD0CDE5 		.ascii	"\234\320\315\345rBU\274o^\340\237\214\302\337\030\375"
  54      724255BC 
  54      6F5EE09F 
  54      8CC2DF18 
  54      FD
  55 01c3 3C21187D 		.ascii	"<!\030}\346dt\356\335\272\223\321o^\305\301\350d\355"
  55      E66474EE 
  55      DDBA93D1 
ARM GAS  /tmp/ccDsCKUe.s 			page 4


  55      6F5EC5C1 
  55      E864ED
  56 01d6 AA83D1FD 		.ascii	"\252\203\321\375\033\216+yH+I\253H\217\035\301\250\212"
  56      1B8E2B79 
  56      482B49AB 
  56      488F1DC1 
  56      A88A
  57 01e8 33E4D890 		.ascii	"3\344\330\220\212\014\252\370\004}\316\217R6\377\030"
  57      8A0CAAF8 
  57      047DCE8F 
  57      5236FF18 
  58 01f8 C463FE77 		.ascii	"\304c\376w\2675\3730O\325`s\264\012\231|\341d\261\310"
  58      B735FB30 
  58      4FD56073 
  58      B40A997C 
  58      E164B1C8 
  59 020c 92303D2D 		.ascii	"\2220=-\015\020\263\233\003\001\305\372%\015%\246\306"
  59      0D10B39B 
  59      0301C5FA 
  59      250D25A6 
  59      C6
  60 021d 95DE642A 		.ascii	"\225\336d*m(\241p\260\271Iik\273\250\204[\203\375\215"
  60      6D28A170 
  60      B0B94969 
  60      6BBBA884 
  60      5B83FD8D 
  61 0231 221331D2 		.ascii	"\"\0231\322\221x\274+\240A\203\263GK&\022\311\236\203"
  61      9178BC2B 
  61      A04183B3 
  61      474B2612 
  61      C99E83
  62 0244 B60BEDC1 		.ascii	"\266\013\355\301\226\340\200\242\305\264d*\032\351?"
  62      96E080A2 
  62      C5B4642A 
  62      1AE93F
  63 0253 9708C4C0 		.ascii	"\227\010\304\300\325\257\306\373\242\215G\364D\007\322"
  63      D5AFC6FB 
  63      A28D47F4 
  63      4407D2
  64 0262 4A4B30D4 		.ascii	"JK0\324\032R\364\036-\336\327\025U\264\204\241\033\221"
  64      1A52F41E 
  64      2DDED715 
  64      55B484A1 
  64      1B91
  65 0274 6E4DA3BE 		.ascii	"nM\243\276:gG*]\252\211\031\203Fy^ O\032\264P\241\260"
  65      3A67472A 
  65      5DAA8919 
  65      8346795E 
  65      204F1AB4 
  66 028b 94AF0986 		.ascii	"\224\257\011\206\332\375\235\252\021\355M\351g\374'"
  66      DAFD9DAA 
  66      11ED4DE9 
  66      67FC27
  67 029a CE024B81 		.ascii	"\316\002K\201;\021M$S\203\360\007h\2222f"
  67      3B114D24 
  67      5383F007 
  67      68923266 
ARM GAS  /tmp/ccDsCKUe.s 			page 5


  68              		.text
  69              		.section	.gnu.lto_st_lld_init.2d72a47e3c862c26,"",%progbits
  70 0000 789C95D3 		.ascii	"x\234\225\3231O\302@\024\000\340\367\356(\0244F\335"
  70      314FC240 
  70      1400E0F7 
  70      EE281434 
  70      46DD
  71 0012 340EAEC6 		.ascii	"4\016\256\306H\243\304\331\305\205\004&k\"\023AL\220"
  71      48A3C4D9 
  71      C5850426 
  71      6B221341 
  71      4C90
  72 0024 840423C4 		.ascii	"\204\004#\304\305\201#b\302\340@\234\210:\350\012\006"
  72      C5812362 
  72      C2E0409C 
  72      883AE80A 
  72      06
  73 0035 365337C2 		.ascii	"6S7\302\346\000\306\315\270\310\250\377\200\270\340"
  73      E600C6CD 
  73      B8C8A8FF 
  73      80B8E0
  74 0044 5DAFA502 		.ascii	"]\257\245\002\206\244\227\366]\333\273\367\365\265\275"
  74      86A497F6 
  74      5DDBBBF7 
  74      F5B5BD
  75 0053 122030DE 		.ascii	"\022 0\336\226\304\356\001\330\346=R@R\351\002\024U"
  75      96C4EE01 
  75      D8E63D52 
  75      4052E902 
  75      1455
  76 0065 82280E00 		.ascii	"\202(\016\000\241@\260\020Csn\223\264z\203A\343\351"
  76      A140B010 
  76      43736E93 
  76      B47A8341 
  76      E3E9
  77 0077 FAEE0ABB 		.ascii	"\372\356\012\273d\201@\032\201\212\240\210\340\025\201"
  77      6481401A 
  77      818AA088 
  77      E01581
  78 0086 37054A8C 		.ascii	"7\005J\214UV\001\222\346\251\316\243\240\366\221\210"
  78      55560192 
  78      E6A9CEA3 
  78      A0F69188 
  79 0096 9E76A0FD 		.ascii	"\236v\240\375a\324\226\023\370\200\012\244\220\254C"
  79      61D49613 
  79      F8800AA4 
  79      90AC43
  80 00a5 8D958AF3 		.ascii	"\215\225\212\363i\304[\270\3014\222\003\036(\273/3\017"
  80      69C45BB8 
  80      C1349203 
  80      1E28BB2F 
  80      330F
  81 00b7 9887E6AD 		.ascii	"\230\207\346\255\017\321.\270\003\027\317\324\316\246"
  81      0FD12EB8 
  81      0317CFD4 
  81      CEA6
  82 00c5 29391FD0 		.ascii	")9\037\320\034i\207\345\200;3%\316EY\345:\261ae\234"
ARM GAS  /tmp/ccDsCKUe.s 			page 6


  82      1C6987E5 
  82      803B3325 
  82      CE4559E5 
  82      3AB16165 
  83 00da F0883C85 		.ascii	"\360\210<\205\265*l\316$\024\213\300\377\312\362r\300"
  83      B52A6CCE 
  83      24148BC0 
  83      FFCAF272 
  83      C0
  84 00eb 2C8BCD4F 		.ascii	",\213\315O\255k:\312\0353\331\350\327\333\364/\300v"
  84      AD6B3ACA 
  84      1D33D9E8 
  84      D7DBF42F 
  84      C076
  85 00fd 868257A4 		.ascii	"\206\202W\244\371\030o\362\311|\226 ?\264\270\202\237"
  85      F9186FF2 
  85      C97C9620 
  85      3FB4B882 
  85      9F
  86 010e 8BB206A3 		.ascii	"\213\262\006\243\332p\315P\207\031\014\250\345\030\356"
  86      DA70CD50 
  86      87190CA8 
  86      E518EE
  87 011d 1D8FE380 		.ascii	"\035\217\343\200\245\274\017\225\015x\024J\214\017:"
  87      A5BC0F95 
  87      0D78144A 
  87      8C0F3A
  88 012c A03A1D54 		.ascii	"\240:\035T\206\240\177\270\224G\370\276\373\"\275\223"
  88      86A07FB8 
  88      9447F8BE 
  88      FB22BD93 
  89 013c 4AB5E95A 		.ascii	"J\265\351Z\361M*\206{Eu\024\264_\230{\305?\252\274\302"
  89      F14D2A86 
  89      7B457514 
  89      B45F987B 
  89      C53FAABC 
  90 0151 65EFE53B 		.ascii	"e\357\345; \021\200s\370ae\306Wc i\25581sfEv*\377\235"
  90      20118073 
  90      F86165C6 
  90      57632069 
  90      AD383173 
  91 016b 6701DEA0 		.ascii	"g\001\336\240\330\373Z\263Sd\323\371t\376+\2135\026"
  91      D8FB5AB3 
  91      5364D3F9 
  91      74FE2B8B 
  91      3516
  92 017d 0A0635B9 		.ascii	"\012\0065\271es\332q\"\243\235dO\3639mO\217\206\266"
  92      6573DA71 
  92      22A39D64 
  92      4FF3396D 
  92      4F8F86B6 
  93 0191 B4486457 		.ascii	"\264HdW\323\303\321\263M1\022\317\345\343\231\314Q0"
  93      D3C3D1B3 
  93      4D3112CF 
  93      E5E399CC 
  93      5130
  94 01a3 09BF57C5 		.ascii	"\011\277W\305\366\324"
ARM GAS  /tmp/ccDsCKUe.s 			page 7


  94      F6D4
  95              		.text
  96              		.section	.gnu.lto_.symbol_nodes.2d72a47e3c862c26,"",%progbits
  97 0000 789C6362 		.ascii	"x\234cb`bHd\200\002\246\233\214\365\014\014\023\316"
  97      60624864 
  97      8002A69B 
  97      8CF50C0C 
  97      13CE
  98 0012 3130D4D7 		.ascii	"10\324\327\317\353`d\272\305X\317\210\3402\336f\254"
  98      CFEB6064 
  98      BAC558CF 
  98      88E032DE 
  98      66AC
  99 0024 6782701B 		.ascii	"g\202p\033\032\030\031\3570\3263#xw\031\353Y\340<f\006"
  99      1A1819EF 
  99      30D63323 
  99      787719EB 
  99      59E03C66 
 100 0039 6686C35B 		.ascii	"f\206\303[M\230\201f/n{#\317\314\310\302p\270\375\215"
 100      4D988166 
 100      2F6E7B23 
 100      CFCCC8C2 
 100      70B8FD8D 
 101 004d 3C0300C6 		.ascii	"<\003\000\306\025\035&"
 101      151D26
 102              		.text
 103              		.section	.gnu.lto_.refs.2d72a47e3c862c26,"",%progbits
 104 0000 789C6362 		.ascii	"x\234cb`b`d\200\002\000\000F\000\006"
 104      60626064 
 104      80020000 
 104      460006
 105              		.text
 106              		.section	.gnu.lto_.decls.2d72a47e3c862c26,"",%progbits
 107 0000 789C9D57 		.ascii	"x\234\235W{l\024\307\031\237\331\363\2636\216\343<\344"
 107      7B6C14C7 
 107      199FD9F3 
 107      B3368EE3 
 107      3CE4
 108 0012 F41F8CD4 		.ascii	"\364\037\214\324TQ*8?\2444j\253\010\373\356\260-q`\355"
 108      54512A38 
 108      3FA4346A 
 108      AB08FBEE 
 108      B02D7160 
 109 0027 9908A952 		.ascii	"\231\010\251R\267\313y\211O\275\007\275;S\363\027\353"
 109      B7CB7989 
 109      4FBD07BD 
 109      3B53F317 
 109      EB
 110 0038 98109234 		.ascii	"\230\020\2224\265c\342\326<\344\232\024S\214R\227\247"
 110      B563E2D6 
 110      3CE49A14 
 110      538C5297 
 110      A7
 111 0049 4DC02407 		.ascii	"M\300$\007(\201\010E\024\007Rd\242\366D\243@H\223\230"
 111      28810845 
 111      14075264 
 111      A2F644A3 
ARM GAS  /tmp/ccDsCKUe.s 			page 8


 111      40489398 
 112 005d 140C2181 		.ascii	"\024\014!\201\3537\263{\347\231\365\356\261\227\225"
 112      EB37B37B 
 112      E799F5EE 
 112      B19795
 113 006c BF6FE776 		.ascii	"\277o\347vg~\277\337|\337\354x>\001\011\310\215\021"
 113      677EBFDF 
 113      7CDFEC78 
 113      3E0109C8 
 113      8D11
 114 007e 4AC115AD 		.ascii	"J\301\025\255D\350\244\003!\370C\317\200\301c\264\003"
 114      44E8A403 
 114      21F843CF 
 114      80C163B4 
 114      03
 115 008f 69573ED8 		.ascii	"iW>\3300\330\010\330\233`\243`{\321\334\213\364)\001"
 115      30D808D8 
 115      9B60A360 
 115      7BD1DC8B 
 115      F42901
 116 00a2 2B043B04 		.ascii	"+\004;\0046\006\366\231\216S\006V\012v\015\354K\260"
 116      3606F699 
 116      8E530656 
 116      0A760DEC 
 116      4BB0
 117 00b4 69B05D3A 		.ascii	"i\260]:\317I\260y\372\370\353`7\300n\201\335\001\273"
 117      CF49B079 
 117      FAF8EB60 
 117      37C06E81 
 117      DD01BB
 118 00c7 0B568035 		.ascii	"\013V\2005\316b\270\227\202=\000V\2015-\306kD\307Jk"
 118      CE62B897 
 118      823D0056 
 118      81352DC6 
 118      6B44C74A 
 119 00dc 7804FAD5 		.ascii	"x\004\372\325\202\325\201\375\034\317j\372\010,\017"
 119      82D581FD 
 119      1CCF6AFA 
 119      082C0F
 120 00eb EC1758D3 		.ascii	"\354\027X\323\267\017\354\007`O\300\357\237\201\235"
 120      B70FEC07 
 120      604FC0EF 
 120      9F819D
 121 00fa 85F639B0 		.ascii	"\205\3669\260S`\027\300\216\203\035\003{\027\354(\230"
 121      536017C0 
 121      8E831D03 
 121      7B17EC28 
 121      98
 122 010b A07399C5 		.ascii	"\240s\231\305\241\030mR\325\347\325\241\215j\323i\230"
 122      A1186D52 
 122      D5E7D5A1 
 122      8D6AD369 
 122      98
 123 011c F74A2CE3 		.ascii	"\367J,\343\262bTE\033\245\305\224\366q\264SU{\223/\\"
 123      B2625445 
 123      1BA5C594 
 123      F671B453 
ARM GAS  /tmp/ccDsCKUe.s 			page 9


 123      557B932F 
 124 0131 BB2DA86A 		.ascii	"\273-\250j\221\214w\340b\200\2241z\022\215\250\360F"
 124      918C77E0 
 124      62809431 
 124      7A128DA8 
 124      F046
 125 0143 554F3C85 		.ascii	"UO<\205M\240e\\X<\347\267\214w\342'\221FD_\353\015\222"
 125      4DA0655C 
 125      583CE7B7 
 125      8C77E227 
 125      9146445F 
 126 015a D707109A 		.ascii	"\327\007\020\232\217\006\325\241d\362\303S_=\264EMl"
 126      8F06D5A1 
 126      64F2C353 
 126      5F3DB445 
 126      4D6C
 127 016c 5053A9F5 		.ascii	"PS\251\365\350Q\324\0174D\242\212\3432~\346\021S\225"
 127      E851D40F 
 127      3444A28A 
 127      E3327EE6 
 127      115395
 128 017f 047F177E 		.ascii	"\004\177\027~To\255ph\234\002\032\3068C\252]?F\303\004"
 128      546FAD70 
 128      689C021A 
 128      C63843AA 
 128      5D3F46C3 
 129 0194 4FDDAD3A 		.ascii	"O\335\255:(\032\351?\214\347\363R\377\212\005\366\201"
 129      281AE93F 
 129      8CE7F352 
 129      FF8A05F6 
 129      81
 130 01a5 A62B31DE 		.ascii	"\246+1\336w\006\253}\352w\251\224C\247\023\320\250-"
 130      7706AB7D 
 130      EA77A994 
 130      43A713D0 
 130      A82D
 131 01b7 821123C1 		.ascii	"\202\021#\301\236\271\004\311\336\344\315W\276x\021"
 131      9EB904C9 
 131      DEE4CD57 
 131      BE7811
 132 01c6 BFD63D74 		.ascii	"\277\326=tZ\235&\361Hs\\\235\303\241\201\374\315\024"
 132      5A9D26F1 
 132      48735C9D 
 132      C3A181FC 
 132      CD14
 133 01d8 64A66726 		.ascii	"d\246g&o\213zB\213^\032b\233`\016\361wS\210\211\315"
 133      6F8B7A42 
 133      8B5E1A62 
 133      9B600EF1 
 133      77538889 
 134 01ed 677106C2 		.ascii	"gq\006\302~\002\366\351\011p\3205\207\264\265\302\375"
 134      7E02F6E9 
 134      0970D035 
 134      87B4B5C2 
 134      FD
 135 01fe E0B24313 		.ascii	"\340\262C\0234e!\354 /\214.\324\356\254\013U\306o\340"
 135      346521EC 
ARM GAS  /tmp/ccDsCKUe.s 			page 10


 135      202F8C2E 
 135      D4EEAC0B 
 135      55C66FE0 
 136 0212 C76D2DB3 		.ascii	"\307m-\263\012\364\032\231Q\025\203\244\026\244\241"
 136      0AF41A99 
 136      511583A4 
 136      16A4A1
 137 0221 7E8D326B 		.ascii	"~\2152k~\374O\267\236\242k~\014W\200\324A\007/\365\276"
 137      7EFC4FB7 
 137      9EA26B7E 
 137      0C5780D4 
 137      41072FF5 
 138 0236 3044D35B 		.ascii	"0D\323[0T\033DA\325\304\346K\245j\236\366\034\231\314"
 138      30541B44 
 138      41D5C4E6 
 138      4BA56A9E 
 138      F61C99CC 
 139 024a 5CBF16A0 		.ascii	"\\\277\026\240!uCw\242\377\322\366\307\324\241\023\000"
 139      21754377 
 139      A2FFD2F6 
 139      C7D4A113 
 139      00
 140 025b 79887E76 		.ascii	"y\210~v{\250\0042\326,\002zS\273\364\016<\336\037/\225"
 140      7BA80432 
 140      D62C027A 
 140      53BBF40E 
 140      3CDE1F2F 
 141 0270 F6CA69B0 		.ascii	"\366\312i\260\321\234\301\2528\260\001\026l\277\035"
 141      D19CC1AA 
 141      38B00116 
 141      6CBF1D
 142 027f B0226B65 		.ascii	"\260\"ke[Y\260\361\234\301xe\333Y\260\011;`\345\326"
 142      5B59B0F1 
 142      9CC17865 
 142      DB59B009 
 142      3B60E5D6 
 143 0293 CA0659B0 		.ascii	"\312\006Y\260wr\006\343\225\355e\301N\332\001\253\264"
 143      777206E3 
 143      95ED65C1 
 143      4EDA01AB 
 143      B4
 144 02a4 56B69F05 		.ascii	"V\266\237\005{?g0^\331A\026\354\254\035\260*kec,\330"
 144      7B3F6730 
 144      5ED94116 
 144      ECAC1DB0 
 144      2A6B6563 
 145 02ba F99CC178 		.ascii	"\371\234\301xe\207Y\260\213v\300\236\260Vv\204\005\373"
 145      658759B0 
 145      8B76C09E 
 145      B0567684 
 145      05FB
 146 02cc 3867305E 		.ascii	"8g0^\331\004\013\226\264\003Vm\245\254+\361\366/{\345"
 146      D9040B96 
 146      B403566D 
 146      A5AC2BF1 
 146      F62F7BE5 
 147 02e0 0751AFBE 		.ascii	"\007Q\257\276\245h\250\351m\005\363K\213\355\266\303"
ARM GAS  /tmp/ccDsCKUe.s 			page 11


 147      A568A8E9 
 147      6D05F34B 
 147      8BEDB6C3 
 148 02f0 BA9B8CFF 		.ascii	"\272\233\214\377\211\037\244-\272}\252\372\366I{X\355"
 148      891FA42D 
 148      BA7DAAFA 
 148      F6497B58 
 148      ED
 149 0301 E117B55D 		.ascii	"\341\027\265]z\366\363\327\033\263{6\333\013\246\375"
 149      7AF6F3D7 
 149      1BB37B36 
 149      DB0BA6FD 
 150 0311 8971DABC 		.ascii	"\211q\332\274\012\263y\363A\374\007\033\304\253v\202"
 150      0AB379F3 
 150      41FC071B 
 150      C4AB7682 
 151 0321 B8D81A6C 		.ascii	"\270\330\032l\222\005\373\302\016X\223\365Z9\317\202"
 151      9205FBC2 
 151      0E5893F5 
 151      5A39CF82 
 152 0331 5DCF198C 		.ascii	"]\317\031\214W\366\021\0136c\007\254\305Z\331E\026\354"
 152      57F6110B 
 152      366307AC 
 152      C55AD945 
 152      16EC
 153 0343 9B9CC158 		.ascii	"\233\234\301Xe]\211\251\331\2057\264\330\260\362\026"
 153      655D89A9 
 153      D98537B4 
 153      D8B0F216 
 154 0353 F3BB2DD7 		.ascii	"\363\273-\327m\207e7\031\177\232\363\302\273b\261\360"
 154      6D876537 
 154      197F9AF3 
 154      C2BB62B1 
 154      F0
 155 0364 D8B3E56C 		.ascii	"\330\263\345l/\230v\3128mN\204\336\\i\022C\263\213\375"
 155      2F9876CA 
 155      386D4E84 
 155      DE5C6912 
 155      43B38BFD 
 156 0378 472DE323 		.ascii	"G-\343#\364 q\024/\000\177\214\372w\250?N\375I\352\337"
 156      F4207114 
 156      2F007F8C 
 156      FA77A83F 
 156      4EFD49EA 
 157 038d A5FE14F5 		.ascii	"\245\376\024\365\357S\177\206\372\017\250?K\3759\352"
 157      EF537F86 
 157      FA0FA83F 
 157      4BFD39EA 
 158 039d 3FA4FE02 		.ascii	"?\244\376\002\365S\324\177L\375\277\250OR\177\231\372"
 158      F553D47F 
 158      4CFDBFA8 
 158      4F527F99 
 158      FA
 159 03ae 4FC067AE 		.ascii	"O\300g\256\022\364\362\354\331\\;\203X\305\3563\\\222"
 159      12F4F2EC 
 159      D95C3B83 
 159      58C5EE33 
ARM GAS  /tmp/ccDsCKUe.s 			page 12


 159      5C92
 160 03c0 1E95C9D0 		.ascii	"\036\225\311\320@\231~\270O\016\253\225\225\231\030"
 160      40997EB8 
 160      4F0EAB95 
 160      959918
 161 03cf 14B171D5 		.ascii	"\024\261q\325\216$0@\220\361\347t-m\3103;\313S\222\317"
 161      8E243040 
 161      90F1E774 
 161      2D6DC833 
 161      3BCB5392 
 162 03e4 990469ED 		.ascii	"\231\004i\355t+\2053\360\345ixA\037uM_\010L\352\322"
 162      742B8533 
 162      F0E56978 
 162      411F754D 
 162      5F084CEA 
 163 03f9 BBD74099 		.ascii	"\273\327@\2316\\\037\372tzh\241>\340\313\234\327\320"
 163      365C1FFA 
 163      747A68A1 
 163      3EE0CB9C 
 163      D7D0
 164 040b 57166BA8 		.ascii	"W\026k\250\300<\244\344hl\0055\015!eNg\344`\234\230"
 164      C03CA4E4 
 164      686C0535 
 164      0D21654E 
 164      67E4609C 
 165 0420 4E1EB87C 		.ascii	"N\036\270|z\023>>\274Q\355\355J\246\326\3779Q\236>_"
 165      7A133E3E 
 165      BC51EDED 
 165      4AA6D6FF 
 165      39519E3E 
 166 0435 8FE4D929 		.ascii	"\217\344\331)\003\256\033\313\200\257\347\036\277\201"
 166      03AE1BCB 
 166      80AFE71E 
 166      BF81
 167 0443 65A6E7DF 		.ascii	"e\246\347\337\005\351\372gA\232a\302\026\303\015#\303"
 167      05E9FA67 
 167      419A61C2 
 167      16C30D23 
 167      C3
 168 0454 4D53861B 		.ascii	"MS\206\033g\276{l\016\303\007\266\030n\031\031n\233"
 168      67BE7B6C 
 168      0EC307B6 
 168      186E1919 
 168      6E9B
 169 0466 3124CE7F 		.ascii	"1$\316\177zZ\257\225\2727\011\2312$i\213\342\216\221"
 169      7A5AAF95 
 169      BA370999 
 169      3224698B 
 169      E28E91
 170 0479 E25BD349 		.ascii	"\342[\323I\034\2722\335\364\315~U}I\275\227Z\337\265"
 170      1CBA32DD 
 170      F4CD7E55 
 170      7D49BD97 
 170      5ADFB5
 171 048c 6181FD42 		.ascii	"a\201\375B\345\236Y\241b(L\266\347\263RiO8\177\347\353"
 171      E59E59A1 
 171      62284CB6 
ARM GAS  /tmp/ccDsCKUe.s 			page 13


 171      E7B35269 
 171      4F387FE7 
 172 04a1 9FC78FD0 		.ascii	"\237\307\217\320_T\230\336\271\367J{q\272&>LG\334\005"
 172      5F5498DE 
 172      B9F74A7B 
 172      71BA263E 
 172      4C47DC05 
 173 04b5 F1E6E589 		.ascii	"\361\346\345\211^\000\3513\376_WKef\306w\2153V\005\263"
 173      5E00E933 
 173      FE5F574B 
 173      6566C677 
 173      8D335605 
 174 04ca 191FB87C 		.ascii	"\031\037\270|{\300t\371\275\235o'\256\033\005\003\313"
 174      7BC074F9 
 174      BD9D6F27 
 174      AE1B0503 
 174      CB
 175 04db 8B662C89 		.ascii	"\213f,\211\303\227\315R7i\213\342%#\305\313\246\023"
 175      C397CD52 
 175      37698BE2 
 175      2523C5CB 
 175      A613
 176 04ed 99E9B939 		.ascii	"\231\351\2719w\205_\261\305\360{#\303\253\246\0147^"
 176      77855FB1 
 176      C5F07B23 
 176      C3ABA60C 
 176      375E
 177 04ff 79EF8773 		.ascii	"y\357\207s\030\356\330b\35012\364\232\206\351\340\025"
 177      18EED862 
 177      E83132F4 
 177      9A86E9E0 
 177      15
 178 0510 B330F514 		.ascii	"\2630\365\024\330\241\3503Rl\346)\314JK\007{\226\322"
 178      D8A1E833 
 178      526CE629 
 178      CC4A4B07 
 178      7B96D2
 179 0523 2BD45B5F 		.ascii	"+\324[__\015u\303r\227q\277@J\324\363\006\366\373\342"
 179      5F0D75C3 
 179      729771BF 
 179      404AD4F3 
 179      06F6FBE2 
 180 0537 10EE01C1 		.ascii	"\020\356\001\301P\242~;EKT\362\374\376%jj\352u\256D"
 180      50A27E3B 
 180      454B54F2 
 180      FCFE256A 
 180      6AEA75AE 
 181 054c 4D520964 		.ascii	"MR\011d\354\367+Q{\331\243\315\177r\006\253\342\300"
 181      ECF72B51 
 181      7BD9A3CD 
 181      7F7206AB 
 181      E2C0
 182 055e FAB8B3A5 		.ascii	"\372\270\263\245\035\260,%\352\353,\330\177s\006\343"
 182      1DB02C25 
 182      EAEB2CD8 
 182      7F7306E3 
 183 056e 957195F8 		.ascii	"\225q\225\370M;`YJT\256\022\277\2273\030\257\214\253"
ARM GAS  /tmp/ccDsCKUe.s 			page 14


 183      4D3B6059 
 183      4A54AE12 
 183      BF973318 
 183      AF8CAB
 184 0581 C45F28B4 		.ascii	"\304_(\264\001\226\245D\345*\361Ws\006\343\225q\225"
 184      0196A544 
 184      E52AF157 
 184      7306E395 
 184      7195
 185 0593 78BF1DB0 		.ascii	"x\277\035\260*ke\\%\2765g0F\231\372|b|\333\037\364\217"
 185      2A6B655C 
 185      25BE3567 
 185      304699FA 
 185      7C627CDB 
 186 05aa 40FB5730 		.ascii	"@\373W0h\007/K\225\372\326%\376\243\332\2353^\025\262"
 186      68072F4B 
 186      95FAD625 
 186      FEA3DA9D 
 186      335E15B2 
 187 05be BCD82F5E 		.ascii	"\274\330/^\306[\004r\326\335*\220\363\347v\352\007\251"
 187      C65B0472 
 187      D6DD2A90 
 187      F3E776EA 
 187      07A9
 188 05d0 1FA2FE0D 		.ascii	"\037\242\376\015\352wR\277\213\372\335\324\357\241\376"
 188      EA7752BF 
 188      8BFADDD4 
 188      EFA1FE
 189 05df 4DEA47A9 		.ascii	"M\352G\251\337+X\237]\373-\204\023-\373\205\314\331"
 189      DF2B589F 
 189      5DFB2D84 
 189      132DFB85 
 189      CCD9
 190 05f1 55DFAD48 		.ascii	"U\337\255Hu\221\231\007w\250\327v\275\304\205>\\%\343"
 190      75919907 
 190      77A8D776 
 190      BDC4853E 
 190      5C25E3
 191 0604 0374C71B 		.ascii	"\003t\307\033-4\335\361\2541\010\347\230q\307;6Iw\274"
 191      2D34DDF1 
 191      AC3108E7 
 191      9871C73B 
 191      364977BC 
 192 0618 315B3BDE 		.ascii	"1[;\336\271I>9\307\250\204\261\357\275\343MNfV\242\214"
 192      B9493E39 
 192      C7A884B1 
 192      EFBDE34D 
 192      4E6656A2 
 193 062d B709428E 		.ascii	"\267\011B\216`Y3=\306dz\234f\3720\315\326\221,\331:"
 193      6059333D 
 193      C6647A9C 
 193      66FA30CD 
 193      D6912CD9 
 194 0642 90255B47 		.ascii	"\220%[Gg\263e\030\265/\313azbv\024\372\225\263=\022"
 194      67B36518 
 194      B52FCB61 
 194      7A627614 
ARM GAS  /tmp/ccDsCKUe.s 			page 15


 194      FA95B33D 
 195 0657 529C7250 		.ascii	"R\234rP\351tz\225p<\022m\214\312k\332\003\376\230\323"
 195      E9747A95 
 195      703C126D 
 195      8CCA6BDA 
 195      03FE98D3 
 196 066b 17E988FA 		.ascii	"\027\351\210\372\225\350:\311\025iS\032\224\260\277"
 196      95E83AC9 
 196      1569531A 
 196      94B0BF
 197 067a 5D5A1A88 		.ascii	"]Z\032\210+\322\352HT\252\027\275\222\247\276\241\331"
 197      2BD2EA48 
 197      54AA17BD 
 197      92A7BEA1 
 197      D9
 198 068b 2947430B 		.ascii	")GC\013\303\221\260\262P\221W\005\234\201\260?\330\321"
 198      C391B0B2 
 198      50915705 
 198      9C81B03F 
 198      D8D1
 199 069d A63863F1 		.ascii	"\2468c\361\266@8\276\250\035\025u\300\275\256V\212\027"
 199      B64038BE 
 199      A81D1575 
 199      C0BDAE56 
 199      8A17
 200 06af 342E5B51 		.ascii	"4.[Q\345Bu\213\0269\265\277H\314\331.\007\235k\"\321"
 200      E542758B 
 200      1639B5BF 
 200      48CCD92E 
 200      079D6B22 
 201 06c4 3850B57A 		.ascii	"8P\265z\353j\235K\227\272\235\255\315\336\2655\344\215"
 201      EB6A9D4B 
 201      97BA9DAD 
 201      CDDEB535 
 201      E48D
 202 06d6 148B4BC1 		.ascii	"\024\213K\301`\333\"?*zV\361\203\256\206\352\022\355"
 202      60DB223F 
 202      2A7A56F1 
 202      83AE86EA 
 202      12ED
 203 06e8 91140807 		.ascii	"\221\024\010\007\342\013Y \177$\024\212\204u,\220\346"
 203      E20B5920 
 203      7F24148A 
 203      84752C90 
 203      E6
 204 06f9 F2763AFD 		.ascii	"\362v:\375\355\376HT\221\326\3764\0042*$\362N\012D\177"
 204      EDFE4854 
 204      91D6FE34 
 204      04322A24 
 204      F24E0A44 
 205 070e 2B296B02 		.ascii	"+)k\002\301\310s\035\312|\026 \032\317H\367\267\307"
 205      C1C8731D 
 205      CA7C1620 
 205      1ACF48F7 
 205      B7C7
 206 0720 D6C5C810 		.ascii	"\326\305\310\020\177\273o]\2545\020R\242Mr\270-\250"
 206      7FBB6F5D 
ARM GAS  /tmp/ccDsCKUe.s 			page 16


 206      AC351052 
 206      A24D72B8 
 206      2DA8
 207 0732 449B7F62 		.ascii	"D\233\177b.^g\327y\303k\003~\030^N\356\236\260\274*"
 207      2E5E67D7 
 207      79C36B03 
 207      7E185E4E 
 207      EE9EB0BC 
 208 0747 A868F26B 		.ascii	"\250h\362k\355\315<\026\017\221p\005\210\352\222\314"
 208      EDCD3C16 
 208      0F917005 
 208      88EA92CC 
 209 0757 0F29EE70 		.ascii	"\017)\356p\2115`\265y>\257K\314s7{D\301':<\215b\276"
 209      893560B5 
 209      793EAF4B 
 209      CC73377B 
 209      44C1273A 
 210 076f CBE5156B 		.ascii	"\313\345\025k\250\257\315s\271<\242\303\265\254\325"
 210      A8AFCD73 
 210      B93CA2C3 
 210      B5ACD5
 211 077e D1E27339 		.ascii	"\321\342s9\352E\321!\272\3407\014hp\267\212\0167\031"
 211      EA45D121 
 211      BAE0370C 
 211      6870B78A 
 211      0E3719
 212 0791 E9AD1785 		.ascii	"\351\255\027\205\345\332\250:\350\277R\314\363\267\313"
 212      E5DAA83A 
 212      E8BF52CC 
 212      F3B7CB
 213 07a0 D1F94675 		.ascii	"\321\371Fu\221\0308\010\013\271\223h\220;\304ci\304"
 213      91183808 
 213      0BB99368 
 213      903BC463 
 213      69C4
 214 07b2 FF9B25D1 		.ascii	"\377\233%\321H\250\331'\226\323\0001\017*h\214\203\360"
 214      48A8D927 
 214      96D30031 
 214      0F2A688C 
 214      83F0
 215 07c4 405A0D4F 		.ascii	"@Z\015O\244@,Z\234yTc"
 215      A4402C5A 
 215      9C795463 
 216 07d0 922FA533 		.ascii	"\222/\2453\356ty}\315\276\331\340\207b\201\230\364\234"
 216      EE74797D 
 216      CDBED9E0 
 216      87628198 
 216      F49C
 217 07e2 9F44709E 		.ascii	"\237Dp\236$\305\224\270\324P\357\363\264\210\315\363"
 217      24C594B8 
 217      D450EFF3 
 217      B488CDF3 
 218 07f2 E4E0EFE4 		.ascii	"\344\340\357\344u1\310}0\020V\362\327\312\301\016\345"
 218      7531C87D 
 218      301056F2 
 218      D7CAC10E 
 218      E5
ARM GAS  /tmp/ccDsCKUe.s 			page 17


 219 0803 21226A39 		.ascii	"!\"j9\237\243\207u\241+\302AF\031\225\312=z\230*\353"
 219      9FA38775 
 219      A12BC241 
 219      461995CA 
 219      3D7A982A 
 220 0818 0873724B 		.ascii	"\010srK\230\207Og\025\354k\3252\267\244\246\263S\313"
 220      98874F67 
 220      15EC6BD5 
 220      32B7A4A6 
 220      B353CB
 221 082b D9EA9AEA 		.ascii	"\331\352\232\352\352\316U$k\242\313%\265\256[\243\270"
 221      EACE5524 
 221      6BA2CB25 
 221      B5AE5BA3 
 221      B8
 222 083c 95D50244 		.ascii	"\225\325\002D\334\265\244\021r\320,\026\325\2674\324"
 222      DCB5A411 
 222      72D02C16 
 222      D5B734D4 
 223 084c 8ABE56DA 		.ascii	"\212\276V\332\250!\215\202\372\246\006\3172\261\220"
 223      A8218D82 
 223      FAA606CF 
 223      32B190
 224 085b BCD0EF35 		.ascii	"\274\320\3575p\207d\221\254\371\304b\321\343\363\210"
 224      70876491 
 224      ACF9C462 
 224      D1E3F388 
 225 086b CF7ADCD5 		.ascii	"\317z\334\325\371\004\244\266\314\335\320\350u\255H"
 225      F904A4B6 
 225      CCDDD0E8 
 225      75AD48
 226 087a 831734BB 		.ascii	"\203\0274\273]\313\335\236\377\003\346/\275\344"
 226      5DCBDD9E 
 226      FF03E62F 
 226      BDE4
 227              		.text
 228              		.section	.gnu.lto_.symtab.2d72a47e3c862c26,"",%progbits
 229 0000 56656374 		.ascii	"VectorB0\000\000\000\000\000\000\000\000\000\000\000"
 229      6F724230 
 229      00000000 
 229      00000000 
 229      000000
 230 0013 00A50000 		.ascii	"\000\245\000\000\000st_lld_init\000\000\000\000\000"
 230      0073745F 
 230      6C6C645F 
 230      696E6974 
 230      00000000 
 231 0028 00000000 		.ascii	"\000\000\000\000\000\000\000\251\000\000\000_port_i"
 231      000000A9 
 231      0000005F 
 231      706F7274 
 231      5F69
 232 003a 72715F65 		.ascii	"rq_epilogue\000\000\002\000\000\000\000\000\000\000"
 232      70696C6F 
 232      67756500 
 232      00020000 
 232      00000000 
ARM GAS  /tmp/ccDsCKUe.s 			page 18


 233 004f 0000AC00 		.ascii	"\000\000\254\000\000\000chSysTimerHandlerI\000\000\002"
 233      00006368 
 233      53797354 
 233      696D6572 
 233      48616E64 
 234 006a 00000000 		.ascii	"\000\000\000\000\000\000\000\000\000\256\000\000\000"
 234      00000000 
 234      00AE0000 
 234      00
 235 0077 6E766963 		.ascii	"nvicEnableVector\000\000\002\000\000\000\000\000\000"
 235      456E6162 
 235      6C655665 
 235      63746F72 
 235      00000200 
 236 0090 000000B0 		.ascii	"\000\000\000\260\000\000\000"
 236      000000
 237              		.text
 238              		.section	.gnu.lto_.opts,"",%progbits
 239 0000 272D6D63 		.ascii	"'-mcpu=cortex-m3' '-mno-thumb-interwork' '-mthumb' "
 239      70753D63 
 239      6F727465 
 239      782D6D33 
 239      2720272D 
 240 0033 272D6767 		.ascii	"'-ggdb' '-O2' '-fomit-frame-pointer' '-falign-funct"
 240      64622720 
 240      272D4F32 
 240      2720272D 
 240      666F6D69 
 241 0066 696F6E73 		.ascii	"ions=16' '-ffunction-sections' '-fdata-sections' '-"
 241      3D313627 
 241      20272D66 
 241      66756E63 
 241      74696F6E 
 242 0099 666E6F2D 		.ascii	"fno-common' '-flto'\000"
 242      636F6D6D 
 242      6F6E2720 
 242      272D666C 
 242      746F2700 
 243              		.text
 244              		.cfi_sections	.debug_frame
 245              		.section	.text.VectorB0,"ax",%progbits
 246              		.align	2
 247              		.p2align 4,,15
 248              		.global	VectorB0
 249              		.thumb
 250              		.thumb_func
 251              		.type	VectorB0, %function
 252              	VectorB0:
 253              	.LFB217:
 254              		.file 1 "../../../os/hal/ports/STM32/LLD/TIMv1/hal_st_lld.c"
 255              		.loc 1 239 0
 256              		.cfi_startproc
 257              		@ args = 0, pretend = 0, frame = 0
 258              		@ frame_needed = 0, uses_anonymous_args = 0
 259 0000 08B5     		push	{r3, lr}
 260              		.cfi_def_cfa_offset 8
 261              		.cfi_offset 3, -8
ARM GAS  /tmp/ccDsCKUe.s 			page 19


 262              		.cfi_offset 14, -4
 263              		.loc 1 246 0
 264 0002 4FF08043 		mov	r3, #1073741824
 265 0006 1A69     		ldr	r2, [r3, #16]
 266 0008 9207     		lsls	r2, r2, #30
 267 000a 09D5     		bpl	.L2
 268              		.loc 1 247 0
 269 000c 0022     		movs	r2, #0
 270 000e 1A61     		str	r2, [r3, #16]
 271              	.LVL0:
 272              	.LBB52:
 273              	.LBB53:
 274              	.LBB54:
 275              	.LBB55:
 276              	.LBB56:
 277              	.LBB57:
 278              		.file 2 "../../../os/common/ext/CMSIS/include/cmsis_gcc.h"
 279              		.loc 2 264 0
 280 0010 2023     		movs	r3, #32
 281              	@ 264 "../../../os/common/ext/CMSIS/include/cmsis_gcc.h" 1
 282 0012 83F31188 		MSR basepri, r3
 283              	@ 0 "" 2
 284              		.thumb
 285              	.LBE57:
 286              	.LBE56:
 287              	.LBE55:
 288              	.LBE54:
 289              	.LBE53:
 290              	.LBE52:
 291              	.LBB58:
 292              	.LBB59:
 293              		.file 3 "../../../os/hal/osal/rt/osal.h"
 294              		.loc 3 585 0
 295 0016 FFF7FEFF 		bl	chSysTimerHandlerI
 296              	.LVL1:
 297              	.LBE59:
 298              	.LBE58:
 299              	.LBB60:
 300              	.LBB61:
 301              	.LBB62:
 302              	.LBB63:
 303              	.LBB64:
 304              	.LBB65:
 305              		.loc 2 264 0
 306 001a 0023     		movs	r3, #0
 307              	@ 264 "../../../os/common/ext/CMSIS/include/cmsis_gcc.h" 1
 308 001c 83F31188 		MSR basepri, r3
 309              	@ 0 "" 2
 310              	.LVL2:
 311              		.thumb
 312              	.L2:
 313              	.LBE65:
 314              	.LBE64:
 315              	.LBE63:
 316              	.LBE62:
 317              	.LBE61:
 318              	.LBE60:
ARM GAS  /tmp/ccDsCKUe.s 			page 20


 319              		.loc 1 255 0
 320 0020 BDE80840 		pop	{r3, lr}
 321              		.loc 1 254 0
 322 0024 FFF7FEBF 		b	_port_irq_epilogue
 323              	.LVL3:
 324              		.cfi_endproc
 325              	.LFE217:
 326              		.size	VectorB0, .-VectorB0
 327 0028 AFF30080 		.section	.text.st_lld_init,"ax",%progbits
 327      AFF30080 
 328              		.align	2
 329              		.p2align 4,,15
 330              		.global	st_lld_init
 331              		.thumb
 332              		.thumb_func
 333              		.type	st_lld_init, %function
 334              	st_lld_init:
 335              	.LFB218:
 336              		.loc 1 267 0
 337              		.cfi_startproc
 338              		@ args = 0, pretend = 0, frame = 0
 339              		@ frame_needed = 0, uses_anonymous_args = 0
 340              		@ link register save eliminated.
 341              		.loc 1 273 0
 342 0000 4FF48053 		mov	r3, #4096
 343 0004 C4F20203 		movt	r3, 16386
 344 0008 DA69     		ldr	r2, [r3, #28]
 345              		.loc 1 267 0
 346 000a 70B4     		push	{r4, r5, r6}
 347              		.cfi_def_cfa_offset 12
 348              		.cfi_offset 4, -12
 349              		.cfi_offset 5, -8
 350              		.cfi_offset 6, -4
 351              		.loc 1 273 0
 352 000c 42F00102 		orr	r2, r2, #1
 353              		.loc 1 276 0
 354 0010 4FF40051 		mov	r1, #8192
 355              		.loc 1 273 0
 356 0014 DA61     		str	r2, [r3, #28]
 357              		.loc 1 276 0
 358 0016 CEF20401 		movt	r1, 57348
 359 001a 4868     		ldr	r0, [r1, #4]
 360              		.loc 1 279 0
 361 001c 4FF08043 		mov	r3, #1073741824
 362              		.loc 1 281 0
 363 0020 0022     		movs	r2, #0
 364              		.loc 1 285 0
 365 0022 0124     		movs	r4, #1
 366              		.loc 1 276 0
 367 0024 40F40060 		orr	r0, r0, #2048
 368              		.loc 1 279 0
 369 0028 40F65F16 		movw	r6, #2399
 370              		.loc 1 280 0
 371 002c 4FF6FF75 		movw	r5, #65535
 372              		.loc 1 276 0
 373 0030 4860     		str	r0, [r1, #4]
 374              		.loc 1 279 0
ARM GAS  /tmp/ccDsCKUe.s 			page 21


 375 0032 9E62     		str	r6, [r3, #40]
 376              		.loc 1 289 0
 377 0034 1C20     		movs	r0, #28
 378              		.loc 1 280 0
 379 0036 DD62     		str	r5, [r3, #44]
 380              		.loc 1 289 0
 381 0038 0821     		movs	r1, #8
 382              		.loc 1 281 0
 383 003a 9A61     		str	r2, [r3, #24]
 384              		.loc 1 282 0
 385 003c 5A63     		str	r2, [r3, #52]
 386              		.loc 1 283 0
 387 003e DA60     		str	r2, [r3, #12]
 388              		.loc 1 284 0
 389 0040 5A60     		str	r2, [r3, #4]
 390              		.loc 1 285 0
 391 0042 5C61     		str	r4, [r3, #20]
 392              		.loc 1 286 0
 393 0044 1C60     		str	r4, [r3]
 394              		.loc 1 304 0
 395 0046 70BC     		pop	{r4, r5, r6}
 396              		.loc 1 289 0
 397 0048 FFF7FEBF 		b	nvicEnableVector
 398              	.LVL4:
 399              		.cfi_endproc
 400              	.LFE218:
 401              		.size	st_lld_init, .-st_lld_init
 402 004c AFF30080 		.text
 403              	.Letext0:
 404              		.file 4 "/home/alex/MentorGraphics/Sourcery_CodeBench_Lite_for_ARM_EABI/arm-none-eabi/include/stdi
 405              		.file 5 "../../../os/common/ports/ARMCMx/compilers/GCC/chtypes.h"
 406              		.file 6 "../../../os/rt/include/chsystypes.h"
 407              		.file 7 "../../../os/rt/include/chschd.h"
 408              		.file 8 "../../../os/common/ext/CMSIS/ST/STM32F1xx/stm32f100xb.h"
 409              		.file 9 "../../../os/common/ports/ARMCMx/chcore.h"
 410              		.file 10 "../../../os/common/ports/ARMCMx/chcore_v7m.h"
 411              		.file 11 "../../../os/hal/ports/STM32/LLD/TIMv1/stm32_tim.h"
 412              		.file 12 "../../../os/rt/include/chtm.h"
 413              		.file 13 "../../../os/rt/include/chsem.h"
 414              		.file 14 "../../../os/rt/include/chmtx.h"
 415              		.file 15 "../../../os/rt/include/chsys.h"
 416              		.file 16 "../../../os/common/ext/CMSIS/include/core_cm3.h"
 417              		.file 17 "../../../os/hal/ports/common/ARMCMx/nvic.h"