ARM GAS  /tmp/ccUaNec6.s 			page 1


   1              		.syntax unified
   2              		.cpu cortex-m3
   3              		.fpu softvfp
   4              		.eabi_attribute 20, 1
   5              		.eabi_attribute 21, 1
   6              		.eabi_attribute 23, 3
   7              		.eabi_attribute 24, 1
   8              		.eabi_attribute 25, 1
   9              		.eabi_attribute 26, 1
  10              		.eabi_attribute 30, 2
  11              		.eabi_attribute 34, 1
  12              		.eabi_attribute 18, 4
  13              		.thumb
  14              		.file	"memstreams.c"
  15              		.text
  16              	.Ltext0:
  17              		.section	.gnu.lto_.jmpfuncs.f5b972446147c1f7,"",%progbits
  18 0000 789C6362 		.ascii	"x\234cb`b\300\006T\2404+\0033##\023;33\003\003c\031"
  18      6062C006 
  18      54A0342B 
  18      03332323 
  18      133B3333 
  19 0018 23588899 		.ascii	"#X\210\231\035\310\201\363Y\370\031\000\032\264\001"
  19      1DC881F3 
  19      59F81900 
  19      1AB401
  20 0027 55       		.ascii	"U"
  21              		.text
  22              		.section	.gnu.lto_.inline.f5b972446147c1f7,"",%progbits
  23 0000 789C6362 		.ascii	"x\234cb`b\300\006\032\031!4+\003\003/\017#3\003\220"
  23      6062C006 
  23      1A192134 
  23      2B03032F 
  23      0F233303 
  24 0015 CBEC0026 		.ascii	"\313\354\000&\023\300\244\002\027\333\004=\006\216\013"
  24      13C0A402 
  24      17DB043D 
  24      068E0B
  25 0024 7A4C0C8C 		.ascii	"zL\014\214/\330Y $\210\340\00039\030X\026\310\36300"
  25      2FD85920 
  25      2488E000 
  25      33391858 
  25      16C8F330 
  26 0039 DE601760 		.ascii	"\336`\027`\002\223\014L\033\370%@\00622\360pC\315\203"
  26      02930C4C 
  26      1BF82540 
  26      063232F0 
  26      7043CD83 
  27 004d 98D4C008 		.ascii	"\230\324\300\0105\220\271C\234\201\375\207\032\026\003"
  27      3590B943 
  27      9C81FD87 
  27      1A1603
  28 005c 996788E3 		.ascii	"\231g\210\3436\220\211AP\222\221\005\305@&F\210M@S\271"
  28      36908941 
  28      50929105 
  28      C5402646 
  28      884D4053 
ARM GAS  /tmp/ccUaNec6.s 			page 2


  29 0071 81DA1838 		.ascii	"\201\332\0308>\340t&\323\005~\036\220\3212 \256\002"
  29      3EE07426 
  29      D3057E1E 
  29      90D13220 
  29      AE02
  30 0083 58500124 		.ascii	"XP\001$\250\0012\201\205\027h\304\004?\020dF\330\002"
  30      A8013281 
  30      851768C4 
  30      043F1064 
  30      46D802
  31 0096 0D061A58 		.ascii	"\015\006\032X\302\302\300\301\316\310\300\304\332\241"
  31      C2C2C0C1 
  31      CEC8C0C4 
  31      DAA1
  32 00a4 CEC0BDC2 		.ascii	"\316\300\275\302\015\0221\000-\3633\312"
  32      0D123100 
  32      2DF333CA 
  33              		.text
  34              		.section	.gnu.lto_.pureconst.f5b972446147c1f7,"",%progbits
  35 0000 789C6362 		.ascii	"x\234cb`b\340f\200\000V\006)F)&)f)\026)\000\004)\000"
  35      6062E066 
  35      80005606 
  35      29462926 
  35      29662916 
  36 0019 A1       		.ascii	"\241"
  37              		.text
  38              		.section	.gnu.lto__put.f5b972446147c1f7,"",%progbits
  39 0000 789C8D92 		.ascii	"x\234\215\222\301K\033A\024\306\3377\263\273IL\252\036"
  39      C14B1B41 
  39      14C6DF37 
  39      B3BB494C 
  39      AA1E
  40 0012 7AE94D72 		.ascii	"z\351Mrk\225\354\301\277\242w\205zL\202\304\205,\226"
  40      6B95ECC1 
  40      BFA27785 
  40      7A4C82C4 
  40      852C96
  41 0025 A6F74C54 		.ascii	"\246\367LT\244\320K\020\241U\013mz\350A\202\266\364"
  41      A4D04B10 
  41      A1550B6D 
  41      7AE84182 
  41      B6F4
  42 0037 E2318722 		.ascii	"\3421\207\"\226\266\222\036\365\024\010\264\027/\336"
  42      96B6921E 
  42      F51408B4 
  42      172FDE
  43 0046 3C19DF9B 		.ascii	"<\031\337\233qW\220\242]v\337\314\276\367~\337\2747"
  43      715790A2 
  43      5D76DFCC 
  43      BEF77EDF 
  43      BC37
  44 0058 338A14DD 		.ascii	"3\212\024\335~f\371[cw\310#|\202j\037\023\265\262Jy"
  44      7E66F95B 
  44      6377C823 
  44      7C826A1F 
  44      13B5B24A 
  45 006d EF41664C 		.ascii	"\357AfL\237\377$2\005\015\317\371=@&\004j*\355\241\271"
ARM GAS  /tmp/ccUaNec6.s 			page 3


  45      9FFF2432 
  45      050DCFF9 
  45      3D402604 
  45      6A2AEDA1 
  46 0082 00ABB2AF 		.ascii	"\000\253\262\257z\203\321hos\275\333\305\226\032\007"
  46      7A83D168 
  46      6F73BDDB 
  46      C5961A07 
  47 0092 45208D18 		.ascii	"E \215\030\344\363\014\201\230\014\033\225\025\223\343"
  47      E4F30C81 
  47      980C1B95 
  47      1593E3
  48 00a1 00F2E22B 		.ascii	"\000\362\342+\210a\334\2475c\332SE\352\030\263\321{"
  48      8861DCA7 
  48      3563DA53 
  48      45EA18B3 
  48      D17B
  49 00b3 73B8F9C8 		.ascii	"s\270\371\310|Xi\233\313\321\010\021\264\242\031P\025"
  49      7C58699B 
  49      CBD10811 
  49      B4A21950 
  49      15
  50 00c4 F48C7FBC 		.ascii	"\364\214\177\274);\370\336\355>\252\266\2209\266R\337"
  50      293BF8DE 
  50      ED3EAAB6 
  50      9039B652 
  50      DF
  51 00d5 3C948CFA 		.ascii	"<\224\214\372;\2512:\334W\031\037Q\244\0324\321/Z9="
  51      3BA9323A 
  51      DC57191F 
  51      51A41A34 
  51      D12F5A39 
  52 00ea 18F6E102 		.ascii	"\030\366\341\0025\370\323\364$B\260C\333,\234\341\024"
  52      35F8D3F4 
  52      2442B043 
  52      DB2C9CE1 
  52      14
  53 00fb 59405BD1 		.ascii	"Y@[\321\012\022y\201\372\371\004\011\356B\022\346\210"
  53      0A127981 
  53      FAF90409 
  53      EE4212E6 
  53      88
  54 010c BEFD6D3D 		.ascii	"\276\375m=HWa\352\246\332y\316\346\235\325\"{1\354\245"
  54      485761EA 
  54      A6DA79CE 
  54      E69DD522 
  54      7B31ECA5 
  55 0120 B564ACB0 		.ascii	"\265d\254\260\372\267\260JkY}\275\372)e\2625\311\014"
  55      FAB7B04A 
  55      6B597DBD 
  55      FA2965B2 
  55      35C90C
  56 0133 6C8D3F3E 		.ascii	"l\215?>O87+\264\2141\231H\302YQqt\0159\327\314\333?"
  56      4F38372B 
  56      B48C3199 
  56      48C25951 
  56      71740D39 
ARM GAS  /tmp/ccUaNec6.s 			page 4


  57 014b 8354213F 		.ascii	"\203T!?M\273\234<yoK\274\362+\235P\005\006%)\200\333"
  57      4DBB9C3C 
  57      796F4BBC 
  57      F22B9D50 
  57      05062529 
  58 0161 9FA72EF0 		.ascii	"\237\247.\360\177Z\214';\341\331\223\372\315\227K\334"
  58      7F5A8C27 
  58      3BE1D993 
  58      FACD974B 
  58      DC
  59 0172 367C4210 		.ascii	"6|B\020\204\370\002\270\007Mu\366\345\241\365\021\351"
  59      84F802B8 
  59      074D75F6 
  59      E5A1F511 
  59      E9
  60 0183 775F0B72 		.ascii	"w_\013r\324\020P\332z\\*\205\356]n\204K\345zX\217*a"
  60      D41050DA 
  60      7A5C2A85 
  60      EE5D6E84 
  60      4BE57A58 
  61 019a E3E58BC5 		.ascii	"\343\345\213\305r\334\010\343\305\370zZ\252\222\216"
  61      72DC08E3 
  61      C5F87A5A 
  61      AA928E
  62 01a9 1BCFAF00 		.ascii	"\033\317\257\000\2308\235W"
  62      98389D57 
  63              		.text
  64              		.section	.gnu.lto__get.f5b972446147c1f7,"",%progbits
  65 0000 789C8592 		.ascii	"x\234\205\222\317k\023A\024\307\337wf7\233\244)\255"
  65      CF6B1341 
  65      14C7DF77 
  65      66379BA4 
  65      29AD
  66 0012 2082278B 		.ascii	" \202'\2137\333\222\245\364\257\360n@\217\233P\342B"
  66      37DB92A5 
  66      F4AFF06E 
  66      408F9B50 
  66      E242
  67 0024 17C578CF 		.ascii	"\027\305x\317$\261P\220B\020\241E\0136\250\027A*\224"
  67      24B15090 
  67      4210A145 
  67      0B36A817 
  67      412A94
  68 0037 7A280839 		.ascii	"z(\0109\210X\210\242\267\352)\236\012=\010\202G1}o&"
  68      885888A2 
  68      B7EA299E 
  68      0A3D0882 
  68      47317D6F 
  69 004c BBD252EC 		.ascii	"\273\322R\354\260;3;\363\276\237\367k\025):=\026\371"
  69      B03B333B 
  69      F3BE9FF7 
  69      6B15293A 
  69      3D16F9
  70 005f DDE3E305 		.ascii	"\335\343\343\005^\341\023T\3673Q+\257\224\367\014d\212"
  70      5EE11354 
  70      F733512B 
  70      AF94F70C 
ARM GAS  /tmp/ccUaNec6.s 			page 5


  70      648A
  71 0071 FAD780C8 		.ascii	"\372\327\200\310\2244<w\356\001\262!PSi\017\315[\020"
  71      94343C77 
  71      EE01B221 
  71      5053690F 
  71      CD5B10
  72 0084 08AE52CF 		.ascii	"\010\256R\317\230G\303\227\207\007X7\375\326\226\371"
  72      9847C397 
  72      87075837 
  72      FDD696F9 
  73 0094 331A0131 		.ascii	"3\032\0011\330\341<\250\006\272\311\037\310\333E\341"
  73      D8E13CA8 
  73      06BAC91F 
  73      C8DB45E1 
  74 00a4 6404DBAA 		.ascii	"d\004\333\252?\034\215\006;\277\177\274\306\205IP\014"
  74      3F1C8D06 
  74      3BBF7FBC 
  74      C6854950 
  74      0C
  75 00b5 AD91807C 		.ascii	"\255\221\200|\336y9\231\002\236\374\274L\005\212\320"
  75      DE793999 
  75      029EFCBC 
  75      4C058AD0 
  76 00c5 636F4539 		.ascii	"coE9.\211)\003|z`Lw\306\335\270H\372\357><\276l\266"
  76      2E892903 
  76      7C7A604C 
  76      77C6DDB8 
  76      48FAEF3E 
  77 00dd DA5DF397 		.ascii	"\332]\363\227\003\211\221ST\376\027\307\214\213\303"
  77      03899153 
  77      54FE17C7 
  77      8C8BC3
  78 00ec 3B5D8B9A 		.ascii	";]\213\232\215\354\006\317\222c\005JV\275O*\302s\256"
  78      8DEC06CF 
  78      9263054A 
  78      56BD4F2A 
  78      C273AE
  79 00ff 4D8417EC 		.ascii	"M\204\027\354\240.>?Q\373\373\306\321\027\270\213:\374"
  79      A02E3E3F 
  79      51FBFBC6 
  79      D117B88B 
  79      3AFC
  80 0111 399A8D11 		.ascii	"9\232\215\021<\245'\014\316\263\2118\310Yh5KWDo&RI\356"
  80      3CA5270C 
  80      CEB38938 
  80      C8596835 
  80      4B57446F 
  81 0129 7F9254F3 		.ascii	"\177\222T\363\221\336\037\266&3/\365\261\201\035\025"
  81      91DE1FB6 
  81      26332FF5 
  81      B1811D15 
  82 0139 0E84BBA3 		.ascii	"\016\204\273\243\005{p4\314b\011,\330?\033\254\262X"
  82      057B7034 
  82      CC62092C 
  82      D83F1BAC 
  82      B258
  83 014b 3A0F3B6F 		.ascii	":\017;o3\015\233\005\026\316\260\275\225K\351q\201!"
ARM GAS  /tmp/ccUaNec6.s 			page 6


  83      330D9B05 
  83      16CEB0BD 
  83      954BE971 
  83      8121
  84 015d 2D63CC14 		.ascii	"-c\314\024w\222\215\004\344\217\001\373\324\356\373"
  84      77928D04 
  84      E48F01FB 
  84      D4EEFB
  85 016c 695D7AB6 		.ascii	"i]z\266.\005\213]\355l\257]I\001E\206\212*\200\313\377"
  85      2E058B5D 
  85      ED6CAF5D 
  85      49014586 
  85      8A2A80CB 
  86 0181 BABB98A3 		.ascii	"\272\273\230\243WL\235>'}\226[\321\317\316\316\232N"
  86      574C9D3E 
  86      277D965B 
  86      D1CFCECE 
  86      9A4E
  87 0193 8925EBC7 		.ascii	"\211%\353\307\345\357\331\376|\345\337R\214\255\350"
  87      E5EFD9FE 
  87      7CE5DF52 
  87      8CADE8
  88 01a2 1B41409A 		.ascii	"\033A@\232\333\356\006\232js\367\"\353\364`\267$\315"
  88      DBEE069A 
  88      6A73F722 
  88      EBF460B7 
  88      24CD
  89 01b4 8588A40C 		.ascii	"\205\210\244\014\327\312\345\320=w\032\341\355h9\\\216"
  89      D7CAE5D0 
  89      3D771AE1 
  89      ED68395C 
  89      8E
  90 01c5 AB61E3FE 		.ascii	"\253a\343\376\275\245(i\204\311R2\336\226k\204\252N"
  90      BDA52869 
  90      84C95232 
  90      DE966B84 
  90      AA4E
  91 01d7 1A778F01 		.ascii	"\032w\217\001\327\017\256\315"
  91      D70FAECD 
  92              		.text
  93              		.section	.gnu.lto__reads.f5b972446147c1f7,"",%progbits
  94 0000 789C8D52 		.ascii	"x\234\215R\277k\024A\030}ofvo\357\274\363\024\254CH"
  94      BF6B1441 
  94      187D6F66 
  94      766FEFBC 
  94      F314AC43 
  95 0015 A7915BC8 		.ascii	"\247\221[\310\177\221\336\200\226\227#^\026\262(^:\213"
  95      7F91DE80 
  95      9697235E 
  95      16B2285E 
  95      3A8B
  96 0027 CCDD599C 		.ascii	"\314\335Y\234\330\204\224\012B\0026\026&XY(\244\260"
  96      D884940A 
  96      42023616 
  96      26585928 
  96      A4B0
  97 0039 30E00F84 		.ascii	"0\340\017\204\024&M\016\304\332\200\215H`\375f\347\306"
ARM GAS  /tmp/ccUaNec6.s 			page 7


  97      14264D0E 
  97      C4DA808D 
  97      4860FD66 
  97      E7C6
  98 004b 481075D8 		.ascii	"H\020u\330\375f\366}\337{\363\276\217UP8\273\346\344"
  98      FD66F67D 
  98      DF7BF3BE 
  98      8F555038 
  98      BBE6E4
  99 005e 7D2E702A 		.ascii	"}.p*;#P\255\277\007\372\211Rz?\205\255\231\227S\260"
  99      3B2350AD 
  99      BF07FA89 
  99      527A3F85 
  99      AD999753 
 100 0073 754DE361 		.ascii	"uM\343aC\272\003\2105\245\015\327n\260\024\331V\273"
 100      43BA0388 
 100      35A50DD7 
 100      6EB014D9 
 100      56BB
 101 0085 E3A27876 		.ascii	"\343\242xv\374\352\363\210\027\233DN(\346\244AFD.\304"
 101      FCEAF388 
 101      179B444E 
 101      28E6A441 
 101      46442EC4 
 102 0099 2E540443 		.ascii	".T\004C\"'V%\250\232|\252\272K4\\\220\025\341\236\265"
 102      22275625 
 102      A89A7CAA 
 102      BA4B345C 
 102      9015E19E 
 103 00ae EBD333D8 		.ascii	"\353\3233\330\264vc\367\333\223=\332\015\333?.\212f"
 103      B47663F7 
 103      DB933DDA 
 103      0DDB3F2E 
 103      8A66
 104 00c0 46AD7095 		.ascii	"F\255p\225\350\020\327\231\321L\227[d\316\266\323)u"
 104      E810D799 
 104      D14C975B 
 104      64CEB6D3 
 104      2975
 105 00d2 AE49743E 		.ascii	"\256It>\027\250\334\256\367\240\332\334\224\366\332"
 105      17A8DCAE 
 105      F7A0DADC 
 105      94F6DA
 106 00e1 DCE20CBA 		.ascii	"\334\342\014\272\002\343\035\006\207\337\0377<\336\245"
 106      02E31D06 
 106      87DF1F37 
 106      3CDEA5
 107 00f0 99C5958C 		.ascii	"\231\305\225\214\361#<\024\335\212T8}]j.2\250;\316\316"
 107      F1233C14 
 107      DD8A5438 
 107      7D5D6A2E 
 107      32A83BCE 
 108 0105 B94089FE 		.ascii	"\271@\211\376F\341/\312\360\376p\213\201\023\313M\302"
 108      46E12FCA 
 108      F0FE708B 
 108      8113CB4D 
 108      C2
ARM GAS  /tmp/ccUaNec6.s 			page 8


 109 0116 04DEE0F5 		.ascii	"\004\336\340\365\227~\3437\270r\332\304\202\250\354"
 109      977EE337 
 109      B872DAC4 
 109      82A8EC
 110 0125 A7E27A30 		.ascii	"\247\342z0>9\357KdpR\025\322f\322\325 \201\317\320{"
 110      3E39EF4B 
 110      64705215 
 110      D266D2D5 
 110      2081CFD0 
 111 013a 7B717429 		.ascii	"{qt)(&\2459\376\331\234:5\367`x3P\252\302*\275}@\354"
 111      2826A539 
 111      FED99C3A 
 111      35F76078 
 111      3350AAC2 
 112 0153 31E02E7E 		.ascii	"1\340.~\330\221\275\2201\351LZ\352\262V\226\212\\\325"
 112      D891BD90 
 112      31E94C5A 
 112      EAB25696 
 112      8A5CD5
 113 0166 DFFAE9A8 		.ascii	"\337\372\351\250\031$\352\263xj\255\253\377\367XF:\260"
 113      1924EAB3 
 113      786AADAB 
 113      FFF75846 
 113      3AB0
 114 0178 1A420C3D 		.ascii	"\032B\014=\314{\360\377t\204\012|D\177\\\304A\253L\034"
 114      CC7BF0FF 
 114      74840A7C 
 114      447F5CC4 
 114      41AB4C1C 
 115 018c 80325025 		.ascii	"\2002P%!\326o\277\322\375\020t#s}_n\265R\377\334\352"
 115      21D66FBF 
 115      D2FD1074 
 115      23737D5F 
 115      6EB552FF 
 116 01a2 A5CBED95 		.ascii	"\245\313\355\225t%[L{\253w\226\332y/\315\227\362\311"
 116      74255B4C 
 116      7BAB7796 
 116      DA792FCD 
 116      97F2C9
 117 01b5 B1D581CE 		.ascii	"\261\325\201\316{\267\177\002d\363\234F"
 117      7BB77F02 
 117      64F39C46 
 118              		.text
 119              		.section	.gnu.lto__writes.f5b972446147c1f7,"",%progbits
 120 0000 789C8D52 		.ascii	"x\234\215R\277O\024A\030}ofvo9\357\300\277\300\020:"
 120      BF4F1441 
 120      187D6F66 
 120      766F39EF 
 120      C0BFC010 
 121 0015 84DC26FE 		.ascii	"\204\334&\376\027\366\222hy\\N\330\204\025\343\321Q"
 121      17F69268 
 121      795C4ED8 
 121      8415E3D1 
 121      51
 122 0026 30776781 		.ascii	"0wg\201\261!T\006\2523\321\302\030\215\235\305%RP@\201"
 122      B1215406 
 122      AA33D1C2 
ARM GAS  /tmp/ccUaNec6.s 			page 9


 122      188D9DC5 
 122      25525040 
 123 003b 3F121AA9 		.ascii	"?\022\032\251.!4&$\226js|3{\003\206\020t\262\373\315"
 123      2E213426 
 123      24966A73 
 123      7C337B03 
 123      861074B2 
 124 0051 ECFBBEF7 		.ascii	"\354\373\276\367\276\037\263\012\012\227\327\035y?\010"
 124      BE1FB30A 
 124      0A97D71D 
 124      793F08
 125 0060 9CCACE08 		.ascii	"\234\312\316\010T\033\237\201v\242\224>La\313\246\177"
 125      541B9F81 
 125      76A2943E 
 125      4C61CBA6 
 125      7F
 126 0071 0BB6A269 		.ascii	"\013\266\242i\012\330\220\356\000bMi\303\265\007\364"
 126      0AD890EE 
 126      00624D69 
 126      C3B507F4 
 127 0081 22EFD5CE 		.ascii	"\"\357\325\316`8|\327\377}\374\210\023DN(\346\244AF"
 127      60387CD7 
 127      FF7DFC88 
 127      13444E28 
 127      E6A44146 
 128 0095 44CEC4CE 		.ascii	"D\316\304\316\224\004C\"'\216\211Qe\371T\025\347\250"
 128      94044322 
 128      278E8951 
 128      65F95415 
 128      E7A8
 129 00a7 3A232BC2 		.ascii	":#+\302Sk7&\247\320\263vs\347\323\253}\332M\333\376"
 129      536B3726 
 129      A7D0B376 
 129      73E7D3AB 
 129      7DDA4DDB 
 130 00bc 391C4E64 		.ascii	"9\034Nd\324\012\263D\203\270\317\214f\322o\221\271\334"
 130      D40AB344 
 130      83B8CF8C 
 130      66D26F91 
 130      B9DC
 131 00ce 4DC3EBDC 		.ascii	"M\303\353\334\023\353\312\234\243r\273\336\207\252\263"
 131      13EBCA9C 
 131      A372BBDE 
 131      87AAB3
 132 00dd 27DDD5F9 		.ascii	"'\335\325\371\222SX\020\030\007\350\034}\334\252\026"
 132      92535810 
 132      1807E81C 
 132      7DDCAA16 
 133 00ed F802CD0C 		.ascii	"\370\002\315\014ng\214\267\261%\272%\211p\372\332k\316"
 133      6E678CB7 
 133      B125BA25 
 133      8970FADA 
 133      6BCE
 134 00ff 33A83BCE 		.ascii	"3\250;\316\327\033\201\022]G\3419\245\373\254\373\232"
 134      D71B8112 
 134      5D47E139 
 134      A5FBACFB 
ARM GAS  /tmp/ccUaNec6.s 			page 10


 134      9A
 135 0110 81134B26 		.ascii	"\201\023K&a\002{\330=iW\377\202K\027M\314\211\312a*"
 135      61027BD8 
 135      3D6957FF 
 135      824B174D 
 135      CC89CA61 
 136 0125 5577063F 		.ascii	"Uw\006?\306\213\020\031\234D\005\267\031u\325IPxX\324"
 136      C68B1019 
 136      9C4405B7 
 136      1975D549 
 136      507858D4 
 137 0139 F6EB683C 		.ascii	"\366\353h<(&\2768^]\234\272(\356y\367a\240\214\011\313"
 137      2826BE38 
 137      5E5D9CBA 
 137      28EE79F7 
 137      61A08C09 
 138 014e D7F60571 		.ascii	"\327\366\005q\201\001\253\370c\327\355\315\214Ic\324"
 138      8101ABF8 
 138      63D7EDCD 
 138      8C4963D4 
 139 015e 928F2B4B 		.ascii	"\222\217+K\312Ln\321g}\261}\236\2652\2037\326\272\370"
 139      CA4C6ED1 
 139      677DB17D 
 139      9EB53283 
 139      37D6BAF8 
 140 0172 7F8F655D 		.ascii	"\177\217e]\007VU\210\241\207\273\005\370\177:B\005\276"
 140      07565588 
 140      A187BB05 
 140      F87F3A42 
 140      05BE
 141 0184 A13D388D 		.ascii	"\241=8\215\203\226w|\007e\240JL\254\337\236\322\375"
 141      8396777C 
 141      0765A04A 
 141      4CACDF9E 
 141      D2FD
 142 0196 10742373 		.ascii	"\020t#s}O\327ji\361,\267\322\305\372R\272\224\315\247"
 142      7D4FD76A 
 142      69F12CB7 
 142      D2C5FA52 
 142      BA94CDA7 
 143 01aa AD9527CD 		.ascii	"\255\225'\315z\336J\363f>:\326\032\320y\353\361\031"
 143      7ADE4AF3 
 143      663E3AD6 
 143      1AD079EB 
 143      F119
 144 01bc C7E19B38 		.ascii	"\307\341\2338"
 145              		.text
 146              		.section	.gnu.lto_msObjectInit.f5b972446147c1f7,"",%progbits
 147 0000 789C8D90 		.ascii	"x\234\215\2201K\003A\020\205\337\233\273\204\003\361"
 147      314B0341 
 147      1085DF9B 
 147      BB8403F1 
 148 0010 07582958 		.ascii	"\007X)X\211p\373c\214\240\345%\204x\220C\360\322\245"
 148      8970FB63 
 148      8CA0E525 
 148      84789043 
 148      F0D2A5
ARM GAS  /tmp/ccUaNec6.s 			page 11


 149 0023 C846053B 		.ascii	"\310F\005;I\031\024\005[\213h\231\322^\024\354\354L"
 149      49191405 
 149      5B8B6899 
 149      D25E14EC 
 149      EC4C
 150 0035 6FAF2108 		.ascii	"o\257!\010q\366\366lb\212\014\2733\3030\337\233\235"
 150      71F6F66C 
 150      628A0CBB 
 150      33C330DF 
 150      9B9D
 151 0047 1508166D 		.ascii	"\025\010\026mC\357-\201]\215\014@\031\274\002\375HH"
 151      43EF2D81 
 151      5D8D0C40 
 151      19BC02FD 
 151      4848
 152 0059 9780E809 		.ascii	"\227\200\350\011{\207,z\037\344i2\237\217\036/F?\274"
 152      7B872C7A 
 152      1FE46932 
 152      9F8F1E2F 
 152      463FBC
 153 006c 91356146 		.ascii	"\2215aF\204\352XU'\221\272@\273*8\267v\260\0054\012"
 153      84EA5855 
 153      2791BA40 
 153      BB2A38B7 
 153      76B00534 
 154 0081 AAA6DE49 		.ascii	"\252\246\336I\355S\\\014^p:;\373\274\334Lx\307\212\216"
 154      ED535C0C 
 154      5E703A3B 
 154      FBBCDC4C 
 154      78C78A8E 
 155 0095 BDB76AEB 		.ascii	"\275\267j\353)q\215+\246d\213r\240\321\277\264\356\007"
 155      29718D2B 
 155      A6648B72 
 155      A0D1BFB4 
 155      EE07
 156 00a7 A38B991D 		.ascii	"\243\213\231\035Z\273\247m\031\303\242\244:\317\323"
 156      5ABBA76D 
 156      19C3A2A4 
 156      3ACFD3
 157 00b6 AF291775 		.ascii	"\257)\027u\202\345:^\250\345`G\016\277\377\223\341r"
 157      82E53A5E 
 157      A8E56047 
 157      0EBFFF93 
 157      E172
 158 00c8 524AB2EA 		.ascii	"RJ\262\352\311\361\352dP\222QA\216\337W'\375\212\256"
 158      C9F1EA64 
 158      50925141 
 158      8EDF5727 
 158      FD8AAE
 159 00db 52646FE8 		.ascii	"Rdo\350O>\266=\373g5]I\377\323\021;ql\3749\316\315Q"
 159      4F3EB63D 
 159      FB67355D 
 159      49FFD311 
 159      3B716CFC 
 160 00f3 D236EDB4 		.ascii	"\3226\355\264n\362\316I3\311r\2235\2632\215\033\370"
 160      6EF2CE49 
 160      33C97293 
ARM GAS  /tmp/ccUaNec6.s 			page 12


 160      35B3328D 
 160      1BF8
 161 0105 0537EA6D 		.ascii	"\0057\352m\267"
 161      B7
 162              		.text
 163              		.section	.gnu.lto_.symbol_nodes.f5b972446147c1f7,"",%progbits
 164 0000 789C4DC8 		.ascii	"x\234M\310\271\021\2000\020CQi\327\246\015j\243\005"
 164      B9118030 
 164      10435169 
 164      D7A60D6A 
 164      A305
 165 0012 1A902306 		.ascii	"\032\220#\0062\012`H\350\207\234\273\001\212 0\201\225"
 165      320A6048 
 165      E8879CBB 
 165      018A2030 
 165      8195
 166 0024 FC793218 		.ascii	"\374y2\030Z\374\263\203\002\306\025\220\246\241\261"
 166      5AFCB383 
 166      02C61590 
 166      A6A1B1
 167 0033 9362C19D 		.ascii	"\223b\301\235\262\202\033\345\005o*\374\234{\306\213"
 167      B2821BE5 
 167      056F2AFC 
 167      9C7BC68B 
 168 0043 08723E54 		.ascii	"\010r>T\314oJt\253\260to\355\236\213\017\235H$\211"
 168      CC6F4A74 
 168      ABB0746F 
 168      ED9E8B0F 
 168      9D482489 
 169              		.text
 170              		.section	.gnu.lto_.refs.f5b972446147c1f7,"",%progbits
 171 0000 789C6362 		.ascii	"x\234cb`b\340g\200\000F\026&V\026V&f&&&\006&F\006\000"
 171      6062E067 
 171      80004616 
 171      26561656 
 171      26662626 
 172 001a 032D0037 		.ascii	"\003-\0007"
 173              		.text
 174              		.section	.gnu.lto_.decls.f5b972446147c1f7,"",%progbits
 175 0000 789CB557 		.ascii	"x\234\265W}l\024E\024\237\331\373hO\032$DH\215\211\034"
 175      7D6C1445 
 175      149FD9FB 
 175      684F1A24 
 175      44488D89 
 176 0015 064C24A1 		.ascii	"\006L$\241\033\224\030\376\021,\215\241$V\215\210\361"
 176      1B9418FE 
 176      112C8DA1 
 176      24568D88 
 176      F1
 177 0026 1FBD6CAF 		.ascii	"\037\275l\257{\2753\367\225\333\255P\375\203\241*\020"
 177      7BBD33F7 
 177      95DBAD50 
 177      FD83A12A 
 177      10
 178 0037 63623131 		.ascii	"cb11H\010P@4F\014_)\201\320\013\227F\240\246\222R\021"
 178      48085040 
 178      34460C5F 
ARM GAS  /tmp/ccUaNec6.s 			page 13


 178      2981D00B 
 178      9746A0A6 
 179 004e 9112E128 		.ascii	"\221\022\341(\037\206\017\245X\261 \342\371fv\366nw"
 179      1F860FA5 
 179      58B120E2 
 179      F96676F6 
 179      6E77
 180 0060 6FF7EE8A 		.ascii	"o\367\356\212qroovw\336\357\2757\2777\363f\005$\240"
 180      71726F6F 
 180      7677DEEF 
 180      BD37BF37 
 180      F3660524 
 181 0075 19024239 		.ascii	"\031\002B9h\227&!\264\002\372^\204\320|Th\364~\013H"
 181      68972621 
 181      B402FA5E 
 181      84D07C54 
 181      68F47E0B 
 182 008a 37C84190 		.ascii	"7\310A\220~\220S \036\214\020\374\320\024\214L\215\216"
 182      7E905320 
 182      1E8C10FC 
 182      D0148C4C 
 182      8D8E
 183 009c F5816CA3 		.ascii	"\365\201l\243c@zA\206@&\202\324\200\244A\316\200\354"
 183      63407A41 
 183      86402682 
 183      D480A441 
 183      CE80EC
 184 00af 007181DC 		.ascii	"\000q\201\334\002\031\003\031E\032\036\325\0077\320"
 184      02190319 
 184      451A1ED5 
 184      0737D0
 185 00be 2E903D66 		.ascii	".\220=fh\346\203\217\353\352xV;:\276\213\343\3361`w"
 185      68E6838F 
 185      EBEA7856 
 185      3B3ABE8B 
 185      E3DE3160 
 186 00d3 F3FF0316 		.ascii	"\363\377\003\026\\\032\327\003\006\234z\007\237\037"
 186      5C1AD703 
 186      069C7A07 
 186      9F1F
 187 00e1 01652F2E 		.ascii	"\001e/.\306\0268\206\207\277\353\0039\014r\304b\247"
 187      C6163886 
 187      87BFEB03 
 187      390C72C4 
 187      62A7
 188 00f3 DF626741 		.ascii	"\337bgA\005v\214\363#p\014\335\316I\220\023 ?X\354\234"
 188      05768CF3 
 188      23700CDD 
 188      CE499013 
 188      203F58EC 
 189 0108 E236CE73 		.ascii	"\3426\316s\274!n/\315\237g9\236\216}\207\317\213\256"
 189      BC216E2F 
 189      CD9F6739 
 189      9E8E7D87 
 189      CF8BAE
 190 011b 97A3F7F0 		.ascii	"\227\243\367\360@\240vp1\307\323\320&\222\031\311\036"
 190      40A07670 
ARM GAS  /tmp/ccUaNec6.s 			page 14


 190      31C7D3D0 
 190      269219C9 
 190      1E
 191 012c 1E1EC1EB 		.ascii	"\036\036\301\353I\346=\222\313\255@S\321'\004Z\327*"
 191      49E63D92 
 191      CBAD4053 
 191      D127045A 
 191      D72A
 192 013e 42B0EA43 		.ascii	"B\260\352Ck\370Mc\037\004\367\032\226\360D\037\362\263"
 192      6BF84D63 
 192      1F04F71A 
 192      96F0441F 
 192      F2B3
 193 0150 4E8D0FB9 		.ascii	"N\215\017\271\001c&\372\214\220\316\354\201\355\037"
 193      016326FA 
 193      8C90CEEC 
 193      81ED1F
 194 015f 3E4348B5 		.ascii	">CH\265\204\267a\037\304'c4\013}\011\252\235\204\014"
 194      84B7611F 
 194      C4276334 
 194      0B7D09AA 
 194      9D840C
 195 0172 3F6D31CB 		.ascii	"?m1\313Z\345\320'\217\016\014\342\016pG\302_0\360A\210"
 195      5AE5D027 
 195      8F0E0CE2 
 195      0E7047C2 
 195      5F30F041 
 196 0187 49C29FE3 		.ascii	"I\302\237\343Y\034J\302^\237\021\232\335\353\003(\036"
 196      591C4AC2 
 196      5E9F119A 
 196      DDEB0328 
 196      1E
 197 0198 DC525BB7 		.ascii	"\334R[\267\351\372\300+\370\023zS\205\356[\317\316a"
 197      E9FAC02B 
 197      F8137A53 
 197      85EE5BCF 
 197      CE61
 198 01aa 0AB1154F 		.ascii	"\012\261\025Oe=\027c\031\036,\230\240\367Y\310\035$"
 198      653D1763 
 198      191E2C98 
 198      A0F759C8 
 198      1D24
 199 01bc BB9DD47E 		.ascii	"\273\235\324~Z\010\271ZG\300\371\2203\335i\354\227\360"
 199      5A08B95A 
 199      47C0F990 
 199      33DD69EC 
 199      97F0
 200 01ce 0E16EDE9 		.ascii	"\016\026\355\351\242h\261%Zl\366\232\275\346\235\034"
 200      A268B125 
 200      5A6CF69A 
 200      BDE69D1C 
 201 01de E66396BA 		.ascii	"\346c\226\272\362\012\002:o\201\234\201\266\021\362"
 201      F20A023A 
 201      6F819C81 
 201      B611F2
 202 01ed 31E4419F 		.ascii	"1\344A\237\013\362\300\315|\026\320e6j\013\236f\033"
 202      0BF2C0CD 
ARM GAS  /tmp/ccUaNec6.s 			page 15


 202      7C16D065 
 202      366A0B9E 
 202      661B
 203 01ff 2B1BC435 		.ascii	"+\033\3045\311\206\327kuw\257X\265L\361i\243\240=\216"
 203      C986D76B 
 203      7577AF58 
 203      B54CF169 
 203      A3A03D8E 
 204 0213 B6D3A94D 		.ascii	"\266\323\251M_|\251Q\313\031T\302\026\217a'\026\212"
 204      5F7CA951 
 204      CB1954C2 
 204      168F6127 
 204      168A
 205 0225 B337B3FF 		.ascii	"\2637\263\377HM\347\312l.7\315\224\271\032\250\023I"
 205      484DE7CA 
 205      6C2E37CD 
 205      94B91AA8 
 205      1349
 206 0237 FB6C48B2 		.ascii	"\373lH\262\314\3215\3339\"\243-\215|\364n\360F\302\335"
 206      CCD135DB 
 206      3922A32D 
 206      8D7CF46E 
 206      F046C2DD 
 207 024b 25A7C721 		.ascii	"%\247\307!N'%\356\335~\3338o\336\353\303\340\300\337"
 207      4E2725EE 
 207      DD7EDB38 
 207      6FDEEBC3 
 207      E0C0DF
 208 025e B99CCB66 		.ascii	"\271\234\313f\221vT\262\222\006?\372q\224\257\2444#"
 208      917654B2 
 208      92063FFA 
 208      7194AFA4 
 208      3423
 209 0270 EB67C19A 		.ascii	"\353g\301\232[\036Kny\314\271\345\361\025:t!<\350\274"
 209      5B1E4B6E 
 209      79CCB9E5 
 209      F1153A74 
 209      213CE8BC 
 210 0284 107A9C17 		.ascii	"\020z\234\027\302\004\364A\301c-%\234Pz\361\004\203"
 210      C204F441 
 210      C1632D25 
 210      9C507AF1 
 210      0483
 211 0296 3F79ACB4 		.ascii	"?y\254\264\226E\026\316.\012\266y\375\376\246M\017\223"
 211      964516CE 
 211      2E0AB679 
 211      FDFEA64D 
 211      0F93
 212 02a8 2EC1C4DB 		.ascii	".\301\304\333\301J\322z\257\334\250y\000\351\300\240"
 212      C14AD27A 
 212      AFDCA879 
 212      00E9C0A0 
 213 02b8 9DB5989F 		.ascii	"\235\265\230\237\\\3554U\323&\370\2672ji\303j\350 \207"
 213      5CED3455 
 213      D326F8B7 
 213      326A69C3 
 213      6AE82087 
ARM GAS  /tmp/ccUaNec6.s 			page 16


 214 02cc 5896A479 		.ascii	"X\226\244y\2268i\361\231\371\3066Kz\344>2\002\274X\026"
 214      963869F1 
 214      99F9C636 
 214      4B7AE43E 
 214      3202BC58 
 215 02e1 43BAC414 		.ascii	"C\272\304\024\177W!Q\371\355+\343\270}I\370k<\263\374"
 215      7F572151 
 215      F9ED2BE3 
 215      B87D49F8 
 215      6B3CB3FC 
 216 02f5 8EE4E4C9 		.ascii	"\216\344\344\311\300x\310\036\261%\233\334\265,\320"
 216      C078C81E 
 216      B1259BDC 
 216      B52CD0
 217 0304 FE4A881E 		.ascii	"\376J\210\036\244\214Q\353\022>ZFk\300@\364\230N\264"
 217      A48C51EB 
 217      123E5A46 
 217      6BC040F4 
 217      984EB4
 218 0317 84BF2DA3 		.ascii	"\204\277-\243V\212h'->+\337\027\023\335\225\315l^\335"
 218      568A6827 
 218      2D3E2BDF 
 218      1713DD95 
 218      CD6C5EDD 
 219 032b 6FBF1D48 		.ascii	"o\277\035Hx\376\024\307\031\376\311\314\265\211\337"
 219      78FE14C7 
 219      19FEC9CC 
 219      B589DF
 220 033a C9682D45 		.ascii	"\311h-E\361\0336\221.\254\003<\204\362\273\310\315u"
 220      F11B3691 
 220      2EAC033C 
 220      84F2BBC8 
 220      CD75
 221 034c C7E6B052 		.ascii	"\307\346\260R\177\006O\006\230\255.3\017ea\250\037g"
 221      7F064F06 
 221      98AD2E33 
 221      0F6561A8 
 221      1F67
 222 035e 41555362 		.ascii	"AUSb\240$\263\361H\015qk\317\221\011\316\324\246\243"
 222      A024B3F1 
 222      480D716B 
 222      CF9109CE 
 222      D4A6A3
 223 0371 2EF037B3 		.ascii	".\3607\263{\325fX\320t\311\025\273\017\003\260\3014"
 223      7BD56658 
 223      D074C915 
 223      BB0F03B0 
 223      C134
 224 0383 C99B9EC4 		.ascii	"\311\233\236\304\262f'xk\343\241y\230\204/0:/Z\275\274"
 224      B2662778 
 224      6BE3A179 
 224      98842F30 
 224      3A2F5ABD 
 225 0398 2BF9B5A7 		.ascii	"+\371\265\247\345}\274w\254\246S\262ltt\24591\363K!"
 225      E57DBC77 
 225      ACA653B2 
 225      6C7474A5 
ARM GAS  /tmp/ccUaNec6.s 			page 17


 225      3931F34B 
 226 03ad F705D4C3 		.ascii	"\367\005\324\303\346\224\032\262\033\316\273Z\343\003"
 226      E6941AB2 
 226      1BCEBB5A 
 226      E303
 227 03bb 4CC6C91E 		.ascii	"L\306\311\036B|^\213\361\236\022\306\257\032\215\367"
 227      427C5E8B 
 227      F19E12C6 
 227      AF1A8DF7 
 228 03cb 8EDBB8BF 		.ascii	"\216\333\270\277\254\361\255%\214\377j4~\264\022\343"
 228      ACF1AD25 
 228      8CFF6A34 
 228      7EB412E3 
 229 03db D5E38B7C 		.ascii	"\325\343\213|_\011\343#F\343\375\3436\356\267\220\257"
 229      5F09E323 
 229      46E3FDE3 
 229      36EEB790 
 229      AF
 230 03ec 6785842F 		.ascii	"g\205\204/\343\351p\275\302\256\327\331\365\006\\\363"
 230      E3E970BD 
 230      C2AED7D9 
 230      F5065CF3 
 231 03fc CDC99FF3 		.ascii	"\315\311\237\363F\177\006\230?g\3577\0152{\340h$\351"
 231      467F0698 
 231      3F67EF37 
 231      0D327BE0 
 231      6824E9
 232 040f 15ECC4B8 		.ascii	"\025\354\304\270\301lh\325\353\332P%`\345h\322\301\316"
 232      C16C68D5 
 232      EBDA5025 
 232      60E568D2 
 232      C1CE
 233 0421 8D1BAC84 		.ascii	"\215\033\254\204g\027*\001\233d\343\231]3nT\022>\307"
 233      67172A01 
 233      9B64E399 
 233      5D336E54 
 233      123EC7
 234 0434 6A5B9691 		.ascii	"j[\226\2219\312\256\267\330u\214]\357TB\357P\201\336"
 234      39CAAEB7 
 234      D8758C5D 
 234      EF5442EF 
 234      5081DE
 235 0447 7C79E347 		.ascii	"|y\343G\034k\271+S\376\256\272l\317:\227F\373\334\332"
 235      1C6BB92B 
 235      53FEAEBA 
 235      6CCF3A97 
 235      46FBDCDA 
 236 045b 197E88B1 		.ascii	"\031~\210\261>\306\206\235r\254KC\206rvH?\356H\370\017"
 236      3EC6869D 
 236      72AC4B43 
 236      86727648 
 236      3FEE48F8 
 237 0470 B6FF39AB 		.ascii	"\266\3779\253\031\216;\231\335\2537j\307+\255\022\376"
 237      198E3B99 
 237      DDAB376A 
 237      C72BAD12 
 237      FE
ARM GAS  /tmp/ccUaNec6.s 			page 18


 238 0481 59469585 		.ascii	"YF\225\205\303-n.\024\320\333\225\250\351\347i\250~"
 238      C32D6E2E 
 238      14D0DB95 
 238      A8E9E769 
 238      A87E
 239 0493 EF7661E2 		.ascii	"\357va\342e\265\016q=\023o\377\024\027\315\354\256\354"
 239      65B50E71 
 239      3D136FFF 
 239      1417CDEC 
 239      AEEC
 240 04a5 D8B975B5 		.ascii	"\330\271u\265\353I/\375\322\315\325\222\314W\330R9\341"
 240      EB492FFD 
 240      D2CDD592 
 240      CC57D852 
 240      39E1
 241 04b7 48506C9D 		.ascii	"HPl\235\021\001)\357\306:+\002\032\206\033N\320\243"
 241      110129EF 
 241      C63A2B02 
 241      1A861B4E 
 241      D0A3
 242 04c9 E8AA7B23 		.ascii	"\350\252{#\251\266&\316*\301\361T%\341z[\306-\014_w"
 242      A9B626CE 
 242      2AC1F154 
 242      25E17A5B 
 242      C62D0C5F 
 243 04de 1B19E686 		.ascii	"\033\031\346\206G\215^\334u\333}Y\347\333ch\0139~<{"
 243      478D5EDC 
 243      75DB7D59 
 243      E7DB6368 
 243      0B397E3C 
 244 04f3 E9DA71F7 		.ascii	"\351\332q\367J\372yO\017\013\030\242\032f9\375;\233"
 244      4AFA794F 
 244      0F0B18A2 
 244      1A6639FD 
 244      3B9B
 245 0505 700A6F5B 		.ascii	"p\012o[\003\021\037B\333\\\264\227\254\311<\253k\322"
 245      03111F42 
 245      DB5CB497 
 245      ACC93CAB 
 245      6BD2
 246 0517 ADED1DF4 		.ascii	"\255\355\035\364\027\201\343\340^\254U.\355\020\303"
 246      1781E3E0 
 246      5EAC552E 
 246      ED10C3
 247 0526 94AE14DE 		.ascii	"\224\256\024\336\236\304Zi\321\316\262\354\355\365\302"
 247      9EC45A69 
 247      D1CEB2EC 
 247      EDF5C2
 248 0535 DB5B58DB 		.ascii	"\333[X\333\373\265\357>\366\366F\341\355Z\257\2669k"
 248      FBB5EF3E 
 248      F6F646E1 
 248      ED5AAFB6 
 248      396B
 249 0547 5F4BAC59 		.ascii	"_K\254Y\266u:\303N\353l\203P8I>QW'j\277\204\"\206\245"
 249      B6753AC3 
 249      4EEB6C83 
 249      5038493E 
ARM GAS  /tmp/ccUaNec6.s 			page 19


 249      5157276A 
 250 0560 A8188D34 		.ascii	"\250\030\2154\213\212\232\222\245\230\"\306\344\030"
 250      8B8A9A92 
 250      A59822C6 
 250      E418
 251 056e EFD605D1 		.ascii	"\357\326\005\321<\343\310`\"\026K\304\305d\"\245*b\375"
 251      3CE3C860 
 251      22164BC4 
 251      C56422A5 
 251      2A62FD
 252 0581 CB4D0D4D 		.ascii	"\313M\015M\313\351\263d$*\247\024qQC\203\030\014\253"
 252      CBE9B364 
 252      242AA714 
 252      71514383 
 252      180CAB
 253 0594 ED4959A9 		.ascii	"\355IY\251\013#OLi\015\250\336E/,\3657\2407\304p\"&"
 253      0B234F4C 
 253      690DA8DE 
 253      452F2CF5 
 253      37A037C4 
 254 05ab 8B52545E 		.ascii	"\213RT^.6\311q5\221Z\224\222\222\341HP\021\227$\332"
 254      2E36C971 
 254      35915A94 
 254      9292E148 
 254      50119724 
 255 05c0 524139D5 		.ascii	"RA9\325\036hH\264\310\013\345x0\034x>\242\312\201P\""
 255      1E6848B4 
 255      C80BE578 
 255      301C783E 
 255      A2CA8150 
 256 05d5 15001381 		.ascii	"\025\000\023\201\347\352\027.\026\245Tlv<\021\227g\313"
 256      E7EA172E 
 256      16A5546C 
 256      763C1197 
 256      67CB
 257 05e7 5273448C 		.ascii	"RsD\214\304\203\321\266\026\031\034n\211\304U\260U\005"
 257      C483D1B6 
 257      16191C6E 
 257      89C455B0 
 257      5505
 258 05f9 7F4F3D19 		.ascii	"\177O=\031P\253\332\2403/\240\272\003\3116U\210$q\263"
 258      50ABDAA0 
 258      332FA0BA 
 258      03C93655 
 258      882471B3 
 259 060d 3BD02AAB 		.ascii	";\320*\253\321\377h\235NNk0h\361bn\335\274\2729F_Z\344"
 259      D1FF689D 
 259      4E4E6B30 
 259      68F1626E 
 259      DDBCBA39 
 260 0625 10F8E255 		.ascii	"\020\370\342U\"o\313\020x\000f\260E\021\232\2238^\025"
 260      226FCB10 
 260      780066B0 
 260      45119A93 
 260      385E15
 261 0638 58960250 		.ascii	"X\226\002P\245\322Y\017\243\232&9\226H\265/a\017\350"
 261      A5D2590F 
ARM GAS  /tmp/ccUaNec6.s 			page 20


 261      A39A2639 
 261      9648B52F 
 261      610FE8
 262 064b 8DD67BB5 		.ascii	"\215\326{\265\351\025\017\203rSp\027\004\351\202\360"
 262      E9150F83 
 262      72537017 
 262      04E982F0 
 263 065b 5C6FC554 		.ascii	"\\o\305Tos[($\247\334\324\270KN(\336D(\244\310jMLy\261"
 263      6F735B28 
 263      24A7DCD4 
 263      B84B4E28 
 263      DE4428A4 
 264 0675 F94D39A8 		.ascii	"\371M9\250.\216GTWLI\376_D\244\"\361VJ\004\274\213\267"
 264      2E8E4754 
 264      574C49FE 
 264      5F44A422 
 264      F1564A04 
 265 068c 45A355A1 		.ascii	"E\243U\241\270_I\312A<\307\013q\005\223\355\360B\015"
 265      B85F49CA 
 265      413CC70B 
 265      710593ED 
 265      F0420D
 266 069f A712CBDC 		.ascii	"\247\022\313\334QY\012\375\013\231\0013\256"
 266      51590AFD 
 266      0B990133 
 266      AE
 267              		.text
 268              		.section	.gnu.lto_.symtab.f5b972446147c1f7,"",%progbits
 269 0000 6D734F62 		.ascii	"msObjectInit\000\000\000\000\000\000\000\000\000\000"
 269      6A656374 
 269      496E6974 
 269      00000000 
 269      00000000 
 270 0016 0000D700 		.ascii	"\000\000\327\000\000\000"
 270      0000
 271              		.text
 272              		.section	.gnu.lto_.opts,"",%progbits
 273 0000 272D6D63 		.ascii	"'-mcpu=cortex-m3' '-mno-thumb-interwork' '-mthumb' "
 273      70753D63 
 273      6F727465 
 273      782D6D33 
 273      2720272D 
 274 0033 272D6767 		.ascii	"'-ggdb' '-O2' '-fomit-frame-pointer' '-falign-funct"
 274      64622720 
 274      272D4F32 
 274      2720272D 
 274      666F6D69 
 275 0066 696F6E73 		.ascii	"ions=16' '-ffunction-sections' '-fdata-sections' '-"
 275      3D313627 
 275      20272D66 
 275      66756E63 
 275      74696F6E 
 276 0099 666E6F2D 		.ascii	"fno-common' '-flto'\000"
 276      636F6D6D 
 276      6F6E2720 
 276      272D666C 
 276      746F2700 
ARM GAS  /tmp/ccUaNec6.s 			page 21


 277              		.text
 278              		.cfi_sections	.debug_frame
 279              		.section	.text._put,"ax",%progbits
 280              		.align	2
 281              		.p2align 4,,15
 282              		.thumb
 283              		.thumb_func
 284              		.type	_put, %function
 285              	_put:
 286              	.LFB219:
 287              		.file 1 "../../../os/hal/lib/streams/memstreams.c"
 288              		.loc 1 66 0
 289              		.cfi_startproc
 290              		@ args = 0, pretend = 0, frame = 0
 291              		@ frame_needed = 0, uses_anonymous_args = 0
 292              		@ link register save eliminated.
 293              	.LVL0:
 294              		.loc 1 69 0
 295 0000 C268     		ldr	r2, [r0, #12]
 296              		.loc 1 66 0
 297 0002 0346     		mov	r3, r0
 298              	.LVL1:
 299              		.loc 1 69 0
 300 0004 8068     		ldr	r0, [r0, #8]
 301              	.LVL2:
 302              		.loc 1 66 0
 303 0006 10B4     		push	{r4}
 304              		.cfi_def_cfa_offset 4
 305              		.cfi_offset 4, -4
 306              		.loc 1 69 0
 307 0008 9042     		cmp	r0, r2
 308              		.loc 1 71 0
 309 000a 1FBF     		itttt	ne
 310 000c 5C68     		ldrne	r4, [r3, #4]
 311              		.loc 1 73 0
 312 000e 0020     		movne	r0, #0
 313              		.loc 1 71 0
 314 0010 A154     		strbne	r1, [r4, r2]
 315              		.loc 1 72 0
 316 0012 DA68     		ldrne	r2, [r3, #12]
 317              		.loc 1 70 0
 318 0014 0EBF     		itee	eq
 319 0016 6FF00100 		mvneq	r0, #1
 320              		.loc 1 72 0
 321 001a 0132     		addne	r2, r2, #1
 322 001c DA60     		strne	r2, [r3, #12]
 323              		.loc 1 74 0
 324 001e 5DF8044B 		ldr	r4, [sp], #4
 325 0022 7047     		bx	lr
 326              		.cfi_endproc
 327              	.LFE219:
 328              		.size	_put, .-_put
 329 0024 AFF30080 		.section	.text._get,"ax",%progbits
 329      AFF30080 
 329      AFF30080 
 330              		.align	2
 331              		.p2align 4,,15
ARM GAS  /tmp/ccUaNec6.s 			page 22


 332              		.thumb
 333              		.thumb_func
 334              		.type	_get, %function
 335              	_get:
 336              	.LFB220:
 337              		.loc 1 76 0
 338              		.cfi_startproc
 339              		@ args = 0, pretend = 0, frame = 0
 340              		@ frame_needed = 0, uses_anonymous_args = 0
 341              		@ link register save eliminated.
 342              	.LVL3:
 343              		.loc 1 80 0
 344 0000 0369     		ldr	r3, [r0, #16]
 345 0002 C268     		ldr	r2, [r0, #12]
 346 0004 9A42     		cmp	r2, r3
 347              		.loc 1 82 0
 348 0006 1FBF     		itttt	ne
 349 0008 4268     		ldrne	r2, [r0, #4]
 350              		.loc 1 83 0
 351 000a 591C     		addne	r1, r3, #1
 352              		.loc 1 82 0
 353 000c D35C     		ldrbne	r3, [r2, r3]	@ zero_extendqisi2
 354              	.LVL4:
 355              		.loc 1 83 0
 356 000e 0161     		strne	r1, [r0, #16]
 357              		.loc 1 84 0
 358 0010 14BF     		ite	ne
 359 0012 1846     		movne	r0, r3
 360              	.LVL5:
 361              		.loc 1 81 0
 362 0014 6FF00100 		mvneq	r0, #1
 363              		.loc 1 85 0
 364 0018 7047     		bx	lr
 365              		.cfi_endproc
 366              	.LFE220:
 367              		.size	_get, .-_get
 368 001a 00BFAFF3 		.section	.text._reads,"ax",%progbits
 368      0080
 369              		.align	2
 370              		.p2align 4,,15
 371              		.thumb
 372              		.thumb_func
 373              		.type	_reads, %function
 374              	_reads:
 375              	.LFB218:
 376              		.loc 1 56 0
 377              		.cfi_startproc
 378              		@ args = 0, pretend = 0, frame = 0
 379              		@ frame_needed = 0, uses_anonymous_args = 0
 380              	.LVL6:
 381 0000 70B5     		push	{r4, r5, r6, lr}
 382              		.cfi_def_cfa_offset 16
 383              		.cfi_offset 4, -16
 384              		.cfi_offset 5, -12
 385              		.cfi_offset 6, -8
 386              		.cfi_offset 14, -4
 387              		.loc 1 59 0
ARM GAS  /tmp/ccUaNec6.s 			page 23


 388 0002 0369     		ldr	r3, [r0, #16]
 389 0004 C568     		ldr	r5, [r0, #12]
 390              		.loc 1 61 0
 391 0006 4668     		ldr	r6, [r0, #4]
 392              		.loc 1 59 0
 393 0008 ED1A     		subs	r5, r5, r3
 394 000a AA42     		cmp	r2, r5
 395 000c 38BF     		it	cc
 396 000e 1546     		movcc	r5, r2
 397              		.loc 1 56 0
 398 0010 0446     		mov	r4, r0
 399              	.LVL7:
 400              		.loc 1 61 0
 401 0012 2A46     		mov	r2, r5
 402 0014 0846     		mov	r0, r1
 403              	.LVL8:
 404 0016 F118     		adds	r1, r6, r3
 405              	.LVL9:
 406 0018 FFF7FEFF 		bl	memcpy
 407              	.LVL10:
 408              		.loc 1 62 0
 409 001c 2369     		ldr	r3, [r4, #16]
 410              		.loc 1 64 0
 411 001e 2846     		mov	r0, r5
 412              		.loc 1 62 0
 413 0020 1D44     		add	r5, r5, r3
 414              	.LVL11:
 415 0022 2561     		str	r5, [r4, #16]
 416              		.loc 1 64 0
 417 0024 70BD     		pop	{r4, r5, r6, pc}
 418              		.cfi_endproc
 419              	.LFE218:
 420              		.size	_reads, .-_reads
 421 0026 00BFAFF3 		.section	.text._writes,"ax",%progbits
 421      0080AFF3 
 421      0080
 422              		.align	2
 423              		.p2align 4,,15
 424              		.thumb
 425              		.thumb_func
 426              		.type	_writes, %function
 427              	_writes:
 428              	.LFB217:
 429              		.loc 1 46 0
 430              		.cfi_startproc
 431              		@ args = 0, pretend = 0, frame = 0
 432              		@ frame_needed = 0, uses_anonymous_args = 0
 433              	.LVL12:
 434 0000 38B5     		push	{r3, r4, r5, lr}
 435              		.cfi_def_cfa_offset 16
 436              		.cfi_offset 3, -16
 437              		.cfi_offset 4, -12
 438              		.cfi_offset 5, -8
 439              		.cfi_offset 14, -4
 440              		.loc 1 49 0
 441 0002 C368     		ldr	r3, [r0, #12]
 442 0004 8568     		ldr	r5, [r0, #8]
ARM GAS  /tmp/ccUaNec6.s 			page 24


 443              		.loc 1 46 0
 444 0006 0446     		mov	r4, r0
 445              	.LVL13:
 446              		.loc 1 49 0
 447 0008 ED1A     		subs	r5, r5, r3
 448              		.loc 1 51 0
 449 000a 4068     		ldr	r0, [r0, #4]
 450              	.LVL14:
 451 000c AA42     		cmp	r2, r5
 452 000e 38BF     		it	cc
 453 0010 1546     		movcc	r5, r2
 454              	.LVL15:
 455 0012 2A46     		mov	r2, r5
 456 0014 1844     		add	r0, r0, r3
 457 0016 FFF7FEFF 		bl	memcpy
 458              	.LVL16:
 459              		.loc 1 52 0
 460 001a E368     		ldr	r3, [r4, #12]
 461              		.loc 1 54 0
 462 001c 2846     		mov	r0, r5
 463              		.loc 1 52 0
 464 001e 1D44     		add	r5, r5, r3
 465              	.LVL17:
 466 0020 E560     		str	r5, [r4, #12]
 467              		.loc 1 54 0
 468 0022 38BD     		pop	{r3, r4, r5, pc}
 469              		.cfi_endproc
 470              	.LFE217:
 471              		.size	_writes, .-_writes
 472 0024 AFF30080 		.section	.text.msObjectInit,"ax",%progbits
 472      AFF30080 
 472      AFF30080 
 473              		.align	2
 474              		.p2align 4,,15
 475              		.global	msObjectInit
 476              		.thumb
 477              		.thumb_func
 478              		.type	msObjectInit, %function
 479              	msObjectInit:
 480              	.LFB221:
 481              		.loc 1 104 0
 482              		.cfi_startproc
 483              		@ args = 0, pretend = 0, frame = 0
 484              		@ frame_needed = 0, uses_anonymous_args = 0
 485              		@ link register save eliminated.
 486              	.LVL18:
 487 0000 30B4     		push	{r4, r5}
 488              		.cfi_def_cfa_offset 8
 489              		.cfi_offset 4, -8
 490              		.cfi_offset 5, -4
 491              		.loc 1 106 0
 492 0002 40F20004 		movw	r4, #:lower16:.LANCHOR0
 493 0006 C0F20004 		movt	r4, #:upper16:.LANCHOR0
 494              		.loc 1 110 0
 495 000a 0025     		movs	r5, #0
 496              		.loc 1 106 0
 497 000c 0460     		str	r4, [r0]
ARM GAS  /tmp/ccUaNec6.s 			page 25


 498              		.loc 1 110 0
 499 000e 0561     		str	r5, [r0, #16]
 500              		.loc 1 107 0
 501 0010 4160     		str	r1, [r0, #4]
 502              		.loc 1 108 0
 503 0012 8260     		str	r2, [r0, #8]
 504              		.loc 1 109 0
 505 0014 C360     		str	r3, [r0, #12]
 506              		.loc 1 111 0
 507 0016 30BC     		pop	{r4, r5}
 508 0018 7047     		bx	lr
 509              		.cfi_endproc
 510              	.LFE221:
 511              		.size	msObjectInit, .-msObjectInit
 512 001a 00BFAFF3 		.section	.rodata.vmt,"a",%progbits
 512      0080
 513              		.align	2
 514              		.set	.LANCHOR0,. + 0
 515              		.type	vmt, %object
 516              		.size	vmt, 16
 517              	vmt:
 518 0000 00000000 		.word	_writes
 519 0004 00000000 		.word	_reads
 520 0008 00000000 		.word	_put
 521 000c 00000000 		.word	_get
 522              		.text
 523              	.Letext0:
 524              		.file 2 "/home/alex/MentorGraphics/Sourcery_CodeBench_Lite_for_ARM_EABI/lib/gcc/arm-none-eabi/4.8.
 525              		.file 3 "/home/alex/MentorGraphics/Sourcery_CodeBench_Lite_for_ARM_EABI/arm-none-eabi/include/stdi
 526              		.file 4 "../../../os/common/ports/ARMCMx/compilers/GCC/chtypes.h"
 527              		.file 5 "../../../os/rt/include/chsystypes.h"
 528              		.file 6 "../../../os/rt/include/chschd.h"
 529              		.file 7 "../../../os/common/ports/ARMCMx/chcore.h"
 530              		.file 8 "../../../os/common/ports/ARMCMx/chcore_v7m.h"
 531              		.file 9 "../../../os/rt/include/chtm.h"
 532              		.file 10 "../../../os/rt/include/chsem.h"
 533              		.file 11 "../../../os/rt/include/chmtx.h"
 534              		.file 12 "../../../os/hal/lib/streams/memstreams.h"
 535              		.file 13 "../../../os/common/ext/CMSIS/include/core_cm3.h"
 536              		.section	.debug_info,"",%progbits
 537              	.Ldebug_info0:
 538 0000 F0080000 		.4byte	0x8f0
 539 0004 0400     		.2byte	0x4
 540 0006 00000000 		.4byte	.Ldebug_abbrev0
 541 000a 04       		.byte	0x4
 542 000b 01       		.uleb128 0x1
 543 000c EF020000 		.4byte	.LASF99
 544 0010 01       		.byte	0x1
 545 0011 2F000000 		.4byte	.LASF100
 546 0015 7E020000 		.4byte	.LASF101
 547 0019 00000000 		.4byte	.Ldebug_ranges0+0
 548 001d 00000000 		.4byte	0
 549 0021 00000000 		.4byte	.Ldebug_line0
 550 0025 02       		.uleb128 0x2
 551 0026 01       		.byte	0x1
 552 0027 06       		.byte	0x6
 553 0028 E8000000 		.4byte	.LASF0
ARM GAS  /tmp/ccUaNec6.s 			page 26


 554 002c 02       		.uleb128 0x2
 555 002d 01       		.byte	0x1
 556 002e 08       		.byte	0x8
 557 002f C5030000 		.4byte	.LASF1
 558 0033 02       		.uleb128 0x2
 559 0034 02       		.byte	0x2
 560 0035 05       		.byte	0x5
 561 0036 D3030000 		.4byte	.LASF2
 562 003a 02       		.uleb128 0x2
 563 003b 02       		.byte	0x2
 564 003c 07       		.byte	0x7
 565 003d 87010000 		.4byte	.LASF3
 566 0041 03       		.uleb128 0x3
 567 0042 04       		.byte	0x4
 568 0043 05       		.byte	0x5
 569 0044 696E7400 		.ascii	"int\000"
 570 0048 02       		.uleb128 0x2
 571 0049 04       		.byte	0x4
 572 004a 07       		.byte	0x7
 573 004b 5C010000 		.4byte	.LASF4
 574 004f 02       		.uleb128 0x2
 575 0050 08       		.byte	0x8
 576 0051 05       		.byte	0x5
 577 0052 DA000000 		.4byte	.LASF5
 578 0056 02       		.uleb128 0x2
 579 0057 08       		.byte	0x8
 580 0058 07       		.byte	0x7
 581 0059 78000000 		.4byte	.LASF6
 582 005d 02       		.uleb128 0x2
 583 005e 04       		.byte	0x4
 584 005f 05       		.byte	0x5
 585 0060 0F010000 		.4byte	.LASF7
 586 0064 02       		.uleb128 0x2
 587 0065 04       		.byte	0x4
 588 0066 07       		.byte	0x7
 589 0067 13020000 		.4byte	.LASF8
 590 006b 04       		.uleb128 0x4
 591 006c 04       		.byte	0x4
 592 006d 02       		.uleb128 0x2
 593 006e 04       		.byte	0x4
 594 006f 07       		.byte	0x7
 595 0070 43040000 		.4byte	.LASF9
 596 0074 02       		.uleb128 0x2
 597 0075 01       		.byte	0x1
 598 0076 08       		.byte	0x8
 599 0077 61040000 		.4byte	.LASF10
 600 007b 05       		.uleb128 0x5
 601 007c 04       		.byte	0x4
 602 007d 81000000 		.4byte	0x81
 603 0081 06       		.uleb128 0x6
 604 0082 74000000 		.4byte	0x74
 605 0086 07       		.uleb128 0x7
 606 0087 0D000000 		.4byte	.LASF11
 607 008b 02       		.byte	0x2
 608 008c D4       		.byte	0xd4
 609 008d 48000000 		.4byte	0x48
 610 0091 07       		.uleb128 0x7
ARM GAS  /tmp/ccUaNec6.s 			page 27


 611 0092 C8040000 		.4byte	.LASF12
 612 0096 03       		.byte	0x3
 613 0097 2A       		.byte	0x2a
 614 0098 2C000000 		.4byte	0x2c
 615 009c 07       		.uleb128 0x7
 616 009d 2D010000 		.4byte	.LASF13
 617 00a1 03       		.byte	0x3
 618 00a2 36       		.byte	0x36
 619 00a3 3A000000 		.4byte	0x3a
 620 00a7 07       		.uleb128 0x7
 621 00a8 BD030000 		.4byte	.LASF14
 622 00ac 03       		.byte	0x3
 623 00ad 4F       		.byte	0x4f
 624 00ae 5D000000 		.4byte	0x5d
 625 00b2 07       		.uleb128 0x7
 626 00b3 15040000 		.4byte	.LASF15
 627 00b7 03       		.byte	0x3
 628 00b8 50       		.byte	0x50
 629 00b9 6D000000 		.4byte	0x6d
 630 00bd 07       		.uleb128 0x7
 631 00be 21000000 		.4byte	.LASF16
 632 00c2 03       		.byte	0x3
 633 00c3 78       		.byte	0x78
 634 00c4 56000000 		.4byte	0x56
 635 00c8 07       		.uleb128 0x7
 636 00c9 99040000 		.4byte	.LASF17
 637 00cd 04       		.byte	0x4
 638 00ce 39       		.byte	0x39
 639 00cf B2000000 		.4byte	0xb2
 640 00d3 07       		.uleb128 0x7
 641 00d4 C4010000 		.4byte	.LASF18
 642 00d8 04       		.byte	0x4
 643 00d9 3C       		.byte	0x3c
 644 00da 91000000 		.4byte	0x91
 645 00de 07       		.uleb128 0x7
 646 00df 18010000 		.4byte	.LASF19
 647 00e3 04       		.byte	0x4
 648 00e4 3D       		.byte	0x3d
 649 00e5 91000000 		.4byte	0x91
 650 00e9 07       		.uleb128 0x7
 651 00ea 25040000 		.4byte	.LASF20
 652 00ee 04       		.byte	0x4
 653 00ef 3E       		.byte	0x3e
 654 00f0 91000000 		.4byte	0x91
 655 00f4 07       		.uleb128 0x7
 656 00f5 92030000 		.4byte	.LASF21
 657 00f9 04       		.byte	0x4
 658 00fa 40       		.byte	0x40
 659 00fb B2000000 		.4byte	0xb2
 660 00ff 07       		.uleb128 0x7
 661 0100 A9010000 		.4byte	.LASF22
 662 0104 04       		.byte	0x4
 663 0105 41       		.byte	0x41
 664 0106 A7000000 		.4byte	0xa7
 665 010a 07       		.uleb128 0x7
 666 010b DA010000 		.4byte	.LASF23
 667 010f 04       		.byte	0x4
ARM GAS  /tmp/ccUaNec6.s 			page 28


 668 0110 43       		.byte	0x43
 669 0111 B2000000 		.4byte	0xb2
 670 0115 07       		.uleb128 0x7
 671 0116 56010000 		.4byte	.LASF24
 672 011a 04       		.byte	0x4
 673 011b 45       		.byte	0x45
 674 011c A7000000 		.4byte	0xa7
 675 0120 07       		.uleb128 0x7
 676 0121 75040000 		.4byte	.LASF25
 677 0125 05       		.byte	0x5
 678 0126 35       		.byte	0x35
 679 0127 9C000000 		.4byte	0x9c
 680 012b 07       		.uleb128 0x7
 681 012c 6C040000 		.4byte	.LASF26
 682 0130 05       		.byte	0x5
 683 0131 3F       		.byte	0x3f
 684 0132 36010000 		.4byte	0x136
 685 0136 08       		.uleb128 0x8
 686 0137 9F010000 		.4byte	.LASF44
 687 013b 44       		.byte	0x44
 688 013c 06       		.byte	0x6
 689 013d 9A       		.byte	0x9a
 690 013e 14020000 		.4byte	0x214
 691 0142 09       		.uleb128 0x9
 692 0143 7B010000 		.4byte	.LASF27
 693 0147 06       		.byte	0x6
 694 0148 9B       		.byte	0x9b
 695 0149 49020000 		.4byte	0x249
 696 014d 00       		.byte	0
 697 014e 09       		.uleb128 0x9
 698 014f 64020000 		.4byte	.LASF28
 699 0153 06       		.byte	0x6
 700 0154 9C       		.byte	0x9c
 701 0155 F4000000 		.4byte	0xf4
 702 0159 08       		.byte	0x8
 703 015a 0A       		.uleb128 0xa
 704 015b 63747800 		.ascii	"ctx\000"
 705 015f 06       		.byte	0x6
 706 0160 9D       		.byte	0x9d
 707 0161 38040000 		.4byte	0x438
 708 0165 0C       		.byte	0xc
 709 0166 09       		.uleb128 0x9
 710 0167 F1010000 		.4byte	.LASF29
 711 016b 06       		.byte	0x6
 712 016c 9F       		.byte	0x9f
 713 016d 1F020000 		.4byte	0x21f
 714 0171 10       		.byte	0x10
 715 0172 09       		.uleb128 0x9
 716 0173 66040000 		.4byte	.LASF30
 717 0177 06       		.byte	0x6
 718 0178 A0       		.byte	0xa0
 719 0179 1F020000 		.4byte	0x21f
 720 017d 14       		.byte	0x14
 721 017e 09       		.uleb128 0x9
 722 017f 76010000 		.4byte	.LASF31
 723 0183 06       		.byte	0x6
 724 0184 A7       		.byte	0xa7
ARM GAS  /tmp/ccUaNec6.s 			page 29


 725 0185 7B000000 		.4byte	0x7b
 726 0189 18       		.byte	0x18
 727 018a 09       		.uleb128 0x9
 728 018b 55040000 		.4byte	.LASF32
 729 018f 06       		.byte	0x6
 730 0190 B0       		.byte	0xb0
 731 0191 BD050000 		.4byte	0x5bd
 732 0195 1C       		.byte	0x1c
 733 0196 09       		.uleb128 0x9
 734 0197 09010000 		.4byte	.LASF33
 735 019b 06       		.byte	0x6
 736 019c B5       		.byte	0xb5
 737 019d DE000000 		.4byte	0xde
 738 01a1 20       		.byte	0x20
 739 01a2 09       		.uleb128 0x9
 740 01a3 D0040000 		.4byte	.LASF34
 741 01a7 06       		.byte	0x6
 742 01a8 B9       		.byte	0xb9
 743 01a9 D3000000 		.4byte	0xd3
 744 01ad 21       		.byte	0x21
 745 01ae 09       		.uleb128 0x9
 746 01af DA020000 		.4byte	.LASF35
 747 01b3 06       		.byte	0x6
 748 01b4 BE       		.byte	0xbe
 749 01b5 E9000000 		.4byte	0xe9
 750 01b9 22       		.byte	0x22
 751 01ba 0B       		.uleb128 0xb
 752 01bb 7500     		.ascii	"u\000"
 753 01bd 06       		.byte	0x6
 754 01be 0F01     		.2byte	0x10f
 755 01c0 F2040000 		.4byte	0x4f2
 756 01c4 24       		.byte	0x24
 757 01c5 0C       		.uleb128 0xc
 758 01c6 46010000 		.4byte	.LASF36
 759 01ca 06       		.byte	0x6
 760 01cb 1401     		.2byte	0x114
 761 01cd 25020000 		.4byte	0x225
 762 01d1 28       		.byte	0x28
 763 01d2 0C       		.uleb128 0xc
 764 01d3 00010000 		.4byte	.LASF37
 765 01d7 06       		.byte	0x6
 766 01d8 1A01     		.2byte	0x11a
 767 01da 49020000 		.4byte	0x249
 768 01de 2C       		.byte	0x2c
 769 01df 0C       		.uleb128 0xc
 770 01e0 AF010000 		.4byte	.LASF38
 771 01e4 06       		.byte	0x6
 772 01e5 2001     		.2byte	0x120
 773 01e7 0A010000 		.4byte	0x10a
 774 01eb 34       		.byte	0x34
 775 01ec 0C       		.uleb128 0xc
 776 01ed F1040000 		.4byte	.LASF39
 777 01f1 06       		.byte	0x6
 778 01f2 2701     		.2byte	0x127
 779 01f4 B7050000 		.4byte	0x5b7
 780 01f8 38       		.byte	0x38
 781 01f9 0C       		.uleb128 0xc
ARM GAS  /tmp/ccUaNec6.s 			page 30


 782 01fa 0A020000 		.4byte	.LASF40
 783 01fe 06       		.byte	0x6
 784 01ff 2B01     		.2byte	0x12b
 785 0201 F4000000 		.4byte	0xf4
 786 0205 3C       		.byte	0x3c
 787 0206 0C       		.uleb128 0xc
 788 0207 81010000 		.4byte	.LASF41
 789 020b 06       		.byte	0x6
 790 020c 3201     		.2byte	0x132
 791 020e 6B000000 		.4byte	0x6b
 792 0212 40       		.byte	0x40
 793 0213 00       		.byte	0
 794 0214 07       		.uleb128 0x7
 795 0215 1C020000 		.4byte	.LASF42
 796 0219 05       		.byte	0x5
 797 021a 44       		.byte	0x44
 798 021b 1F020000 		.4byte	0x21f
 799 021f 05       		.uleb128 0x5
 800 0220 04       		.byte	0x4
 801 0221 2B010000 		.4byte	0x12b
 802 0225 07       		.uleb128 0x7
 803 0226 E2040000 		.4byte	.LASF43
 804 022a 05       		.byte	0x5
 805 022b 49       		.byte	0x49
 806 022c 30020000 		.4byte	0x230
 807 0230 08       		.uleb128 0x8
 808 0231 2D040000 		.4byte	.LASF45
 809 0235 04       		.byte	0x4
 810 0236 06       		.byte	0x6
 811 0237 88       		.byte	0x88
 812 0238 49020000 		.4byte	0x249
 813 023c 09       		.uleb128 0x9
 814 023d CE000000 		.4byte	.LASF46
 815 0241 06       		.byte	0x6
 816 0242 89       		.byte	0x89
 817 0243 1F020000 		.4byte	0x21f
 818 0247 00       		.byte	0
 819 0248 00       		.byte	0
 820 0249 07       		.uleb128 0x7
 821 024a A9040000 		.4byte	.LASF47
 822 024e 05       		.byte	0x5
 823 024f 50       		.byte	0x50
 824 0250 54020000 		.4byte	0x254
 825 0254 08       		.uleb128 0x8
 826 0255 58000000 		.4byte	.LASF48
 827 0259 08       		.byte	0x8
 828 025a 06       		.byte	0x6
 829 025b 8F       		.byte	0x8f
 830 025c 79020000 		.4byte	0x279
 831 0260 09       		.uleb128 0x9
 832 0261 CE000000 		.4byte	.LASF46
 833 0265 06       		.byte	0x6
 834 0266 90       		.byte	0x90
 835 0267 1F020000 		.4byte	0x21f
 836 026b 00       		.byte	0
 837 026c 09       		.uleb128 0x9
 838 026d 2A000000 		.4byte	.LASF49
ARM GAS  /tmp/ccUaNec6.s 			page 31


 839 0271 06       		.byte	0x6
 840 0272 91       		.byte	0x91
 841 0273 1F020000 		.4byte	0x21f
 842 0277 04       		.byte	0x4
 843 0278 00       		.byte	0
 844 0279 07       		.uleb128 0x7
 845 027a 00000000 		.4byte	.LASF50
 846 027e 05       		.byte	0x5
 847 027f 57       		.byte	0x57
 848 0280 84020000 		.4byte	0x284
 849 0284 0D       		.uleb128 0xd
 850 0285 CC010000 		.4byte	.LASF51
 851 0289 1C       		.byte	0x1c
 852 028a 06       		.byte	0x6
 853 028b 6A01     		.2byte	0x16a
 854 028d E0020000 		.4byte	0x2e0
 855 0291 0C       		.uleb128 0xc
 856 0292 7B010000 		.4byte	.LASF27
 857 0296 06       		.byte	0x6
 858 0297 6B01     		.2byte	0x16b
 859 0299 49020000 		.4byte	0x249
 860 029d 00       		.byte	0
 861 029e 0C       		.uleb128 0xc
 862 029f 64020000 		.4byte	.LASF28
 863 02a3 06       		.byte	0x6
 864 02a4 6C01     		.2byte	0x16c
 865 02a6 F4000000 		.4byte	0xf4
 866 02aa 08       		.byte	0x8
 867 02ab 0B       		.uleb128 0xb
 868 02ac 63747800 		.ascii	"ctx\000"
 869 02b0 06       		.byte	0x6
 870 02b1 6E01     		.2byte	0x16e
 871 02b3 38040000 		.4byte	0x438
 872 02b7 0C       		.byte	0xc
 873 02b8 0C       		.uleb128 0xc
 874 02b9 F1010000 		.4byte	.LASF29
 875 02bd 06       		.byte	0x6
 876 02be 7101     		.2byte	0x171
 877 02c0 1F020000 		.4byte	0x21f
 878 02c4 10       		.byte	0x10
 879 02c5 0C       		.uleb128 0xc
 880 02c6 66040000 		.4byte	.LASF30
 881 02ca 06       		.byte	0x6
 882 02cb 7201     		.2byte	0x172
 883 02cd 1F020000 		.4byte	0x21f
 884 02d1 14       		.byte	0x14
 885 02d2 0C       		.uleb128 0xc
 886 02d3 69020000 		.4byte	.LASF52
 887 02d7 06       		.byte	0x6
 888 02d8 7501     		.2byte	0x175
 889 02da 1F020000 		.4byte	0x21f
 890 02de 18       		.byte	0x18
 891 02df 00       		.byte	0
 892 02e0 07       		.uleb128 0x7
 893 02e1 7F040000 		.4byte	.LASF53
 894 02e5 05       		.byte	0x5
 895 02e6 5C       		.byte	0x5c
ARM GAS  /tmp/ccUaNec6.s 			page 32


 896 02e7 EB020000 		.4byte	0x2eb
 897 02eb 05       		.uleb128 0x5
 898 02ec 04       		.byte	0x4
 899 02ed F1020000 		.4byte	0x2f1
 900 02f1 0E       		.uleb128 0xe
 901 02f2 FC020000 		.4byte	0x2fc
 902 02f6 0F       		.uleb128 0xf
 903 02f7 6B000000 		.4byte	0x6b
 904 02fb 00       		.byte	0
 905 02fc 07       		.uleb128 0x7
 906 02fd DF020000 		.4byte	.LASF54
 907 0301 05       		.byte	0x5
 908 0302 61       		.byte	0x61
 909 0303 07030000 		.4byte	0x307
 910 0307 0D       		.uleb128 0xd
 911 0308 F7030000 		.4byte	.LASF55
 912 030c 14       		.byte	0x14
 913 030d 06       		.byte	0x6
 914 030e 4501     		.2byte	0x145
 915 0310 56030000 		.4byte	0x356
 916 0314 0C       		.uleb128 0xc
 917 0315 CE000000 		.4byte	.LASF46
 918 0319 06       		.byte	0x6
 919 031a 4601     		.2byte	0x146
 920 031c C3050000 		.4byte	0x5c3
 921 0320 00       		.byte	0
 922 0321 0C       		.uleb128 0xc
 923 0322 2A000000 		.4byte	.LASF49
 924 0326 06       		.byte	0x6
 925 0327 4701     		.2byte	0x147
 926 0329 C3050000 		.4byte	0x5c3
 927 032d 04       		.byte	0x4
 928 032e 0C       		.uleb128 0xc
 929 032f 14000000 		.4byte	.LASF56
 930 0333 06       		.byte	0x6
 931 0334 4801     		.2byte	0x148
 932 0336 20010000 		.4byte	0x120
 933 033a 08       		.byte	0x8
 934 033b 0C       		.uleb128 0xc
 935 033c 21010000 		.4byte	.LASF57
 936 0340 06       		.byte	0x6
 937 0341 4901     		.2byte	0x149
 938 0343 E0020000 		.4byte	0x2e0
 939 0347 0C       		.byte	0xc
 940 0348 0B       		.uleb128 0xb
 941 0349 70617200 		.ascii	"par\000"
 942 034d 06       		.byte	0x6
 943 034e 4B01     		.2byte	0x14b
 944 0350 6B000000 		.4byte	0x6b
 945 0354 10       		.byte	0x10
 946 0355 00       		.byte	0
 947 0356 07       		.uleb128 0x7
 948 0357 AB000000 		.4byte	.LASF58
 949 035b 05       		.byte	0x5
 950 035c 66       		.byte	0x66
 951 035d 61030000 		.4byte	0x361
 952 0361 0D       		.uleb128 0xd
ARM GAS  /tmp/ccUaNec6.s 			page 33


 953 0362 2F020000 		.4byte	.LASF59
 954 0366 0C       		.byte	0xc
 955 0367 06       		.byte	0x6
 956 0368 5501     		.2byte	0x155
 957 036a A3030000 		.4byte	0x3a3
 958 036e 0C       		.uleb128 0xc
 959 036f CE000000 		.4byte	.LASF46
 960 0373 06       		.byte	0x6
 961 0374 5601     		.2byte	0x156
 962 0376 C3050000 		.4byte	0x5c3
 963 037a 00       		.byte	0
 964 037b 0C       		.uleb128 0xc
 965 037c 2A000000 		.4byte	.LASF49
 966 0380 06       		.byte	0x6
 967 0381 5801     		.2byte	0x158
 968 0383 C3050000 		.4byte	0x5c3
 969 0387 04       		.byte	0x4
 970 0388 0C       		.uleb128 0xc
 971 0389 14000000 		.4byte	.LASF56
 972 038d 06       		.byte	0x6
 973 038e 5A01     		.2byte	0x15a
 974 0390 20010000 		.4byte	0x120
 975 0394 08       		.byte	0x8
 976 0395 0C       		.uleb128 0xc
 977 0396 DD030000 		.4byte	.LASF60
 978 039a 06       		.byte	0x6
 979 039b 6201     		.2byte	0x162
 980 039d 20010000 		.4byte	0x120
 981 03a1 0A       		.byte	0xa
 982 03a2 00       		.byte	0
 983 03a3 07       		.uleb128 0x7
 984 03a4 69000000 		.4byte	.LASF61
 985 03a8 05       		.byte	0x5
 986 03a9 6B       		.byte	0x6b
 987 03aa AE030000 		.4byte	0x3ae
 988 03ae 0D       		.uleb128 0xd
 989 03af A7030000 		.4byte	.LASF62
 990 03b3 04       		.byte	0x4
 991 03b4 06       		.byte	0x6
 992 03b5 7C01     		.2byte	0x17c
 993 03b7 C9030000 		.4byte	0x3c9
 994 03bb 0C       		.uleb128 0xc
 995 03bc 88040000 		.4byte	.LASF63
 996 03c0 06       		.byte	0x6
 997 03c1 8401     		.2byte	0x184
 998 03c3 C9050000 		.4byte	0x5c9
 999 03c7 00       		.byte	0
 1000 03c8 00       		.byte	0
 1001 03c9 07       		.uleb128 0x7
 1002 03ca B8010000 		.4byte	.LASF64
 1003 03ce 05       		.byte	0x5
 1004 03cf 70       		.byte	0x70
 1005 03d0 D4030000 		.4byte	0x3d4
 1006 03d4 0D       		.uleb128 0xd
 1007 03d5 ED030000 		.4byte	.LASF65
 1008 03d9 74       		.byte	0x74
 1009 03da 06       		.byte	0x6
ARM GAS  /tmp/ccUaNec6.s 			page 34


 1010 03db 9C01     		.2byte	0x19c
 1011 03dd 22040000 		.4byte	0x422
 1012 03e1 0C       		.uleb128 0xc
 1013 03e2 C2040000 		.4byte	.LASF66
 1014 03e6 06       		.byte	0x6
 1015 03e7 A001     		.2byte	0x1a0
 1016 03e9 79020000 		.4byte	0x279
 1017 03ed 00       		.byte	0
 1018 03ee 0C       		.uleb128 0xc
 1019 03ef F9000000 		.4byte	.LASF67
 1020 03f3 06       		.byte	0x6
 1021 03f4 A401     		.2byte	0x1a4
 1022 03f6 56030000 		.4byte	0x356
 1023 03fa 1C       		.byte	0x1c
 1024 03fb 0B       		.uleb128 0xb
 1025 03fc 64626700 		.ascii	"dbg\000"
 1026 0400 06       		.byte	0x6
 1027 0401 A801     		.2byte	0x1a8
 1028 0403 A3030000 		.4byte	0x3a3
 1029 0407 28       		.byte	0x28
 1030 0408 0C       		.uleb128 0xc
 1031 0409 98000000 		.4byte	.LASF68
 1032 040d 06       		.byte	0x6
 1033 040e AC01     		.2byte	0x1ac
 1034 0410 2B010000 		.4byte	0x12b
 1035 0414 2C       		.byte	0x2c
 1036 0415 0B       		.uleb128 0xb
 1037 0416 746D00   		.ascii	"tm\000"
 1038 0419 06       		.byte	0x6
 1039 041a B101     		.2byte	0x1b1
 1040 041c E7040000 		.4byte	0x4e7
 1041 0420 70       		.byte	0x70
 1042 0421 00       		.byte	0
 1043 0422 07       		.uleb128 0x7
 1044 0423 3D010000 		.4byte	.LASF69
 1045 0427 07       		.byte	0x7
 1046 0428 65       		.byte	0x65
 1047 0429 6B000000 		.4byte	0x6b
 1048 042d 07       		.uleb128 0x7
 1049 042e E6010000 		.4byte	.LASF70
 1050 0432 07       		.byte	0x7
 1051 0433 6D       		.byte	0x6d
 1052 0434 BD000000 		.4byte	0xbd
 1053 0438 08       		.uleb128 0x8
 1054 0439 46020000 		.4byte	.LASF71
 1055 043d 04       		.byte	0x4
 1056 043e 07       		.byte	0x7
 1057 043f 89       		.byte	0x89
 1058 0440 50040000 		.4byte	0x450
 1059 0444 0A       		.uleb128 0xa
 1060 0445 737000   		.ascii	"sp\000"
 1061 0448 07       		.byte	0x7
 1062 0449 8A       		.byte	0x8a
 1063 044a CC040000 		.4byte	0x4cc
 1064 044e 00       		.byte	0
 1065 044f 00       		.byte	0
 1066 0450 0D       		.uleb128 0xd
ARM GAS  /tmp/ccUaNec6.s 			page 35


 1067 0451 CE020000 		.4byte	.LASF72
 1068 0455 24       		.byte	0x24
 1069 0456 08       		.byte	0x8
 1070 0457 5901     		.2byte	0x159
 1071 0459 CC040000 		.4byte	0x4cc
 1072 045d 0B       		.uleb128 0xb
 1073 045e 723400   		.ascii	"r4\000"
 1074 0461 08       		.byte	0x8
 1075 0462 6C01     		.2byte	0x16c
 1076 0464 22040000 		.4byte	0x422
 1077 0468 00       		.byte	0
 1078 0469 0B       		.uleb128 0xb
 1079 046a 723500   		.ascii	"r5\000"
 1080 046d 08       		.byte	0x8
 1081 046e 6D01     		.2byte	0x16d
 1082 0470 22040000 		.4byte	0x422
 1083 0474 04       		.byte	0x4
 1084 0475 0B       		.uleb128 0xb
 1085 0476 723600   		.ascii	"r6\000"
 1086 0479 08       		.byte	0x8
 1087 047a 6E01     		.2byte	0x16e
 1088 047c 22040000 		.4byte	0x422
 1089 0480 08       		.byte	0x8
 1090 0481 0B       		.uleb128 0xb
 1091 0482 723700   		.ascii	"r7\000"
 1092 0485 08       		.byte	0x8
 1093 0486 6F01     		.2byte	0x16f
 1094 0488 22040000 		.4byte	0x422
 1095 048c 0C       		.byte	0xc
 1096 048d 0B       		.uleb128 0xb
 1097 048e 723800   		.ascii	"r8\000"
 1098 0491 08       		.byte	0x8
 1099 0492 7001     		.2byte	0x170
 1100 0494 22040000 		.4byte	0x422
 1101 0498 10       		.byte	0x10
 1102 0499 0B       		.uleb128 0xb
 1103 049a 723900   		.ascii	"r9\000"
 1104 049d 08       		.byte	0x8
 1105 049e 7101     		.2byte	0x171
 1106 04a0 22040000 		.4byte	0x422
 1107 04a4 14       		.byte	0x14
 1108 04a5 0B       		.uleb128 0xb
 1109 04a6 72313000 		.ascii	"r10\000"
 1110 04aa 08       		.byte	0x8
 1111 04ab 7201     		.2byte	0x172
 1112 04ad 22040000 		.4byte	0x422
 1113 04b1 18       		.byte	0x18
 1114 04b2 0B       		.uleb128 0xb
 1115 04b3 72313100 		.ascii	"r11\000"
 1116 04b7 08       		.byte	0x8
 1117 04b8 7301     		.2byte	0x173
 1118 04ba 22040000 		.4byte	0x422
 1119 04be 1C       		.byte	0x1c
 1120 04bf 0B       		.uleb128 0xb
 1121 04c0 6C7200   		.ascii	"lr\000"
 1122 04c3 08       		.byte	0x8
 1123 04c4 7401     		.2byte	0x174
ARM GAS  /tmp/ccUaNec6.s 			page 36


 1124 04c6 22040000 		.4byte	0x422
 1125 04ca 20       		.byte	0x20
 1126 04cb 00       		.byte	0
 1127 04cc 05       		.uleb128 0x5
 1128 04cd 04       		.byte	0x4
 1129 04ce 50040000 		.4byte	0x450
 1130 04d2 10       		.uleb128 0x10
 1131 04d3 04       		.byte	0x4
 1132 04d4 09       		.byte	0x9
 1133 04d5 38       		.byte	0x38
 1134 04d6 E7040000 		.4byte	0x4e7
 1135 04da 09       		.uleb128 0x9
 1136 04db 92040000 		.4byte	.LASF73
 1137 04df 09       		.byte	0x9
 1138 04e0 3C       		.byte	0x3c
 1139 04e1 C8000000 		.4byte	0xc8
 1140 04e5 00       		.byte	0
 1141 04e6 00       		.byte	0
 1142 04e7 07       		.uleb128 0x7
 1143 04e8 53020000 		.4byte	.LASF74
 1144 04ec 09       		.byte	0x9
 1145 04ed 3D       		.byte	0x3d
 1146 04ee D2040000 		.4byte	0x4d2
 1147 04f2 11       		.uleb128 0x11
 1148 04f3 04       		.byte	0x4
 1149 04f4 06       		.byte	0x6
 1150 04f5 D2       		.byte	0xd2
 1151 04f6 55050000 		.4byte	0x555
 1152 04fa 12       		.uleb128 0x12
 1153 04fb 1A000000 		.4byte	.LASF75
 1154 04ff 06       		.byte	0x6
 1155 0500 D9       		.byte	0xd9
 1156 0501 FF000000 		.4byte	0xff
 1157 0505 12       		.uleb128 0x12
 1158 0506 8F000000 		.4byte	.LASF76
 1159 050a 06       		.byte	0x6
 1160 050b E0       		.byte	0xe0
 1161 050c FF000000 		.4byte	0xff
 1162 0510 12       		.uleb128 0x12
 1163 0511 DB040000 		.4byte	.LASF77
 1164 0515 06       		.byte	0x6
 1165 0516 E7       		.byte	0xe7
 1166 0517 6B000000 		.4byte	0x6b
 1167 051b 12       		.uleb128 0x12
 1168 051c 70010000 		.4byte	.LASF78
 1169 0520 06       		.byte	0x6
 1170 0521 EE       		.byte	0xee
 1171 0522 55050000 		.4byte	0x555
 1172 0526 12       		.uleb128 0x12
 1173 0527 A3000000 		.4byte	.LASF79
 1174 052b 06       		.byte	0x6
 1175 052c F3       		.byte	0xf3
 1176 052d FF000000 		.4byte	0xff
 1177 0531 12       		.uleb128 0x12
 1178 0532 69010000 		.4byte	.LASF80
 1179 0536 06       		.byte	0x6
 1180 0537 FC       		.byte	0xfc
ARM GAS  /tmp/ccUaNec6.s 			page 37


 1181 0538 80050000 		.4byte	0x580
 1182 053c 13       		.uleb128 0x13
 1183 053d 1E040000 		.4byte	.LASF81
 1184 0541 06       		.byte	0x6
 1185 0542 0501     		.2byte	0x105
 1186 0544 B7050000 		.4byte	0x5b7
 1187 0548 13       		.uleb128 0x13
 1188 0549 E6030000 		.4byte	.LASF82
 1189 054d 06       		.byte	0x6
 1190 054e 0D01     		.2byte	0x10d
 1191 0550 0A010000 		.4byte	0x10a
 1192 0554 00       		.byte	0
 1193 0555 05       		.uleb128 0x5
 1194 0556 04       		.byte	0x4
 1195 0557 14020000 		.4byte	0x214
 1196 055b 08       		.uleb128 0x8
 1197 055c 08040000 		.4byte	.LASF83
 1198 0560 0C       		.byte	0xc
 1199 0561 0A       		.byte	0xa
 1200 0562 34       		.byte	0x34
 1201 0563 80050000 		.4byte	0x580
 1202 0567 09       		.uleb128 0x9
 1203 0568 7B010000 		.4byte	.LASF27
 1204 056c 0A       		.byte	0xa
 1205 056d 35       		.byte	0x35
 1206 056e 49020000 		.4byte	0x249
 1207 0572 00       		.byte	0
 1208 0573 0A       		.uleb128 0xa
 1209 0574 636E7400 		.ascii	"cnt\000"
 1210 0578 0A       		.byte	0xa
 1211 0579 37       		.byte	0x37
 1212 057a 15010000 		.4byte	0x115
 1213 057e 08       		.byte	0x8
 1214 057f 00       		.byte	0
 1215 0580 05       		.uleb128 0x5
 1216 0581 04       		.byte	0x4
 1217 0582 5B050000 		.4byte	0x55b
 1218 0586 08       		.uleb128 0x8
 1219 0587 B9040000 		.4byte	.LASF84
 1220 058b 10       		.byte	0x10
 1221 058c 0B       		.byte	0xb
 1222 058d 39       		.byte	0x39
 1223 058e B7050000 		.4byte	0x5b7
 1224 0592 09       		.uleb128 0x9
 1225 0593 7B010000 		.4byte	.LASF27
 1226 0597 0B       		.byte	0xb
 1227 0598 3A       		.byte	0x3a
 1228 0599 49020000 		.4byte	0x249
 1229 059d 00       		.byte	0
 1230 059e 09       		.uleb128 0x9
 1231 059f 3D040000 		.4byte	.LASF85
 1232 05a3 0B       		.byte	0xb
 1233 05a4 3C       		.byte	0x3c
 1234 05a5 1F020000 		.4byte	0x21f
 1235 05a9 08       		.byte	0x8
 1236 05aa 09       		.uleb128 0x9
 1237 05ab CE000000 		.4byte	.LASF46
ARM GAS  /tmp/ccUaNec6.s 			page 38


 1238 05af 0B       		.byte	0xb
 1239 05b0 3E       		.byte	0x3e
 1240 05b1 D9050000 		.4byte	0x5d9
 1241 05b5 0C       		.byte	0xc
 1242 05b6 00       		.byte	0
 1243 05b7 05       		.uleb128 0x5
 1244 05b8 04       		.byte	0x4
 1245 05b9 86050000 		.4byte	0x586
 1246 05bd 05       		.uleb128 0x5
 1247 05be 04       		.byte	0x4
 1248 05bf 2D040000 		.4byte	0x42d
 1249 05c3 05       		.uleb128 0x5
 1250 05c4 04       		.byte	0x4
 1251 05c5 FC020000 		.4byte	0x2fc
 1252 05c9 14       		.uleb128 0x14
 1253 05ca 7B000000 		.4byte	0x7b
 1254 05ce 07       		.uleb128 0x7
 1255 05cf 4E010000 		.4byte	.LASF86
 1256 05d3 0B       		.byte	0xb
 1257 05d4 34       		.byte	0x34
 1258 05d5 86050000 		.4byte	0x586
 1259 05d9 05       		.uleb128 0x5
 1260 05da 04       		.byte	0x4
 1261 05db CE050000 		.4byte	0x5ce
 1262 05df 02       		.uleb128 0x2
 1263 05e0 01       		.byte	0x1
 1264 05e1 02       		.byte	0x2
 1265 05e2 B7030000 		.4byte	.LASF87
 1266 05e6 15       		.uleb128 0x15
 1267 05e7 86000000 		.4byte	0x86
 1268 05eb FF050000 		.4byte	0x5ff
 1269 05ef 0F       		.uleb128 0xf
 1270 05f0 6B000000 		.4byte	0x6b
 1271 05f4 0F       		.uleb128 0xf
 1272 05f5 FF050000 		.4byte	0x5ff
 1273 05f9 0F       		.uleb128 0xf
 1274 05fa 86000000 		.4byte	0x86
 1275 05fe 00       		.byte	0
 1276 05ff 05       		.uleb128 0x5
 1277 0600 04       		.byte	0x4
 1278 0601 05060000 		.4byte	0x605
 1279 0605 06       		.uleb128 0x6
 1280 0606 91000000 		.4byte	0x91
 1281 060a 05       		.uleb128 0x5
 1282 060b 04       		.byte	0x4
 1283 060c E6050000 		.4byte	0x5e6
 1284 0610 15       		.uleb128 0x15
 1285 0611 86000000 		.4byte	0x86
 1286 0615 29060000 		.4byte	0x629
 1287 0619 0F       		.uleb128 0xf
 1288 061a 6B000000 		.4byte	0x6b
 1289 061e 0F       		.uleb128 0xf
 1290 061f 29060000 		.4byte	0x629
 1291 0623 0F       		.uleb128 0xf
 1292 0624 86000000 		.4byte	0x86
 1293 0628 00       		.byte	0
 1294 0629 05       		.uleb128 0x5
ARM GAS  /tmp/ccUaNec6.s 			page 39


 1295 062a 04       		.byte	0x4
 1296 062b 91000000 		.4byte	0x91
 1297 062f 05       		.uleb128 0x5
 1298 0630 04       		.byte	0x4
 1299 0631 10060000 		.4byte	0x610
 1300 0635 15       		.uleb128 0x15
 1301 0636 FF000000 		.4byte	0xff
 1302 063a 49060000 		.4byte	0x649
 1303 063e 0F       		.uleb128 0xf
 1304 063f 6B000000 		.4byte	0x6b
 1305 0643 0F       		.uleb128 0xf
 1306 0644 91000000 		.4byte	0x91
 1307 0648 00       		.byte	0
 1308 0649 05       		.uleb128 0x5
 1309 064a 04       		.byte	0x4
 1310 064b 35060000 		.4byte	0x635
 1311 064f 15       		.uleb128 0x15
 1312 0650 FF000000 		.4byte	0xff
 1313 0654 5E060000 		.4byte	0x65e
 1314 0658 0F       		.uleb128 0xf
 1315 0659 6B000000 		.4byte	0x6b
 1316 065d 00       		.byte	0
 1317 065e 05       		.uleb128 0x5
 1318 065f 04       		.byte	0x4
 1319 0660 4F060000 		.4byte	0x64f
 1320 0664 08       		.uleb128 0x8
 1321 0665 71020000 		.4byte	.LASF88
 1322 0669 10       		.byte	0x10
 1323 066a 0C       		.byte	0xc
 1324 066b 3D       		.byte	0x3d
 1325 066c A1060000 		.4byte	0x6a1
 1326 0670 09       		.uleb128 0x9
 1327 0671 04020000 		.4byte	.LASF89
 1328 0675 0C       		.byte	0xc
 1329 0676 3E       		.byte	0x3e
 1330 0677 0A060000 		.4byte	0x60a
 1331 067b 00       		.byte	0
 1332 067c 09       		.uleb128 0x9
 1333 067d 5C040000 		.4byte	.LASF90
 1334 0681 0C       		.byte	0xc
 1335 0682 3E       		.byte	0x3e
 1336 0683 2F060000 		.4byte	0x62f
 1337 0687 04       		.byte	0x4
 1338 0688 0A       		.uleb128 0xa
 1339 0689 70757400 		.ascii	"put\000"
 1340 068d 0C       		.byte	0xc
 1341 068e 3E       		.byte	0x3e
 1342 068f 49060000 		.4byte	0x649
 1343 0693 08       		.byte	0x8
 1344 0694 0A       		.uleb128 0xa
 1345 0695 67657400 		.ascii	"get\000"
 1346 0699 0C       		.byte	0xc
 1347 069a 3E       		.byte	0x3e
 1348 069b 5E060000 		.4byte	0x65e
 1349 069f 0C       		.byte	0xc
 1350 06a0 00       		.byte	0
 1351 06a1 10       		.uleb128 0x10
ARM GAS  /tmp/ccUaNec6.s 			page 40


 1352 06a2 14       		.byte	0x14
 1353 06a3 0C       		.byte	0xc
 1354 06a4 46       		.byte	0x46
 1355 06a5 E6060000 		.4byte	0x6e6
 1356 06a9 0A       		.uleb128 0xa
 1357 06aa 766D7400 		.ascii	"vmt\000"
 1358 06ae 0C       		.byte	0xc
 1359 06af 48       		.byte	0x48
 1360 06b0 E6060000 		.4byte	0x6e6
 1361 06b4 00       		.byte	0
 1362 06b5 09       		.uleb128 0x9
 1363 06b6 36010000 		.4byte	.LASF91
 1364 06ba 0C       		.byte	0xc
 1365 06bb 49       		.byte	0x49
 1366 06bc 29060000 		.4byte	0x629
 1367 06c0 04       		.byte	0x4
 1368 06c1 09       		.uleb128 0x9
 1369 06c2 F4000000 		.4byte	.LASF92
 1370 06c6 0C       		.byte	0xc
 1371 06c7 49       		.byte	0x49
 1372 06c8 86000000 		.4byte	0x86
 1373 06cc 08       		.byte	0x8
 1374 06cd 0A       		.uleb128 0xa
 1375 06ce 656F7300 		.ascii	"eos\000"
 1376 06d2 0C       		.byte	0xc
 1377 06d3 49       		.byte	0x49
 1378 06d4 86000000 		.4byte	0x86
 1379 06d8 0C       		.byte	0xc
 1380 06d9 09       		.uleb128 0x9
 1381 06da 92040000 		.4byte	.LASF73
 1382 06de 0C       		.byte	0xc
 1383 06df 49       		.byte	0x49
 1384 06e0 86000000 		.4byte	0x86
 1385 06e4 10       		.byte	0x10
 1386 06e5 00       		.byte	0
 1387 06e6 05       		.uleb128 0x5
 1388 06e7 04       		.byte	0x4
 1389 06e8 EC060000 		.4byte	0x6ec
 1390 06ec 06       		.uleb128 0x6
 1391 06ed 64060000 		.4byte	0x664
 1392 06f1 07       		.uleb128 0x7
 1393 06f2 9A030000 		.4byte	.LASF93
 1394 06f6 0C       		.byte	0xc
 1395 06f7 4A       		.byte	0x4a
 1396 06f8 A1060000 		.4byte	0x6a1
 1397 06fc 16       		.uleb128 0x16
 1398 06fd 9A010000 		.4byte	.LASF94
 1399 0701 01       		.byte	0x1
 1400 0702 42       		.byte	0x42
 1401 0703 FF000000 		.4byte	0xff
 1402 0707 00000000 		.4byte	.LFB219
 1403 070b 24000000 		.4byte	.LFE219-.LFB219
 1404 070f 01       		.uleb128 0x1
 1405 0710 9C       		.byte	0x9c
 1406 0711 3E070000 		.4byte	0x73e
 1407 0715 17       		.uleb128 0x17
 1408 0716 697000   		.ascii	"ip\000"
ARM GAS  /tmp/ccUaNec6.s 			page 41


 1409 0719 01       		.byte	0x1
 1410 071a 42       		.byte	0x42
 1411 071b 6B000000 		.4byte	0x6b
 1412 071f 00000000 		.4byte	.LLST0
 1413 0723 18       		.uleb128 0x18
 1414 0724 6200     		.ascii	"b\000"
 1415 0726 01       		.byte	0x1
 1416 0727 42       		.byte	0x42
 1417 0728 91000000 		.4byte	0x91
 1418 072c 01       		.uleb128 0x1
 1419 072d 51       		.byte	0x51
 1420 072e 19       		.uleb128 0x19
 1421 072f 6D737000 		.ascii	"msp\000"
 1422 0733 01       		.byte	0x1
 1423 0734 43       		.byte	0x43
 1424 0735 3E070000 		.4byte	0x73e
 1425 0739 1E000000 		.4byte	.LLST1
 1426 073d 00       		.byte	0
 1427 073e 05       		.uleb128 0x5
 1428 073f 04       		.byte	0x4
 1429 0740 F1060000 		.4byte	0x6f1
 1430 0744 16       		.uleb128 0x16
 1431 0745 D6040000 		.4byte	.LASF95
 1432 0749 01       		.byte	0x1
 1433 074a 4C       		.byte	0x4c
 1434 074b FF000000 		.4byte	0xff
 1435 074f 00000000 		.4byte	.LFB220
 1436 0753 1A000000 		.4byte	.LFE220-.LFB220
 1437 0757 01       		.uleb128 0x1
 1438 0758 9C       		.byte	0x9c
 1439 0759 86070000 		.4byte	0x786
 1440 075d 17       		.uleb128 0x17
 1441 075e 697000   		.ascii	"ip\000"
 1442 0761 01       		.byte	0x1
 1443 0762 4C       		.byte	0x4c
 1444 0763 6B000000 		.4byte	0x6b
 1445 0767 3C000000 		.4byte	.LLST2
 1446 076b 1A       		.uleb128 0x1a
 1447 076c 6200     		.ascii	"b\000"
 1448 076e 01       		.byte	0x1
 1449 076f 4D       		.byte	0x4d
 1450 0770 91000000 		.4byte	0x91
 1451 0774 01       		.uleb128 0x1
 1452 0775 53       		.byte	0x53
 1453 0776 19       		.uleb128 0x19
 1454 0777 6D737000 		.ascii	"msp\000"
 1455 077b 01       		.byte	0x1
 1456 077c 4E       		.byte	0x4e
 1457 077d 3E070000 		.4byte	0x73e
 1458 0781 3C000000 		.4byte	.LLST2
 1459 0785 00       		.byte	0
 1460 0786 16       		.uleb128 0x16
 1461 0787 D3000000 		.4byte	.LASF96
 1462 078b 01       		.byte	0x1
 1463 078c 38       		.byte	0x38
 1464 078d 86000000 		.4byte	0x86
 1465 0791 00000000 		.4byte	.LFB218
ARM GAS  /tmp/ccUaNec6.s 			page 42


 1466 0795 26000000 		.4byte	.LFE218-.LFB218
 1467 0799 01       		.uleb128 0x1
 1468 079a 9C       		.byte	0x9c
 1469 079b EF070000 		.4byte	0x7ef
 1470 079f 17       		.uleb128 0x17
 1471 07a0 697000   		.ascii	"ip\000"
 1472 07a3 01       		.byte	0x1
 1473 07a4 38       		.byte	0x38
 1474 07a5 6B000000 		.4byte	0x6b
 1475 07a9 5D000000 		.4byte	.LLST4
 1476 07ad 17       		.uleb128 0x17
 1477 07ae 627000   		.ascii	"bp\000"
 1478 07b1 01       		.byte	0x1
 1479 07b2 38       		.byte	0x38
 1480 07b3 29060000 		.4byte	0x629
 1481 07b7 7B000000 		.4byte	.LLST5
 1482 07bb 17       		.uleb128 0x17
 1483 07bc 6E00     		.ascii	"n\000"
 1484 07be 01       		.byte	0x1
 1485 07bf 38       		.byte	0x38
 1486 07c0 86000000 		.4byte	0x86
 1487 07c4 A7000000 		.4byte	.LLST6
 1488 07c8 19       		.uleb128 0x19
 1489 07c9 6D737000 		.ascii	"msp\000"
 1490 07cd 01       		.byte	0x1
 1491 07ce 39       		.byte	0x39
 1492 07cf 3E070000 		.4byte	0x73e
 1493 07d3 D0000000 		.4byte	.LLST7
 1494 07d7 1B       		.uleb128 0x1b
 1495 07d8 1C000000 		.4byte	.LVL10
 1496 07dc CF080000 		.4byte	0x8cf
 1497 07e0 1C       		.uleb128 0x1c
 1498 07e1 01       		.uleb128 0x1
 1499 07e2 52       		.byte	0x52
 1500 07e3 02       		.uleb128 0x2
 1501 07e4 75       		.byte	0x75
 1502 07e5 00       		.sleb128 0
 1503 07e6 1C       		.uleb128 0x1c
 1504 07e7 01       		.uleb128 0x1
 1505 07e8 50       		.byte	0x50
 1506 07e9 03       		.uleb128 0x3
 1507 07ea F3       		.byte	0xf3
 1508 07eb 01       		.uleb128 0x1
 1509 07ec 51       		.byte	0x51
 1510 07ed 00       		.byte	0
 1511 07ee 00       		.byte	0
 1512 07ef 16       		.uleb128 0x16
 1513 07f0 A1040000 		.4byte	.LASF97
 1514 07f4 01       		.byte	0x1
 1515 07f5 2E       		.byte	0x2e
 1516 07f6 86000000 		.4byte	0x86
 1517 07fa 00000000 		.4byte	.LFB217
 1518 07fe 24000000 		.4byte	.LFE217-.LFB217
 1519 0802 01       		.uleb128 0x1
 1520 0803 9C       		.byte	0x9c
 1521 0804 58080000 		.4byte	0x858
 1522 0808 17       		.uleb128 0x17
ARM GAS  /tmp/ccUaNec6.s 			page 43


 1523 0809 697000   		.ascii	"ip\000"
 1524 080c 01       		.byte	0x1
 1525 080d 2E       		.byte	0x2e
 1526 080e 6B000000 		.4byte	0x6b
 1527 0812 EE000000 		.4byte	.LLST8
 1528 0816 17       		.uleb128 0x17
 1529 0817 627000   		.ascii	"bp\000"
 1530 081a 01       		.byte	0x1
 1531 081b 2E       		.byte	0x2e
 1532 081c FF050000 		.4byte	0x5ff
 1533 0820 0C010000 		.4byte	.LLST9
 1534 0824 17       		.uleb128 0x17
 1535 0825 6E00     		.ascii	"n\000"
 1536 0827 01       		.byte	0x1
 1537 0828 2E       		.byte	0x2e
 1538 0829 86000000 		.4byte	0x86
 1539 082d 2D010000 		.4byte	.LLST10
 1540 0831 19       		.uleb128 0x19
 1541 0832 6D737000 		.ascii	"msp\000"
 1542 0836 01       		.byte	0x1
 1543 0837 2F       		.byte	0x2f
 1544 0838 3E070000 		.4byte	0x73e
 1545 083c 56010000 		.4byte	.LLST11
 1546 0840 1B       		.uleb128 0x1b
 1547 0841 1A000000 		.4byte	.LVL16
 1548 0845 CF080000 		.4byte	0x8cf
 1549 0849 1C       		.uleb128 0x1c
 1550 084a 01       		.uleb128 0x1
 1551 084b 52       		.byte	0x52
 1552 084c 02       		.uleb128 0x2
 1553 084d 75       		.byte	0x75
 1554 084e 00       		.sleb128 0
 1555 084f 1C       		.uleb128 0x1c
 1556 0850 01       		.uleb128 0x1
 1557 0851 51       		.byte	0x51
 1558 0852 03       		.uleb128 0x3
 1559 0853 F3       		.byte	0xf3
 1560 0854 01       		.uleb128 0x1
 1561 0855 51       		.byte	0x51
 1562 0856 00       		.byte	0
 1563 0857 00       		.byte	0
 1564 0858 1D       		.uleb128 0x1d
 1565 0859 F7010000 		.4byte	.LASF102
 1566 085d 01       		.byte	0x1
 1567 085e 67       		.byte	0x67
 1568 085f 00000000 		.4byte	.LFB221
 1569 0863 1A000000 		.4byte	.LFE221-.LFB221
 1570 0867 01       		.uleb128 0x1
 1571 0868 9C       		.byte	0x9c
 1572 0869 A2080000 		.4byte	0x8a2
 1573 086d 18       		.uleb128 0x18
 1574 086e 6D737000 		.ascii	"msp\000"
 1575 0872 01       		.byte	0x1
 1576 0873 67       		.byte	0x67
 1577 0874 3E070000 		.4byte	0x73e
 1578 0878 01       		.uleb128 0x1
 1579 0879 50       		.byte	0x50
ARM GAS  /tmp/ccUaNec6.s 			page 44


 1580 087a 1E       		.uleb128 0x1e
 1581 087b 36010000 		.4byte	.LASF91
 1582 087f 01       		.byte	0x1
 1583 0880 67       		.byte	0x67
 1584 0881 29060000 		.4byte	0x629
 1585 0885 01       		.uleb128 0x1
 1586 0886 51       		.byte	0x51
 1587 0887 1E       		.uleb128 0x1e
 1588 0888 F4000000 		.4byte	.LASF92
 1589 088c 01       		.byte	0x1
 1590 088d 68       		.byte	0x68
 1591 088e 86000000 		.4byte	0x86
 1592 0892 01       		.uleb128 0x1
 1593 0893 52       		.byte	0x52
 1594 0894 18       		.uleb128 0x18
 1595 0895 656F7300 		.ascii	"eos\000"
 1596 0899 01       		.byte	0x1
 1597 089a 68       		.byte	0x68
 1598 089b 86000000 		.4byte	0x86
 1599 089f 01       		.uleb128 0x1
 1600 08a0 53       		.byte	0x53
 1601 08a1 00       		.byte	0
 1602 08a2 1A       		.uleb128 0x1a
 1603 08a3 766D7400 		.ascii	"vmt\000"
 1604 08a7 01       		.byte	0x1
 1605 08a8 57       		.byte	0x57
 1606 08a9 EC060000 		.4byte	0x6ec
 1607 08ad 05       		.uleb128 0x5
 1608 08ae 03       		.byte	0x3
 1609 08af 00000000 		.4byte	vmt
 1610 08b3 1F       		.uleb128 0x1f
 1611 08b4 C1000000 		.4byte	.LASF98
 1612 08b8 0D       		.byte	0xd
 1613 08b9 9606     		.2byte	0x696
 1614 08bb BF080000 		.4byte	0x8bf
 1615 08bf 14       		.uleb128 0x14
 1616 08c0 A7000000 		.4byte	0xa7
 1617 08c4 20       		.uleb128 0x20
 1618 08c5 636800   		.ascii	"ch\000"
 1619 08c8 06       		.byte	0x6
 1620 08c9 D201     		.2byte	0x1d2
 1621 08cb C9030000 		.4byte	0x3c9
 1622 08cf 21       		.uleb128 0x21
 1623 08d0 26010000 		.4byte	.LASF103
 1624 08d4 6B000000 		.4byte	0x6b
 1625 08d8 EC080000 		.4byte	0x8ec
 1626 08dc 0F       		.uleb128 0xf
 1627 08dd 6B000000 		.4byte	0x6b
 1628 08e1 0F       		.uleb128 0xf
 1629 08e2 EC080000 		.4byte	0x8ec
 1630 08e6 0F       		.uleb128 0xf
 1631 08e7 64000000 		.4byte	0x64
 1632 08eb 00       		.byte	0
 1633 08ec 05       		.uleb128 0x5
 1634 08ed 04       		.byte	0x4
 1635 08ee F2080000 		.4byte	0x8f2
 1636 08f2 22       		.uleb128 0x22
ARM GAS  /tmp/ccUaNec6.s 			page 45


 1637 08f3 00       		.byte	0
 1638              		.section	.debug_abbrev,"",%progbits
 1639              	.Ldebug_abbrev0:
 1640 0000 01       		.uleb128 0x1
 1641 0001 11       		.uleb128 0x11
 1642 0002 01       		.byte	0x1
 1643 0003 25       		.uleb128 0x25
 1644 0004 0E       		.uleb128 0xe
 1645 0005 13       		.uleb128 0x13
 1646 0006 0B       		.uleb128 0xb
 1647 0007 03       		.uleb128 0x3
 1648 0008 0E       		.uleb128 0xe
 1649 0009 1B       		.uleb128 0x1b
 1650 000a 0E       		.uleb128 0xe
 1651 000b 55       		.uleb128 0x55
 1652 000c 17       		.uleb128 0x17
 1653 000d 11       		.uleb128 0x11
 1654 000e 01       		.uleb128 0x1
 1655 000f 10       		.uleb128 0x10
 1656 0010 17       		.uleb128 0x17
 1657 0011 00       		.byte	0
 1658 0012 00       		.byte	0
 1659 0013 02       		.uleb128 0x2
 1660 0014 24       		.uleb128 0x24
 1661 0015 00       		.byte	0
 1662 0016 0B       		.uleb128 0xb
 1663 0017 0B       		.uleb128 0xb
 1664 0018 3E       		.uleb128 0x3e
 1665 0019 0B       		.uleb128 0xb
 1666 001a 03       		.uleb128 0x3
 1667 001b 0E       		.uleb128 0xe
 1668 001c 00       		.byte	0
 1669 001d 00       		.byte	0
 1670 001e 03       		.uleb128 0x3
 1671 001f 24       		.uleb128 0x24
 1672 0020 00       		.byte	0
 1673 0021 0B       		.uleb128 0xb
 1674 0022 0B       		.uleb128 0xb
 1675 0023 3E       		.uleb128 0x3e
 1676 0024 0B       		.uleb128 0xb
 1677 0025 03       		.uleb128 0x3
 1678 0026 08       		.uleb128 0x8
 1679 0027 00       		.byte	0
 1680 0028 00       		.byte	0
 1681 0029 04       		.uleb128 0x4
 1682 002a 0F       		.uleb128 0xf
 1683 002b 00       		.byte	0
 1684 002c 0B       		.uleb128 0xb
 1685 002d 0B       		.uleb128 0xb
 1686 002e 00       		.byte	0
 1687 002f 00       		.byte	0
 1688 0030 05       		.uleb128 0x5
 1689 0031 0F       		.uleb128 0xf
 1690 0032 00       		.byte	0
 1691 0033 0B       		.uleb128 0xb
 1692 0034 0B       		.uleb128 0xb
 1693 0035 49       		.uleb128 0x49
ARM GAS  /tmp/ccUaNec6.s 			page 46


 1694 0036 13       		.uleb128 0x13
 1695 0037 00       		.byte	0
 1696 0038 00       		.byte	0
 1697 0039 06       		.uleb128 0x6
 1698 003a 26       		.uleb128 0x26
 1699 003b 00       		.byte	0
 1700 003c 49       		.uleb128 0x49
 1701 003d 13       		.uleb128 0x13
 1702 003e 00       		.byte	0
 1703 003f 00       		.byte	0
 1704 0040 07       		.uleb128 0x7
 1705 0041 16       		.uleb128 0x16
 1706 0042 00       		.byte	0
 1707 0043 03       		.uleb128 0x3
 1708 0044 0E       		.uleb128 0xe
 1709 0045 3A       		.uleb128 0x3a
 1710 0046 0B       		.uleb128 0xb
 1711 0047 3B       		.uleb128 0x3b
 1712 0048 0B       		.uleb128 0xb
 1713 0049 49       		.uleb128 0x49
 1714 004a 13       		.uleb128 0x13
 1715 004b 00       		.byte	0
 1716 004c 00       		.byte	0
 1717 004d 08       		.uleb128 0x8
 1718 004e 13       		.uleb128 0x13
 1719 004f 01       		.byte	0x1
 1720 0050 03       		.uleb128 0x3
 1721 0051 0E       		.uleb128 0xe
 1722 0052 0B       		.uleb128 0xb
 1723 0053 0B       		.uleb128 0xb
 1724 0054 3A       		.uleb128 0x3a
 1725 0055 0B       		.uleb128 0xb
 1726 0056 3B       		.uleb128 0x3b
 1727 0057 0B       		.uleb128 0xb
 1728 0058 01       		.uleb128 0x1
 1729 0059 13       		.uleb128 0x13
 1730 005a 00       		.byte	0
 1731 005b 00       		.byte	0
 1732 005c 09       		.uleb128 0x9
 1733 005d 0D       		.uleb128 0xd
 1734 005e 00       		.byte	0
 1735 005f 03       		.uleb128 0x3
 1736 0060 0E       		.uleb128 0xe
 1737 0061 3A       		.uleb128 0x3a
 1738 0062 0B       		.uleb128 0xb
 1739 0063 3B       		.uleb128 0x3b
 1740 0064 0B       		.uleb128 0xb
 1741 0065 49       		.uleb128 0x49
 1742 0066 13       		.uleb128 0x13
 1743 0067 38       		.uleb128 0x38
 1744 0068 0B       		.uleb128 0xb
 1745 0069 00       		.byte	0
 1746 006a 00       		.byte	0
 1747 006b 0A       		.uleb128 0xa
 1748 006c 0D       		.uleb128 0xd
 1749 006d 00       		.byte	0
 1750 006e 03       		.uleb128 0x3
ARM GAS  /tmp/ccUaNec6.s 			page 47


 1751 006f 08       		.uleb128 0x8
 1752 0070 3A       		.uleb128 0x3a
 1753 0071 0B       		.uleb128 0xb
 1754 0072 3B       		.uleb128 0x3b
 1755 0073 0B       		.uleb128 0xb
 1756 0074 49       		.uleb128 0x49
 1757 0075 13       		.uleb128 0x13
 1758 0076 38       		.uleb128 0x38
 1759 0077 0B       		.uleb128 0xb
 1760 0078 00       		.byte	0
 1761 0079 00       		.byte	0
 1762 007a 0B       		.uleb128 0xb
 1763 007b 0D       		.uleb128 0xd
 1764 007c 00       		.byte	0
 1765 007d 03       		.uleb128 0x3
 1766 007e 08       		.uleb128 0x8
 1767 007f 3A       		.uleb128 0x3a
 1768 0080 0B       		.uleb128 0xb
 1769 0081 3B       		.uleb128 0x3b
 1770 0082 05       		.uleb128 0x5
 1771 0083 49       		.uleb128 0x49
 1772 0084 13       		.uleb128 0x13
 1773 0085 38       		.uleb128 0x38
 1774 0086 0B       		.uleb128 0xb
 1775 0087 00       		.byte	0
 1776 0088 00       		.byte	0
 1777 0089 0C       		.uleb128 0xc
 1778 008a 0D       		.uleb128 0xd
 1779 008b 00       		.byte	0
 1780 008c 03       		.uleb128 0x3
 1781 008d 0E       		.uleb128 0xe
 1782 008e 3A       		.uleb128 0x3a
 1783 008f 0B       		.uleb128 0xb
 1784 0090 3B       		.uleb128 0x3b
 1785 0091 05       		.uleb128 0x5
 1786 0092 49       		.uleb128 0x49
 1787 0093 13       		.uleb128 0x13
 1788 0094 38       		.uleb128 0x38
 1789 0095 0B       		.uleb128 0xb
 1790 0096 00       		.byte	0
 1791 0097 00       		.byte	0
 1792 0098 0D       		.uleb128 0xd
 1793 0099 13       		.uleb128 0x13
 1794 009a 01       		.byte	0x1
 1795 009b 03       		.uleb128 0x3
 1796 009c 0E       		.uleb128 0xe
 1797 009d 0B       		.uleb128 0xb
 1798 009e 0B       		.uleb128 0xb
 1799 009f 3A       		.uleb128 0x3a
 1800 00a0 0B       		.uleb128 0xb
 1801 00a1 3B       		.uleb128 0x3b
 1802 00a2 05       		.uleb128 0x5
 1803 00a3 01       		.uleb128 0x1
 1804 00a4 13       		.uleb128 0x13
 1805 00a5 00       		.byte	0
 1806 00a6 00       		.byte	0
 1807 00a7 0E       		.uleb128 0xe
ARM GAS  /tmp/ccUaNec6.s 			page 48


 1808 00a8 15       		.uleb128 0x15
 1809 00a9 01       		.byte	0x1
 1810 00aa 27       		.uleb128 0x27
 1811 00ab 19       		.uleb128 0x19
 1812 00ac 01       		.uleb128 0x1
 1813 00ad 13       		.uleb128 0x13
 1814 00ae 00       		.byte	0
 1815 00af 00       		.byte	0
 1816 00b0 0F       		.uleb128 0xf
 1817 00b1 05       		.uleb128 0x5
 1818 00b2 00       		.byte	0
 1819 00b3 49       		.uleb128 0x49
 1820 00b4 13       		.uleb128 0x13
 1821 00b5 00       		.byte	0
 1822 00b6 00       		.byte	0
 1823 00b7 10       		.uleb128 0x10
 1824 00b8 13       		.uleb128 0x13
 1825 00b9 01       		.byte	0x1
 1826 00ba 0B       		.uleb128 0xb
 1827 00bb 0B       		.uleb128 0xb
 1828 00bc 3A       		.uleb128 0x3a
 1829 00bd 0B       		.uleb128 0xb
 1830 00be 3B       		.uleb128 0x3b
 1831 00bf 0B       		.uleb128 0xb
 1832 00c0 01       		.uleb128 0x1
 1833 00c1 13       		.uleb128 0x13
 1834 00c2 00       		.byte	0
 1835 00c3 00       		.byte	0
 1836 00c4 11       		.uleb128 0x11
 1837 00c5 17       		.uleb128 0x17
 1838 00c6 01       		.byte	0x1
 1839 00c7 0B       		.uleb128 0xb
 1840 00c8 0B       		.uleb128 0xb
 1841 00c9 3A       		.uleb128 0x3a
 1842 00ca 0B       		.uleb128 0xb
 1843 00cb 3B       		.uleb128 0x3b
 1844 00cc 0B       		.uleb128 0xb
 1845 00cd 01       		.uleb128 0x1
 1846 00ce 13       		.uleb128 0x13
 1847 00cf 00       		.byte	0
 1848 00d0 00       		.byte	0
 1849 00d1 12       		.uleb128 0x12
 1850 00d2 0D       		.uleb128 0xd
 1851 00d3 00       		.byte	0
 1852 00d4 03       		.uleb128 0x3
 1853 00d5 0E       		.uleb128 0xe
 1854 00d6 3A       		.uleb128 0x3a
 1855 00d7 0B       		.uleb128 0xb
 1856 00d8 3B       		.uleb128 0x3b
 1857 00d9 0B       		.uleb128 0xb
 1858 00da 49       		.uleb128 0x49
 1859 00db 13       		.uleb128 0x13
 1860 00dc 00       		.byte	0
 1861 00dd 00       		.byte	0
 1862 00de 13       		.uleb128 0x13
 1863 00df 0D       		.uleb128 0xd
 1864 00e0 00       		.byte	0
ARM GAS  /tmp/ccUaNec6.s 			page 49


 1865 00e1 03       		.uleb128 0x3
 1866 00e2 0E       		.uleb128 0xe
 1867 00e3 3A       		.uleb128 0x3a
 1868 00e4 0B       		.uleb128 0xb
 1869 00e5 3B       		.uleb128 0x3b
 1870 00e6 05       		.uleb128 0x5
 1871 00e7 49       		.uleb128 0x49
 1872 00e8 13       		.uleb128 0x13
 1873 00e9 00       		.byte	0
 1874 00ea 00       		.byte	0
 1875 00eb 14       		.uleb128 0x14
 1876 00ec 35       		.uleb128 0x35
 1877 00ed 00       		.byte	0
 1878 00ee 49       		.uleb128 0x49
 1879 00ef 13       		.uleb128 0x13
 1880 00f0 00       		.byte	0
 1881 00f1 00       		.byte	0
 1882 00f2 15       		.uleb128 0x15
 1883 00f3 15       		.uleb128 0x15
 1884 00f4 01       		.byte	0x1
 1885 00f5 27       		.uleb128 0x27
 1886 00f6 19       		.uleb128 0x19
 1887 00f7 49       		.uleb128 0x49
 1888 00f8 13       		.uleb128 0x13
 1889 00f9 01       		.uleb128 0x1
 1890 00fa 13       		.uleb128 0x13
 1891 00fb 00       		.byte	0
 1892 00fc 00       		.byte	0
 1893 00fd 16       		.uleb128 0x16
 1894 00fe 2E       		.uleb128 0x2e
 1895 00ff 01       		.byte	0x1
 1896 0100 03       		.uleb128 0x3
 1897 0101 0E       		.uleb128 0xe
 1898 0102 3A       		.uleb128 0x3a
 1899 0103 0B       		.uleb128 0xb
 1900 0104 3B       		.uleb128 0x3b
 1901 0105 0B       		.uleb128 0xb
 1902 0106 27       		.uleb128 0x27
 1903 0107 19       		.uleb128 0x19
 1904 0108 49       		.uleb128 0x49
 1905 0109 13       		.uleb128 0x13
 1906 010a 11       		.uleb128 0x11
 1907 010b 01       		.uleb128 0x1
 1908 010c 12       		.uleb128 0x12
 1909 010d 06       		.uleb128 0x6
 1910 010e 40       		.uleb128 0x40
 1911 010f 18       		.uleb128 0x18
 1912 0110 9742     		.uleb128 0x2117
 1913 0112 19       		.uleb128 0x19
 1914 0113 01       		.uleb128 0x1
 1915 0114 13       		.uleb128 0x13
 1916 0115 00       		.byte	0
 1917 0116 00       		.byte	0
 1918 0117 17       		.uleb128 0x17
 1919 0118 05       		.uleb128 0x5
 1920 0119 00       		.byte	0
 1921 011a 03       		.uleb128 0x3
ARM GAS  /tmp/ccUaNec6.s 			page 50


 1922 011b 08       		.uleb128 0x8
 1923 011c 3A       		.uleb128 0x3a
 1924 011d 0B       		.uleb128 0xb
 1925 011e 3B       		.uleb128 0x3b
 1926 011f 0B       		.uleb128 0xb
 1927 0120 49       		.uleb128 0x49
 1928 0121 13       		.uleb128 0x13
 1929 0122 02       		.uleb128 0x2
 1930 0123 17       		.uleb128 0x17
 1931 0124 00       		.byte	0
 1932 0125 00       		.byte	0
 1933 0126 18       		.uleb128 0x18
 1934 0127 05       		.uleb128 0x5
 1935 0128 00       		.byte	0
 1936 0129 03       		.uleb128 0x3
 1937 012a 08       		.uleb128 0x8
 1938 012b 3A       		.uleb128 0x3a
 1939 012c 0B       		.uleb128 0xb
 1940 012d 3B       		.uleb128 0x3b
 1941 012e 0B       		.uleb128 0xb
 1942 012f 49       		.uleb128 0x49
 1943 0130 13       		.uleb128 0x13
 1944 0131 02       		.uleb128 0x2
 1945 0132 18       		.uleb128 0x18
 1946 0133 00       		.byte	0
 1947 0134 00       		.byte	0
 1948 0135 19       		.uleb128 0x19
 1949 0136 34       		.uleb128 0x34
 1950 0137 00       		.byte	0
 1951 0138 03       		.uleb128 0x3
 1952 0139 08       		.uleb128 0x8
 1953 013a 3A       		.uleb128 0x3a
 1954 013b 0B       		.uleb128 0xb
 1955 013c 3B       		.uleb128 0x3b
 1956 013d 0B       		.uleb128 0xb
 1957 013e 49       		.uleb128 0x49
 1958 013f 13       		.uleb128 0x13
 1959 0140 02       		.uleb128 0x2
 1960 0141 17       		.uleb128 0x17
 1961 0142 00       		.byte	0
 1962 0143 00       		.byte	0
 1963 0144 1A       		.uleb128 0x1a
 1964 0145 34       		.uleb128 0x34
 1965 0146 00       		.byte	0
 1966 0147 03       		.uleb128 0x3
 1967 0148 08       		.uleb128 0x8
 1968 0149 3A       		.uleb128 0x3a
 1969 014a 0B       		.uleb128 0xb
 1970 014b 3B       		.uleb128 0x3b
 1971 014c 0B       		.uleb128 0xb
 1972 014d 49       		.uleb128 0x49
 1973 014e 13       		.uleb128 0x13
 1974 014f 02       		.uleb128 0x2
 1975 0150 18       		.uleb128 0x18
 1976 0151 00       		.byte	0
 1977 0152 00       		.byte	0
 1978 0153 1B       		.uleb128 0x1b
ARM GAS  /tmp/ccUaNec6.s 			page 51


 1979 0154 898201   		.uleb128 0x4109
 1980 0157 01       		.byte	0x1
 1981 0158 11       		.uleb128 0x11
 1982 0159 01       		.uleb128 0x1
 1983 015a 31       		.uleb128 0x31
 1984 015b 13       		.uleb128 0x13
 1985 015c 00       		.byte	0
 1986 015d 00       		.byte	0
 1987 015e 1C       		.uleb128 0x1c
 1988 015f 8A8201   		.uleb128 0x410a
 1989 0162 00       		.byte	0
 1990 0163 02       		.uleb128 0x2
 1991 0164 18       		.uleb128 0x18
 1992 0165 9142     		.uleb128 0x2111
 1993 0167 18       		.uleb128 0x18
 1994 0168 00       		.byte	0
 1995 0169 00       		.byte	0
 1996 016a 1D       		.uleb128 0x1d
 1997 016b 2E       		.uleb128 0x2e
 1998 016c 01       		.byte	0x1
 1999 016d 3F       		.uleb128 0x3f
 2000 016e 19       		.uleb128 0x19
 2001 016f 03       		.uleb128 0x3
 2002 0170 0E       		.uleb128 0xe
 2003 0171 3A       		.uleb128 0x3a
 2004 0172 0B       		.uleb128 0xb
 2005 0173 3B       		.uleb128 0x3b
 2006 0174 0B       		.uleb128 0xb
 2007 0175 27       		.uleb128 0x27
 2008 0176 19       		.uleb128 0x19
 2009 0177 11       		.uleb128 0x11
 2010 0178 01       		.uleb128 0x1
 2011 0179 12       		.uleb128 0x12
 2012 017a 06       		.uleb128 0x6
 2013 017b 40       		.uleb128 0x40
 2014 017c 18       		.uleb128 0x18
 2015 017d 9742     		.uleb128 0x2117
 2016 017f 19       		.uleb128 0x19
 2017 0180 01       		.uleb128 0x1
 2018 0181 13       		.uleb128 0x13
 2019 0182 00       		.byte	0
 2020 0183 00       		.byte	0
 2021 0184 1E       		.uleb128 0x1e
 2022 0185 05       		.uleb128 0x5
 2023 0186 00       		.byte	0
 2024 0187 03       		.uleb128 0x3
 2025 0188 0E       		.uleb128 0xe
 2026 0189 3A       		.uleb128 0x3a
 2027 018a 0B       		.uleb128 0xb
 2028 018b 3B       		.uleb128 0x3b
 2029 018c 0B       		.uleb128 0xb
 2030 018d 49       		.uleb128 0x49
 2031 018e 13       		.uleb128 0x13
 2032 018f 02       		.uleb128 0x2
 2033 0190 18       		.uleb128 0x18
 2034 0191 00       		.byte	0
 2035 0192 00       		.byte	0
ARM GAS  /tmp/ccUaNec6.s 			page 52


 2036 0193 1F       		.uleb128 0x1f
 2037 0194 34       		.uleb128 0x34
 2038 0195 00       		.byte	0
 2039 0196 03       		.uleb128 0x3
 2040 0197 0E       		.uleb128 0xe
 2041 0198 3A       		.uleb128 0x3a
 2042 0199 0B       		.uleb128 0xb
 2043 019a 3B       		.uleb128 0x3b
 2044 019b 05       		.uleb128 0x5
 2045 019c 49       		.uleb128 0x49
 2046 019d 13       		.uleb128 0x13
 2047 019e 3F       		.uleb128 0x3f
 2048 019f 19       		.uleb128 0x19
 2049 01a0 3C       		.uleb128 0x3c
 2050 01a1 19       		.uleb128 0x19
 2051 01a2 00       		.byte	0
 2052 01a3 00       		.byte	0
 2053 01a4 20       		.uleb128 0x20
 2054 01a5 34       		.uleb128 0x34
 2055 01a6 00       		.byte	0
 2056 01a7 03       		.uleb128 0x3
 2057 01a8 08       		.uleb128 0x8
 2058 01a9 3A       		.uleb128 0x3a
 2059 01aa 0B       		.uleb128 0xb
 2060 01ab 3B       		.uleb128 0x3b
 2061 01ac 05       		.uleb128 0x5
 2062 01ad 49       		.uleb128 0x49
 2063 01ae 13       		.uleb128 0x13
 2064 01af 3F       		.uleb128 0x3f
 2065 01b0 19       		.uleb128 0x19
 2066 01b1 3C       		.uleb128 0x3c
 2067 01b2 19       		.uleb128 0x19
 2068 01b3 00       		.byte	0
 2069 01b4 00       		.byte	0
 2070 01b5 21       		.uleb128 0x21
 2071 01b6 2E       		.uleb128 0x2e
 2072 01b7 01       		.byte	0x1
 2073 01b8 3F       		.uleb128 0x3f
 2074 01b9 19       		.uleb128 0x19
 2075 01ba 03       		.uleb128 0x3
 2076 01bb 0E       		.uleb128 0xe
 2077 01bc 27       		.uleb128 0x27
 2078 01bd 19       		.uleb128 0x19
 2079 01be 49       		.uleb128 0x49
 2080 01bf 13       		.uleb128 0x13
 2081 01c0 34       		.uleb128 0x34
 2082 01c1 19       		.uleb128 0x19
 2083 01c2 3C       		.uleb128 0x3c
 2084 01c3 19       		.uleb128 0x19
 2085 01c4 01       		.uleb128 0x1
 2086 01c5 13       		.uleb128 0x13
 2087 01c6 00       		.byte	0
 2088 01c7 00       		.byte	0
 2089 01c8 22       		.uleb128 0x22
 2090 01c9 26       		.uleb128 0x26
 2091 01ca 00       		.byte	0
 2092 01cb 00       		.byte	0
ARM GAS  /tmp/ccUaNec6.s 			page 53


 2093 01cc 00       		.byte	0
 2094 01cd 00       		.byte	0
 2095              		.section	.debug_loc,"",%progbits
 2096              	.Ldebug_loc0:
 2097              	.LLST0:
 2098 0000 00000000 		.4byte	.LVL0
 2099 0004 06000000 		.4byte	.LVL2
 2100 0008 0100     		.2byte	0x1
 2101 000a 50       		.byte	0x50
 2102 000b 06000000 		.4byte	.LVL2
 2103 000f 24000000 		.4byte	.LFE219
 2104 0013 0100     		.2byte	0x1
 2105 0015 53       		.byte	0x53
 2106 0016 00000000 		.4byte	0
 2107 001a 00000000 		.4byte	0
 2108              	.LLST1:
 2109 001e 04000000 		.4byte	.LVL1
 2110 0022 06000000 		.4byte	.LVL2
 2111 0026 0100     		.2byte	0x1
 2112 0028 50       		.byte	0x50
 2113 0029 06000000 		.4byte	.LVL2
 2114 002d 24000000 		.4byte	.LFE219
 2115 0031 0100     		.2byte	0x1
 2116 0033 53       		.byte	0x53
 2117 0034 00000000 		.4byte	0
 2118 0038 00000000 		.4byte	0
 2119              	.LLST2:
 2120 003c 00000000 		.4byte	.LVL3
 2121 0040 14000000 		.4byte	.LVL5
 2122 0044 0100     		.2byte	0x1
 2123 0046 50       		.byte	0x50
 2124 0047 14000000 		.4byte	.LVL5
 2125 004b 1A000000 		.4byte	.LFE220
 2126 004f 0400     		.2byte	0x4
 2127 0051 F3       		.byte	0xf3
 2128 0052 01       		.uleb128 0x1
 2129 0053 50       		.byte	0x50
 2130 0054 9F       		.byte	0x9f
 2131 0055 00000000 		.4byte	0
 2132 0059 00000000 		.4byte	0
 2133              	.LLST4:
 2134 005d 00000000 		.4byte	.LVL6
 2135 0061 16000000 		.4byte	.LVL8
 2136 0065 0100     		.2byte	0x1
 2137 0067 50       		.byte	0x50
 2138 0068 16000000 		.4byte	.LVL8
 2139 006c 26000000 		.4byte	.LFE218
 2140 0070 0100     		.2byte	0x1
 2141 0072 54       		.byte	0x54
 2142 0073 00000000 		.4byte	0
 2143 0077 00000000 		.4byte	0
 2144              	.LLST5:
 2145 007b 00000000 		.4byte	.LVL6
 2146 007f 18000000 		.4byte	.LVL9
 2147 0083 0100     		.2byte	0x1
 2148 0085 51       		.byte	0x51
 2149 0086 18000000 		.4byte	.LVL9
ARM GAS  /tmp/ccUaNec6.s 			page 54


 2150 008a 1B000000 		.4byte	.LVL10-1
 2151 008e 0100     		.2byte	0x1
 2152 0090 50       		.byte	0x50
 2153 0091 1B000000 		.4byte	.LVL10-1
 2154 0095 26000000 		.4byte	.LFE218
 2155 0099 0400     		.2byte	0x4
 2156 009b F3       		.byte	0xf3
 2157 009c 01       		.uleb128 0x1
 2158 009d 51       		.byte	0x51
 2159 009e 9F       		.byte	0x9f
 2160 009f 00000000 		.4byte	0
 2161 00a3 00000000 		.4byte	0
 2162              	.LLST6:
 2163 00a7 00000000 		.4byte	.LVL6
 2164 00ab 12000000 		.4byte	.LVL7
 2165 00af 0100     		.2byte	0x1
 2166 00b1 52       		.byte	0x52
 2167 00b2 12000000 		.4byte	.LVL7
 2168 00b6 22000000 		.4byte	.LVL11
 2169 00ba 0100     		.2byte	0x1
 2170 00bc 55       		.byte	0x55
 2171 00bd 22000000 		.4byte	.LVL11
 2172 00c1 26000000 		.4byte	.LFE218
 2173 00c5 0100     		.2byte	0x1
 2174 00c7 50       		.byte	0x50
 2175 00c8 00000000 		.4byte	0
 2176 00cc 00000000 		.4byte	0
 2177              	.LLST7:
 2178 00d0 12000000 		.4byte	.LVL7
 2179 00d4 16000000 		.4byte	.LVL8
 2180 00d8 0100     		.2byte	0x1
 2181 00da 50       		.byte	0x50
 2182 00db 16000000 		.4byte	.LVL8
 2183 00df 26000000 		.4byte	.LFE218
 2184 00e3 0100     		.2byte	0x1
 2185 00e5 54       		.byte	0x54
 2186 00e6 00000000 		.4byte	0
 2187 00ea 00000000 		.4byte	0
 2188              	.LLST8:
 2189 00ee 00000000 		.4byte	.LVL12
 2190 00f2 0C000000 		.4byte	.LVL14
 2191 00f6 0100     		.2byte	0x1
 2192 00f8 50       		.byte	0x50
 2193 00f9 0C000000 		.4byte	.LVL14
 2194 00fd 24000000 		.4byte	.LFE217
 2195 0101 0100     		.2byte	0x1
 2196 0103 54       		.byte	0x54
 2197 0104 00000000 		.4byte	0
 2198 0108 00000000 		.4byte	0
 2199              	.LLST9:
 2200 010c 00000000 		.4byte	.LVL12
 2201 0110 19000000 		.4byte	.LVL16-1
 2202 0114 0100     		.2byte	0x1
 2203 0116 51       		.byte	0x51
 2204 0117 19000000 		.4byte	.LVL16-1
 2205 011b 24000000 		.4byte	.LFE217
 2206 011f 0400     		.2byte	0x4
ARM GAS  /tmp/ccUaNec6.s 			page 55


 2207 0121 F3       		.byte	0xf3
 2208 0122 01       		.uleb128 0x1
 2209 0123 51       		.byte	0x51
 2210 0124 9F       		.byte	0x9f
 2211 0125 00000000 		.4byte	0
 2212 0129 00000000 		.4byte	0
 2213              	.LLST10:
 2214 012d 00000000 		.4byte	.LVL12
 2215 0131 12000000 		.4byte	.LVL15
 2216 0135 0100     		.2byte	0x1
 2217 0137 52       		.byte	0x52
 2218 0138 12000000 		.4byte	.LVL15
 2219 013c 20000000 		.4byte	.LVL17
 2220 0140 0100     		.2byte	0x1
 2221 0142 55       		.byte	0x55
 2222 0143 20000000 		.4byte	.LVL17
 2223 0147 24000000 		.4byte	.LFE217
 2224 014b 0100     		.2byte	0x1
 2225 014d 50       		.byte	0x50
 2226 014e 00000000 		.4byte	0
 2227 0152 00000000 		.4byte	0
 2228              	.LLST11:
 2229 0156 08000000 		.4byte	.LVL13
 2230 015a 0C000000 		.4byte	.LVL14
 2231 015e 0100     		.2byte	0x1
 2232 0160 50       		.byte	0x50
 2233 0161 0C000000 		.4byte	.LVL14
 2234 0165 24000000 		.4byte	.LFE217
 2235 0169 0100     		.2byte	0x1
 2236 016b 54       		.byte	0x54
 2237 016c 00000000 		.4byte	0
 2238 0170 00000000 		.4byte	0
 2239              		.section	.debug_aranges,"",%progbits
 2240 0000 3C000000 		.4byte	0x3c
 2241 0004 0200     		.2byte	0x2
 2242 0006 00000000 		.4byte	.Ldebug_info0
 2243 000a 04       		.byte	0x4
 2244 000b 00       		.byte	0
 2245 000c 0000     		.2byte	0
 2246 000e 0000     		.2byte	0
 2247 0010 00000000 		.4byte	.LFB219
 2248 0014 24000000 		.4byte	.LFE219-.LFB219
 2249 0018 00000000 		.4byte	.LFB220
 2250 001c 1A000000 		.4byte	.LFE220-.LFB220
 2251 0020 00000000 		.4byte	.LFB218
 2252 0024 26000000 		.4byte	.LFE218-.LFB218
 2253 0028 00000000 		.4byte	.LFB217
 2254 002c 24000000 		.4byte	.LFE217-.LFB217
 2255 0030 00000000 		.4byte	.LFB221
 2256 0034 1A000000 		.4byte	.LFE221-.LFB221
 2257 0038 00000000 		.4byte	0
 2258 003c 00000000 		.4byte	0
 2259              		.section	.debug_ranges,"",%progbits
 2260              	.Ldebug_ranges0:
 2261 0000 00000000 		.4byte	.LFB219
 2262 0004 24000000 		.4byte	.LFE219
 2263 0008 00000000 		.4byte	.LFB220
ARM GAS  /tmp/ccUaNec6.s 			page 56


 2264 000c 1A000000 		.4byte	.LFE220
 2265 0010 00000000 		.4byte	.LFB218
 2266 0014 26000000 		.4byte	.LFE218
 2267 0018 00000000 		.4byte	.LFB217
 2268 001c 24000000 		.4byte	.LFE217
 2269 0020 00000000 		.4byte	.LFB221
 2270 0024 1A000000 		.4byte	.LFE221
 2271 0028 00000000 		.4byte	0
 2272 002c 00000000 		.4byte	0
 2273              		.section	.debug_line,"",%progbits
 2274              	.Ldebug_line0:
 2275 0000 9D020000 		.section	.debug_str,"MS",%progbits,1
 2275      02001C02 
 2275      00000201 
 2275      FB0E0D00 
 2275      01010101 
 2276              	.LASF50:
 2277 0000 72656164 		.ascii	"ready_list_t\000"
 2277      795F6C69 
 2277      73745F74 
 2277      00
 2278              	.LASF11:
 2279 000d 73697A65 		.ascii	"size_t\000"
 2279      5F7400
 2280              	.LASF56:
 2281 0014 64656C74 		.ascii	"delta\000"
 2281      6100
 2282              	.LASF75:
 2283 001a 7264796D 		.ascii	"rdymsg\000"
 2283      736700
 2284              	.LASF16:
 2285 0021 75696E74 		.ascii	"uint64_t\000"
 2285      36345F74 
 2285      00
 2286              	.LASF49:
 2287 002a 70726576 		.ascii	"prev\000"
 2287      00
 2288              	.LASF100:
 2289 002f 2E2E2F2E 		.ascii	"../../../os/hal/lib/streams/memstreams.c\000"
 2289      2E2F2E2E 
 2289      2F6F732F 
 2289      68616C2F 
 2289      6C69622F 
 2290              	.LASF48:
 2291 0058 63685F74 		.ascii	"ch_threads_queue\000"
 2291      68726561 
 2291      64735F71 
 2291      75657565 
 2291      00
 2292              	.LASF61:
 2293 0069 73797374 		.ascii	"system_debug_t\000"
 2293      656D5F64 
 2293      65627567 
 2293      5F7400
 2294              	.LASF6:
 2295 0078 6C6F6E67 		.ascii	"long long unsigned int\000"
 2295      206C6F6E 
ARM GAS  /tmp/ccUaNec6.s 			page 57


 2295      6720756E 
 2295      7369676E 
 2295      65642069 
 2296              	.LASF76:
 2297 008f 65786974 		.ascii	"exitcode\000"
 2297      636F6465 
 2297      00
 2298              	.LASF68:
 2299 0098 6D61696E 		.ascii	"mainthread\000"
 2299      74687265 
 2299      616400
 2300              	.LASF79:
 2301 00a3 73656E74 		.ascii	"sentmsg\000"
 2301      6D736700 
 2302              	.LASF58:
 2303 00ab 76697274 		.ascii	"virtual_timers_list_t\000"
 2303      75616C5F 
 2303      74696D65 
 2303      72735F6C 
 2303      6973745F 
 2304              	.LASF98:
 2305 00c1 49544D5F 		.ascii	"ITM_RxBuffer\000"
 2305      52784275 
 2305      66666572 
 2305      00
 2306              	.LASF46:
 2307 00ce 6E657874 		.ascii	"next\000"
 2307      00
 2308              	.LASF96:
 2309 00d3 5F726561 		.ascii	"_reads\000"
 2309      647300
 2310              	.LASF5:
 2311 00da 6C6F6E67 		.ascii	"long long int\000"
 2311      206C6F6E 
 2311      6720696E 
 2311      7400
 2312              	.LASF0:
 2313 00e8 7369676E 		.ascii	"signed char\000"
 2313      65642063 
 2313      68617200 
 2314              	.LASF92:
 2315 00f4 73697A65 		.ascii	"size\000"
 2315      00
 2316              	.LASF67:
 2317 00f9 76746C69 		.ascii	"vtlist\000"
 2317      737400
 2318              	.LASF37:
 2319 0100 6D736771 		.ascii	"msgqueue\000"
 2319      75657565 
 2319      00
 2320              	.LASF33:
 2321 0109 73746174 		.ascii	"state\000"
 2321      6500
 2322              	.LASF7:
 2323 010f 6C6F6E67 		.ascii	"long int\000"
 2323      20696E74 
 2323      00
ARM GAS  /tmp/ccUaNec6.s 			page 58


 2324              	.LASF19:
 2325 0118 74737461 		.ascii	"tstate_t\000"
 2325      74655F74 
 2325      00
 2326              	.LASF57:
 2327 0121 66756E63 		.ascii	"func\000"
 2327      00
 2328              	.LASF103:
 2329 0126 6D656D63 		.ascii	"memcpy\000"
 2329      707900
 2330              	.LASF13:
 2331 012d 75696E74 		.ascii	"uint16_t\000"
 2331      31365F74 
 2331      00
 2332              	.LASF91:
 2333 0136 62756666 		.ascii	"buffer\000"
 2333      657200
 2334              	.LASF69:
 2335 013d 72656761 		.ascii	"regarm_t\000"
 2335      726D5F74 
 2335      00
 2336              	.LASF36:
 2337 0146 77616974 		.ascii	"waiting\000"
 2337      696E6700 
 2338              	.LASF86:
 2339 014e 6D757465 		.ascii	"mutex_t\000"
 2339      785F7400 
 2340              	.LASF24:
 2341 0156 636E745F 		.ascii	"cnt_t\000"
 2341      7400
 2342              	.LASF4:
 2343 015c 756E7369 		.ascii	"unsigned int\000"
 2343      676E6564 
 2343      20696E74 
 2343      00
 2344              	.LASF80:
 2345 0169 77747365 		.ascii	"wtsemp\000"
 2345      6D7000
 2346              	.LASF78:
 2347 0170 77747472 		.ascii	"wttrp\000"
 2347      7000
 2348              	.LASF31:
 2349 0176 6E616D65 		.ascii	"name\000"
 2349      00
 2350              	.LASF27:
 2351 017b 71756575 		.ascii	"queue\000"
 2351      6500
 2352              	.LASF41:
 2353 0181 6D706F6F 		.ascii	"mpool\000"
 2353      6C00
 2354              	.LASF3:
 2355 0187 73686F72 		.ascii	"short unsigned int\000"
 2355      7420756E 
 2355      7369676E 
 2355      65642069 
 2355      6E7400
 2356              	.LASF94:
ARM GAS  /tmp/ccUaNec6.s 			page 59


 2357 019a 5F707574 		.ascii	"_put\000"
 2357      00
 2358              	.LASF44:
 2359 019f 63685F74 		.ascii	"ch_thread\000"
 2359      68726561 
 2359      6400
 2360              	.LASF22:
 2361 01a9 6D73675F 		.ascii	"msg_t\000"
 2361      7400
 2362              	.LASF38:
 2363 01af 6570656E 		.ascii	"epending\000"
 2363      64696E67 
 2363      00
 2364              	.LASF64:
 2365 01b8 63685F73 		.ascii	"ch_system_t\000"
 2365      79737465 
 2365      6D5F7400 
 2366              	.LASF18:
 2367 01c4 746D6F64 		.ascii	"tmode_t\000"
 2367      655F7400 
 2368              	.LASF51:
 2369 01cc 63685F72 		.ascii	"ch_ready_list\000"
 2369      65616479 
 2369      5F6C6973 
 2369      7400
 2370              	.LASF23:
 2371 01da 6576656E 		.ascii	"eventmask_t\000"
 2371      746D6173 
 2371      6B5F7400 
 2372              	.LASF70:
 2373 01e6 73746B61 		.ascii	"stkalign_t\000"
 2373      6C69676E 
 2373      5F7400
 2374              	.LASF29:
 2375 01f1 6E657765 		.ascii	"newer\000"
 2375      7200
 2376              	.LASF102:
 2377 01f7 6D734F62 		.ascii	"msObjectInit\000"
 2377      6A656374 
 2377      496E6974 
 2377      00
 2378              	.LASF89:
 2379 0204 77726974 		.ascii	"write\000"
 2379      6500
 2380              	.LASF40:
 2381 020a 7265616C 		.ascii	"realprio\000"
 2381      7072696F 
 2381      00
 2382              	.LASF8:
 2383 0213 73697A65 		.ascii	"sizetype\000"
 2383      74797065 
 2383      00
 2384              	.LASF42:
 2385 021c 74687265 		.ascii	"thread_reference_t\000"
 2385      61645F72 
 2385      65666572 
 2385      656E6365 
ARM GAS  /tmp/ccUaNec6.s 			page 60


 2385      5F7400
 2386              	.LASF59:
 2387 022f 63685F76 		.ascii	"ch_virtual_timers_list\000"
 2387      69727475 
 2387      616C5F74 
 2387      696D6572 
 2387      735F6C69 
 2388              	.LASF71:
 2389 0246 706F7274 		.ascii	"port_context\000"
 2389      5F636F6E 
 2389      74657874 
 2389      00
 2390              	.LASF74:
 2391 0253 746D5F63 		.ascii	"tm_calibration_t\000"
 2391      616C6962 
 2391      72617469 
 2391      6F6E5F74 
 2391      00
 2392              	.LASF28:
 2393 0264 7072696F 		.ascii	"prio\000"
 2393      00
 2394              	.LASF52:
 2395 0269 63757272 		.ascii	"current\000"
 2395      656E7400 
 2396              	.LASF88:
 2397 0271 4D656D53 		.ascii	"MemStreamVMT\000"
 2397      74726561 
 2397      6D564D54 
 2397      00
 2398              	.LASF101:
 2399 027e 2F686F6D 		.ascii	"/home/alex/Embebidos Proyecto/ChibiOS_17.6.1/demos/"
 2399      652F616C 
 2399      65782F45 
 2399      6D626562 
 2399      69646F73 
 2400 02b1 53544D33 		.ascii	"STM32/RT-STM32F100-DISCOVERY\000"
 2400      322F5254 
 2400      2D53544D 
 2400      33324631 
 2400      30302D44 
 2401              	.LASF72:
 2402 02ce 706F7274 		.ascii	"port_intctx\000"
 2402      5F696E74 
 2402      63747800 
 2403              	.LASF35:
 2404 02da 72656673 		.ascii	"refs\000"
 2404      00
 2405              	.LASF54:
 2406 02df 76697274 		.ascii	"virtual_timer_t\000"
 2406      75616C5F 
 2406      74696D65 
 2406      725F7400 
 2407              	.LASF99:
 2408 02ef 474E5520 		.ascii	"GNU C 4.8.1 -mcpu=cortex-m3 -mno-thumb-interwork -m"
 2408      4320342E 
 2408      382E3120 
 2408      2D6D6370 
ARM GAS  /tmp/ccUaNec6.s 			page 61


 2408      753D636F 
 2409 0322 7468756D 		.ascii	"thumb -ggdb -O2 -fomit-frame-pointer -falign-functi"
 2409      62202D67 
 2409      67646220 
 2409      2D4F3220 
 2409      2D666F6D 
 2410 0355 6F6E733D 		.ascii	"ons=16 -ffunction-sections -fdata-sections -fno-com"
 2410      3136202D 
 2410      6666756E 
 2410      6374696F 
 2410      6E2D7365 
 2411 0388 6D6F6E20 		.ascii	"mon -flto\000"
 2411      2D666C74 
 2411      6F00
 2412              	.LASF21:
 2413 0392 74707269 		.ascii	"tprio_t\000"
 2413      6F5F7400 
 2414              	.LASF93:
 2415 039a 4D656D6F 		.ascii	"MemoryStream\000"
 2415      72795374 
 2415      7265616D 
 2415      00
 2416              	.LASF62:
 2417 03a7 63685F73 		.ascii	"ch_system_debug\000"
 2417      79737465 
 2417      6D5F6465 
 2417      62756700 
 2418              	.LASF87:
 2419 03b7 5F426F6F 		.ascii	"_Bool\000"
 2419      6C00
 2420              	.LASF14:
 2421 03bd 696E7433 		.ascii	"int32_t\000"
 2421      325F7400 
 2422              	.LASF1:
 2423 03c5 756E7369 		.ascii	"unsigned char\000"
 2423      676E6564 
 2423      20636861 
 2423      7200
 2424              	.LASF2:
 2425 03d3 73686F72 		.ascii	"short int\000"
 2425      7420696E 
 2425      7400
 2426              	.LASF60:
 2427 03dd 6C617374 		.ascii	"lasttime\000"
 2427      74696D65 
 2427      00
 2428              	.LASF82:
 2429 03e6 65776D61 		.ascii	"ewmask\000"
 2429      736B00
 2430              	.LASF65:
 2431 03ed 63685F73 		.ascii	"ch_system\000"
 2431      79737465 
 2431      6D00
 2432              	.LASF55:
 2433 03f7 63685F76 		.ascii	"ch_virtual_timer\000"
 2433      69727475 
 2433      616C5F74 
ARM GAS  /tmp/ccUaNec6.s 			page 62


 2433      696D6572 
 2433      00
 2434              	.LASF83:
 2435 0408 63685F73 		.ascii	"ch_semaphore\000"
 2435      656D6170 
 2435      686F7265 
 2435      00
 2436              	.LASF15:
 2437 0415 75696E74 		.ascii	"uint32_t\000"
 2437      33325F74 
 2437      00
 2438              	.LASF81:
 2439 041e 77746D74 		.ascii	"wtmtxp\000"
 2439      787000
 2440              	.LASF20:
 2441 0425 74726566 		.ascii	"trefs_t\000"
 2441      735F7400 
 2442              	.LASF45:
 2443 042d 63685F74 		.ascii	"ch_threads_list\000"
 2443      68726561 
 2443      64735F6C 
 2443      69737400 
 2444              	.LASF85:
 2445 043d 6F776E65 		.ascii	"owner\000"
 2445      7200
 2446              	.LASF9:
 2447 0443 6C6F6E67 		.ascii	"long unsigned int\000"
 2447      20756E73 
 2447      69676E65 
 2447      6420696E 
 2447      7400
 2448              	.LASF32:
 2449 0455 77616261 		.ascii	"wabase\000"
 2449      736500
 2450              	.LASF90:
 2451 045c 72656164 		.ascii	"read\000"
 2451      00
 2452              	.LASF10:
 2453 0461 63686172 		.ascii	"char\000"
 2453      00
 2454              	.LASF30:
 2455 0466 6F6C6465 		.ascii	"older\000"
 2455      7200
 2456              	.LASF26:
 2457 046c 74687265 		.ascii	"thread_t\000"
 2457      61645F74 
 2457      00
 2458              	.LASF25:
 2459 0475 73797374 		.ascii	"systime_t\000"
 2459      696D655F 
 2459      7400
 2460              	.LASF53:
 2461 047f 76746675 		.ascii	"vtfunc_t\000"
 2461      6E635F74 
 2461      00
 2462              	.LASF63:
 2463 0488 70616E69 		.ascii	"panic_msg\000"
ARM GAS  /tmp/ccUaNec6.s 			page 63


 2463      635F6D73 
 2463      6700
 2464              	.LASF73:
 2465 0492 6F666673 		.ascii	"offset\000"
 2465      657400
 2466              	.LASF17:
 2467 0499 7274636E 		.ascii	"rtcnt_t\000"
 2467      745F7400 
 2468              	.LASF97:
 2469 04a1 5F777269 		.ascii	"_writes\000"
 2469      74657300 
 2470              	.LASF47:
 2471 04a9 74687265 		.ascii	"threads_queue_t\000"
 2471      6164735F 
 2471      71756575 
 2471      655F7400 
 2472              	.LASF84:
 2473 04b9 63685F6D 		.ascii	"ch_mutex\000"
 2473      75746578 
 2473      00
 2474              	.LASF66:
 2475 04c2 726C6973 		.ascii	"rlist\000"
 2475      7400
 2476              	.LASF12:
 2477 04c8 75696E74 		.ascii	"uint8_t\000"
 2477      385F7400 
 2478              	.LASF34:
 2479 04d0 666C6167 		.ascii	"flags\000"
 2479      7300
 2480              	.LASF95:
 2481 04d6 5F676574 		.ascii	"_get\000"
 2481      00
 2482              	.LASF77:
 2483 04db 77746F62 		.ascii	"wtobjp\000"
 2483      6A7000
 2484              	.LASF43:
 2485 04e2 74687265 		.ascii	"threads_list_t\000"
 2485      6164735F 
 2485      6C697374 
 2485      5F7400
 2486              	.LASF39:
 2487 04f1 6D74786C 		.ascii	"mtxlist\000"
 2487      69737400 
 2488              		.comm	__gnu_lto_v1,1,1
 2489              		.ident	"GCC: (Sourcery CodeBench Lite 2013.11-24) 4.8.1"
ARM GAS  /tmp/ccUaNec6.s 			page 64


DEFINED SYMBOLS
                            *ABS*:00000000 memstreams.c
     /tmp/ccUaNec6.s:280    .text._put:00000000 $t
     /tmp/ccUaNec6.s:285    .text._put:00000000 _put
     /tmp/ccUaNec6.s:330    .text._get:00000000 $t
     /tmp/ccUaNec6.s:335    .text._get:00000000 _get
     /tmp/ccUaNec6.s:369    .text._reads:00000000 $t
     /tmp/ccUaNec6.s:374    .text._reads:00000000 _reads
     /tmp/ccUaNec6.s:422    .text._writes:00000000 $t
     /tmp/ccUaNec6.s:427    .text._writes:00000000 _writes
     /tmp/ccUaNec6.s:473    .text.msObjectInit:00000000 $t
     /tmp/ccUaNec6.s:479    .text.msObjectInit:00000000 msObjectInit
     /tmp/ccUaNec6.s:514    .rodata.vmt:00000000 .LANCHOR0
     /tmp/ccUaNec6.s:513    .rodata.vmt:00000000 $d
     /tmp/ccUaNec6.s:517    .rodata.vmt:00000000 vmt
                            *COM*:00000001 __gnu_lto_v1
                     .debug_frame:00000010 $d

UNDEFINED SYMBOLS
memcpy
