ARM GAS  /tmp/ccUaNec6.s 			page 1


   1              		.syntax unified
   2              		.cpu cortex-m3
   3              		.fpu softvfp
   4              		.eabi_attribute 20, 1
   5              		.eabi_attribute 21, 1
   6              		.eabi_attribute 23, 3
   7              		.eabi_attribute 24, 1
   8              		.eabi_attribute 25, 1
   9              		.eabi_attribute 26, 1
  10              		.eabi_attribute 30, 2
  11              		.eabi_attribute 34, 1
  12              		.eabi_attribute 18, 4
  13              		.thumb
  14              		.file	"memstreams.c"
  15              		.text
  16              	.Ltext0:
  17              		.section	.gnu.lto_.jmpfuncs.f5b972446147c1f7,"",%progbits
  18 0000 789C6362 		.ascii	"x\234cb`b\300\006T\2404+\0033##\023;33\003\003c\031"
  18      6062C006 
  18      54A0342B 
  18      03332323 
  18      133B3333 
  19 0018 23588899 		.ascii	"#X\210\231\035\310\201\363Y\370\031\000\032\264\001"
  19      1DC881F3 
  19      59F81900 
  19      1AB401
  20 0027 55       		.ascii	"U"
  21              		.text
  22              		.section	.gnu.lto_.inline.f5b972446147c1f7,"",%progbits
  23 0000 789C6362 		.ascii	"x\234cb`b\300\006\032\031!4+\003\003/\017#3\003\220"
  23      6062C006 
  23      1A192134 
  23      2B03032F 
  23      0F233303 
  24 0015 CBEC0026 		.ascii	"\313\354\000&\023\300\244\002\027\333\004=\006\216\013"
  24      13C0A402 
  24      17DB043D 
  24      068E0B
  25 0024 7A4C0C8C 		.ascii	"zL\014\214/\330Y $\210\340\00039\030X\026\310\36300"
  25      2FD85920 
  25      2488E000 
  25      33391858 
  25      16C8F330 
  26 0039 DE601760 		.ascii	"\336`\027`\002\223\014L\033\370%@\00622\360pC\315\203"
  26      02930C4C 
  26      1BF82540 
  26      063232F0 
  26      7043CD83 
  27 004d 98D4C008 		.ascii	"\230\324\300\0105\220\271C\234\201\375\207\032\026\003"
  27      3590B943 
  27      9C81FD87 
  27      1A1603
  28 005c 996788E3 		.ascii	"\231g\210\3436\220\211AP\222\221\005\305@&F\210M@S\271"
  28      36908941 
  28      50929105 
  28      C5402646 
  28      884D4053 
ARM GAS  /tmp/ccUaNec6.s 			page 2


  29 0071 81DA1838 		.ascii	"\201\332\0308>\340t&\323\005~\036\220\3212 \256\002"
  29      3EE07426 
  29      D3057E1E 
  29      90D13220 
  29      AE02
  30 0083 58500124 		.ascii	"XP\001$\250\0012\201\205\027h\304\004?\020dF\330\002"
  30      A8013281 
  30      851768C4 
  30      043F1064 
  30      46D802
  31 0096 0D061A58 		.ascii	"\015\006\032X\302\302\300\301\316\310\300\304\332\241"
  31      C2C2C0C1 
  31      CEC8C0C4 
  31      DAA1
  32 00a4 CEC0BDC2 		.ascii	"\316\300\275\302\015\0221\000-\3633\312"
  32      0D123100 
  32      2DF333CA 
  33              		.text
  34              		.section	.gnu.lto_.pureconst.f5b972446147c1f7,"",%progbits
  35 0000 789C6362 		.ascii	"x\234cb`b\340f\200\000V\006)F)&)f)\026)\000\004)\000"
  35      6062E066 
  35      80005606 
  35      29462926 
  35      29662916 
  36 0019 A1       		.ascii	"\241"
  37              		.text
  38              		.section	.gnu.lto__put.f5b972446147c1f7,"",%progbits
  39 0000 789C8D92 		.ascii	"x\234\215\222\301K\033A\024\306\3377\263\273IL\252\036"
  39      C14B1B41 
  39      14C6DF37 
  39      B3BB494C 
  39      AA1E
  40 0012 7AE94D72 		.ascii	"z\351Mrk\225\354\301\277\242w\205zL\202\304\205,\226"
  40      6B95ECC1 
  40      BFA27785 
  40      7A4C82C4 
  40      852C96
  41 0025 A6F74C54 		.ascii	"\246\367LT\244\320K\020\241U\013mz\350A\202\266\364"
  41      A4D04B10 
  41      A1550B6D 
  41      7AE84182 
  41      B6F4
  42 0037 E2318722 		.ascii	"\3421\207\"\226\266\222\036\365\024\010\264\027/\336"
  42      96B6921E 
  42      F51408B4 
  42      172FDE
  43 0046 3C19DF9B 		.ascii	"<\031\337\233qW\220\242]v\337\314\276\367~\337\2747"
  43      715790A2 
  43      5D76DFCC 
  43      BEF77EDF 
  43      BC37
  44 0058 338A14DD 		.ascii	"3\212\024\335~f\371[cw\310#|\202j\037\023\265\262Jy"
  44      7E66F95B 
  44      6377C823 
  44      7C826A1F 
  44      13B5B24A 
  45 006d EF41664C 		.ascii	"\357AfL\237\377$2\005\015\317\371=@&\004j*\355\241\271"
ARM GAS  /tmp/ccUaNec6.s 			page 3


  45      9FFF2432 
  45      050DCFF9 
  45      3D402604 
  45      6A2AEDA1 
  46 0082 00ABB2AF 		.ascii	"\000\253\262\257z\203\321hos\275\333\305\226\032\007"
  46      7A83D168 
  46      6F73BDDB 
  46      C5961A07 
  47 0092 45208D18 		.ascii	"E \215\030\344\363\014\201\230\014\033\225\025\223\343"
  47      E4F30C81 
  47      980C1B95 
  47      1593E3
  48 00a1 00F2E22B 		.ascii	"\000\362\342+\210a\334\2475c\332SE\352\030\263\321{"
  48      8861DCA7 
  48      3563DA53 
  48      45EA18B3 
  48      D17B
  49 00b3 73B8F9C8 		.ascii	"s\270\371\310|Xi\233\313\321\010\021\264\242\031P\025"
  49      7C58699B 
  49      CBD10811 
  49      B4A21950 
  49      15
  50 00c4 F48C7FBC 		.ascii	"\364\214\177\274);\370\336\355>\252\266\2209\266R\337"
  50      293BF8DE 
  50      ED3EAAB6 
  50      9039B652 
  50      DF
  51 00d5 3C948CFA 		.ascii	"<\224\214\372;\2512:\334W\031\037Q\244\0324\321/Z9="
  51      3BA9323A 
  51      DC57191F 
  51      51A41A34 
  51      D12F5A39 
  52 00ea 18F6E102 		.ascii	"\030\366\341\0025\370\323\364$B\260C\333,\234\341\024"
  52      35F8D3F4 
  52      2442B043 
  52      DB2C9CE1 
  52      14
  53 00fb 59405BD1 		.ascii	"Y@[\321\012\022y\201\372\371\004\011\356B\022\346\210"
  53      0A127981 
  53      FAF90409 
  53      EE4212E6 
  53      88
  54 010c BEFD6D3D 		.ascii	"\276\375m=HWa\352\246\332y\316\346\235\325\"{1\354\245"
  54      485761EA 
  54      A6DA79CE 
  54      E69DD522 
  54      7B31ECA5 
  55 0120 B564ACB0 		.ascii	"\265d\254\260\372\267\260JkY}\275\372)e\2625\311\014"
  55      FAB7B04A 
  55      6B597DBD 
  55      FA2965B2 
  55      35C90C
  56 0133 6C8D3F3E 		.ascii	"l\215?>O87+\264\2141\231H\302YQqt\0159\327\314\333?"
  56      4F38372B 
  56      B48C3199 
  56      48C25951 
  56      71740D39 
ARM GAS  /tmp/ccUaNec6.s 			page 4


  57 014b 8354213F 		.ascii	"\203T!?M\273\234<yoK\274\362+\235P\005\006%)\200\333"
  57      4DBB9C3C 
  57      796F4BBC 
  57      F22B9D50 
  57      05062529 
  58 0161 9FA72EF0 		.ascii	"\237\247.\360\177Z\214';\341\331\223\372\315\227K\334"
  58      7F5A8C27 
  58      3BE1D993 
  58      FACD974B 
  58      DC
  59 0172 367C4210 		.ascii	"6|B\020\204\370\002\270\007Mu\366\345\241\365\021\351"
  59      84F802B8 
  59      074D75F6 
  59      E5A1F511 
  59      E9
  60 0183 775F0B72 		.ascii	"w_\013r\324\020P\332z\\*\205\356]n\204K\345zX\217*a"
  60      D41050DA 
  60      7A5C2A85 
  60      EE5D6E84 
  60      4BE57A58 
  61 019a E3E58BC5 		.ascii	"\343\345\213\305r\334\010\343\305\370zZ\252\222\216"
  61      72DC08E3 
  61      C5F87A5A 
  61      AA928E
  62 01a9 1BCFAF00 		.ascii	"\033\317\257\000\2308\235W"
  62      98389D57 
  63              		.text
  64              		.section	.gnu.lto__get.f5b972446147c1f7,"",%progbits
  65 0000 789C8592 		.ascii	"x\234\205\222\317k\023A\024\307\337wf7\233\244)\255"
  65      CF6B1341 
  65      14C7DF77 
  65      66379BA4 
  65      29AD
  66 0012 2082278B 		.ascii	" \202'\2137\333\222\245\364\257\360n@\217\233P\342B"
  66      37DB92A5 
  66      F4AFF06E 
  66      408F9B50 
  66      E242
  67 0024 17C578CF 		.ascii	"\027\305x\317$\261P\220B\020\241E\0136\250\027A*\224"
  67      24B15090 
  67      4210A145 
  67      0B36A817 
  67      412A94
  68 0037 7A280839 		.ascii	"z(\0109\210X\210\242\267\352)\236\012=\010\202G1}o&"
  68      885888A2 
  68      B7EA299E 
  68      0A3D0882 
  68      47317D6F 
  69 004c BBD252EC 		.ascii	"\273\322R\354\260;3;\363\276\237\367k\025):=\026\371"
  69      B03B333B 
  69      F3BE9FF7 
  69      6B15293A 
  69      3D16F9
  70 005f DDE3E305 		.ascii	"\335\343\343\005^\341\023T\3673Q+\257\224\367\014d\212"
  70      5EE11354 
  70      F733512B 
  70      AF94F70C 
ARM GAS  /tmp/ccUaNec6.s 			page 5


  70      648A
  71 0071 FAD780C8 		.ascii	"\372\327\200\310\2244<w\356\001\262!PSi\017\315[\020"
  71      94343C77 
  71      EE01B221 
  71      5053690F 
  71      CD5B10
  72 0084 08AE52CF 		.ascii	"\010\256R\317\230G\303\227\207\007X7\375\326\226\371"
  72      9847C397 
  72      87075837 
  72      FDD696F9 
  73 0094 331A0131 		.ascii	"3\032\0011\330\341<\250\006\272\311\037\310\333E\341"
  73      D8E13CA8 
  73      06BAC91F 
  73      C8DB45E1 
  74 00a4 6404DBAA 		.ascii	"d\004\333\252?\034\215\006;\277\177\274\306\205IP\014"
  74      3F1C8D06 
  74      3BBF7FBC 
  74      C6854950 
  74      0C
  75 00b5 AD91807C 		.ascii	"\255\221\200|\336y9\231\002\236\374\274L\005\212\320"
  75      DE793999 
  75      029EFCBC 
  75      4C058AD0 
  76 00c5 636F4539 		.ascii	"coE9.\211)\003|z`Lw\306\335\270H\372\357><\276l\266"
  76      2E892903 
  76      7C7A604C 
  76      77C6DDB8 
  76      48FAEF3E 
  77 00dd DA5DF397 		.ascii	"\332]\363\227\003\211\221ST\376\027\307\214\213\303"
  77      03899153 
  77      54FE17C7 
  77      8C8BC3
  78 00ec 3B5D8B9A 		.ascii	";]\213\232\215\354\006\317\222c\005JV\275O*\302s\256"
  78      8DEC06CF 
  78      9263054A 
  78      56BD4F2A 
  78      C273AE
  79 00ff 4D8417EC 		.ascii	"M\204\027\354\240.>?Q\373\373\306\321\027\270\213:\374"
  79      A02E3E3F 
  79      51FBFBC6 
  79      D117B88B 
  79      3AFC
  80 0111 399A8D11 		.ascii	"9\232\215\021<\245'\014\316\263\2118\310Yh5KWDo&RI\356"
  80      3CA5270C 
  80      CEB38938 
  80      C8596835 
  80      4B57446F 
  81 0129 7F9254F3 		.ascii	"\177\222T\363\221\336\037\266&3/\365\261\201\035\025"
  81      91DE1FB6 
  81      26332FF5 
  81      B1811D15 
  82 0139 0E84BBA3 		.ascii	"\016\204\273\243\005{p4\314b\011,\330?\033\254\262X"
  82      057B7034 
  82      CC62092C 
  82      D83F1BAC 
  82      B258
  83 014b 3A0F3B6F 		.ascii	":\017;o3\015\233\005\026\316\260\275\225K\351q\201!"
ARM GAS  /tmp/ccUaNec6.s 			page 6


  83      330D9B05 
  83      16CEB0BD 
  83      954BE971 
  83      8121
  84 015d 2D63CC14 		.ascii	"-c\314\024w\222\215\004\344\217\001\373\324\356\373"
  84      77928D04 
  84      E48F01FB 
  84      D4EEFB
  85 016c 695D7AB6 		.ascii	"i]z\266.\005\213]\355l\257]I\001E\206\212*\200\313\377"
  85      2E058B5D 
  85      ED6CAF5D 
  85      49014586 
  85      8A2A80CB 
  86 0181 BABB98A3 		.ascii	"\272\273\230\243WL\235>'}\226[\321\317\316\316\232N"
  86      574C9D3E 
  86      277D965B 
  86      D1CFCECE 
  86      9A4E
  87 0193 8925EBC7 		.ascii	"\211%\353\307\345\357\331\376|\345\337R\214\255\350"
  87      E5EFD9FE 
  87      7CE5DF52 
  87      8CADE8
  88 01a2 1B41409A 		.ascii	"\033A@\232\333\356\006\232js\367\"\353\364`\267$\315"
  88      DBEE069A 
  88      6A73F722 
  88      EBF460B7 
  88      24CD
  89 01b4 8588A40C 		.ascii	"\205\210\244\014\327\312\345\320=w\032\341\355h9\\\216"
  89      D7CAE5D0 
  89      3D771AE1 
  89      ED68395C 
  89      8E
  90 01c5 AB61E3FE 		.ascii	"\253a\343\376\275\245(i\204\311R2\336\226k\204\252N"
  90      BDA52869 
  90      84C95232 
  90      DE966B84 
  90      AA4E
  91 01d7 1A778F01 		.ascii	"\032w\217\001\327\017\256\315"
  91      D70FAECD 
  92              		.text
  93              		.section	.gnu.lto__reads.f5b972446147c1f7,"",%progbits
  94 0000 789C8D52 		.ascii	"x\234\215R\277k\024A\030}ofvo\357\274\363\024\254CH"
  94      BF6B1441 
  94      187D6F66 
  94      766FEFBC 
  94      F314AC43 
  95 0015 A7915BC8 		.ascii	"\247\221[\310\177\221\336\200\226\227#^\026\262(^:\213"
  95      7F91DE80 
  95      9697235E 
  95      16B2285E 
  95      3A8B
  96 0027 CCDD599C 		.ascii	"\314\335Y\234\330\204\224\012B\0026\026&XY(\244\260"
  96      D884940A 
  96      42023616 
  96      26585928 
  96      A4B0
  97 0039 30E00F84 		.ascii	"0\340\017\204\024&M\016\304\332\200\215H`\375f\347\306"
ARM GAS  /tmp/ccUaNec6.s 			page 7


  97      14264D0E 
  97      C4DA808D 
  97      4860FD66 
  97      E7C6
  98 004b 481075D8 		.ascii	"H\020u\330\375f\366}\337{\363\276\217UP8\273\346\344"
  98      FD66F67D 
  98      DF7BF3BE 
  98      8F555038 
  98      BBE6E4
  99 005e 7D2E702A 		.ascii	"}.p*;#P\255\277\007\372\211Rz?\205\255\231\227S\260"
  99      3B2350AD 
  99      BF07FA89 
  99      527A3F85 
  99      AD999753 
 100 0073 754DE361 		.ascii	"uM\343aC\272\003\2105\245\015\327n\260\024\331V\273"
 100      43BA0388 
 100      35A50DD7 
 100      6EB014D9 
 100      56BB
 101 0085 E3A27876 		.ascii	"\343\242xv\374\352\363\210\027\233DN(\346\244AFD.\304"
 101      FCEAF388 
 101      179B444E 
 101      28E6A441 
 101      46442EC4 
 102 0099 2E540443 		.ascii	".T\004C\"'V%\250\232|\252\272K4\\\220\025\341\236\265"
 102      22275625 
 102      A89A7CAA 
 102      BA4B345C 
 102      9015E19E 
 103 00ae EBD333D8 		.ascii	"\353\3233\330\264vc\367\333\223=\332\015\333?.\212f"
 103      B47663F7 
 103      DB933DDA 
 103      0DDB3F2E 
 103      8A66
 104 00c0 46AD7095 		.ascii	"F\255p\225\350\020\327\231\321L\227[d\316\266\323)u"
 104      E810D799 
 104      D14C975B 
 104      64CEB6D3 
 104      2975
 105 00d2 AE49743E 		.ascii	"\256It>\027\250\334\256\367\240\332\334\224\366\332"
 105      17A8DCAE 
 105      F7A0DADC 
 105      94F6DA
 106 00e1 DCE20CBA 		.ascii	"\334\342\014\272\002\343\035\006\207\337\0377<\336\245"
 106      02E31D06 
 106      87DF1F37 
 106      3CDEA5
 107 00f0 99C5958C 		.ascii	"\231\305\225\214\361#<\024\335\212T8}]j.2\250;\316\316"
 107      F1233C14 
 107      DD8A5438 
 107      7D5D6A2E 
 107      32A83BCE 
 108 0105 B94089FE 		.ascii	"\271@\211\376F\341/\312\360\376p\213\201\023\313M\302"
 108      46E12FCA 
 108      F0FE708B 
 108      8113CB4D 
 108      C2
ARM GAS  /tmp/ccUaNec6.s 			page 8


 109 0116 04DEE0F5 		.ascii	"\004\336\340\365\227~\3437\270r\332\304\202\250\354"
 109      977EE337 
 109      B872DAC4 
 109      82A8EC
 110 0125 A7E27A30 		.ascii	"\247\342z0>9\357KdpR\025\322f\322\325 \201\317\320{"
 110      3E39EF4B 
 110      64705215 
 110      D266D2D5 
 110      2081CFD0 
 111 013a 7B717429 		.ascii	"{qt)(&\2459\376\331\234:5\367`x3P\252\302*\275}@\354"
 111      2826A539 
 111      FED99C3A 
 111      35F76078 
 111      3350AAC2 
 112 0153 31E02E7E 		.ascii	"1\340.~\330\221\275\2201\351LZ\352\262V\226\212\\\325"
 112      D891BD90 
 112      31E94C5A 
 112      EAB25696 
 112      8A5CD5
 113 0166 DFFAE9A8 		.ascii	"\337\372\351\250\031$\352\263xj\255\253\377\367XF:\260"
 113      1924EAB3 
 113      786AADAB 
 113      FFF75846 
 113      3AB0
 114 0178 1A420C3D 		.ascii	"\032B\014=\314{\360\377t\204\012|D\177\\\304A\253L\034"
 114      CC7BF0FF 
 114      74840A7C 
 114      447F5CC4 
 114      41AB4C1C 
 115 018c 80325025 		.ascii	"\2002P%!\326o\277\322\375\020t#s}_n\265R\377\334\352"
 115      21D66FBF 
 115      D2FD1074 
 115      23737D5F 
 115      6EB552FF 
 116 01a2 A5CBED95 		.ascii	"\245\313\355\225t%[L{\253w\226\332y/\315\227\362\311"
 116      74255B4C 
 116      7BAB7796 
 116      DA792FCD 
 116      97F2C9
 117 01b5 B1D581CE 		.ascii	"\261\325\201\316{\267\177\002d\363\234F"
 117      7BB77F02 
 117      64F39C46 
 118              		.text
 119              		.section	.gnu.lto__writes.f5b972446147c1f7,"",%progbits
 120 0000 789C8D52 		.ascii	"x\234\215R\277O\024A\030}ofvo9\357\300\277\300\020:"
 120      BF4F1441 
 120      187D6F66 
 120      766F39EF 
 120      C0BFC010 
 121 0015 84DC26FE 		.ascii	"\204\334&\376\027\366\222hy\\N\330\204\025\343\321Q"
 121      17F69268 
 121      795C4ED8 
 121      8415E3D1 
 121      51
 122 0026 30776781 		.ascii	"0wg\201\261!T\006\2523\321\302\030\215\235\305%RP@\201"
 122      B1215406 
 122      AA33D1C2 
ARM GAS  /tmp/ccUaNec6.s 			page 9


 122      188D9DC5 
 122      25525040 
 123 003b 3F121AA9 		.ascii	"?\022\032\251.!4&$\226js|3{\003\206\020t\262\373\315"
 123      2E213426 
 123      24966A73 
 123      7C337B03 
 123      861074B2 
 124 0051 ECFBBEF7 		.ascii	"\354\373\276\367\276\037\263\012\012\227\327\035y?\010"
 124      BE1FB30A 
 124      0A97D71D 
 124      793F08
 125 0060 9CCACE08 		.ascii	"\234\312\316\010T\033\237\201v\242\224>La\313\246\177"
 125      541B9F81 
 125      76A2943E 
 125      4C61CBA6 
 125      7F
 126 0071 0BB6A269 		.ascii	"\013\266\242i\012\330\220\356\000bMi\303\265\007\364"
 126      0AD890EE 
 126      00624D69 
 126      C3B507F4 
 127 0081 22EFD5CE 		.ascii	"\"\357\325\316`8|\327\377}\374\210\023DN(\346\244AF"
 127      60387CD7 
 127      FF7DFC88 
 127      13444E28 
 127      E6A44146 
 128 0095 44CEC4CE 		.ascii	"D\316\304\316\224\004C\"'\216\211Qe\371T\025\347\250"
 128      94044322 
 128      278E8951 
 128      65F95415 
 128      E7A8
 129 00a7 3A232BC2 		.ascii	":#+\302Sk7&\247\320\263vs\347\323\253}\332M\333\376"
 129      536B3726 
 129      A7D0B376 
 129      73E7D3AB 
 129      7DDA4DDB 
 130 00bc 391C4E64 		.ascii	"9\034Nd\324\012\263D\203\270\317\214f\322o\221\271\334"
 130      D40AB344 
 130      83B8CF8C 
 130      66D26F91 
 130      B9DC
 131 00ce 4DC3EBDC 		.ascii	"M\303\353\334\023\353\312\234\243r\273\336\207\252\263"
 131      13EBCA9C 
 131      A372BBDE 
 131      87AAB3
 132 00dd 27DDD5F9 		.ascii	"'\335\325\371\222SX\020\030\007\350\034}\334\252\026"
 132      92535810 
 132      1807E81C 
 132      7DDCAA16 
 133 00ed F802CD0C 		.ascii	"\370\002\315\014ng\214\267\261%\272%\211p\372\332k\316"
 133      6E678CB7 
 133      B125BA25 
 133      8970FADA 
 133      6BCE
 134 00ff 33A83BCE 		.ascii	"3\250;\316\327\033\201\022]G\3419\245\373\254\373\232"
 134      D71B8112 
 134      5D47E139 
 134      A5FBACFB 
ARM GAS  /tmp/ccUaNec6.s 			page 10


 134      9A
 135 0110 81134B26 		.ascii	"\201\023K&a\002{\330=iW\377\202K\027M\314\211\312a*"
 135      61027BD8 
 135      3D6957FF 
 135      824B174D 
 135      CC89CA61 
 136 0125 5577063F 		.ascii	"Uw\006?\306\213\020\031\234D\005\267\031u\325IPxX\324"
 136      C68B1019 
 136      9C4405B7 
 136      1975D549 
 136      507858D4 
 137 0139 F6EB683C 		.ascii	"\366\353h<(&\2768^]\234\272(\356y\367a\240\214\011\313"
 137      2826BE38 
 137      5E5D9CBA 
 137      28EE79F7 
 137      61A08C09 
 138 014e D7F60571 		.ascii	"\327\366\005q\201\001\253\370c\327\355\315\214Ic\324"
 138      8101ABF8 
 138      63D7EDCD 
 138      8C4963D4 
 139 015e 928F2B4B 		.ascii	"\222\217+K\312Ln\321g}\261}\236\2652\2037\326\272\370"
 139      CA4C6ED1 
 139      677DB17D 
 139      9EB53283 
 139      37D6BAF8 
 140 0172 7F8F655D 		.ascii	"\177\217e]\007VU\210\241\207\273\005\370\177:B\005\276"
 140      07565588 
 140      A187BB05 
 140      F87F3A42 
 140      05BE
 141 0184 A13D388D 		.ascii	"\241=8\215\203\226w|\007e\240JL\254\337\236\322\375"
 141      8396777C 
 141      0765A04A 
 141      4CACDF9E 
 141      D2FD
 142 0196 10742373 		.ascii	"\020t#s}O\327ji\361,\267\322\305\372R\272\224\315\247"
 142      7D4FD76A 
 142      69F12CB7 
 142      D2C5FA52 
 142      BA94CDA7 
 143 01aa AD9527CD 		.ascii	"\255\225'\315z\336J\363f>:\326\032\320y\353\361\031"
 143      7ADE4AF3 
 143      663E3AD6 
 143      1AD079EB 
 143      F119
 144 01bc C7E19B38 		.ascii	"\307\341\2338"
 145              		.text
 146              		.section	.gnu.lto_msObjectInit.f5b972446147c1f7,"",%progbits
 147 0000 789C8D90 		.ascii	"x\234\215\2201K\003A\020\205\337\233\273\204\003\361"
 147      314B0341 
 147      1085DF9B 
 147      BB8403F1 
 148 0010 07582958 		.ascii	"\007X)X\211p\373c\214\240\345%\204x\220C\360\322\245"
 148      8970FB63 
 148      8CA0E525 
 148      84789043 
 148      F0D2A5
ARM GAS  /tmp/ccUaNec6.s 			page 11


 149 0023 C846053B 		.ascii	"\310F\005;I\031\024\005[\213h\231\322^\024\354\354L"
 149      49191405 
 149      5B8B6899 
 149      D25E14EC 
 149      EC4C
 150 0035 6FAF2108 		.ascii	"o\257!\010q\366\366lb\212\014\2733\3030\337\233\235"
 150      71F6F66C 
 150      628A0CBB 
 150      33C330DF 
 150      9B9D
 151 0047 1508166D 		.ascii	"\025\010\026mC\357-\201]\215\014@\031\274\002\375HH"
 151      43EF2D81 
 151      5D8D0C40 
 151      19BC02FD 
 151      4848
 152 0059 9780E809 		.ascii	"\227\200\350\011{\207,z\037\344i2\237\217\036/F?\274"
 152      7B872C7A 
 152      1FE46932 
 152      9F8F1E2F 
 152      463FBC
 153 006c 91356146 		.ascii	"\2215aF\204\352XU'\221\272@\273*8\267v\260\0054\012"
 153      84EA5855 
 153      2791BA40 
 153      BB2A38B7 
 153      76B00534 
 154 0081 AAA6DE49 		.ascii	"\252\246\336I\355S\\\014^p:;\373\274\334Lx\307\212\216"
 154      ED535C0C 
 154      5E703A3B 
 154      FBBCDC4C 
 154      78C78A8E 
 155 0095 BDB76AEB 		.ascii	"\275\267j\353)q\215+\246d\213r\240\321\277\264\356\007"
 155      29718D2B 
 155      A6648B72 
 155      A0D1BFB4 
 155      EE07
 156 00a7 A38B991D 		.ascii	"\243\213\231\035Z\273\247m\031\303\242\244:\317\323"
 156      5ABBA76D 
 156      19C3A2A4 
 156      3ACFD3
 157 00b6 AF291775 		.ascii	"\257)\027u\202\345:^\250\345`G\016\277\377\223\341r"
 157      82E53A5E 
 157      A8E56047 
 157      0EBFFF93 
 157      E172
 158 00c8 524AB2EA 		.ascii	"RJ\262\352\311\361\352dP\222QA\216\337W'\375\212\256"
 158      C9F1EA64 
 158      50925141 
 158      8EDF5727 
 158      FD8AAE
 159 00db 52646FE8 		.ascii	"Rdo\350O>\266=\373g5]I\377\323\021;ql\3749\316\315Q"
 159      4F3EB63D 
 159      FB67355D 
 159      49FFD311 
 159      3B716CFC 
 160 00f3 D236EDB4 		.ascii	"\3226\355\264n\362\316I3\311r\2235\2632\215\033\370"
 160      6EF2CE49 
 160      33C97293 
ARM GAS  /tmp/ccUaNec6.s 			page 12


 160      35B3328D 
 160      1BF8
 161 0105 0537EA6D 		.ascii	"\0057\352m\267"
 161      B7
 162              		.text
 163              		.section	.gnu.lto_.symbol_nodes.f5b972446147c1f7,"",%progbits
 164 0000 789C4DC8 		.ascii	"x\234M\310\271\021\2000\020CQi\327\246\015j\243\005"
 164      B9118030 
 164      10435169 
 164      D7A60D6A 
 164      A305
 165 0012 1A902306 		.ascii	"\032\220#\0062\012`H\350\207\234\273\001\212 0\201\225"
 165      320A6048 
 165      E8879CBB 
 165      018A2030 
 165      8195
 166 0024 FC793218 		.ascii	"\374y2\030Z\374\263\203\002\306\025\220\246\241\261"
 166      5AFCB383 
 166      02C61590 
 166      A6A1B1
 167 0033 9362C19D 		.ascii	"\223b\301\235\262\202\033\345\005o*\374\234{\306\213"
 167      B2821BE5 
 167      056F2AFC 
 167      9C7BC68B 
 168 0043 08723E54 		.ascii	"\010r>T\314oJt\253\260to\355\236\213\017\235H$\211"
 168      CC6F4A74 
 168      ABB0746F 
 168      ED9E8B0F 
 168      9D482489 
 169              		.text
 170              		.section	.gnu.lto_.refs.f5b972446147c1f7,"",%progbits
 171 0000 789C6362 		.ascii	"x\234cb`b\340g\200\000F\026&V\026V&f&&&\006&F\006\000"
 171      6062E067 
 171      80004616 
 171      26561656 
 171      26662626 
 172 001a 032D0037 		.ascii	"\003-\0007"
 173              		.text
 174              		.section	.gnu.lto_.decls.f5b972446147c1f7,"",%progbits
 175 0000 789CB557 		.ascii	"x\234\265W}l\024E\024\237\331\373hO\032$DH\215\211\034"
 175      7D6C1445 
 175      149FD9FB 
 175      684F1A24 
 175      44488D89 
 176 0015 064C24A1 		.ascii	"\006L$\241\033\224\030\376\021,\215\241$V\215\210\361"
 176      1B9418FE 
 176      112C8DA1 
 176      24568D88 
 176      F1
 177 0026 1FBD6CAF 		.ascii	"\037\275l\257{\2753\367\225\333\255P\375\203\241*\020"
 177      7BBD33F7 
 177      95DBAD50 
 177      FD83A12A 
 177      10
 178 0037 63623131 		.ascii	"cb11H\010P@4F\014_)\201\320\013\227F\240\246\222R\021"
 178      48085040 
 178      34460C5F 
ARM GAS  /tmp/ccUaNec6.s 			page 13


 178      2981D00B 
 178      9746A0A6 
 179 004e 9112E128 		.ascii	"\221\022\341(\037\206\017\245X\261 \342\371fv\366nw"
 179      1F860FA5 
 179      58B120E2 
 179      F96676F6 
 179      6E77
 180 0060 6FF7EE8A 		.ascii	"o\367\356\212qroovw\336\357\2757\2777\363f\005$\240"
 180      71726F6F 
 180      7677DEEF 
 180      BD37BF37 
 180      F3660524 
 181 0075 19024239 		.ascii	"\031\002B9h\227&!\264\002\372^\204\320|Th\364~\013H"
 181      68972621 
 181      B402FA5E 
 181      84D07C54 
 181      68F47E0B 
 182 008a 37C84190 		.ascii	"7\310A\220~\220S \036\214\020\374\320\024\214L\215\216"
 182      7E905320 
 182      1E8C10FC 
 182      D0148C4C 
 182      8D8E
 183 009c F5816CA3 		.ascii	"\365\201l\243c@zA\206@&\202\324\200\244A\316\200\354"
 183      63407A41 
 183      86402682 
 183      D480A441 
 183      CE80EC
 184 00af 007181DC 		.ascii	"\000q\201\334\002\031\003\031E\032\036\325\0077\320"
 184      02190319 
 184      451A1ED5 
 184      0737D0
 185 00be 2E903D66 		.ascii	".\220=fh\346\203\217\353\352xV;:\276\213\343\3361`w"
 185      68E6838F 
 185      EBEA7856 
 185      3B3ABE8B 
 185      E3DE3160 
 186 00d3 F3FF0316 		.ascii	"\363\377\003\026\\\032\327\003\006\234z\007\237\037"
 186      5C1AD703 
 186      069C7A07 
 186      9F1F
 187 00e1 01652F2E 		.ascii	"\001e/.\306\0268\206\207\277\353\0039\014r\304b\247"
 187      C6163886 
 187      87BFEB03 
 187      390C72C4 
 187      62A7
 188 00f3 DF626741 		.ascii	"\337bgA\005v\214\363#p\014\335\316I\220\023 ?X\354\234"
 188      05768CF3 
 188      23700CDD 
 188      CE499013 
 188      203F58EC 
 189 0108 E236CE73 		.ascii	"\3426\316s\274!n/\315\237g9\236\216}\207\317\213\256"
 189      BC216E2F 
 189      CD9F6739 
 189      9E8E7D87 
 189      CF8BAE
 190 011b 97A3F7F0 		.ascii	"\227\243\367\360@\240vp1\307\323\320&\222\031\311\036"
 190      40A07670 
ARM GAS  /tmp/ccUaNec6.s 			page 14


 190      31C7D3D0 
 190      269219C9 
 190      1E
 191 012c 1E1EC1EB 		.ascii	"\036\036\301\353I\346=\222\313\255@S\321'\004Z\327*"
 191      49E63D92 
 191      CBAD4053 
 191      D127045A 
 191      D72A
 192 013e 42B0EA43 		.ascii	"B\260\352Ck\370Mc\037\004\367\032\226\360D\037\362\263"
 192      6BF84D63 
 192      1F04F71A 
 192      96F0441F 
 192      F2B3
 193 0150 4E8D0FB9 		.ascii	"N\215\017\271\001c&\372\214\220\316\354\201\355\037"
 193      016326FA 
 193      8C90CEEC 
 193      81ED1F
 194 015f 3E4348B5 		.ascii	">CH\265\204\267a\037\304'c4\013}\011\252\235\204\014"
 194      84B7611F 
 194      C4276334 
 194      0B7D09AA 
 194      9D840C
 195 0172 3F6D31CB 		.ascii	"?m1\313Z\345\320'\217\016\014\342\016pG\302_0\360A\210"
 195      5AE5D027 
 195      8F0E0CE2 
 195      0E7047C2 
 195      5F30F041 
 196 0187 49C29FE3 		.ascii	"I\302\237\343Y\034J\302^\237\021\232\335\353\003(\036"
 196      591C4AC2 
 196      5E9F119A 
 196      DDEB0328 
 196      1E
 197 0198 DC525BB7 		.ascii	"\334R[\267\351\372\300+\370\023zS\205\356[\317\316a"
 197      E9FAC02B 
 197      F8137A53 
 197      85EE5BCF 
 197      CE61
 198 01aa 0AB1154F 		.ascii	"\012\261\025Oe=\027c\031\036,\230\240\367Y\310\035$"
 198      653D1763 
 198      191E2C98 
 198      A0F759C8 
 198      1D24
 199 01bc BB9DD47E 		.ascii	"\273\235\324~Z\010\271ZG\300\371\2203\335i\354\227\360"
 199      5A08B95A 
 199      47C0F990 
 199      33DD69EC 
 199      97F0
 200 01ce 0E16EDE9 		.ascii	"\016\026\355\351\242h\261%Zl\366\232\275\346\235\034"
 200      A268B125 
 200      5A6CF69A 
 200      BDE69D1C 
 201 01de E66396BA 		.ascii	"\346c\226\272\362\012\002:o\201\234\201\266\021\362"
 201      F20A023A 
 201      6F819C81 
 201      B611F2
 202 01ed 31E4419F 		.ascii	"1\344A\237\013\362\300\315|\026\320e6j\013\236f\033"
 202      0BF2C0CD 
ARM GAS  /tmp/ccUaNec6.s 			page 15


 202      7C16D065 
 202      366A0B9E 
 202      661B
 203 01ff 2B1BC435 		.ascii	"+\033\3045\311\206\327kuw\257X\265L\361i\243\240=\216"
 203      C986D76B 
 203      7577AF58 
 203      B54CF169 
 203      A3A03D8E 
 204 0213 B6D3A94D 		.ascii	"\266\323\251M_|\251Q\313\031T\302\026\217a'\026\212"
 204      5F7CA951 
 204      CB1954C2 
 204      168F6127 
 204      168A
 205 0225 B337B3FF 		.ascii	"\2637\263\377HM\347\312l.7\315\224\271\032\250\023I"
 205      484DE7CA 
 205      6C2E37CD 
 205      94B91AA8 
 205      1349
 206 0237 FB6C48B2 		.ascii	"\373lH\262\314\3215\3339\"\243-\215|\364n\360F\302\335"
 206      CCD135DB 
 206      3922A32D 
 206      8D7CF46E 
 206      F046C2DD 
 207 024b 25A7C721 		.ascii	"%\247\307!N'%\356\335~\3338o\336\353\303\340\300\337"
 207      4E2725EE 
 207      DD7EDB38 
 207      6FDEEBC3 
 207      E0C0DF
 208 025e B99CCB66 		.ascii	"\271\234\313f\221vT\262\222\006?\372q\224\257\2444#"
 208      917654B2 
 208      92063FFA 
 208      7194AFA4 
 208      3423
 209 0270 EB67C19A 		.ascii	"\353g\301\232[\036Kny\314\271\345\361\025:t!<\350\274"
 209      5B1E4B6E 
 209      79CCB9E5 
 209      F1153A74 
 209      213CE8BC 
 210 0284 107A9C17 		.ascii	"\020z\234\027\302\004\364A\301c-%\234Pz\361\004\203"
 210      C204F441 
 210      C1632D25 
 210      9C507AF1 
 210      0483
 211 0296 3F79ACB4 		.ascii	"?y\254\264\226E\026\316.\012\266y\375\376\246M\017\223"
 211      964516CE 
 211      2E0AB679 
 211      FDFEA64D 
 211      0F93
 212 02a8 2EC1C4DB 		.ascii	".\301\304\333\301J\322z\257\334\250y\000\351\300\240"
 212      C14AD27A 
 212      AFDCA879 
 212      00E9C0A0 
 213 02b8 9DB5989F 		.ascii	"\235\265\230\237\\\3554U\323&\370\2672ji\303j\350 \207"
 213      5CED3455 
 213      D326F8B7 
 213      326A69C3 
 213      6AE82087 
ARM GAS  /tmp/ccUaNec6.s 			page 16


 214 02cc 5896A479 		.ascii	"X\226\244y\2268i\361\231\371\3066Kz\344>2\002\274X\026"
 214      963869F1 
 214      99F9C636 
 214      4B7AE43E 
 214      3202BC58 
 215 02e1 43BAC414 		.ascii	"C\272\304\024\177W!Q\371\355+\343\270}I\370k<\263\374"
 215      7F572151 
 215      F9ED2BE3 
 215      B87D49F8 
 215      6B3CB3FC 
 216 02f5 8EE4E4C9 		.ascii	"\216\344\344\311\300x\310\036\261%\233\334\265,\320"
 216      C078C81E 
 216      B1259BDC 
 216      B52CD0
 217 0304 FE4A881E 		.ascii	"\376J\210\036\244\214Q\353\022>ZFk\300@\364\230N\264"
 217      A48C51EB 
 217      123E5A46 
 217      6BC040F4 
 217      984EB4
 218 0317 84BF2DA3 		.ascii	"\204\277-\243V\212h'->+\337\027\023\335\225\315l^\335"
 218      568A6827 
 218      2D3E2BDF 
 218      1713DD95 
 218      CD6C5EDD 
 219 032b 6FBF1D48 		.ascii	"o\277\035Hx\376\024\307\031\376\311\314\265\211\337"
 219      78FE14C7 
 219      19FEC9CC 
 219      B589DF
 220 033a C9682D45 		.ascii	"\311h-E\361\0336\221.\254\003<\204\362\273\310\315u"
 220      F11B3691 
 220      2EAC033C 
 220      84F2BBC8 
 220      CD75
 221 034c C7E6B052 		.ascii	"\307\346\260R\177\006O\006\230\255.3\017ea\250\037g"
 221      7F064F06 
 221      98AD2E33 
 221      0F6561A8 
 221      1F67
 222 035e 41555362 		.ascii	"AUSb\240$\263\361H\015qk\317\221\011\316\324\246\243"
 222      A024B3F1 
 222      480D716B 
 222      CF9109CE 
 222      D4A6A3
 223 0371 2EF037B3 		.ascii	".\3607\263{\325fX\320t\311\025\273\017\003\260\3014"
 223      7BD56658 
 223      D074C915 
 223      BB0F03B0 
 223      C134
 224 0383 C99B9EC4 		.ascii	"\311\233\236\304\262f'xk\343\241y\230\204/0:/Z\275\274"
 224      B2662778 
 224      6BE3A179 
 224      98842F30 
 224      3A2F5ABD 
 225 0398 2BF9B5A7 		.ascii	"+\371\265\247\345}\274w\254\246S\262ltt\24591\363K!"
 225      E57DBC77 
 225      ACA653B2 
 225      6C7474A5 
ARM GAS  /tmp/ccUaNec6.s 			page 17


 225      3931F34B 
 226 03ad F705D4C3 		.ascii	"\367\005\324\303\346\224\032\262\033\316\273Z\343\003"
 226      E6941AB2 
 226      1BCEBB5A 
 226      E303
 227 03bb 4CC6C91E 		.ascii	"L\306\311\036B|^\213\361\236\022\306\257\032\215\367"
 227      427C5E8B 
 227      F19E12C6 
 227      AF1A8DF7 
 228 03cb 8EDBB8BF 		.ascii	"\216\333\270\277\254\361\255%\214\377j4~\264\022\343"
 228      ACF1AD25 
 228      8CFF6A34 
 228      7EB412E3 
 229 03db D5E38B7C 		.ascii	"\325\343\213|_\011\343#F\343\375\3436\356\267\220\257"
 229      5F09E323 
 229      46E3FDE3 
 229      36EEB790 
 229      AF
 230 03ec 6785842F 		.ascii	"g\205\204/\343\351p\275\302\256\327\331\365\006\\\363"
 230      E3E970BD 
 230      C2AED7D9 
 230      F5065CF3 
 231 03fc CDC99FF3 		.ascii	"\315\311\237\363F\177\006\230?g\3577\0152{\340h$\351"
 231      467F0698 
 231      3F67EF37 
 231      0D327BE0 
 231      6824E9
 232 040f 15ECC4B8 		.ascii	"\025\354\304\270\301lh\325\353\332P%`\345h\322\301\316"
 232      C16C68D5 
 232      EBDA5025 
 232      60E568D2 
 232      C1CE
 233 0421 8D1BAC84 		.ascii	"\215\033\254\204g\027*\001\233d\343\231]3nT\022>\307"
 233      67172A01 
 233      9B64E399 
 233      5D336E54 
 233      123EC7
 234 0434 6A5B9691 		.ascii	"j[\226\2219\312\256\267\330u\214]\357TB\357P\201\336"
 234      39CAAEB7 
 234      D8758C5D 
 234      EF5442EF 
 234      5081DE
 235 0447 7C79E347 		.ascii	"|y\343G\034k\271+S\376\256\272l\317:\227F\373\334\332"
 235      1C6BB92B 
 235      53FEAEBA 
 235      6CCF3A97 
 235      46FBDCDA 
 236 045b 197E88B1 		.ascii	"\031~\210\261>\306\206\235r\254KC\206rvH?\356H\370\017"
 236      3EC6869D 
 236      72AC4B43 
 236      86727648 
 236      3FEE48F8 
 237 0470 B6FF39AB 		.ascii	"\266\3779\253\031\216;\231\335\2537j\307+\255\022\376"
 237      198E3B99 
 237      DDAB376A 
 237      C72BAD12 
 237      FE
ARM GAS  /tmp/ccUaNec6.s 			page 18


 238 0481 59469585 		.ascii	"YF\225\205\303-n.\024\320\333\225\250\351\347i\250~"
 238      C32D6E2E 
 238      14D0DB95 
 238      A8E9E769 
 238      A87E
 239 0493 EF7661E2 		.ascii	"\357va\342e\265\016q=\023o\377\024\027\315\354\256\354"
 239      65B50E71 
 239      3D136FFF 
 239      1417CDEC 
 239      AEEC
 240 04a5 D8B975B5 		.ascii	"\330\271u\265\353I/\375\322\315\325\222\314W\330R9\341"
 240      EB492FFD 
 240      D2CDD592 
 240      CC57D852 
 240      39E1
 241 04b7 48506C9D 		.ascii	"HPl\235\021\001)\357\306:+\002\032\206\033N\320\243"
 241      110129EF 
 241      C63A2B02 
 241      1A861B4E 
 241      D0A3
 242 04c9 E8AA7B23 		.ascii	"\350\252{#\251\266&\316*\301\361T%\341z[\306-\014_w"
 242      A9B626CE 
 242      2AC1F154 
 242      25E17A5B 
 242      C62D0C5F 
 243 04de 1B19E686 		.ascii	"\033\031\346\206G\215^\334u\333}Y\347\333ch\0139~<{"
 243      478D5EDC 
 243      75DB7D59 
 243      E7DB6368 
 243      0B397E3C 
 244 04f3 E9DA71F7 		.ascii	"\351\332q\367J\372yO\017\013\030\242\032f9\375;\233"
 244      4AFA794F 
 244      0F0B18A2 
 244      1A6639FD 
 244      3B9B
 245 0505 700A6F5B 		.ascii	"p\012o[\003\021\037B\333\\\264\227\254\311<\253k\322"
 245      03111F42 
 245      DB5CB497 
 245      ACC93CAB 
 245      6BD2
 246 0517 ADED1DF4 		.ascii	"\255\355\035\364\027\201\343\340^\254U.\355\020\303"
 246      1781E3E0 
 246      5EAC552E 
 246      ED10C3
 247 0526 94AE14DE 		.ascii	"\224\256\024\336\236\304Zi\321\316\262\354\355\365\302"
 247      9EC45A69 
 247      D1CEB2EC 
 247      EDF5C2
 248 0535 DB5B58DB 		.ascii	"\333[X\333\373\265\357>\366\366F\341\355Z\257\2669k"
 248      FBB5EF3E 
 248      F6F646E1 
 248      ED5AAFB6 
 248      396B
 249 0547 5F4BAC59 		.ascii	"_K\254Y\266u:\303N\353l\203P8I>QW'j\277\204\"\206\245"
 249      B6753AC3 
 249      4EEB6C83 
 249      5038493E 
ARM GAS  /tmp/ccUaNec6.s 			page 19


 249      5157276A 
 250 0560 A8188D34 		.ascii	"\250\030\2154\213\212\232\222\245\230\"\306\344\030"
 250      8B8A9A92 
 250      A59822C6 
 250      E418
 251 056e EFD605D1 		.ascii	"\357\326\005\321<\343\310`\"\026K\304\305d\"\245*b\375"
 251      3CE3C860 
 251      22164BC4 
 251      C56422A5 
 251      2A62FD
 252 0581 CB4D0D4D 		.ascii	"\313M\015M\313\351\263d$*\247\024qQC\203\030\014\253"
 252      CBE9B364 
 252      242AA714 
 252      71514383 
 252      180CAB
 253 0594 ED4959A9 		.ascii	"\355IY\251\013#OLi\015\250\336E/,\3657\2407\304p\"&"
 253      0B234F4C 
 253      690DA8DE 
 253      452F2CF5 
 253      37A037C4 
 254 05ab 8B52545E 		.ascii	"\213RT^.6\311q5\221Z\224\222\222\341HP\021\227$\332"
 254      2E36C971 
 254      35915A94 
 254      9292E148 
 254      50119724 
 255 05c0 524139D5 		.ascii	"RA9\325\036hH\264\310\013\345x0\034x>\242\312\201P\""
 255      1E6848B4 
 255      C80BE578 
 255      301C783E 
 255      A2CA8150 
 256 05d5 15001381 		.ascii	"\025\000\023\201\347\352\027.\026\245Tlv<\021\227g\313"
 256      E7EA172E 
 256      16A5546C 
 256      763C1197 
 256      67CB
 257 05e7 5273448C 		.ascii	"RsD\214\304\203\321\266\026\031\034n\211\304U\260U\005"
 257      C483D1B6 
 257      16191C6E 
 257      89C455B0 
 257      5505
 258 05f9 7F4F3D19 		.ascii	"\177O=\031P\253\332\2403/\240\272\003\3116U\210$q\263"
 258      50ABDAA0 
 258      332FA0BA 
 258      03C93655 
 258      882471B3 
 259 060d 3BD02AAB 		.ascii	";\320*\253\321\377h\235NNk0h\361bn\335\274\2729F_Z\344"
 259      D1FF689D 
 259      4E4E6B30 
 259      68F1626E 
 259      DDBCBA39 
 260 0625 10F8E255 		.ascii	"\020\370\342U\"o\313\020x\000f\260E\021\232\2238^\025"
 260      226FCB10 
 260      780066B0 
 260      45119A93 
 260      385E15
 261 0638 58960250 		.ascii	"X\226\002P\245\322Y\017\243\232&9\226H\265/a\017\350"
 261      A5D2590F 
ARM GAS  /tmp/ccUaNec6.s 			page 20


 261      A39A2639 
 261      9648B52F 
 261      610FE8
 262 064b 8DD67BB5 		.ascii	"\215\326{\265\351\025\017\203rSp\027\004\351\202\360"
 262      E9150F83 
 262      72537017 
 262      04E982F0 
 263 065b 5C6FC554 		.ascii	"\\o\305Tos[($\247\334\324\270KN(\336D(\244\310jMLy\261"
 263      6F735B28 
 263      24A7DCD4 
 263      B84B4E28 
 263      DE4428A4 
 264 0675 F94D39A8 		.ascii	"\371M9\250.\216GTWLI\376_D\244\"\361VJ\004\274\213\267"
 264      2E8E4754 
 264      574C49FE 
 264      5F44A422 
 264      F1564A04 
 265 068c 45A355A1 		.ascii	"E\243U\241\270_I\312A<\307\013q\005\223\355\360B\015"
 265      B85F49CA 
 265      413CC70B 
 265      710593ED 
 265      F0420D
 266 069f A712CBDC 		.ascii	"\247\022\313\334QY\012\375\013\231\0013\256"
 266      51590AFD 
 266      0B990133 
 266      AE
 267              		.text
 268              		.section	.gnu.lto_.symtab.f5b972446147c1f7,"",%progbits
 269 0000 6D734F62 		.ascii	"msObjectInit\000\000\000\000\000\000\000\000\000\000"
 269      6A656374 
 269      496E6974 
 269      00000000 
 269      00000000 
 270 0016 0000D700 		.ascii	"\000\000\327\000\000\000"
 270      0000
 271              		.text
 272              		.section	.gnu.lto_.opts,"",%progbits
 273 0000 272D6D63 		.ascii	"'-mcpu=cortex-m3' '-mno-thumb-interwork' '-mthumb' "
 273      70753D63 
 273      6F727465 
 273      782D6D33 
 273      2720272D 
 274 0033 272D6767 		.ascii	"'-ggdb' '-O2' '-fomit-frame-pointer' '-falign-funct"
 274      64622720 
 274      272D4F32 
 274      2720272D 
 274      666F6D69 
 275 0066 696F6E73 		.ascii	"ions=16' '-ffunction-sections' '-fdata-sections' '-"
 275      3D313627 
 275      20272D66 
 275      66756E63 
 275      74696F6E 
 276 0099 666E6F2D 		.ascii	"fno-common' '-flto'\000"
 276      636F6D6D 
 276      6F6E2720 
 276      272D666C 
 276      746F2700 
ARM GAS  /tmp/ccUaNec6.s 			page 21


 277              		.text
 278              		.cfi_sections	.debug_frame
 279              		.section	.text._put,"ax",%progbits
 280              		.align	2
 281              		.p2align 4,,15
 282              		.thumb
 283              		.thumb_func
 284              		.type	_put, %function
 285              	_put:
 286              	.LFB219:
 287              		.file 1 "../../../os/hal/lib/streams/memstreams.c"
 288              		.loc 1 66 0
 289              		.cfi_startproc
 290              		@ args = 0, pretend = 0, frame = 0
 291              		@ frame_needed = 0, uses_anonymous_args = 0
 292              		@ link register save eliminated.
 293              	.LVL0:
 294              		.loc 1 69 0
 295 0000 C268     		ldr	r2, [r0, #12]
 296              		.loc 1 66 0
 297 0002 0346     		mov	r3, r0
 298              	.LVL1:
 299              		.loc 1 69 0
 300 0004 8068     		ldr	r0, [r0, #8]
 301              	.LVL2:
 302              		.loc 1 66 0
 303 0006 10B4     		push	{r4}
 304              		.cfi_def_cfa_offset 4
 305              		.cfi_offset 4, -4
 306              		.loc 1 69 0
 307 0008 9042     		cmp	r0, r2
 308              		.loc 1 71 0
 309 000a 1FBF     		itttt	ne
 310 000c 5C68     		ldrne	r4, [r3, #4]
 311              		.loc 1 73 0
 312 000e 0020     		movne	r0, #0
 313              		.loc 1 71 0
 314 0010 A154     		strbne	r1, [r4, r2]
 315              		.loc 1 72 0
 316 0012 DA68     		ldrne	r2, [r3, #12]
 317              		.loc 1 70 0
 318 0014 0EBF     		itee	eq
 319 0016 6FF00100 		mvneq	r0, #1
 320              		.loc 1 72 0
 321 001a 0132     		addne	r2, r2, #1
 322 001c DA60     		strne	r2, [r3, #12]
 323              		.loc 1 74 0
 324 001e 5DF8044B 		ldr	r4, [sp], #4
 325 0022 7047     		bx	lr
 326              		.cfi_endproc
 327              	.LFE219:
 328              		.size	_put, .-_put
 329 0024 AFF30080 		.section	.text._get,"ax",%progbits
 329      AFF30080 
 329      AFF30080 
 330              		.align	2
 331              		.p2align 4,,15
ARM GAS  /tmp/ccUaNec6.s 			page 22


 332              		.thumb
 333              		.thumb_func
 334              		.type	_get, %function
 335              	_get:
 336              	.LFB220:
 337              		.loc 1 76 0
 338              		.cfi_startproc
 339              		@ args = 0, pretend = 0, frame = 0
 340              		@ frame_needed = 0, uses_anonymous_args = 0
 341              		@ link register save eliminated.
 342              	.LVL3:
 343              		.loc 1 80 0
 344 0000 0369     		ldr	r3, [r0, #16]
 345 0002 C268     		ldr	r2, [r0, #12]
 346 0004 9A42     		cmp	r2, r3
 347              		.loc 1 82 0
 348 0006 1FBF     		itttt	ne
 349 0008 4268     		ldrne	r2, [r0, #4]
 350              		.loc 1 83 0
 351 000a 591C     		addne	r1, r3, #1
 352              		.loc 1 82 0
 353 000c D35C     		ldrbne	r3, [r2, r3]	@ zero_extendqisi2
 354              	.LVL4:
 355              		.loc 1 83 0
 356 000e 0161     		strne	r1, [r0, #16]
 357              		.loc 1 84 0
 358 0010 14BF     		ite	ne
 359 0012 1846     		movne	r0, r3
 360              	.LVL5:
 361              		.loc 1 81 0
 362 0014 6FF00100 		mvneq	r0, #1
 363              		.loc 1 85 0
 364 0018 7047     		bx	lr
 365              		.cfi_endproc
 366              	.LFE220:
 367              		.size	_get, .-_get
 368 001a 00BFAFF3 		.section	.text._reads,"ax",%progbits
 368      0080
 369              		.align	2
 370              		.p2align 4,,15
 371              		.thumb
 372              		.thumb_func
 373              		.type	_reads, %function
 374              	_reads:
 375              	.LFB218:
 376              		.loc 1 56 0
 377              		.cfi_startproc
 378              		@ args = 0, pretend = 0, frame = 0
 379              		@ frame_needed = 0, uses_anonymous_args = 0
 380              	.LVL6:
 381 0000 70B5     		push	{r4, r5, r6, lr}
 382              		.cfi_def_cfa_offset 16
 383              		.cfi_offset 4, -16
 384              		.cfi_offset 5, -12
 385              		.cfi_offset 6, -8
 386              		.cfi_offset 14, -4
 387              		.loc 1 59 0
ARM GAS  /tmp/ccUaNec6.s 			page 23


 388 0002 0369     		ldr	r3, [r0, #16]
 389 0004 C568     		ldr	r5, [r0, #12]
 390              		.loc 1 61 0
 391 0006 4668     		ldr	r6, [r0, #4]
 392              		.loc 1 59 0
 393 0008 ED1A     		subs	r5, r5, r3
 394 000a AA42     		cmp	r2, r5
 395 000c 38BF     		it	cc
 396 000e 1546     		movcc	r5, r2
 397              		.loc 1 56 0
 398 0010 0446     		mov	r4, r0
 399              	.LVL7:
 400              		.loc 1 61 0
 401 0012 2A46     		mov	r2, r5
 402 0014 0846     		mov	r0, r1
 403              	.LVL8:
 404 0016 F118     		adds	r1, r6, r3
 405              	.LVL9:
 406 0018 FFF7FEFF 		bl	memcpy
 407              	.LVL10:
 408              		.loc 1 62 0
 409 001c 2369     		ldr	r3, [r4, #16]
 410              		.loc 1 64 0
 411 001e 2846     		mov	r0, r5
 412              		.loc 1 62 0
 413 0020 1D44     		add	r5, r5, r3
 414              	.LVL11:
 415 0022 2561     		str	r5, [r4, #16]
 416              		.loc 1 64 0
 417 0024 70BD     		pop	{r4, r5, r6, pc}
 418              		.cfi_endproc
 419              	.LFE218:
 420              		.size	_reads, .-_reads
 421 0026 00BFAFF3 		.section	.text._writes,"ax",%progbits
 421      0080AFF3 
 421      0080
 422              		.align	2
 423              		.p2align 4,,15
 424              		.thumb
 425              		.thumb_func
 426              		.type	_writes, %function
 427              	_writes:
 428              	.LFB217:
 429              		.loc 1 46 0
 430              		.cfi_startproc
 431              		@ args = 0, pretend = 0, frame = 0
 432              		@ frame_needed = 0, uses_anonymous_args = 0
 433              	.LVL12:
 434 0000 38B5     		push	{r3, r4, r5, lr}
 435              		.cfi_def_cfa_offset 16
 436              		.cfi_offset 3, -16
 437              		.cfi_offset 4, -12
 438              		.cfi_offset 5, -8
 439              		.cfi_offset 14, -4
 440              		.loc 1 49 0
 441 0002 C368     		ldr	r3, [r0, #12]
 442 0004 8568     		ldr	r5, [r0, #8]
ARM GAS  /tmp/ccUaNec6.s 			page 24


 443              		.loc 1 46 0
 444 0006 0446     		mov	r4, r0
 445              	.LVL13:
 446              		.loc 1 49 0
 447 0008 ED1A     		subs	r5, r5, r3
 448              		.loc 1 51 0
 449 000a 4068     		ldr	r0, [r0, #4]
 450              	.LVL14:
 451 000c AA42     		cmp	r2, r5
 452 000e 38BF     		it	cc
 453 0010 1546     		movcc	r5, r2
 454              	.LVL15:
 455 0012 2A46     		mov	r2, r5
 456 0014 1844     		add	r0, r0, r3
 457 0016 FFF7FEFF 		bl	memcpy
 458              	.LVL16:
 459              		.loc 1 52 0
 460 001a E368     		ldr	r3, [r4, #12]
 461              		.loc 1 54 0
 462 001c 2846     		mov	r0, r5
 463              		.loc 1 52 0
 464 001e 1D44     		add	r5, r5, r3
 465              	.LVL17:
 466 0020 E560     		str	r5, [r4, #12]
 467              		.loc 1 54 0
 468 0022 38BD     		pop	{r3, r4, r5, pc}
 469              		.cfi_endproc
 470              	.LFE217:
 471              		.size	_writes, .-_writes
 472 0024 AFF30080 		.section	.text.msObjectInit,"ax",%progbits
 472      AFF30080 
 472      AFF30080 
 473              		.align	2
 474              		.p2align 4,,15
 475              		.global	msObjectInit
 476              		.thumb
 477              		.thumb_func
 478              		.type	msObjectInit, %function
 479              	msObjectInit:
 480              	.LFB221:
 481              		.loc 1 104 0
 482              		.cfi_startproc
 483              		@ args = 0, pretend = 0, frame = 0
 484              		@ frame_needed = 0, uses_anonymous_args = 0
 485              		@ link register save eliminated.
 486              	.LVL18:
 487 0000 30B4     		push	{r4, r5}
 488              		.cfi_def_cfa_offset 8
 489              		.cfi_offset 4, -8
 490              		.cfi_offset 5, -4
 491              		.loc 1 106 0
 492 0002 40F20004 		movw	r4, #:lower16:.LANCHOR0
 493 0006 C0F20004 		movt	r4, #:upper16:.LANCHOR0
 494              		.loc 1 110 0
 495 000a 0025     		movs	r5, #0
 496              		.loc 1 106 0
 497 000c 0460     		str	r4, [r0]
ARM GAS  /tmp/ccUaNec6.s 			page 25


 498              		.loc 1 110 0
 499 000e 0561     		str	r5, [r0, #16]
 500              		.loc 1 107 0
 501 0010 4160     		str	r1, [r0, #4]
 502              		.loc 1 108 0
 503 0012 8260     		str	r2, [r0, #8]
 504              		.loc 1 109 0
 505 0014 C360     		str	r3, [r0, #12]
 506              		.loc 1 111 0
 507 0016 30BC     		pop	{r4, r5}
 508 0018 7047     		bx	lr
 509              		.cfi_endproc
 510              	.LFE221:
 511              		.size	msObjectInit, .-msObjectInit
 512 001a 00BFAFF3 		.section	.rodata.vmt,"a",%progbits
 512      0080
 513              		.align	2
 514              		.set	.LANCHOR0,. + 0
 515              		.type	vmt, %object
 516              		.size	vmt, 16
 517              	vmt:
 518 0000 00000000 		.word	_writes
 519 0004 00000000 		.word	_reads
 520 0008 00000000 		.word	_put
 521 000c 00000000 		.word	_get
 522              		.text
 523              	.Letext0:
 524              		.file 2 "/home/alex/MentorGraphics/Sourcery_CodeBench_Lite_for_ARM_EABI/lib/gcc/arm-none-eabi/4.8.
 525              		.file 3 "/home/alex/MentorGraphics/Sourcery_CodeBench_Lite_for_ARM_EABI/arm-none-eabi/include/stdi
 526              		.file 4 "../../../os/common/ports/ARMCMx/compilers/GCC/chtypes.h"
 527              		.file 5 "../../../os/rt/include/chsystypes.h"
 528              		.file 6 "../../../os/rt/include/chschd.h"
 529              		.file 7 "../../../os/common/ports/ARMCMx/chcore.h"
 530              		.file 8 "../../../os/common/ports/ARMCMx/chcore_v7m.h"
 531              		.file 9 "../../../os/rt/include/chtm.h"
 532              		.file 10 "../../../os/rt/include/chsem.h"
 533              		.file 11 "../../../os/rt/include/chmtx.h"
 534              		.file 12 "../../../os/hal/lib/streams/memstreams.h"
 535              		.file 13 "../../../os/common/ext/CMSIS/include/core_cm3.h"