ARM GAS  /tmp/ccrIVKPR.s 			page 1


   1              		.syntax unified
   2              		.cpu cortex-m3
   3              		.fpu softvfp
   4              		.eabi_attribute 20, 1
   5              		.eabi_attribute 21, 1
   6              		.eabi_attribute 23, 3
   7              		.eabi_attribute 24, 1
   8              		.eabi_attribute 25, 1
   9              		.eabi_attribute 26, 1
  10              		.eabi_attribute 30, 2
  11              		.eabi_attribute 34, 1
  12              		.eabi_attribute 18, 4
  13              		.thumb
  14              		.file	"nvic.c"
  15              		.text
  16              	.Ltext0:
  17              		.section	.gnu.lto_.jmpfuncs.5979797bdc4dbcfa,"",%progbits
  18 0000 789C6362 		.ascii	"x\234cb`b\300\006\270\2404\013\0033##\02333#\003\000"
  18      6062C006 
  18      B8A0340B 
  18      03332323 
  18      13333323 
  19 0016 01F00021 		.ascii	"\001\360\000!"
  20              		.text
  21              		.section	.gnu.lto_.inline.5979797bdc4dbcfa,"",%progbits
  22 0000 789C6D4C 		.ascii	"x\234mL\313\025\200 \014KK\205\352\305\021\330\300%"
  22      CB158020 
  22      0C4B4B85 
  22      EAC511D8 
  22      C025
  23 0012 5D84911C 		.ascii	"]\204\221\034\305\021LQy\036\354!}\371*\024\177\267"
  23      C5114C51 
  23      791EEC21 
  23      7DF92A14 
  23      7FB7
  24 0024 3FDF8065 		.ascii	"?\337\200e\026\025\011\022`\371\334\220[U\350\261\032"
  24      16150912 
  24      60F9DC90 
  24      5B55E8B1 
  24      1A
  25 0035 C89CAAD3 		.ascii	"\310\234\252\323\363\302TD\222\265zG\350Z\037QL&\322"
  25      F3C25444 
  25      92B57A47 
  25      E85A1F51 
  25      4C26D2
  26 0048 57127B9F 		.ascii	"W\022{\237\201PP\362[\035\346\250\342\002a/\015\002"
  26      815050F2 
  26      5B1DE6A8 
  26      E202612F 
  26      0D02
  27              		.text
  28              		.section	.gnu.lto_.pureconst.5979797bdc4dbcfa,"",%progbits
  29 0000 789C6362 		.ascii	"x\234cb`b\340d\200\000\026\006)F)&)f)\000\002\326\000"
  29      6062E064 
  29      80001606 
  29      29462926 
  29      29662900 
ARM GAS  /tmp/ccrIVKPR.s 			page 2


  30 0017 80       		.ascii	"\200"
  31              		.text
  32              		.section	.gnu.lto_nvicEnableVector.5979797bdc4dbcfa,"",%progbits
  33 0000 789C9D91 		.ascii	"x\234\235\221\277K\303@\024\307\337\273k\314\217\242"
  33      BF4BC340 
  33      14C7DFBB 
  33      6BCC8FA2 
  34 0010 AE3A5974 		.ascii	"\256:Yt\021\212\211N\016N\342\344\320\245T\320\261f"
  34      118A894E 
  34      0E4EE2E4 
  34      D0A554D0 
  34      B166
  35 0022 8801DB88 		.ascii	"\210\001\333\210\025q3m\272\351\320\301\305\352`\021"
  35      1571336D 
  35      BAE9D0C1 
  35      C5EA6011 
  36 0032 11C41F7F 		.ascii	"\021\304\037\177\200 \245\233C\0257')\256\202\210\223"
  36      8020A59B 
  36      43153727 
  36      29AE8288 
  36      93
  37 0043 A010DFE5 		.ascii	"\240\020\337\345l\245\"\016\036\311\335\273{\337\367"
  37      6CA5220E 
  37      1EC9DDBB 
  37      7BDFF7
  38 0052 BE9FE318 		.ascii	"\276\237\343\0300\3709\006\351O\323\361\004\255\310"
  38      30F83906 
  38      E94FD3F1 
  38      04ADC8
  39 0061 0159E506 		.ascii	"\001Y\345\006\240\2501D\021\000\302&\303\315\005\024"
  39      A0A83144 
  39      1100C226 
  39      C3CD0514 
  40 0071 521C869A 		.ascii	"R\034\206\232\357WZG\217olw\247^>\360?\302\020\321E"
  40      EF575A47 
  40      8F6F6C77 
  40      A75E3EF0 
  40      3FC210D1 
  41 0086 6A6B22D8 		.ascii	"jk\"\330\010\363\264\301D\264\260X\267\317\005\253\267"
  41      08F3B4C1 
  41      44B4B058 
  41      B7CF05AB 
  41      B7
  42 0097 C270FFB6 		.ascii	"\302p\377\266\3720\200\275\2109Q\344\"\347bRh\213*E"
  42      FA3080BD 
  42      883951E4 
  42      22E76252 
  42      688B2A45 
  43 00ab 310DB258 		.ascii	"1\015\262X#\037\2356`\320\244P\251\002e\262M\200p\240"
  43      231F9D36 
  43      60D0A450 
  43      A90265B2 
  43      4D8070A0 
  44 00bf 91A159B0 		.ascii	"\221\241Y\260\315!\023+oB\351)\010\3371\213\207$w\220"
  44      CD21132B 
  44      6F42E929 
  44      08DF318B 
ARM GAS  /tmp/ccrIVKPR.s 			page 3


  44      87247790 
  45 00d3 39488A26 		.ascii	"9H\212&\004g\274}\304\351T@\365\010\250&4feb\014N\375"
  45      0467BC7D 
  45      C4E95440 
  45      F508A826 
  45      34666562 
  46 00ea 72D19FA4 		.ascii	"r\321\237\244D\022ND\330\357\242\272\007U\222jB\257"
  46      44124E44 
  46      D8EFA2BA 
  46      0755926A 
  46      42AF
  47 00fc FB8DC0EF 		.ascii	"\373\215\300\357\213\356\243G\267XDy\033'\002\223\021"
  47      8BEEA347 
  47      B7584479 
  47      1B270293 
  47      11
  48 010d 8FCCCE83 		.ascii	"\217\314\316\203\343\355\321\266\237JyQ\004J\344Wz\016"
  48      E3EDD1B6 
  48      9F4A7951 
  48      044AE457 
  48      7A0E
  49 011f AE3A785A 		.ascii	"\256:xZTK\025\227\035<\335\221v0\004\022<x\355\310\015"
  49      544B1597 
  49      1D3CDD91 
  49      76300412 
  49      3C78EDC8 
  50 0134 915050A8 		.ascii	"\221PP\250\"\364\353\227x\027\374\224\213\3067|\374"
  50      22F4EB97 
  50      7817FC94 
  50      8BC6377C 
  50      FC
  51 0145 6F78FC42 		.ascii	"ox\374BV;\360\206lzOO\372\377\266\354\267\266wPlm\215"
  51      563BF086 
  51      6C7A4F4F 
  51      FAFFB6EC 
  51      B7B67750 
  52 015c C8A6ED91 		.ascii	"\310\246\355\221!\002z2\241O\232\246%?\257`-e\227\255"
  52      21027A32 
  52      A14F9AA6 
  52      253FAF60 
  52      2D6597AD 
  53 0170 156F75AD 		.ascii	"\025ou\255`\331^.\347\345\255\351tj&\265a\345\327]\333"
  53      60D95E2E 
  53      E7E5ADE9 
  53      746A26B5 
  53      61E5D75D 
  54 0185 B481E7CD 		.ascii	"\264\201\347\315\361O\265\353\222\340"
  54      F14FB5EB 
  54      92E0
  55              		.text
  56              		.section	.gnu.lto_nvicDisableVector.5979797bdc4dbcfa,"",%progbits
  57 0000 789C7D50 		.ascii	"x\234}P\277K\303P\020\276\357\245\321VAqt\262\350\""
  57      BF4BC350 
  57      10BEEFA5 
  57      D1564171 
  57      74B2E822 
  58 0014 14133A39 		.ascii	"\024\023:98\211s\027\251\240c\355P\003\266\021+\342"
ARM GAS  /tmp/ccrIVKPR.s 			page 4


  58      38897317 
  58      A9A063ED 
  58      5003B611 
  58      2BE2
  59 0026 D6D4D4CD 		.ascii	"\326\324\324\315\241\203\203?\026\213[\251?\300E\020"
  59      A183833F 
  59      168B5BA9 
  59      3FC04510 
  60 0036 A4141C1C 		.ascii	"\244\024\034\034*\370\037\024\027\301AD\227\016B\274"
  60      2AF81F14 
  60      17C14144 
  60      970E42BC 
  61 0046 4B1AA50E 		.ascii	"K\032\245\016\036\311\273{\367}\367\335\335S\244\350"
  61      1EC9BB7B 
  61      F77DF7DD 
  61      DD53A4E8 
  62 0056 AF8DF37F 		.ascii	"\257\215\363\177\017\242${h\004U}$*G\025 \001\201J\012"
  62      0FA2247B 
  62      6804557D 
  62      242A4715 
  62      2001814A 
  63 006b A5150815 		.ascii	"\245\025\010\025\223Ts\234jg\357\245\253\216\016\232"
  63      9354739C 
  63      6A67EFA5 
  63      AB8E0E9A 
  64 007b 9553E7CB 		.ascii	"\225S\347\313\363\000\013,k\200\262\240e\276 \356;\025"
  64      F3000B2C 
  64      6B80B2A0 
  64      65BE20EE 
  64      3B15
  65 008d E9EF73A9 		.ascii	"\351\357s\251\232\035\317k\\_=\3271\026\003\362ReA\323"
  65      9A1DCF6B 
  65      5C5F3DD7 
  65      311603F2 
  65      526541D3 
  66 00a1 28831A2B 		.ascii	"(\203\032+G\370B:\037R\247S\205\033\305I4\331\322|\312"
  66      47F8423A 
  66      1F52A753 
  66      851BC549 
  66      34D9D27C 
  67 00b6 344B50E2 		.ascii	"4KP\342\2656\271\027\356\347\376t\006g\320)\007\225"
  67      B536B917 
  67      EEE7FE74 
  67      0667D029 
  67      0795
  68 00c8 03A427D7 		.ascii	"\003\244'\327\021\265i\367\315\275C\210i\214I\322\275"
  68      11B569F7 
  68      CDBD4388 
  68      698C49D2 
  68      BD
  69 00d9 D5C25484 		.ascii	"\325\302T\204\263>}\302\247\273\347\356\307\017]\027"
  69      B33E7DC2 
  69      A7BBE7EE 
  69      C70F5D17 
  70 00e9 20026109 		.ascii	" \002a\011\326zx\037\016\240\031j8\225\2623gAOP]\302"
  70      D67A781F 
  70      0EA0196A 
ARM GAS  /tmp/ccrIVKPR.s 			page 5


  70      3895B233 
  70      67414F50 
  71 00ff 510B0327 		.ascii	"Q\013\003't\314\374A)\212:-\327\031\361w\217\372\033"
  71      74CCFC41 
  71      298A3A2D 
  71      D719F177 
  71      8FFA1B
  72 0112 AF22D89C 		.ascii	"\257\"\330\234\347\2430\322}\321\233\303\327.\372dg"
  72      E7A330D2 
  72      7DD19BC3 
  72      D72EFA64 
  72      67
  73 0123 2DC47E65 		.ascii	"-\304~e\207\376\227EO\254\247\357c1\011\236\250\334"
  73      87FE9745 
  73      4FACA7EF 
  73      6331099E 
  73      A8DC
  74 0135 A94F05C2 		.ascii	"\251O\005\302\241\245\231\306o&#$\014\303\014>\273h"
  74      A1A599C6 
  74      6F262324 
  74      0CC30C3E 
  74      BB68
  75 0147 AE65D6CD 		.ascii	"\256e\326\315\015{s\253hf\355|\336.\230\363\213\251"
  75      0D7B73AB 
  75      6866ED7C 
  75      DE2E98F3 
  75      8BA9
  76 0159 85D48E59 		.ascii	"\205\324\216Y\330\266\262F\226\264\202\221\374\006\256"
  76      D8B6B246 
  76      96B48291 
  76      FC06AE
  77 0168 7676D4   		.ascii	"vv\324"
  78              		.text
  79              		.section	.gnu.lto_nvicSetSystemHandlerPriority.5979797bdc4dbcfa,"",%progbits
  80 0000 789C6362 		.ascii	"x\234cb`b@\007\222@\374\001\210u\201\230\221\231\201"
  80      60624007 
  80      9240FC01 
  80      88758198 
  80      919981
  81 0013 9169C239 		.ascii	"\221i\3029\006\206F\016&FF\020\203\201\221\241\236\211"
  81      0686460E 
  81      26464610 
  81      838191A1 
  81      9E89
  82 0025 B13E9211 		.ascii	"\261>\222\021\254v=\323\201\007\377\377\257\373\322"
  82      AC763DD3 
  82      8107FFFF 
  82      AFFBD2
  83 0034 76EC20E3 		.ascii	"v\354 \3439evF\306\\F\240\211\231\214\014\314 \202\025"
  83      39657646 
  83      C65C46A0 
  83      89998C0C 
  83      CC208215 
  84 0048 C805A963 		.ascii	"\310\005\251cehih\230\240\220\313\010\264,\031\2541"
  84      65686968 
  84      98A090CB 
  84      08B42C19 
ARM GAS  /tmp/ccrIVKPR.s 			page 6


  84      AC31
  85 005a 0448824C 		.ascii	"\004H\202L\013\005\012\001i\346\263\014M\257\2337\367"
  85      0B050A01 
  85      69E6B30C 
  85      4DAF9B37 
  85      F7
  86 006b E926322E 		.ascii	"\351&2.ddeHgdJ\007i<\313\320\274\226\031&\304\014\024"
  86      64646548 
  86      67644A07 
  86      693CCBD0 
  86      BC961926 
  87 0082 8D60CC64 		.ascii	"\215`\314ddda\000\311\034\362\204H\3502\254ihil0\007"
  87      64646100 
  87      C91CF284 
  87      48E832AC 
  87      6968696C 
  88 0098 4A6833AC 		.ascii	"Jh3\254\0021y3\031\231f3\314\002*e\006\251gi\270\325"
  88      02317933 
  88      19996633 
  88      CC022A65 
  88      06A96769 
  89 00ae DCC0C700 		.ascii	"\334\300\307\000f\202\335\234\004q:\320HV\006\030\213"
  89      6682DD9C 
  89      04713AD0 
  89      48560618 
  89      8B
  90 00bf 9981E122 		.ascii	"\231\201\341\"C\343\203s\312\020Ca \004\350\012\240"
  90      43E38373 
  90      CA104361 
  90      2004E80A 
  90      A0
  91 00d0 F34061A4 		.ascii	"\363@a\244\255\247\247\017A\371\305\372\031\2119\372"
  91      ADA7A70F 
  91      41F9C5FA 
  91      198939FA 
  92 00e0 05F94525 		.ascii	"\005\371E%\305\372\311\371\271\271\371y\372\216A\276"
  92      C5FAC9F9 
  92      B9B9F979 
  92      FA8E41BE 
  93 00f0 CEBE15FA 		.ascii	"\316\276\025\372ye\231\311z\311\014\000\317\274E\347"
  93      796599C9 
  93      7AC90C00 
  93      CFBC45E7 
  94              		.text
  95              		.section	.gnu.lto_nvicClearPending.5979797bdc4dbcfa,"",%progbits
  96 0000 789C5D50 		.ascii	"x\234]P1H\303P\020\275\367\177\322\352\2428:Yt\021\212"
  96      3148C350 
  96      10BDF77F 
  96      D2EAA238 
  96      3A597411 
  97 0015 09BA3A89 		.ascii	"\011\272:\211\223C\027\251\240c\315P\003\266\021+\342"
  97      934317A9 
  97      A063CD50 
  97      03B6112B 
  97      E2
  98 0026 D65FD359 		.ascii	"\326_\323Y:\270\250\213\305M\252\356v)\335+\272;\024"
  98      3AB8A88B 
ARM GAS  /tmp/ccrIVKPR.s 			page 7


  98      C54DAAEE 
  98      7629DD2B 
  98      BA3B14
  99 0039 41280EAE 		.ascii	"A(\016\256.B\274KLA\217\237\177\367\337\275{w9E\212"
  99      2E42BC4B 
  99      4C418F9F 
  99      7FF7DFBD 
  99      7B773945 
 100 004e FEDB2C7F 		.ascii	"\376\333,\177\006D\313\354\241\011\252\365D\324\230"
 100      0644CBEC 
 100      A109AAF5 
 100      44D498
 101 005d 50800404 		.ascii	"P\200\004\004\252+\324w T\314S\333\230\326\360\375\353"
 101      AA2BD477 
 101      2054CC53 
 101      DB98D6F0 
 101      FDEB
 102 006f 595F9CF7 		.ascii	"Y_\234\367\232\327\346;\212\000\037,\353\200<\3206?"
 102      9AD7E63B 
 102      8A001F2C 
 102      EB803CD0 
 102      363F
 103 0081 908B9DB2 		.ascii	"\220\213\235\262\376\366yP\275a\024\275v;o#\314L\002"
 103      FEF67950 
 103      BD6114BD 
 103      763B6F23 
 103      CC4C02
 104 0094 15A9F2A1 		.ascii	"\025\251\362\2415\225\320fe\213\037d\313\225\021\230"
 104      3595D066 
 104      658B1F64 
 104      CB951198 
 105 00a4 2B6C6A72 		.ascii	"+ljr\267\034\2110[\221o\031i\013J\274\036Px\037Fg\213"
 105      B71C8930 
 105      5B916F19 
 105      690B4ABC 
 105      1E50781F 
 106 00bb 25DCC0A6 		.ascii	"%\334\300\2462T\031\220\306\\G4\240\323\317\360\003"
 106      32541990 
 106      C65C4734 
 106      A0D3CFF0 
 106      03
 107 00cc 694E734E 		.ascii	"iNsN\300\260\253S\310b4\246\317\305\364\360n\234\261"
 107      C0B0AB53 
 107      C86234A6 
 107      CFC5F4F0 
 107      6E9CB1
 108 00df 6318C2F9 		.ascii	"c\030\302\371\025z\034\013e8-`\177#A\226\250c\232\015"
 108      157A1C0B 
 108      65382D60 
 108      7F234196 
 108      A8639A0D 
 109 00f3 B3EAC3CA 		.ascii	"\263\352\303\312\323\255\204\323>\354+\272d\211\214"
 109      D3AD84D3 
 109      3EEC2BBA 
 109      64898C
 110 0102 E8644D3F 		.ascii	"\350dM?4S\361F\262\361\036v\221\354\203\007\2464\312"
 110      3453F146 
ARM GAS  /tmp/ccrIVKPR.s 			page 8


 110      B2F11E76 
 110      91EC8307 
 110      A634CA
 111 0115 10BD5063 		.ascii	"\020\275Pc8ZHDS+\362\320\374\247\302\313;\216\233\234"
 111      385A4844 
 111      532BF2D0 
 111      FCA7C2CB 
 111      3B8E9B9C 
 112 0129 A0E6EE95 		.ascii	"\240\346\356\225\366\335\203\340\360\250\346zA\245\022"
 112      F6DD83E0 
 112      F0A8E67A 
 112      41A512
 113 0138 54DDB5CD 		.ascii	"T\335\265\315\302z\341\304\255\036\373\236\343\221\256"
 113      C27AE1C4 
 113      AD1EFB9E 
 113      E391AE
 114 0147 3A2B3F72 		.ascii	":+?r\207f\302"
 114      8766C2
 115              		.text
 116              		.section	.gnu.lto_.symbol_nodes.5979797bdc4dbcfa,"",%progbits
 117 0000 789C6362 		.ascii	"x\234cb`b\260c\200\002\246\233\214\365\014\014\023\316"
 117      6062B063 
 117      8002A69B 
 117      8CF50C0C 
 117      13CE
 118 0012 3130D4D7 		.ascii	"10\324\327\317\353`d\272\305X\317\210\304\275\315X\317"
 118      CFEB6064 
 118      BAC558CF 
 118      88C4BDCD 
 118      58CF
 119 0024 84C4BDC3 		.ascii	"\204\304\275\303X\317\214\3402\000\000p\232\023\307"
 119      58CF8CE0 
 119      32000070 
 119      9A13C7
 120              		.text
 121              		.section	.gnu.lto_.refs.5979797bdc4dbcfa,"",%progbits
 122 0000 789C6362 		.ascii	"x\234cb`b`d\200\002\000\000F\000\006"
 122      60626064 
 122      80020000 
 122      460006
 123              		.text
 124              		.section	.gnu.lto_.decls.5979797bdc4dbcfa,"",%progbits
 125 0000 789CAD59 		.ascii	"x\234\255YmpT\325\031>\347\356\015I$Fp\254\205\031:"
 125      6D7054D5 
 125      193EE7EE 
 125      0D492446 
 125      70AC8519 
 126 0015 44AD9D8E 		.ascii	"D\255\235\216\324,\205\372\365\307a\263\011fg\032\233"
 126      D42C85FA 
 126      F5C761B3 
 126      0966671A 
 126      9B
 127 0026 D905A623 		.ascii	"\331\005\246#3]\216\313\325\354L\262\233\331,\016\374"
 127      335D8ECB 
 127      D5EC4CB2 
 127      9BD92C0E 
 127      FC
ARM GAS  /tmp/ccrIVKPR.s 			page 9


 128 0037 3B3162D1 		.ascii	";1b\321\2321|I\006if\243\211-\245-\031 TA\313*\025l"
 128      9A317C49 
 128      066966A3 
 128      892DA52D 
 128      19205441 
 129 004f 11A114C5 		.ascii	"\021\241\024\305\212\324\365\243Cmu\000qPk\351\372\236"
 129      8AD4F5A3 
 129      436D7500 
 129      71506BE9 
 129      FA9E
 130 0061 73BFCEB9 		.ascii	"s\277\316\271\273gs\327\361N\316{\317\275\367\234\347"
 130      BB6773D7 
 130      F14ECE7B 
 130      CFBDF79C 
 130      E7
 131 0072 7DDEE77C 		.ascii	"}\336\347|\334wo4\244\241\3070BE8\372g#t\203\206P\015"
 131      DC776F34 
 131      A4A1C730 
 131      424538FA 
 131      67237483 
 132 0089 42E84EE4 		.ascii	"B\350N\344\036:\224Q(;\241LB\331\217J\017\366\274\301"
 132      1E3A9451 
 132      283BA14C 
 132      42D98F4A 
 132      0FF6BCC1 
 133 009d 6ADB68D5 		.ascii	"j\333h\325\001\026\325\"\023\357\000\224\203P\016A9"
 133      0116D522 
 133      13EF0094 
 133      83500E41 
 133      39
 134 00ae 07E52894 		.ascii	"\007\345(\224W\241\004\240\234\205r\006\312\021\253"
 134      57A104A0 
 134      9C857206 
 134      CA11AB
 135 00bd 0FC3021A 		.ascii	"\017\303\002\032\350\267P~\343\361\3038L\367\370\261"
 135      E8B7507E 
 135      E3F1C338 
 135      4CF7F8B1 
 136 00cd 7DD898B6 		.ascii	"}\330\230\266\017\333'\303z\335\362\203-\014v\336\355"
 136      0FDB27C3 
 136      7ADDF283 
 136      2D0C76DE 
 136      ED
 137 00de C19EB470 		.ascii	"\301\236\264p\260\325\367<\224\213P\346a\363^\215u\236"
 137      B0D5F73C 
 137      948B50E6 
 137      61F35E8D 
 137      759E
 138 00f0 B4783F07 		.ascii	"\264x?\007\345\017P~\200e\034\246O]\031\216^~\330\212"
 138      E50F507E 
 138      80651CA6 
 138      4F5D198E 
 138      5E7ED88A 
 139 0104 1B5B7DD8 		.ascii	"\033[}\330\371\005\017\247\271h\204\346\012\205\361"
 139      F9050FA7 
 139      B96884E6 
 139      0A85F1
ARM GAS  /tmp/ccrIVKPR.s 			page 10


 140 0113 9123986E 		.ascii	"\221#\230n\240\377+\026\003\350Z\264\231\302\221{\230"
 140      A0FF2B16 
 140      03E85AB4 
 140      99C2917B 
 140      98
 141 0124 529C25F8 		.ascii	"R\234%\370\316o\241\237b\202\033\353Q\023\2574\324s"
 141      CE6FA19F 
 141      62821BEB 
 141      5113AF34 
 141      D473
 142 0136 C70811FC 		.ascii	"\307\010\021\374\024\276\226\327\002\\\002T\217\326"
 142      14BE96D7 
 142      025C0254 
 142      8FD6
 143 0144 51FA20EB 		.ascii	"Q\372 \353\330\376\012\360*\327\353F4F\351P\341\205"
 143      D8FE0AF0 
 143      2AD7EB46 
 143      3446E950 
 143      E185
 144 0156 D1C120A5 		.ascii	"\321\301 \245u\004\217\341z\350;\2101\272\011m\007\247"
 144      75048FE1 
 144      7AE83B88 
 144      31BA096D 
 144      07A7
 145 0168 4394BE34 		.ascii	"C\224\2764OC\245\007\301\265\365%\327\004\377\012\337"
 145      4F43A507 
 145      C1B5F525 
 145      D704FF0A 
 145      DF
 146 0179 844C4FFC 		.ascii	"\204LO\374\261Ua\223\355*\207\226\351\205W\226\006\034"
 146      B1556193 
 146      ED2A8796 
 146      E9855796 
 146      061C
 147 018b 000DFD12 		.ascii	"\000\015\375\022\274\332\010\354\370.z\232\322\015 "
 147      BCDA08EC 
 147      F82E7A9A 
 147      D20D20
 148 019a C5D86C9A 		.ascii	"\305\330l\232\323ln\277\347\255F\361\334\262\361X\330"
 148      D36C6EBF 
 148      E7AD46F1 
 148      DCB2F158 
 148      D8
 149 01ab 6657FA9C 		.ascii	"fW\372\234\321nw\233\360\323\015\241\357\241q\246\365"
 149      D16E779B 
 149      F0D30DA1 
 149      EFA171A6 
 149      F5
 150 01bc 205D3B03 		.ascii	" ];\003s\251\221\325K\012u;\226$1\307,\277\347P\303"
 150      73A991D5 
 150      4B0A753B 
 150      962431C7 
 150      2CBFE750 
 151 01d1 507FA158 		.ascii	"P\177\241X\234\353\177\300&\344\0013ixd\231,+\013\335"
 151      9CEB7FC0 
 151      26E40133 
 151      69786499 
ARM GAS  /tmp/ccrIVKPR.s 			page 11


 151      2C2B0BDD 
 152 01e5 68C746F0 		.ascii	"h\307F\360\016\240C\360\316\257\025\333Nol\273\312\306"
 152      0EA043F0 
 152      CEAF15DB 
 152      4E6F6CBB 
 152      CAC6
 153 01f7 F6A91D9B 		.ascii	"\366\251\035\2339\3114t\270<+A\361\017x\213I_\003u\331"
 153      39C93474 
 153      B83C2B41 
 153      F10F788B 
 153      495F0375 
 154 020c 0DE6773C 		.ascii	"\015\346w<\230)\272)\202\231\364\006\263\267l0\373\016"
 154      9829BA29 
 154      8299F406 
 154      B3B76C30 
 154      FB0E
 155 021e 3BC14CF0 		.ascii	";\301L\360`>*\037\314z\257\304\373\277\026\253\375^"
 155      603E2A1F 
 155      CC7AAFC4 
 155      FBBF16AB 
 155      FD5E
 156 0230 56CFCBAC 		.ascii	"V\317\313\254\3702\035\240\205q:k\330]\246u\266\003"
 156      F8321DA0 
 156      85713A6B 
 156      D85DA675 
 156      B603
 157 0242 B64BD8CB 		.ascii	"\266K\330\313\364\303\377j\260L\255u]\251\003\301y|"
 157      F4C3FF6A 
 157      B04CAD75 
 157      5DA903C1 
 157      797C
 158 0254 23582C2F 		.ascii	"#X,/J\\\357V\212\230\315\256\313\236\320\2556\002\333"
 158      4A5CEF56 
 158      8A98CDAE 
 158      CB9ED0AD 
 158      3602DB
 159 0267 292066A2 		.ascii	") f\242!\026r\323p#\301\007\340\236\305\206^e\3239o"
 159      211672D3 
 159      7023C107 
 159      E09EC586 
 159      5E65D339 
 160 027c EE9662BB 		.ascii	"\356\226b\273\027+\264#\370Ox\246\253\013\265\266/\336"
 160      172BB423 
 160      F84F78A6 
 160      AB0BB5B6 
 160      2FDE
 161 028e 44B58C5E 		.ascii	"D\265\214^\2668[\267\235\3129,Eb7CW\243\365\234\213"
 161      B6385BB7 
 161      9DCA392C 
 161      45623743 
 161      57A3F59C 
 162 02a3 B02BE60A 		.ascii	"\260+\346\012\330\356\365\320\034W\361'7\034[\3147\306"
 162      D8EEF5D0 
 162      1C57F127 
 162      371C5BCC 
 162      37C6
 163 02b5 43F86A50 		.ascii	"C\370jPk\257&\253\345\003\2109\3763t6\273qX\232/\236"
ARM GAS  /tmp/ccrIVKPR.s 			page 12


 163      6BAF26AB 
 163      E5038839 
 163      FE337436 
 163      BB71589A 
 164 02cb 6AA0BA79 		.ascii	"j\240\272y\037I\200\322q\035\312\321\207\372\363\033"
 164      1F4980D2 
 164      711DCAD1 
 164      87FAF31B 
 165 02db B76EC634 		.ascii	"\267n\3064\367\022\266\025|\245\321\2321\2256v\202\307"
 165      F712B615 
 165      7CA5D19A 
 165      31953676 
 165      82C7
 166 02ed F904987A 		.ascii	"\371\004\230zW\266\007B\263\2737I\343\305\244\037\023"
 166      57B60742 
 166      B3BB3749 
 166      E3C5A41F 
 166      13
 167 02fe C6CBD38C 		.ascii	"\306\313\323\214\340\327\252\036\256c\212\341\252\225"
 167      E0D7AA1E 
 167      AE638AE1 
 167      AA95
 168 030c 46CB6E05 		.ascii	"F\313n\005\262\347\271\354L\255\262,\034\034\033\264"
 168      B2E7B9EC 
 168      4CADB22C 
 168      1C1C1BB4 
 169 031c D199C24C 		.ascii	"\321\231\302LB\320{\323=CD\025\3204\273\377\012\313"
 169      42D07BD3 
 169      3D434415 
 169      D034BBFF 
 169      0ACB
 170 032e F189AA03 		.ascii	"\361\211\252\003\372\233\"\240o#;\202\227K\"\220\334"
 170      FA9B22A0 
 170      6F233B82 
 170      974B2290 
 170      DC
 171 033f 4A929646 		.ascii	"J\222\226F\000\223\340\011\210\200\340W\201\232\206"
 171      0093E009 
 171      8880E057 
 171      819A86
 172 034e 8EF99283 		.ascii	"\216\371\222\203b\265\036\303\034\355\004G;\351\213"
 172      62B51EC3 
 172      1CED0447 
 172      3BE98B
 173 035d 5A4E8506 		.ascii	"ZN\205\006\334\266\012\334\316\370\343\246\251\271m"
 173      DCB60ADC 
 173      CEF8E3A6 
 173      A9B96D
 174 036c 13B8BDE7 		.ascii	"\023\270\275\347\217\233\012\015\270\215\010\334>\362"
 174      8F9B0A0D 
 174      B88D08DC 
 174      3EF2
 175 037a C72DA0E6 		.ascii	"\307-\240\3466!p\273\340\217\233\012\015\270\355\022"
 175      362170BB 
 175      E08F9B0A 
 175      0DB8ED12 
 176 038a B87DE98F 		.ascii	"\270}\351\217\233\256\346\266\247\302\034o\264\001\012"
ARM GAS  /tmp/ccrIVKPR.s 			page 13


 176      9BAEE6B6 
 176      A7C21C6F 
 176      B4010A
 177 0399 F626FB41 		.ascii	"\366&\373A\325\223\374\237\212I~\2333\311i\300\033\203"
 177      D593FC9F 
 177      8A497E9B 
 177      33C969C0 
 177      1B83
 178 03ab ECD79644 		.ascii	"\354\327\226D\025\004H\262\367\236\211\025\004\037\344"
 178      150448B2 
 178      F79E8915 
 178      041FE4
 179 03ba 923C5A02 		.ascii	"\222<Z\002'\277+lM\246\2515y\266\202&\243\316>=t\215"
 179      27BF2B6C 
 179      4DA6A935 
 179      79B68226 
 179      A3CE3E3D 
 180 03d0 15E2BFAB 		.ascii	"\025\342\277\253\026\345?\012Q\006j\034U\006K\302\360"
 180      16E53F0A 
 180      51066A1C 
 180      55064BC2 
 180      F0
 181 03e1 78B663AA 		.ascii	"x\266c\252U\3112\220\337\367V\003\233*Gyb\265\305\013"
 181      55C93290 
 181      DFF75603 
 181      9B2A4779 
 181      62B5C50B 
 182 03f5 28B1B255 		.ascii	"(\261\262U\231S\006\255\334!\276\235\010\376\013\177"
 182      995306AD 
 182      DC21BE9D 
 182      08FE0B7F 
 183 0405 691CC1D7 		.ascii	"i\034\301\327\201\375+\267\257s{\212\333\277s{\232\333"
 183      81FD2BB7 
 183      AF737B8A 
 183      DBBF737B 
 183      9ADB
 184 0417 33DCBEC3 		.ascii	"3\334\276\303\355\273\334\276\317\355Yn?\344\366c\260"
 184      EDBBDCBE 
 184      CFED596E 
 184      3FE4F663 
 184      B0
 185 0428 CE311D3D 		.ascii	"\3161\035=\352\376\0321_\250*U\317\341\351v/Ez\261\302"
 185      EAFE1A31 
 185      5FA82A55 
 185      CFE1E976 
 185      2F457AB1 
 186 043d EED250D2 		.ascii	"\356\322P\322\352Ee+\202/T=\300\237(\006\330!(\265*"
 186      EA45652B 
 186      822F543D 
 186      C09F2806 
 186      D82128B5 
 187 0452 9710149C 		.ascii	"\227\020\024\234\304\35417\225\313_8\215\233\010\276"
 187      C4EC3137 
 187      95CB5F38 
 187      8D9B08BE 
 188 0462 C8B38A6D 		.ascii	"\310\263\212m\201)\263\012\017\010\363y\311\233Tl<\315"
 188      8129B30A 
ARM GAS  /tmp/ccrIVKPR.s 			page 14


 188      0F08F379 
 188      C99B546C 
 188      3CCD
 189 0474 938A4B53 		.ascii	"\223\212KS'\025\233\006\362[\236\334<\233%\025N*\221"
 189      27159B06 
 189      F25B9EDC 
 189      3C9B2515 
 189      4E2A91
 190 0487 FF065209 		.ascii	"\377\006R\011\015\215\363P.U\236\233H=\321\207O\013"
 190      0D8DF350 
 190      2E559E9B 
 190      483DD187 
 190      4F0B
 191 0499 137D47D5 		.ascii	"\023}G\325`M\022\330V\021l\302\017X\235\232\3316\021"
 191      604D12D8 
 191      56116CC2 
 191      0F589D9A 
 191      D93611
 192 04ac 6CB26A30 		.ascii	"l\262j0\231\331\210\010\266\337\017\330\0145\263\011"
 192      99D98808 
 192      B6DF0FD8 
 192      0C35B309 
 193 04bc 11EC40D5 		.ascii	"\021\354@\325`\"3x'-g\033\360y\276\001\037\364bI\353"
 193      60223378 
 193      272D671B 
 193      F079BE01 
 193      1FF46249 
 194 04d1 C9AACE52 		.ascii	"\311\252\316R\023\333#\022;\354\207X\223Z\262\275\""
 194      13DB2312 
 194      3BEC8758 
 194      935AB2BD 
 194      22
 195 04e2 D8513F60 		.ascii	"\330Q?`\337W3{V\004;Q5\230\314l\237\010v\312\017\330"
 195      DF57337B 
 195      56043B51 
 195      3598CC6C 
 195      9F0876CA 
 196 04f8 7C35B3E7 		.ascii	"|5\263\347E\260\267\253\006\223\231\375Q\004{\317\017"
 196      45B0B7AB 
 196      069399FD 
 196      51047BCF 
 196      0F
 197 0509 D8ED6A66 		.ascii	"\330\355jf\307E\260\263U\203\011\3146\365\347O,w^\314"
 197      C745B0B3 
 197      558309CC 
 197      36F5E74F 
 197      2C775ECC 
 198 051d B9456C0B 		.ascii	"\271El\013\376\302\335\265\027\311\013Hj6\246lF\360"
 198      FEC2DDB5 
 198      17C90B48 
 198      6A36A66C 
 198      46F0
 199 052f 16ADDACD 		.ascii	"\026\255\332\315}X+\277\271\313?\033\355V,\203\364\206"
 199      7D582BBF 
 199      B9CB3F1B 
 199      ED562C83 
 199      F486
ARM GAS  /tmp/ccrIVKPR.s 			page 15


 200 0541 2D91B0AA 		.ascii	"-\221\260\252\213\024\032\302\256{\322\324\360\013\256"
 200      8B141AC2 
 200      AE7BD2D4 
 200      F00BAE
 201 0550 E1793F1A 		.ascii	"\341y?\032\266\253\301\336\020\301>\255\032L\036\220"
 201      B6ABC1DE 
 201      10C13EAD 
 201      1A4C1E90 
 202 0560 3797CB99 		.ascii	"7\227\313\231\2220\036\324IWf\210\003R\222Py\232\021"
 202      92301ED4 
 202      49576688 
 202      03529250 
 202      799A11
 203 0573 9CAB7A40 		.ascii	"\234\253z@F\025\003\342~\017\023[A\330\237{\303\226"
 203      461503E2 
 203      7E0F135B 
 203      41D89F7B 
 203      C396
 204 0585 5958D54E 		.ascii	"YX\325N\225\210\375\371\267\324q\347\034\250k*\305\355"
 204      9588FDF9 
 204      B7D471E7 
 204      1CA86B2A 
 204      C5ED
 205 0597 6D06AFCB 		.ascii	"m\006\257\313\252\343~F\021\267.\305\375\214\033\367"
 205      AAE37E46 
 205      11B72EC5 
 205      FD8C1BF7 
 206 05a7 656FDC32 		.ascii	"eo\3342\013\253\272B\0217$\013o/gs\2071%\370$\377\270"
 206      0BABBA42 
 206      1137240B 
 206      6F2F6773 
 206      873125F8 
 207 05be 351558AF 		.ascii	"5\025X\257b\362\300\326\360\017qkxP\3671\023\327\225"
 207      62F2C0D6 
 207      F00F716B 
 207      7850F731 
 207      13D795
 208 05d1 FB3959EE 		.ascii	"\3739Y\356\020\363\034\202?\343\211\310\347<\271\374"
 208      10F31C82 
 208      3FE389C8 
 208      E73CB9FC 
 209 05e1 92DBCBDC 		.ascii	"\222\333\313\334\026\271\355\327\230\035\340v-\267?"
 209      16B9EDD7 
 209      981DE076 
 209      2DB73F
 210 05f0 E7F6116E 		.ascii	"\347\366\021n\177\301\355 \267\217s\273\236\333\215"
 210      7FC1ED20 
 210      B78F73BB 
 210      9EDB8D
 211 05ff DC6EE676 		.ascii	"\334n\346v+\267\333\270\035\341\366in\177\315\355vM"
 211      2BB7DBB8 
 211      1DE1F669 
 211      6E7FCDED 
 211      764D
 212 0611 9DCE5EAC 		.ascii	"\235\316^\254\220\316\356\320\234l\361z4J\217\037/\254"
 212      90CEEED0 
 212      9C6CF17A 
ARM GAS  /tmp/ccrIVKPR.s 			page 16


 212      344A8F1F 
 212      2FAC
 213 0623 3D378CD7 		.ascii	"=7\214\327\025\350\020\375\177\261\210\335\344\325\371"
 213      15E810FD 
 213      7FB188DD 
 213      E4D5F9
 214 0632 B097AFFC 		.ascii	"\260\227\257\374%\220}\226\327\204\257\200\263\312\267"
 214      25907D96 
 214      D784AF80 
 214      B3CAB7
 215 0641 2578A7C6 		.ascii	"%x\247\306\364\232\020f\227Y\267k\3467\300u\272\347"
 215      F49A1066 
 215      9759B76B 
 215      E637C075 
 215      BAE7
 216 0653 1F1AAEF8 		.ascii	"\037\032\256\370\225\273ZN\377\345L\227\357H\013\205"
 216      95BB5A4E 
 216      FFE54C97 
 216      EF480B85 
 217 0663 65E3ACA9 		.ascii	"e\343\254\251\242\031\301\273\252^(\273\025\013e\216"
 217      A219C1BB 
 217      AA5E28BB 
 217      150B658E 
 218 0673 C47AB7BB 		.ascii	"\304z\267\273P\006u\317Wh/\013\015=\241\333)\365\025"
 218      500675CF 
 218      57682F0B 
 218      0D3DA1DB 
 218      29F515
 219 0686 AC32AFB9 		.ascii	"\2542\257\2719h\376\245\373\202]\244;\330\233\316d\373"
 219      3968FEA5 
 219      FB825DA4 
 219      3BD89BCE 
 219      64FB
 220 0698 8289744F 		.ascii	"\202\211tOO:\025\014E;\302\035\253\203\251\007\222\211"
 220      4F3A150C 
 220      453BC21D 
 220      AB83A907 
 220      9289
 221 06aa E604FA59 		.ascii	"\346\004\372Y\260+\335c\004I\267\261:\330a\244\262\351"
 221      B02BDD63 
 221      0449B7B1 
 221      3AD861A4 
 221      B2E9
 222 06bc CC5D19D2 		.ascii	"\314]\031\322\333\225L\364\005c\351U\231\204\221Y\023"
 222      DB954CF4 
 222      0563E955 
 222      99849159 
 222      13
 223 06cd 0FA7571A 		.ascii	"\017\247W\032-F*\321\025\377q2k\304\357Kg\342\000\022"
 223      2D462AD1 
 223      15FF7132 
 223      6BC4EF4B 
 223      67E20012 
 224 06e1 6F0BB544 		.ascii	"o\013\265D\202$\323ss*\2352n6\310\275\311`2\225\350"
 224      8224D373 
 224      732A9D32 
 224      6E36C8BD 
ARM GAS  /tmp/ccrIVKPR.s 			page 17


 224      C9603295 
 225 06f6 5EB5D208 		.ascii	"^\265\322\010\366eW&S\331\346.T\267\012\316\013\027"
 225      F6655726 
 225      53D9E62E 
 225      54B70ACE 
 225      0B17
 226 0708 C4B3D3EE 		.ascii	"\304\263\323\356\272{iS\030\315`n\333R\344\336nc\231"
 226      BA7B6953 
 226      18CD606E 
 226      DB52E4DE 
 226      6E6399
 227 071b 91006F38 		.ascii	"\221\000o8\245\367f\222\351\231\354~k\262\317}0\207"
 227      A5F76692 
 227      E999EC7E 
 227      6BB2CF7D 
 227      3087
 228 072d DD8919D9 		.ascii	"\335\211\031\331\330\232\276\254\321\323NR+\273\215"
 228      D89ABEAC 
 228      D1D34E52 
 228      2BBB8D
 229 073c 4C2734CD 		.ascii	"L'4\315$\263kj\273\314k\016\027\3566H\246\323H\201\313"
 229      24B36B6A 
 229      BBCC6B0E 
 229      17EE3648 
 229      A6D34881 
 230 0751 FB6B99BF 		.ascii	"\373k\231\277\333\343\331\371\242\004V\340\306\352l"
 230      DBE3D9F9 
 230      A20456E0 
 230      C6EA6C
 231 0760 30DC118B 		.ascii	"0\334\021\213\304\034\232\211t\306\210'z\026\002\321"
 231      C41C9A89 
 231      74C68827 
 231      7A1602D1 
 232 0770 FABB9745 		.ascii	"\372\273\227E\302\361%kz\015=\022k\213\326G\333\300"
 232      C2F1256B 
 232      7A0D3D12 
 232      6B8BD647 
 232      DBC0
 233 0782 2E6B6B9D 		.ascii	".kk\235\257G\302m\321\272\250y\365Cx\330\351>\\\000"
 233      AF47C26D 
 233      D1BAA879 
 233      F54378D8 
 233      E93E5C00 
 234 0796 0F85CB85 		.ascii	"\017\205\313\205z$\324\342^\376H\213t:\027\267\350\261"
 234      7A24D4E2 
 234      5EFE488B 
 234      743A17B7 
 234      E8B1
 235 07a8 2591685D 		.ascii	"%\221h],\334\302\235\324\204;\227FZ\241{,\252/[\362"
 235      2CDCC29D 
 235      D4843B97 
 235      465AA17B 
 235      2CAA2F5B 
 236 07bd 93684D28 		.ascii	"\223hM(\022\015G\0031(avn\357\254\211\265\263\207"
 236      120D4703 
 236      31286176 
 236      6EEFAC89 
ARM GAS  /tmp/ccrIVKPR.s 			page 18


 236      B5B387
 237 07d0 E1C560DA 		.ascii	"\341\305`\332\231i\005S\323\321\2618\024\325[\230\011"
 237      99690553 
 237      D3D1B138 
 237      14D55B98 
 237      09
 238 07e1 C175A073 		.ascii	"\301u\240sq4\320\012%\324\032\325\341Y\024\370\205\242"
 238      7134D00A 
 238      25D41AD5 
 238      E15914F8 
 238      85A2
 239 07f3 001E0A47 		.ascii	"\000\036\012G\365D\027\311\324\305\343\367\255J%\342"
 239      F54417C9 
 239      D4C5E3F7 
 239      AD4A25E2 
 240 0803 F12BED4A 		.ascii	"\361+\355J\363\255\267.\270\343+7\205,<"
 240      F3ADB72E 
 240      B8E32B37 
 240      852C3C
 241              		.text
 242              		.section	.gnu.lto_.symtab.5979797bdc4dbcfa,"",%progbits
 243 0000 6E766963 		.ascii	"nvicEnableVector\000\000\000\000\000\000\000\000\000"
 243      456E6162 
 243      6C655665 
 243      63746F72 
 243      00000000 
 244 0019 000000A1 		.ascii	"\000\000\000\241\000\000\000nvicDisableVector\000\000"
 244      0000006E 
 244      76696344 
 244      69736162 
 244      6C655665 
 245 0033 00000000 		.ascii	"\000\000\000\000\000\000\000\000\000\000\257\000\000"
 245      00000000 
 245      0000AF00 
 245      00
 246 0040 006E7669 		.ascii	"\000nvicSetSystemHandlerPriority\000\000\000\000\000"
 246      63536574 
 246      53797374 
 246      656D4861 
 246      6E646C65 
 247 0062 00000000 		.ascii	"\000\000\000\000\000\000\000\265\000\000\000nvicCle"
 247      000000B5 
 247      0000006E 
 247      76696343 
 247      6C65
 248 0074 61725065 		.ascii	"arPending\000\000\000\000\000\000\000\000\000\000\000"
 248      6E64696E 
 248      67000000 
 248      00000000 
 248      00000000 
 249 0088 00BB0000 		.ascii	"\000\273\000\000\000"
 249      00
 250              		.text
 251              		.section	.gnu.lto_.opts,"",%progbits
 252 0000 272D6D63 		.ascii	"'-mcpu=cortex-m3' '-mno-thumb-interwork' '-mthumb' "
 252      70753D63 
 252      6F727465 
ARM GAS  /tmp/ccrIVKPR.s 			page 19


 252      782D6D33 
 252      2720272D 
 253 0033 272D6767 		.ascii	"'-ggdb' '-O2' '-fomit-frame-pointer' '-falign-funct"
 253      64622720 
 253      272D4F32 
 253      2720272D 
 253      666F6D69 
 254 0066 696F6E73 		.ascii	"ions=16' '-ffunction-sections' '-fdata-sections' '-"
 254      3D313627 
 254      20272D66 
 254      66756E63 
 254      74696F6E 
 255 0099 666E6F2D 		.ascii	"fno-common' '-flto'\000"
 255      636F6D6D 
 255      6F6E2720 
 255      272D666C 
 255      746F2700 
 256              		.text
 257              		.cfi_sections	.debug_frame
 258              		.section	.text.nvicEnableVector,"ax",%progbits
 259              		.align	2
 260              		.p2align 4,,15
 261              		.global	nvicEnableVector
 262              		.thumb
 263              		.thumb_func
 264              		.type	nvicEnableVector, %function
 265              	nvicEnableVector:
 266              	.LFB217:
 267              		.file 1 "../../../os/hal/ports/common/ARMCMx/nvic.c"
 268              		.loc 1 57 0
 269              		.cfi_startproc
 270              		@ args = 0, pretend = 0, frame = 0
 271              		@ frame_needed = 0, uses_anonymous_args = 0
 272              		@ link register save eliminated.
 273              	.LVL0:
 274              		.loc 1 65 0
 275 0000 00F01F03 		and	r3, r0, #31
 276 0004 0122     		movs	r2, #1
 277 0006 02FA03F3 		lsl	r3, r2, r3
 278 000a 4209     		lsrs	r2, r0, #5
 279 000c 9200     		lsls	r2, r2, #2
 280              		.loc 1 63 0
 281 000e 0901     		lsls	r1, r1, #4
 282              	.LVL1:
 283 0010 00F16040 		add	r0, r0, #-536870912
 284              	.LVL2:
 285 0014 02F16042 		add	r2, r2, #-536870912
 286 0018 02F56142 		add	r2, r2, #57600
 287 001c C9B2     		uxtb	r1, r1
 288 001e 00F56140 		add	r0, r0, #57600
 289              	.LVL3:
 290 0022 80F80013 		strb	r1, [r0, #768]
 291              		.loc 1 65 0
 292 0026 C2F88031 		str	r3, [r2, #384]
 293              		.loc 1 66 0
 294 002a 1360     		str	r3, [r2]
 295 002c 7047     		bx	lr
ARM GAS  /tmp/ccrIVKPR.s 			page 20


 296              		.cfi_endproc
 297              	.LFE217:
 298              		.size	nvicEnableVector, .-nvicEnableVector
 299 002e 00BF     		.section	.text.nvicDisableVector,"ax",%progbits
 300              		.align	2
 301              		.p2align 4,,15
 302              		.global	nvicDisableVector
 303              		.thumb
 304              		.thumb_func
 305              		.type	nvicDisableVector, %function
 306              	nvicDisableVector:
 307              	.LFB218:
 308              		.loc 1 74 0
 309              		.cfi_startproc
 310              		@ args = 0, pretend = 0, frame = 0
 311              		@ frame_needed = 0, uses_anonymous_args = 0
 312              		@ link register save eliminated.
 313              	.LVL4:
 314 0000 10B4     		push	{r4}
 315              		.cfi_def_cfa_offset 4
 316              		.cfi_offset 4, -4
 317              		.loc 1 76 0
 318 0002 00F01F03 		and	r3, r0, #31
 319 0006 0124     		movs	r4, #1
 320 0008 9C40     		lsls	r4, r4, r3
 321 000a 4FF46143 		mov	r3, #57600
 322 000e 4109     		lsrs	r1, r0, #5
 323 0010 CEF20003 		movt	r3, 57344
 324 0014 2031     		adds	r1, r1, #32
 325              		.loc 1 80 0
 326 0016 1844     		add	r0, r0, r3
 327              	.LVL5:
 328 0018 0022     		movs	r2, #0
 329              		.loc 1 76 0
 330 001a 43F82140 		str	r4, [r3, r1, lsl #2]
 331              		.loc 1 80 0
 332 001e 80F80023 		strb	r2, [r0, #768]
 333              		.loc 1 82 0
 334 0022 5DF8044B 		ldr	r4, [sp], #4
 335 0026 7047     		bx	lr
 336              		.cfi_endproc
 337              	.LFE218:
 338              		.size	nvicDisableVector, .-nvicDisableVector
 339 0028 AFF30080 		.section	.text.nvicSetSystemHandlerPriority,"ax",%progbits
 339      AFF30080 
 340              		.align	2
 341              		.p2align 4,,15
 342              		.global	nvicSetSystemHandlerPriority
 343              		.thumb
 344              		.thumb_func
 345              		.type	nvicSetSystemHandlerPriority, %function
 346              	nvicSetSystemHandlerPriority:
 347              	.LFB219:
 348              		.loc 1 90 0
 349              		.cfi_startproc
 350              		@ args = 0, pretend = 0, frame = 0
 351              		@ frame_needed = 0, uses_anonymous_args = 0
ARM GAS  /tmp/ccrIVKPR.s 			page 21


 352              		@ link register save eliminated.
 353              	.LVL6:
 354              		.loc 1 100 0
 355 0000 0901     		lsls	r1, r1, #4
 356              	.LVL7:
 357 0002 00F16040 		add	r0, r0, #-536870912
 358              	.LVL8:
 359 0006 C9B2     		uxtb	r1, r1
 360 0008 00F56D40 		add	r0, r0, #60672
 361              	.LVL9:
 362 000c 0176     		strb	r1, [r0, #24]
 363 000e 7047     		bx	lr
 364              		.cfi_endproc
 365              	.LFE219:
 366              		.size	nvicSetSystemHandlerPriority, .-nvicSetSystemHandlerPriority
 367              		.section	.text.nvicClearPending,"ax",%progbits
 368              		.align	2
 369              		.p2align 4,,15
 370              		.global	nvicClearPending
 371              		.thumb
 372              		.thumb_func
 373              		.type	nvicClearPending, %function
 374              	nvicClearPending:
 375              	.LFB220:
 376              		.loc 1 109 0
 377              		.cfi_startproc
 378              		@ args = 0, pretend = 0, frame = 0
 379              		@ frame_needed = 0, uses_anonymous_args = 0
 380              		@ link register save eliminated.
 381              	.LVL10:
 382              		.loc 1 111 0
 383 0000 00F01F03 		and	r3, r0, #31
 384 0004 0122     		movs	r2, #1
 385 0006 9A40     		lsls	r2, r2, r3
 386 0008 4009     		lsrs	r0, r0, #5
 387              	.LVL11:
 388 000a 4FF46143 		mov	r3, #57600
 389 000e 6030     		adds	r0, r0, #96
 390 0010 CEF20003 		movt	r3, 57344
 391 0014 43F82020 		str	r2, [r3, r0, lsl #2]
 392 0018 7047     		bx	lr
 393              		.cfi_endproc
 394              	.LFE220:
 395              		.size	nvicClearPending, .-nvicClearPending
 396 001a 00BFAFF3 		.text
 396      0080
 397              	.Letext0:
 398              		.file 2 "/home/alex/MentorGraphics/Sourcery_CodeBench_Lite_for_ARM_EABI/arm-none-eabi/include/stdi
 399              		.file 3 "../../../os/common/ports/ARMCMx/compilers/GCC/chtypes.h"
 400              		.file 4 "../../../os/rt/include/chsystypes.h"
 401              		.file 5 "../../../os/rt/include/chschd.h"
 402              		.file 6 "../../../os/common/ext/CMSIS/include/core_cm3.h"
 403              		.file 7 "../../../os/common/ports/ARMCMx/chcore.h"
 404              		.file 8 "../../../os/common/ports/ARMCMx/chcore_v7m.h"
 405              		.file 9 "../../../os/rt/include/chtm.h"
 406              		.file 10 "../../../os/rt/include/chsem.h"
 407              		.file 11 "../../../os/rt/include/chmtx.h"
ARM GAS  /tmp/ccrIVKPR.s 			page 22


 408              		.section	.debug_info,"",%progbits
 409              	.Ldebug_info0:
 410 0000 89090000 		.4byte	0x989
 411 0004 0400     		.2byte	0x4
 412 0006 00000000 		.4byte	.Ldebug_abbrev0
 413 000a 04       		.byte	0x4
 414 000b 01       		.uleb128 0x1
 415 000c 17020000 		.4byte	.LASF121
 416 0010 01       		.byte	0x1
 417 0011 37000000 		.4byte	.LASF122
 418 0015 38050000 		.4byte	.LASF123
 419 0019 00000000 		.4byte	.Ldebug_ranges0+0
 420 001d 00000000 		.4byte	0
 421 0021 00000000 		.4byte	.Ldebug_line0
 422 0025 02       		.uleb128 0x2
 423 0026 04       		.byte	0x4
 424 0027 05       		.byte	0x5
 425 0028 696E7400 		.ascii	"int\000"
 426 002c 03       		.uleb128 0x3
 427 002d 04       		.byte	0x4
 428 002e 07       		.byte	0x7
 429 002f 84000000 		.4byte	.LASF0
 430 0033 03       		.uleb128 0x3
 431 0034 01       		.byte	0x1
 432 0035 06       		.byte	0x6
 433 0036 F6040000 		.4byte	.LASF1
 434 003a 04       		.uleb128 0x4
 435 003b F7020000 		.4byte	.LASF4
 436 003f 02       		.byte	0x2
 437 0040 2A       		.byte	0x2a
 438 0041 45000000 		.4byte	0x45
 439 0045 03       		.uleb128 0x3
 440 0046 01       		.byte	0x1
 441 0047 08       		.byte	0x8
 442 0048 9B040000 		.4byte	.LASF2
 443 004c 03       		.uleb128 0x3
 444 004d 02       		.byte	0x2
 445 004e 05       		.byte	0x5
 446 004f DF030000 		.4byte	.LASF3
 447 0053 04       		.uleb128 0x4
 448 0054 72030000 		.4byte	.LASF5
 449 0058 02       		.byte	0x2
 450 0059 36       		.byte	0x36
 451 005a 5E000000 		.4byte	0x5e
 452 005e 03       		.uleb128 0x3
 453 005f 02       		.byte	0x2
 454 0060 07       		.byte	0x7
 455 0061 08050000 		.4byte	.LASF6
 456 0065 04       		.uleb128 0x4
 457 0066 85040000 		.4byte	.LASF7
 458 006a 02       		.byte	0x2
 459 006b 4F       		.byte	0x4f
 460 006c 70000000 		.4byte	0x70
 461 0070 03       		.uleb128 0x3
 462 0071 04       		.byte	0x4
 463 0072 05       		.byte	0x5
 464 0073 E9030000 		.4byte	.LASF8
ARM GAS  /tmp/ccrIVKPR.s 			page 23


 465 0077 04       		.uleb128 0x4
 466 0078 2D010000 		.4byte	.LASF9
 467 007c 02       		.byte	0x2
 468 007d 50       		.byte	0x50
 469 007e 82000000 		.4byte	0x82
 470 0082 03       		.uleb128 0x3
 471 0083 04       		.byte	0x4
 472 0084 07       		.byte	0x7
 473 0085 60040000 		.4byte	.LASF10
 474 0089 03       		.uleb128 0x3
 475 008a 08       		.byte	0x8
 476 008b 05       		.byte	0x5
 477 008c 21030000 		.4byte	.LASF11
 478 0090 04       		.uleb128 0x4
 479 0091 1E040000 		.4byte	.LASF12
 480 0095 02       		.byte	0x2
 481 0096 78       		.byte	0x78
 482 0097 9B000000 		.4byte	0x9b
 483 009b 03       		.uleb128 0x3
 484 009c 08       		.byte	0x8
 485 009d 07       		.byte	0x7
 486 009e 83010000 		.4byte	.LASF13
 487 00a2 04       		.uleb128 0x4
 488 00a3 80030000 		.4byte	.LASF14
 489 00a7 03       		.byte	0x3
 490 00a8 39       		.byte	0x39
 491 00a9 77000000 		.4byte	0x77
 492 00ad 04       		.uleb128 0x4
 493 00ae 5F030000 		.4byte	.LASF15
 494 00b2 03       		.byte	0x3
 495 00b3 3C       		.byte	0x3c
 496 00b4 3A000000 		.4byte	0x3a
 497 00b8 04       		.uleb128 0x4
 498 00b9 E8020000 		.4byte	.LASF16
 499 00bd 03       		.byte	0x3
 500 00be 3D       		.byte	0x3d
 501 00bf 3A000000 		.4byte	0x3a
 502 00c3 04       		.uleb128 0x4
 503 00c4 58040000 		.4byte	.LASF17
 504 00c8 03       		.byte	0x3
 505 00c9 3E       		.byte	0x3e
 506 00ca 3A000000 		.4byte	0x3a
 507 00ce 04       		.uleb128 0x4
 508 00cf 61010000 		.4byte	.LASF18
 509 00d3 03       		.byte	0x3
 510 00d4 40       		.byte	0x40
 511 00d5 77000000 		.4byte	0x77
 512 00d9 04       		.uleb128 0x4
 513 00da 35030000 		.4byte	.LASF19
 514 00de 03       		.byte	0x3
 515 00df 41       		.byte	0x41
 516 00e0 65000000 		.4byte	0x65
 517 00e4 04       		.uleb128 0x4
 518 00e5 43010000 		.4byte	.LASF20
 519 00e9 03       		.byte	0x3
 520 00ea 43       		.byte	0x43
 521 00eb 77000000 		.4byte	0x77
ARM GAS  /tmp/ccrIVKPR.s 			page 24


 522 00ef 04       		.uleb128 0x4
 523 00f0 9A010000 		.4byte	.LASF21
 524 00f4 03       		.byte	0x3
 525 00f5 45       		.byte	0x45
 526 00f6 65000000 		.4byte	0x65
 527 00fa 04       		.uleb128 0x4
 528 00fb 68000000 		.4byte	.LASF22
 529 00ff 04       		.byte	0x4
 530 0100 35       		.byte	0x35
 531 0101 53000000 		.4byte	0x53
 532 0105 04       		.uleb128 0x4
 533 0106 D5010000 		.4byte	.LASF23
 534 010a 04       		.byte	0x4
 535 010b 3F       		.byte	0x3f
 536 010c 10010000 		.4byte	0x110
 537 0110 05       		.uleb128 0x5
 538 0111 08030000 		.4byte	.LASF41
 539 0115 44       		.byte	0x44
 540 0116 05       		.byte	0x5
 541 0117 9A       		.byte	0x9a
 542 0118 EE010000 		.4byte	0x1ee
 543 011c 06       		.uleb128 0x6
 544 011d 7F040000 		.4byte	.LASF24
 545 0121 05       		.byte	0x5
 546 0122 9B       		.byte	0x9b
 547 0123 23020000 		.4byte	0x223
 548 0127 00       		.byte	0
 549 0128 06       		.uleb128 0x6
 550 0129 BF020000 		.4byte	.LASF25
 551 012d 05       		.byte	0x5
 552 012e 9C       		.byte	0x9c
 553 012f CE000000 		.4byte	0xce
 554 0133 08       		.byte	0x8
 555 0134 07       		.uleb128 0x7
 556 0135 63747800 		.ascii	"ctx\000"
 557 0139 05       		.byte	0x5
 558 013a 9D       		.byte	0x9d
 559 013b E6060000 		.4byte	0x6e6
 560 013f 0C       		.byte	0xc
 561 0140 06       		.uleb128 0x6
 562 0141 95040000 		.4byte	.LASF26
 563 0145 05       		.byte	0x5
 564 0146 9F       		.byte	0x9f
 565 0147 F9010000 		.4byte	0x1f9
 566 014b 10       		.byte	0x10
 567 014c 06       		.uleb128 0x6
 568 014d C7040000 		.4byte	.LASF27
 569 0151 05       		.byte	0x5
 570 0152 A0       		.byte	0xa0
 571 0153 F9010000 		.4byte	0x1f9
 572 0157 14       		.byte	0x14
 573 0158 06       		.uleb128 0x6
 574 0159 40040000 		.4byte	.LASF28
 575 015d 05       		.byte	0x5
 576 015e A7       		.byte	0xa7
 577 015f 6B080000 		.4byte	0x86b
 578 0163 18       		.byte	0x18
ARM GAS  /tmp/ccrIVKPR.s 			page 25


 579 0164 06       		.uleb128 0x6
 580 0165 DC020000 		.4byte	.LASF29
 581 0169 05       		.byte	0x5
 582 016a B0       		.byte	0xb0
 583 016b 7D080000 		.4byte	0x87d
 584 016f 1C       		.byte	0x1c
 585 0170 06       		.uleb128 0x6
 586 0171 D2040000 		.4byte	.LASF30
 587 0175 05       		.byte	0x5
 588 0176 B5       		.byte	0xb5
 589 0177 B8000000 		.4byte	0xb8
 590 017b 20       		.byte	0x20
 591 017c 06       		.uleb128 0x6
 592 017d 62000000 		.4byte	.LASF31
 593 0181 05       		.byte	0x5
 594 0182 B9       		.byte	0xb9
 595 0183 AD000000 		.4byte	0xad
 596 0187 21       		.byte	0x21
 597 0188 06       		.uleb128 0x6
 598 0189 AA000000 		.4byte	.LASF32
 599 018d 05       		.byte	0x5
 600 018e BE       		.byte	0xbe
 601 018f C3000000 		.4byte	0xc3
 602 0193 22       		.byte	0x22
 603 0194 08       		.uleb128 0x8
 604 0195 7500     		.ascii	"u\000"
 605 0197 05       		.byte	0x5
 606 0198 0F01     		.2byte	0x10f
 607 019a A0070000 		.4byte	0x7a0
 608 019e 24       		.byte	0x24
 609 019f 09       		.uleb128 0x9
 610 01a0 A9040000 		.4byte	.LASF33
 611 01a4 05       		.byte	0x5
 612 01a5 1401     		.2byte	0x114
 613 01a7 FF010000 		.4byte	0x1ff
 614 01ab 28       		.byte	0x28
 615 01ac 09       		.uleb128 0x9
 616 01ad FF020000 		.4byte	.LASF34
 617 01b1 05       		.byte	0x5
 618 01b2 1A01     		.2byte	0x11a
 619 01b4 23020000 		.4byte	0x223
 620 01b8 2C       		.byte	0x2c
 621 01b9 09       		.uleb128 0x9
 622 01ba 7B000000 		.4byte	.LASF35
 623 01be 05       		.byte	0x5
 624 01bf 2001     		.2byte	0x120
 625 01c1 E4000000 		.4byte	0xe4
 626 01c5 34       		.byte	0x34
 627 01c6 09       		.uleb128 0x9
 628 01c7 B6010000 		.4byte	.LASF36
 629 01cb 05       		.byte	0x5
 630 01cc 2701     		.2byte	0x127
 631 01ce 65080000 		.4byte	0x865
 632 01d2 38       		.byte	0x38
 633 01d3 09       		.uleb128 0x9
 634 01d4 72000000 		.4byte	.LASF37
 635 01d8 05       		.byte	0x5
ARM GAS  /tmp/ccrIVKPR.s 			page 26


 636 01d9 2B01     		.2byte	0x12b
 637 01db CE000000 		.4byte	0xce
 638 01df 3C       		.byte	0x3c
 639 01e0 09       		.uleb128 0x9
 640 01e1 91050000 		.4byte	.LASF38
 641 01e5 05       		.byte	0x5
 642 01e6 3201     		.2byte	0x132
 643 01e8 D6020000 		.4byte	0x2d6
 644 01ec 40       		.byte	0x40
 645 01ed 00       		.byte	0
 646 01ee 04       		.uleb128 0x4
 647 01ef C9020000 		.4byte	.LASF39
 648 01f3 04       		.byte	0x4
 649 01f4 44       		.byte	0x44
 650 01f5 F9010000 		.4byte	0x1f9
 651 01f9 0A       		.uleb128 0xa
 652 01fa 04       		.byte	0x4
 653 01fb 05010000 		.4byte	0x105
 654 01ff 04       		.uleb128 0x4
 655 0200 96000000 		.4byte	.LASF40
 656 0204 04       		.byte	0x4
 657 0205 49       		.byte	0x49
 658 0206 0A020000 		.4byte	0x20a
 659 020a 05       		.uleb128 0x5
 660 020b 00000000 		.4byte	.LASF42
 661 020f 04       		.byte	0x4
 662 0210 05       		.byte	0x5
 663 0211 88       		.byte	0x88
 664 0212 23020000 		.4byte	0x223
 665 0216 06       		.uleb128 0x6
 666 0217 91000000 		.4byte	.LASF43
 667 021b 05       		.byte	0x5
 668 021c 89       		.byte	0x89
 669 021d F9010000 		.4byte	0x1f9
 670 0221 00       		.byte	0
 671 0222 00       		.byte	0
 672 0223 04       		.uleb128 0x4
 673 0224 A6010000 		.4byte	.LASF44
 674 0228 04       		.byte	0x4
 675 0229 50       		.byte	0x50
 676 022a 2E020000 		.4byte	0x22e
 677 022e 05       		.uleb128 0x5
 678 022f 03010000 		.4byte	.LASF45
 679 0233 08       		.byte	0x8
 680 0234 05       		.byte	0x5
 681 0235 8F       		.byte	0x8f
 682 0236 53020000 		.4byte	0x253
 683 023a 06       		.uleb128 0x6
 684 023b 91000000 		.4byte	.LASF43
 685 023f 05       		.byte	0x5
 686 0240 90       		.byte	0x90
 687 0241 F9010000 		.4byte	0x1f9
 688 0245 00       		.byte	0
 689 0246 06       		.uleb128 0x6
 690 0247 FE000000 		.4byte	.LASF46
 691 024b 05       		.byte	0x5
 692 024c 91       		.byte	0x91
ARM GAS  /tmp/ccrIVKPR.s 			page 27


 693 024d F9010000 		.4byte	0x1f9
 694 0251 04       		.byte	0x4
 695 0252 00       		.byte	0
 696 0253 04       		.uleb128 0x4
 697 0254 72040000 		.4byte	.LASF47
 698 0258 04       		.byte	0x4
 699 0259 57       		.byte	0x57
 700 025a 5E020000 		.4byte	0x25e
 701 025e 0B       		.uleb128 0xb
 702 025f D2000000 		.4byte	.LASF48
 703 0263 1C       		.byte	0x1c
 704 0264 05       		.byte	0x5
 705 0265 6A01     		.2byte	0x16a
 706 0267 BA020000 		.4byte	0x2ba
 707 026b 09       		.uleb128 0x9
 708 026c 7F040000 		.4byte	.LASF24
 709 0270 05       		.byte	0x5
 710 0271 6B01     		.2byte	0x16b
 711 0273 23020000 		.4byte	0x223
 712 0277 00       		.byte	0
 713 0278 09       		.uleb128 0x9
 714 0279 BF020000 		.4byte	.LASF25
 715 027d 05       		.byte	0x5
 716 027e 6C01     		.2byte	0x16c
 717 0280 CE000000 		.4byte	0xce
 718 0284 08       		.byte	0x8
 719 0285 08       		.uleb128 0x8
 720 0286 63747800 		.ascii	"ctx\000"
 721 028a 05       		.byte	0x5
 722 028b 6E01     		.2byte	0x16e
 723 028d E6060000 		.4byte	0x6e6
 724 0291 0C       		.byte	0xc
 725 0292 09       		.uleb128 0x9
 726 0293 95040000 		.4byte	.LASF26
 727 0297 05       		.byte	0x5
 728 0298 7101     		.2byte	0x171
 729 029a F9010000 		.4byte	0x1f9
 730 029e 10       		.byte	0x10
 731 029f 09       		.uleb128 0x9
 732 02a0 C7040000 		.4byte	.LASF27
 733 02a4 05       		.byte	0x5
 734 02a5 7201     		.2byte	0x172
 735 02a7 F9010000 		.4byte	0x1f9
 736 02ab 14       		.byte	0x14
 737 02ac 09       		.uleb128 0x9
 738 02ad 26050000 		.4byte	.LASF49
 739 02b1 05       		.byte	0x5
 740 02b2 7501     		.2byte	0x175
 741 02b4 F9010000 		.4byte	0x1f9
 742 02b8 18       		.byte	0x18
 743 02b9 00       		.byte	0
 744 02ba 04       		.uleb128 0x4
 745 02bb 14010000 		.4byte	.LASF50
 746 02bf 04       		.byte	0x4
 747 02c0 5C       		.byte	0x5c
 748 02c1 C5020000 		.4byte	0x2c5
 749 02c5 0A       		.uleb128 0xa
ARM GAS  /tmp/ccrIVKPR.s 			page 28


 750 02c6 04       		.byte	0x4
 751 02c7 CB020000 		.4byte	0x2cb
 752 02cb 0C       		.uleb128 0xc
 753 02cc D6020000 		.4byte	0x2d6
 754 02d0 0D       		.uleb128 0xd
 755 02d1 D6020000 		.4byte	0x2d6
 756 02d5 00       		.byte	0
 757 02d6 0E       		.uleb128 0xe
 758 02d7 04       		.byte	0x4
 759 02d8 04       		.uleb128 0x4
 760 02d9 40030000 		.4byte	.LASF51
 761 02dd 04       		.byte	0x4
 762 02de 61       		.byte	0x61
 763 02df E3020000 		.4byte	0x2e3
 764 02e3 0B       		.uleb128 0xb
 765 02e4 72010000 		.4byte	.LASF52
 766 02e8 14       		.byte	0x14
 767 02e9 05       		.byte	0x5
 768 02ea 4501     		.2byte	0x145
 769 02ec 32030000 		.4byte	0x332
 770 02f0 09       		.uleb128 0x9
 771 02f1 91000000 		.4byte	.LASF43
 772 02f5 05       		.byte	0x5
 773 02f6 4601     		.2byte	0x146
 774 02f8 83080000 		.4byte	0x883
 775 02fc 00       		.byte	0
 776 02fd 09       		.uleb128 0x9
 777 02fe FE000000 		.4byte	.LASF46
 778 0302 05       		.byte	0x5
 779 0303 4701     		.2byte	0x147
 780 0305 83080000 		.4byte	0x883
 781 0309 04       		.byte	0x4
 782 030a 09       		.uleb128 0x9
 783 030b 02050000 		.4byte	.LASF53
 784 030f 05       		.byte	0x5
 785 0310 4801     		.2byte	0x148
 786 0312 FA000000 		.4byte	0xfa
 787 0316 08       		.byte	0x8
 788 0317 09       		.uleb128 0x9
 789 0318 E0000000 		.4byte	.LASF54
 790 031c 05       		.byte	0x5
 791 031d 4901     		.2byte	0x149
 792 031f BA020000 		.4byte	0x2ba
 793 0323 0C       		.byte	0xc
 794 0324 08       		.uleb128 0x8
 795 0325 70617200 		.ascii	"par\000"
 796 0329 05       		.byte	0x5
 797 032a 4B01     		.2byte	0x14b
 798 032c D6020000 		.4byte	0x2d6
 799 0330 10       		.byte	0x10
 800 0331 00       		.byte	0
 801 0332 04       		.uleb128 0x4
 802 0333 B1040000 		.4byte	.LASF55
 803 0337 04       		.byte	0x4
 804 0338 66       		.byte	0x66
 805 0339 3D030000 		.4byte	0x33d
 806 033d 0B       		.uleb128 0xb
ARM GAS  /tmp/ccrIVKPR.s 			page 29


 807 033e BE010000 		.4byte	.LASF56
 808 0342 0C       		.byte	0xc
 809 0343 05       		.byte	0x5
 810 0344 5501     		.2byte	0x155
 811 0346 7F030000 		.4byte	0x37f
 812 034a 09       		.uleb128 0x9
 813 034b 91000000 		.4byte	.LASF43
 814 034f 05       		.byte	0x5
 815 0350 5601     		.2byte	0x156
 816 0352 83080000 		.4byte	0x883
 817 0356 00       		.byte	0
 818 0357 09       		.uleb128 0x9
 819 0358 FE000000 		.4byte	.LASF46
 820 035c 05       		.byte	0x5
 821 035d 5801     		.2byte	0x158
 822 035f 83080000 		.4byte	0x883
 823 0363 04       		.byte	0x4
 824 0364 09       		.uleb128 0x9
 825 0365 02050000 		.4byte	.LASF53
 826 0369 05       		.byte	0x5
 827 036a 5A01     		.2byte	0x15a
 828 036c FA000000 		.4byte	0xfa
 829 0370 08       		.byte	0x8
 830 0371 09       		.uleb128 0x9
 831 0372 15040000 		.4byte	.LASF57
 832 0376 05       		.byte	0x5
 833 0377 6201     		.2byte	0x162
 834 0379 FA000000 		.4byte	0xfa
 835 037d 0A       		.byte	0xa
 836 037e 00       		.byte	0
 837 037f 04       		.uleb128 0x4
 838 0380 12030000 		.4byte	.LASF58
 839 0384 04       		.byte	0x4
 840 0385 6B       		.byte	0x6b
 841 0386 8A030000 		.4byte	0x38a
 842 038a 0B       		.uleb128 0xb
 843 038b 1D010000 		.4byte	.LASF59
 844 038f 04       		.byte	0x4
 845 0390 05       		.byte	0x5
 846 0391 7C01     		.2byte	0x17c
 847 0393 A5030000 		.4byte	0x3a5
 848 0397 09       		.uleb128 0x9
 849 0398 55030000 		.4byte	.LASF60
 850 039c 05       		.byte	0x5
 851 039d 8401     		.2byte	0x184
 852 039f 89080000 		.4byte	0x889
 853 03a3 00       		.byte	0
 854 03a4 00       		.byte	0
 855 03a5 04       		.uleb128 0x4
 856 03a6 DD040000 		.4byte	.LASF61
 857 03aa 04       		.byte	0x4
 858 03ab 70       		.byte	0x70
 859 03ac B0030000 		.4byte	0x3b0
 860 03b0 0B       		.uleb128 0xb
 861 03b1 0B040000 		.4byte	.LASF62
 862 03b5 74       		.byte	0x74
 863 03b6 05       		.byte	0x5
ARM GAS  /tmp/ccrIVKPR.s 			page 30


 864 03b7 9C01     		.2byte	0x19c
 865 03b9 FE030000 		.4byte	0x3fe
 866 03bd 09       		.uleb128 0x9
 867 03be 27040000 		.4byte	.LASF63
 868 03c2 05       		.byte	0x5
 869 03c3 A001     		.2byte	0x1a0
 870 03c5 53020000 		.4byte	0x253
 871 03c9 00       		.byte	0
 872 03ca 09       		.uleb128 0x9
 873 03cb BE000000 		.4byte	.LASF64
 874 03cf 05       		.byte	0x5
 875 03d0 A401     		.2byte	0x1a4
 876 03d2 32030000 		.4byte	0x332
 877 03d6 1C       		.byte	0x1c
 878 03d7 08       		.uleb128 0x8
 879 03d8 64626700 		.ascii	"dbg\000"
 880 03dc 05       		.byte	0x5
 881 03dd A801     		.2byte	0x1a8
 882 03df 7F030000 		.4byte	0x37f
 883 03e3 28       		.byte	0x28
 884 03e4 09       		.uleb128 0x9
 885 03e5 67030000 		.4byte	.LASF65
 886 03e9 05       		.byte	0x5
 887 03ea AC01     		.2byte	0x1ac
 888 03ec 05010000 		.4byte	0x105
 889 03f0 2C       		.byte	0x2c
 890 03f1 08       		.uleb128 0x8
 891 03f2 746D00   		.ascii	"tm\000"
 892 03f5 05       		.byte	0x5
 893 03f6 B101     		.2byte	0x1b1
 894 03f8 95070000 		.4byte	0x795
 895 03fc 70       		.byte	0x70
 896 03fd 00       		.byte	0
 897 03fe 0F       		.uleb128 0xf
 898 03ff 040E     		.2byte	0xe04
 899 0401 06       		.byte	0x6
 900 0402 7F01     		.2byte	0x17f
 901 0404 BA040000 		.4byte	0x4ba
 902 0408 09       		.uleb128 0x9
 903 0409 4F010000 		.4byte	.LASF66
 904 040d 06       		.byte	0x6
 905 040e 8101     		.2byte	0x181
 906 0410 D1040000 		.4byte	0x4d1
 907 0414 00       		.byte	0
 908 0415 09       		.uleb128 0x9
 909 0416 AD030000 		.4byte	.LASF67
 910 041a 06       		.byte	0x6
 911 041b 8201     		.2byte	0x182
 912 041d D6040000 		.4byte	0x4d6
 913 0421 20       		.byte	0x20
 914 0422 09       		.uleb128 0x9
 915 0423 CD040000 		.4byte	.LASF68
 916 0427 06       		.byte	0x6
 917 0428 8301     		.2byte	0x183
 918 042a E6040000 		.4byte	0x4e6
 919 042e 80       		.byte	0x80
 920 042f 09       		.uleb128 0x9
ARM GAS  /tmp/ccrIVKPR.s 			page 31


 921 0430 69010000 		.4byte	.LASF69
 922 0434 06       		.byte	0x6
 923 0435 8401     		.2byte	0x184
 924 0437 D6040000 		.4byte	0x4d6
 925 043b A0       		.byte	0xa0
 926 043c 10       		.uleb128 0x10
 927 043d 2E050000 		.4byte	.LASF70
 928 0441 06       		.byte	0x6
 929 0442 8501     		.2byte	0x185
 930 0444 EB040000 		.4byte	0x4eb
 931 0448 0001     		.2byte	0x100
 932 044a 10       		.uleb128 0x10
 933 044b B7030000 		.4byte	.LASF71
 934 044f 06       		.byte	0x6
 935 0450 8601     		.2byte	0x186
 936 0452 D6040000 		.4byte	0x4d6
 937 0456 2001     		.2byte	0x120
 938 0458 10       		.uleb128 0x10
 939 0459 50030000 		.4byte	.LASF72
 940 045d 06       		.byte	0x6
 941 045e 8701     		.2byte	0x187
 942 0460 F0040000 		.4byte	0x4f0
 943 0464 8001     		.2byte	0x180
 944 0466 10       		.uleb128 0x10
 945 0467 C1030000 		.4byte	.LASF73
 946 046b 06       		.byte	0x6
 947 046c 8801     		.2byte	0x188
 948 046e D6040000 		.4byte	0x4d6
 949 0472 A001     		.2byte	0x1a0
 950 0474 10       		.uleb128 0x10
 951 0475 D8040000 		.4byte	.LASF74
 952 0479 06       		.byte	0x6
 953 047a 8901     		.2byte	0x189
 954 047c F5040000 		.4byte	0x4f5
 955 0480 0002     		.2byte	0x200
 956 0482 10       		.uleb128 0x10
 957 0483 CB030000 		.4byte	.LASF75
 958 0487 06       		.byte	0x6
 959 0488 8A01     		.2byte	0x18a
 960 048a FA040000 		.4byte	0x4fa
 961 048e 2002     		.2byte	0x220
 962 0490 11       		.uleb128 0x11
 963 0491 495000   		.ascii	"IP\000"
 964 0494 06       		.byte	0x6
 965 0495 8B01     		.2byte	0x18b
 966 0497 1A050000 		.4byte	0x51a
 967 049b 0003     		.2byte	0x300
 968 049d 10       		.uleb128 0x10
 969 049e D5030000 		.4byte	.LASF76
 970 04a2 06       		.byte	0x6
 971 04a3 8C01     		.2byte	0x18c
 972 04a5 1F050000 		.4byte	0x51f
 973 04a9 F003     		.2byte	0x3f0
 974 04ab 10       		.uleb128 0x10
 975 04ac 7B030000 		.4byte	.LASF77
 976 04b0 06       		.byte	0x6
 977 04b1 8D01     		.2byte	0x18d
ARM GAS  /tmp/ccrIVKPR.s 			page 32


 978 04b3 30050000 		.4byte	0x530
 979 04b7 000E     		.2byte	0xe00
 980 04b9 00       		.byte	0
 981 04ba 12       		.uleb128 0x12
 982 04bb 77000000 		.4byte	0x77
 983 04bf CA040000 		.4byte	0x4ca
 984 04c3 13       		.uleb128 0x13
 985 04c4 CA040000 		.4byte	0x4ca
 986 04c8 07       		.byte	0x7
 987 04c9 00       		.byte	0
 988 04ca 03       		.uleb128 0x3
 989 04cb 04       		.byte	0x4
 990 04cc 07       		.byte	0x7
 991 04cd 4F040000 		.4byte	.LASF78
 992 04d1 14       		.uleb128 0x14
 993 04d2 BA040000 		.4byte	0x4ba
 994 04d6 12       		.uleb128 0x12
 995 04d7 77000000 		.4byte	0x77
 996 04db E6040000 		.4byte	0x4e6
 997 04df 13       		.uleb128 0x13
 998 04e0 CA040000 		.4byte	0x4ca
 999 04e4 17       		.byte	0x17
 1000 04e5 00       		.byte	0
 1001 04e6 14       		.uleb128 0x14
 1002 04e7 BA040000 		.4byte	0x4ba
 1003 04eb 14       		.uleb128 0x14
 1004 04ec BA040000 		.4byte	0x4ba
 1005 04f0 14       		.uleb128 0x14
 1006 04f1 BA040000 		.4byte	0x4ba
 1007 04f5 14       		.uleb128 0x14
 1008 04f6 BA040000 		.4byte	0x4ba
 1009 04fa 12       		.uleb128 0x12
 1010 04fb 77000000 		.4byte	0x77
 1011 04ff 0A050000 		.4byte	0x50a
 1012 0503 13       		.uleb128 0x13
 1013 0504 CA040000 		.4byte	0x4ca
 1014 0508 37       		.byte	0x37
 1015 0509 00       		.byte	0
 1016 050a 12       		.uleb128 0x12
 1017 050b 3A000000 		.4byte	0x3a
 1018 050f 1A050000 		.4byte	0x51a
 1019 0513 13       		.uleb128 0x13
 1020 0514 CA040000 		.4byte	0x4ca
 1021 0518 EF       		.byte	0xef
 1022 0519 00       		.byte	0
 1023 051a 14       		.uleb128 0x14
 1024 051b 0A050000 		.4byte	0x50a
 1025 051f 12       		.uleb128 0x12
 1026 0520 77000000 		.4byte	0x77
 1027 0524 30050000 		.4byte	0x530
 1028 0528 15       		.uleb128 0x15
 1029 0529 CA040000 		.4byte	0x4ca
 1030 052d 8302     		.2byte	0x283
 1031 052f 00       		.byte	0
 1032 0530 14       		.uleb128 0x14
 1033 0531 77000000 		.4byte	0x77
 1034 0535 16       		.uleb128 0x16
ARM GAS  /tmp/ccrIVKPR.s 			page 33


 1035 0536 2D040000 		.4byte	.LASF79
 1036 053a 06       		.byte	0x6
 1037 053b 8E01     		.2byte	0x18e
 1038 053d FE030000 		.4byte	0x3fe
 1039 0541 17       		.uleb128 0x17
 1040 0542 8C       		.byte	0x8c
 1041 0543 06       		.byte	0x6
 1042 0544 A101     		.2byte	0x1a1
 1043 0546 5C060000 		.4byte	0x65c
 1044 054a 09       		.uleb128 0x9
 1045 054b EC010000 		.4byte	.LASF80
 1046 054f 06       		.byte	0x6
 1047 0550 A301     		.2byte	0x1a3
 1048 0552 5C060000 		.4byte	0x65c
 1049 0556 00       		.byte	0
 1050 0557 09       		.uleb128 0x9
 1051 0558 E3020000 		.4byte	.LASF81
 1052 055c 06       		.byte	0x6
 1053 055d A401     		.2byte	0x1a4
 1054 055f 30050000 		.4byte	0x530
 1055 0563 04       		.byte	0x4
 1056 0564 09       		.uleb128 0x9
 1057 0565 4A040000 		.4byte	.LASF82
 1058 0569 06       		.byte	0x6
 1059 056a A501     		.2byte	0x1a5
 1060 056c 30050000 		.4byte	0x530
 1061 0570 08       		.byte	0x8
 1062 0571 09       		.uleb128 0x9
 1063 0572 F1020000 		.4byte	.LASF83
 1064 0576 06       		.byte	0x6
 1065 0577 A601     		.2byte	0x1a6
 1066 0579 30050000 		.4byte	0x530
 1067 057d 0C       		.byte	0xc
 1068 057e 08       		.uleb128 0x8
 1069 057f 53435200 		.ascii	"SCR\000"
 1070 0583 06       		.byte	0x6
 1071 0584 A701     		.2byte	0x1a7
 1072 0586 30050000 		.4byte	0x530
 1073 058a 10       		.byte	0x10
 1074 058b 08       		.uleb128 0x8
 1075 058c 43435200 		.ascii	"CCR\000"
 1076 0590 06       		.byte	0x6
 1077 0591 A801     		.2byte	0x1a8
 1078 0593 30050000 		.4byte	0x530
 1079 0597 14       		.byte	0x14
 1080 0598 08       		.uleb128 0x8
 1081 0599 53485000 		.ascii	"SHP\000"
 1082 059d 06       		.byte	0x6
 1083 059e A901     		.2byte	0x1a9
 1084 05a0 71060000 		.4byte	0x671
 1085 05a4 18       		.byte	0x18
 1086 05a5 09       		.uleb128 0x9
 1087 05a6 2F030000 		.4byte	.LASF84
 1088 05aa 06       		.byte	0x6
 1089 05ab AA01     		.2byte	0x1aa
 1090 05ad 30050000 		.4byte	0x530
 1091 05b1 24       		.byte	0x24
ARM GAS  /tmp/ccrIVKPR.s 			page 34


 1092 05b2 09       		.uleb128 0x9
 1093 05b3 3B030000 		.4byte	.LASF85
 1094 05b7 06       		.byte	0x6
 1095 05b8 AB01     		.2byte	0x1ab
 1096 05ba 30050000 		.4byte	0x530
 1097 05be 28       		.byte	0x28
 1098 05bf 09       		.uleb128 0x9
 1099 05c0 BA020000 		.4byte	.LASF86
 1100 05c4 06       		.byte	0x6
 1101 05c5 AC01     		.2byte	0x1ac
 1102 05c7 30050000 		.4byte	0x530
 1103 05cb 2C       		.byte	0x2c
 1104 05cc 09       		.uleb128 0x9
 1105 05cd A5000000 		.4byte	.LASF87
 1106 05d1 06       		.byte	0x6
 1107 05d2 AD01     		.2byte	0x1ad
 1108 05d4 30050000 		.4byte	0x530
 1109 05d8 30       		.byte	0x30
 1110 05d9 09       		.uleb128 0x9
 1111 05da 99030000 		.4byte	.LASF88
 1112 05de 06       		.byte	0x6
 1113 05df AE01     		.2byte	0x1ae
 1114 05e1 30050000 		.4byte	0x530
 1115 05e5 34       		.byte	0x34
 1116 05e6 09       		.uleb128 0x9
 1117 05e7 45040000 		.4byte	.LASF89
 1118 05eb 06       		.byte	0x6
 1119 05ec AF01     		.2byte	0x1af
 1120 05ee 30050000 		.4byte	0x530
 1121 05f2 38       		.byte	0x38
 1122 05f3 09       		.uleb128 0x9
 1123 05f4 01020000 		.4byte	.LASF90
 1124 05f8 06       		.byte	0x6
 1125 05f9 B001     		.2byte	0x1b0
 1126 05fb 30050000 		.4byte	0x530
 1127 05ff 3C       		.byte	0x3c
 1128 0600 08       		.uleb128 0x8
 1129 0601 50465200 		.ascii	"PFR\000"
 1130 0605 06       		.byte	0x6
 1131 0606 B101     		.2byte	0x1b1
 1132 0608 86060000 		.4byte	0x686
 1133 060c 40       		.byte	0x40
 1134 060d 08       		.uleb128 0x8
 1135 060e 44465200 		.ascii	"DFR\000"
 1136 0612 06       		.byte	0x6
 1137 0613 B201     		.2byte	0x1b2
 1138 0615 5C060000 		.4byte	0x65c
 1139 0619 48       		.byte	0x48
 1140 061a 08       		.uleb128 0x8
 1141 061b 41445200 		.ascii	"ADR\000"
 1142 061f 06       		.byte	0x6
 1143 0620 B301     		.2byte	0x1b3
 1144 0622 5C060000 		.4byte	0x65c
 1145 0626 4C       		.byte	0x4c
 1146 0627 09       		.uleb128 0x9
 1147 0628 3E010000 		.4byte	.LASF91
 1148 062c 06       		.byte	0x6
ARM GAS  /tmp/ccrIVKPR.s 			page 35


 1149 062d B401     		.2byte	0x1b4
 1150 062f A0060000 		.4byte	0x6a0
 1151 0633 50       		.byte	0x50
 1152 0634 09       		.uleb128 0x9
 1153 0635 33050000 		.4byte	.LASF92
 1154 0639 06       		.byte	0x6
 1155 063a B501     		.2byte	0x1b5
 1156 063c BA060000 		.4byte	0x6ba
 1157 0640 60       		.byte	0x60
 1158 0641 09       		.uleb128 0x9
 1159 0642 AD030000 		.4byte	.LASF67
 1160 0646 06       		.byte	0x6
 1161 0647 B601     		.2byte	0x1b6
 1162 0649 AA060000 		.4byte	0x6aa
 1163 064d 74       		.byte	0x74
 1164 064e 09       		.uleb128 0x9
 1165 064f 10000000 		.4byte	.LASF93
 1166 0653 06       		.byte	0x6
 1167 0654 B701     		.2byte	0x1b7
 1168 0656 30050000 		.4byte	0x530
 1169 065a 88       		.byte	0x88
 1170 065b 00       		.byte	0
 1171 065c 18       		.uleb128 0x18
 1172 065d 30050000 		.4byte	0x530
 1173 0661 12       		.uleb128 0x12
 1174 0662 3A000000 		.4byte	0x3a
 1175 0666 71060000 		.4byte	0x671
 1176 066a 13       		.uleb128 0x13
 1177 066b CA040000 		.4byte	0x4ca
 1178 066f 0B       		.byte	0xb
 1179 0670 00       		.byte	0
 1180 0671 14       		.uleb128 0x14
 1181 0672 61060000 		.4byte	0x661
 1182 0676 12       		.uleb128 0x12
 1183 0677 77000000 		.4byte	0x77
 1184 067b 86060000 		.4byte	0x686
 1185 067f 13       		.uleb128 0x13
 1186 0680 CA040000 		.4byte	0x4ca
 1187 0684 01       		.byte	0x1
 1188 0685 00       		.byte	0
 1189 0686 18       		.uleb128 0x18
 1190 0687 8B060000 		.4byte	0x68b
 1191 068b 14       		.uleb128 0x14
 1192 068c 76060000 		.4byte	0x676
 1193 0690 12       		.uleb128 0x12
 1194 0691 77000000 		.4byte	0x77
 1195 0695 A0060000 		.4byte	0x6a0
 1196 0699 13       		.uleb128 0x13
 1197 069a CA040000 		.4byte	0x4ca
 1198 069e 03       		.byte	0x3
 1199 069f 00       		.byte	0
 1200 06a0 18       		.uleb128 0x18
 1201 06a1 A5060000 		.4byte	0x6a5
 1202 06a5 14       		.uleb128 0x14
 1203 06a6 90060000 		.4byte	0x690
 1204 06aa 12       		.uleb128 0x12
 1205 06ab 77000000 		.4byte	0x77
ARM GAS  /tmp/ccrIVKPR.s 			page 36


 1206 06af BA060000 		.4byte	0x6ba
 1207 06b3 13       		.uleb128 0x13
 1208 06b4 CA040000 		.4byte	0x4ca
 1209 06b8 04       		.byte	0x4
 1210 06b9 00       		.byte	0
 1211 06ba 18       		.uleb128 0x18
 1212 06bb BF060000 		.4byte	0x6bf
 1213 06bf 14       		.uleb128 0x14
 1214 06c0 AA060000 		.4byte	0x6aa
 1215 06c4 16       		.uleb128 0x16
 1216 06c5 37040000 		.4byte	.LASF94
 1217 06c9 06       		.byte	0x6
 1218 06ca B801     		.2byte	0x1b8
 1219 06cc 41050000 		.4byte	0x541
 1220 06d0 04       		.uleb128 0x4
 1221 06d1 2E000000 		.4byte	.LASF95
 1222 06d5 07       		.byte	0x7
 1223 06d6 65       		.byte	0x65
 1224 06d7 D6020000 		.4byte	0x2d6
 1225 06db 04       		.uleb128 0x4
 1226 06dc 1B050000 		.4byte	.LASF96
 1227 06e0 07       		.byte	0x7
 1228 06e1 6D       		.byte	0x6d
 1229 06e2 90000000 		.4byte	0x90
 1230 06e6 05       		.uleb128 0x5
 1231 06e7 C5000000 		.4byte	.LASF97
 1232 06eb 04       		.byte	0x4
 1233 06ec 07       		.byte	0x7
 1234 06ed 89       		.byte	0x89
 1235 06ee FE060000 		.4byte	0x6fe
 1236 06f2 07       		.uleb128 0x7
 1237 06f3 737000   		.ascii	"sp\000"
 1238 06f6 07       		.byte	0x7
 1239 06f7 8A       		.byte	0x8a
 1240 06f8 7A070000 		.4byte	0x77a
 1241 06fc 00       		.byte	0
 1242 06fd 00       		.byte	0
 1243 06fe 0B       		.uleb128 0xb
 1244 06ff F2030000 		.4byte	.LASF98
 1245 0703 24       		.byte	0x24
 1246 0704 08       		.byte	0x8
 1247 0705 5901     		.2byte	0x159
 1248 0707 7A070000 		.4byte	0x77a
 1249 070b 08       		.uleb128 0x8
 1250 070c 723400   		.ascii	"r4\000"
 1251 070f 08       		.byte	0x8
 1252 0710 6C01     		.2byte	0x16c
 1253 0712 D0060000 		.4byte	0x6d0
 1254 0716 00       		.byte	0
 1255 0717 08       		.uleb128 0x8
 1256 0718 723500   		.ascii	"r5\000"
 1257 071b 08       		.byte	0x8
 1258 071c 6D01     		.2byte	0x16d
 1259 071e D0060000 		.4byte	0x6d0
 1260 0722 04       		.byte	0x4
 1261 0723 08       		.uleb128 0x8
 1262 0724 723600   		.ascii	"r6\000"
ARM GAS  /tmp/ccrIVKPR.s 			page 37


 1263 0727 08       		.byte	0x8
 1264 0728 6E01     		.2byte	0x16e
 1265 072a D0060000 		.4byte	0x6d0
 1266 072e 08       		.byte	0x8
 1267 072f 08       		.uleb128 0x8
 1268 0730 723700   		.ascii	"r7\000"
 1269 0733 08       		.byte	0x8
 1270 0734 6F01     		.2byte	0x16f
 1271 0736 D0060000 		.4byte	0x6d0
 1272 073a 0C       		.byte	0xc
 1273 073b 08       		.uleb128 0x8
 1274 073c 723800   		.ascii	"r8\000"
 1275 073f 08       		.byte	0x8
 1276 0740 7001     		.2byte	0x170
 1277 0742 D0060000 		.4byte	0x6d0
 1278 0746 10       		.byte	0x10
 1279 0747 08       		.uleb128 0x8
 1280 0748 723900   		.ascii	"r9\000"
 1281 074b 08       		.byte	0x8
 1282 074c 7101     		.2byte	0x171
 1283 074e D0060000 		.4byte	0x6d0
 1284 0752 14       		.byte	0x14
 1285 0753 08       		.uleb128 0x8
 1286 0754 72313000 		.ascii	"r10\000"
 1287 0758 08       		.byte	0x8
 1288 0759 7201     		.2byte	0x172
 1289 075b D0060000 		.4byte	0x6d0
 1290 075f 18       		.byte	0x18
 1291 0760 08       		.uleb128 0x8
 1292 0761 72313100 		.ascii	"r11\000"
 1293 0765 08       		.byte	0x8
 1294 0766 7301     		.2byte	0x173
 1295 0768 D0060000 		.4byte	0x6d0
 1296 076c 1C       		.byte	0x1c
 1297 076d 08       		.uleb128 0x8
 1298 076e 6C7200   		.ascii	"lr\000"
 1299 0771 08       		.byte	0x8
 1300 0772 7401     		.2byte	0x174
 1301 0774 D0060000 		.4byte	0x6d0
 1302 0778 20       		.byte	0x20
 1303 0779 00       		.byte	0
 1304 077a 0A       		.uleb128 0xa
 1305 077b 04       		.byte	0x4
 1306 077c FE060000 		.4byte	0x6fe
 1307 0780 19       		.uleb128 0x19
 1308 0781 04       		.byte	0x4
 1309 0782 09       		.byte	0x9
 1310 0783 38       		.byte	0x38
 1311 0784 95070000 		.4byte	0x795
 1312 0788 06       		.uleb128 0x6
 1313 0789 E5010000 		.4byte	.LASF99
 1314 078d 09       		.byte	0x9
 1315 078e 3C       		.byte	0x3c
 1316 078f A2000000 		.4byte	0xa2
 1317 0793 00       		.byte	0
 1318 0794 00       		.byte	0
 1319 0795 04       		.uleb128 0x4
ARM GAS  /tmp/ccrIVKPR.s 			page 38


 1320 0796 1D000000 		.4byte	.LASF100
 1321 079a 09       		.byte	0x9
 1322 079b 3D       		.byte	0x3d
 1323 079c 80070000 		.4byte	0x780
 1324 07a0 1A       		.uleb128 0x1a
 1325 07a1 04       		.byte	0x4
 1326 07a2 05       		.byte	0x5
 1327 07a3 D2       		.byte	0xd2
 1328 07a4 03080000 		.4byte	0x803
 1329 07a8 1B       		.uleb128 0x1b
 1330 07a9 DE010000 		.4byte	.LASF101
 1331 07ad 05       		.byte	0x5
 1332 07ae D9       		.byte	0xd9
 1333 07af D9000000 		.4byte	0xd9
 1334 07b3 1B       		.uleb128 0x1b
 1335 07b4 88050000 		.4byte	.LASF102
 1336 07b8 05       		.byte	0x5
 1337 07b9 E0       		.byte	0xe0
 1338 07ba D9000000 		.4byte	0xd9
 1339 07be 1B       		.uleb128 0x1b
 1340 07bf AF000000 		.4byte	.LASF103
 1341 07c3 05       		.byte	0x5
 1342 07c4 E7       		.byte	0xe7
 1343 07c5 D6020000 		.4byte	0x2d6
 1344 07c9 1B       		.uleb128 0x1b
 1345 07ca F0040000 		.4byte	.LASF104
 1346 07ce 05       		.byte	0x5
 1347 07cf EE       		.byte	0xee
 1348 07d0 03080000 		.4byte	0x803
 1349 07d4 1B       		.uleb128 0x1b
 1350 07d5 36010000 		.4byte	.LASF105
 1351 07d9 05       		.byte	0x5
 1352 07da F3       		.byte	0xf3
 1353 07db D9000000 		.4byte	0xd9
 1354 07df 1B       		.uleb128 0x1b
 1355 07e0 E9040000 		.4byte	.LASF106
 1356 07e4 05       		.byte	0x5
 1357 07e5 FC       		.byte	0xfc
 1358 07e6 2E080000 		.4byte	0x82e
 1359 07ea 1C       		.uleb128 0x1c
 1360 07eb 16000000 		.4byte	.LASF107
 1361 07ef 05       		.byte	0x5
 1362 07f0 0501     		.2byte	0x105
 1363 07f2 65080000 		.4byte	0x865
 1364 07f6 1C       		.uleb128 0x1c
 1365 07f7 E5000000 		.4byte	.LASF108
 1366 07fb 05       		.byte	0x5
 1367 07fc 0D01     		.2byte	0x10d
 1368 07fe E4000000 		.4byte	0xe4
 1369 0802 00       		.byte	0
 1370 0803 0A       		.uleb128 0xa
 1371 0804 04       		.byte	0x4
 1372 0805 EE010000 		.4byte	0x1ee
 1373 0809 05       		.uleb128 0x5
 1374 080a 54010000 		.4byte	.LASF109
 1375 080e 0C       		.byte	0xc
 1376 080f 0A       		.byte	0xa
ARM GAS  /tmp/ccrIVKPR.s 			page 39


 1377 0810 34       		.byte	0x34
 1378 0811 2E080000 		.4byte	0x82e
 1379 0815 06       		.uleb128 0x6
 1380 0816 7F040000 		.4byte	.LASF24
 1381 081a 0A       		.byte	0xa
 1382 081b 35       		.byte	0x35
 1383 081c 23020000 		.4byte	0x223
 1384 0820 00       		.byte	0
 1385 0821 07       		.uleb128 0x7
 1386 0822 636E7400 		.ascii	"cnt\000"
 1387 0826 0A       		.byte	0xa
 1388 0827 37       		.byte	0x37
 1389 0828 EF000000 		.4byte	0xef
 1390 082c 08       		.byte	0x8
 1391 082d 00       		.byte	0
 1392 082e 0A       		.uleb128 0xa
 1393 082f 04       		.byte	0x4
 1394 0830 09080000 		.4byte	0x809
 1395 0834 05       		.uleb128 0x5
 1396 0835 F8010000 		.4byte	.LASF110
 1397 0839 10       		.byte	0x10
 1398 083a 0B       		.byte	0xb
 1399 083b 39       		.byte	0x39
 1400 083c 65080000 		.4byte	0x865
 1401 0840 06       		.uleb128 0x6
 1402 0841 7F040000 		.4byte	.LASF24
 1403 0845 0B       		.byte	0xb
 1404 0846 3A       		.byte	0x3a
 1405 0847 23020000 		.4byte	0x223
 1406 084b 00       		.byte	0
 1407 084c 06       		.uleb128 0x6
 1408 084d A0010000 		.4byte	.LASF111
 1409 0851 0B       		.byte	0xb
 1410 0852 3C       		.byte	0x3c
 1411 0853 F9010000 		.4byte	0x1f9
 1412 0857 08       		.byte	0x8
 1413 0858 06       		.uleb128 0x6
 1414 0859 91000000 		.4byte	.LASF43
 1415 085d 0B       		.byte	0xb
 1416 085e 3E       		.byte	0x3e
 1417 085f 99080000 		.4byte	0x899
 1418 0863 0C       		.byte	0xc
 1419 0864 00       		.byte	0
 1420 0865 0A       		.uleb128 0xa
 1421 0866 04       		.byte	0x4
 1422 0867 34080000 		.4byte	0x834
 1423 086b 0A       		.uleb128 0xa
 1424 086c 04       		.byte	0x4
 1425 086d 71080000 		.4byte	0x871
 1426 0871 18       		.uleb128 0x18
 1427 0872 76080000 		.4byte	0x876
 1428 0876 03       		.uleb128 0x3
 1429 0877 01       		.byte	0x1
 1430 0878 08       		.byte	0x8
 1431 0879 C4020000 		.4byte	.LASF112
 1432 087d 0A       		.uleb128 0xa
 1433 087e 04       		.byte	0x4
ARM GAS  /tmp/ccrIVKPR.s 			page 40


 1434 087f DB060000 		.4byte	0x6db
 1435 0883 0A       		.uleb128 0xa
 1436 0884 04       		.byte	0x4
 1437 0885 D8020000 		.4byte	0x2d8
 1438 0889 14       		.uleb128 0x14
 1439 088a 6B080000 		.4byte	0x86b
 1440 088e 04       		.uleb128 0x4
 1441 088f 8D040000 		.4byte	.LASF113
 1442 0893 0B       		.byte	0xb
 1443 0894 34       		.byte	0x34
 1444 0895 34080000 		.4byte	0x834
 1445 0899 0A       		.uleb128 0xa
 1446 089a 04       		.byte	0x4
 1447 089b 8E080000 		.4byte	0x88e
 1448 089f 03       		.uleb128 0x3
 1449 08a0 01       		.byte	0x1
 1450 08a1 02       		.byte	0x2
 1451 08a2 F2010000 		.4byte	.LASF114
 1452 08a6 1D       		.uleb128 0x1d
 1453 08a7 88030000 		.4byte	.LASF115
 1454 08ab 01       		.byte	0x1
 1455 08ac 39       		.byte	0x39
 1456 08ad 00000000 		.4byte	.LFB217
 1457 08b1 2E000000 		.4byte	.LFE217-.LFB217
 1458 08b5 01       		.uleb128 0x1
 1459 08b6 9C       		.byte	0x9c
 1460 08b7 D8080000 		.4byte	0x8d8
 1461 08bb 1E       		.uleb128 0x1e
 1462 08bc 6E00     		.ascii	"n\000"
 1463 08be 01       		.byte	0x1
 1464 08bf 39       		.byte	0x39
 1465 08c0 77000000 		.4byte	0x77
 1466 08c4 00000000 		.4byte	.LLST0
 1467 08c8 1F       		.uleb128 0x1f
 1468 08c9 BF020000 		.4byte	.LASF25
 1469 08cd 01       		.byte	0x1
 1470 08ce 39       		.byte	0x39
 1471 08cf 77000000 		.4byte	0x77
 1472 08d3 35000000 		.4byte	.LLST1
 1473 08d7 00       		.byte	0
 1474 08d8 1D       		.uleb128 0x1d
 1475 08d9 EC000000 		.4byte	.LASF116
 1476 08dd 01       		.byte	0x1
 1477 08de 4A       		.byte	0x4a
 1478 08df 00000000 		.4byte	.LFB218
 1479 08e3 28000000 		.4byte	.LFE218-.LFB218
 1480 08e7 01       		.uleb128 0x1
 1481 08e8 9C       		.byte	0x9c
 1482 08e9 FB080000 		.4byte	0x8fb
 1483 08ed 1E       		.uleb128 0x1e
 1484 08ee 6E00     		.ascii	"n\000"
 1485 08f0 01       		.byte	0x1
 1486 08f1 4A       		.byte	0x4a
 1487 08f2 77000000 		.4byte	0x77
 1488 08f6 56000000 		.4byte	.LLST2
 1489 08fa 00       		.byte	0
 1490 08fb 1D       		.uleb128 0x1d
ARM GAS  /tmp/ccrIVKPR.s 			page 41


 1491 08fc 97050000 		.4byte	.LASF117
 1492 0900 01       		.byte	0x1
 1493 0901 5A       		.byte	0x5a
 1494 0902 00000000 		.4byte	.LFB219
 1495 0906 10000000 		.4byte	.LFE219-.LFB219
 1496 090a 01       		.uleb128 0x1
 1497 090b 9C       		.byte	0x9c
 1498 090c 38090000 		.4byte	0x938
 1499 0910 1F       		.uleb128 0x1f
 1500 0911 B6000000 		.4byte	.LASF118
 1501 0915 01       		.byte	0x1
 1502 0916 5A       		.byte	0x5a
 1503 0917 77000000 		.4byte	0x77
 1504 091b 77000000 		.4byte	.LLST3
 1505 091f 1F       		.uleb128 0x1f
 1506 0920 BF020000 		.4byte	.LASF25
 1507 0924 01       		.byte	0x1
 1508 0925 5A       		.byte	0x5a
 1509 0926 77000000 		.4byte	0x77
 1510 092a AC000000 		.4byte	.LLST4
 1511 092e 20       		.uleb128 0x20
 1512 092f 9F030000 		.4byte	.LASF124
 1513 0933 48090000 		.4byte	0x948
 1514 0937 00       		.byte	0
 1515 0938 12       		.uleb128 0x12
 1516 0939 76080000 		.4byte	0x876
 1517 093d 48090000 		.4byte	0x948
 1518 0941 13       		.uleb128 0x13
 1519 0942 CA040000 		.4byte	0x4ca
 1520 0946 1C       		.byte	0x1c
 1521 0947 00       		.byte	0
 1522 0948 18       		.uleb128 0x18
 1523 0949 38090000 		.4byte	0x938
 1524 094d 1D       		.uleb128 0x1d
 1525 094e 06020000 		.4byte	.LASF119
 1526 0952 01       		.byte	0x1
 1527 0953 6D       		.byte	0x6d
 1528 0954 00000000 		.4byte	.LFB220
 1529 0958 1A000000 		.4byte	.LFE220-.LFB220
 1530 095c 01       		.uleb128 0x1
 1531 095d 9C       		.byte	0x9c
 1532 095e 70090000 		.4byte	0x970
 1533 0962 1E       		.uleb128 0x1e
 1534 0963 6E00     		.ascii	"n\000"
 1535 0965 01       		.byte	0x1
 1536 0966 6D       		.byte	0x6d
 1537 0967 77000000 		.4byte	0x77
 1538 096b CD000000 		.4byte	.LLST5
 1539 096f 00       		.byte	0
 1540 0970 21       		.uleb128 0x21
 1541 0971 FE030000 		.4byte	.LASF120
 1542 0975 06       		.byte	0x6
 1543 0976 9606     		.2byte	0x696
 1544 0978 7C090000 		.4byte	0x97c
 1545 097c 14       		.uleb128 0x14
 1546 097d 65000000 		.4byte	0x65
 1547 0981 22       		.uleb128 0x22
ARM GAS  /tmp/ccrIVKPR.s 			page 42


 1548 0982 636800   		.ascii	"ch\000"
 1549 0985 05       		.byte	0x5
 1550 0986 D201     		.2byte	0x1d2
 1551 0988 A5030000 		.4byte	0x3a5
 1552 098c 00       		.byte	0
 1553              		.section	.debug_abbrev,"",%progbits
 1554              	.Ldebug_abbrev0:
 1555 0000 01       		.uleb128 0x1
 1556 0001 11       		.uleb128 0x11
 1557 0002 01       		.byte	0x1
 1558 0003 25       		.uleb128 0x25
 1559 0004 0E       		.uleb128 0xe
 1560 0005 13       		.uleb128 0x13
 1561 0006 0B       		.uleb128 0xb
 1562 0007 03       		.uleb128 0x3
 1563 0008 0E       		.uleb128 0xe
 1564 0009 1B       		.uleb128 0x1b
 1565 000a 0E       		.uleb128 0xe
 1566 000b 55       		.uleb128 0x55
 1567 000c 17       		.uleb128 0x17
 1568 000d 11       		.uleb128 0x11
 1569 000e 01       		.uleb128 0x1
 1570 000f 10       		.uleb128 0x10
 1571 0010 17       		.uleb128 0x17
 1572 0011 00       		.byte	0
 1573 0012 00       		.byte	0
 1574 0013 02       		.uleb128 0x2
 1575 0014 24       		.uleb128 0x24
 1576 0015 00       		.byte	0
 1577 0016 0B       		.uleb128 0xb
 1578 0017 0B       		.uleb128 0xb
 1579 0018 3E       		.uleb128 0x3e
 1580 0019 0B       		.uleb128 0xb
 1581 001a 03       		.uleb128 0x3
 1582 001b 08       		.uleb128 0x8
 1583 001c 00       		.byte	0
 1584 001d 00       		.byte	0
 1585 001e 03       		.uleb128 0x3
 1586 001f 24       		.uleb128 0x24
 1587 0020 00       		.byte	0
 1588 0021 0B       		.uleb128 0xb
 1589 0022 0B       		.uleb128 0xb
 1590 0023 3E       		.uleb128 0x3e
 1591 0024 0B       		.uleb128 0xb
 1592 0025 03       		.uleb128 0x3
 1593 0026 0E       		.uleb128 0xe
 1594 0027 00       		.byte	0
 1595 0028 00       		.byte	0
 1596 0029 04       		.uleb128 0x4
 1597 002a 16       		.uleb128 0x16
 1598 002b 00       		.byte	0
 1599 002c 03       		.uleb128 0x3
 1600 002d 0E       		.uleb128 0xe
 1601 002e 3A       		.uleb128 0x3a
 1602 002f 0B       		.uleb128 0xb
 1603 0030 3B       		.uleb128 0x3b
 1604 0031 0B       		.uleb128 0xb
ARM GAS  /tmp/ccrIVKPR.s 			page 43


 1605 0032 49       		.uleb128 0x49
 1606 0033 13       		.uleb128 0x13
 1607 0034 00       		.byte	0
 1608 0035 00       		.byte	0
 1609 0036 05       		.uleb128 0x5
 1610 0037 13       		.uleb128 0x13
 1611 0038 01       		.byte	0x1
 1612 0039 03       		.uleb128 0x3
 1613 003a 0E       		.uleb128 0xe
 1614 003b 0B       		.uleb128 0xb
 1615 003c 0B       		.uleb128 0xb
 1616 003d 3A       		.uleb128 0x3a
 1617 003e 0B       		.uleb128 0xb
 1618 003f 3B       		.uleb128 0x3b
 1619 0040 0B       		.uleb128 0xb
 1620 0041 01       		.uleb128 0x1
 1621 0042 13       		.uleb128 0x13
 1622 0043 00       		.byte	0
 1623 0044 00       		.byte	0
 1624 0045 06       		.uleb128 0x6
 1625 0046 0D       		.uleb128 0xd
 1626 0047 00       		.byte	0
 1627 0048 03       		.uleb128 0x3
 1628 0049 0E       		.uleb128 0xe
 1629 004a 3A       		.uleb128 0x3a
 1630 004b 0B       		.uleb128 0xb
 1631 004c 3B       		.uleb128 0x3b
 1632 004d 0B       		.uleb128 0xb
 1633 004e 49       		.uleb128 0x49
 1634 004f 13       		.uleb128 0x13
 1635 0050 38       		.uleb128 0x38
 1636 0051 0B       		.uleb128 0xb
 1637 0052 00       		.byte	0
 1638 0053 00       		.byte	0
 1639 0054 07       		.uleb128 0x7
 1640 0055 0D       		.uleb128 0xd
 1641 0056 00       		.byte	0
 1642 0057 03       		.uleb128 0x3
 1643 0058 08       		.uleb128 0x8
 1644 0059 3A       		.uleb128 0x3a
 1645 005a 0B       		.uleb128 0xb
 1646 005b 3B       		.uleb128 0x3b
 1647 005c 0B       		.uleb128 0xb
 1648 005d 49       		.uleb128 0x49
 1649 005e 13       		.uleb128 0x13
 1650 005f 38       		.uleb128 0x38
 1651 0060 0B       		.uleb128 0xb
 1652 0061 00       		.byte	0
 1653 0062 00       		.byte	0
 1654 0063 08       		.uleb128 0x8
 1655 0064 0D       		.uleb128 0xd
 1656 0065 00       		.byte	0
 1657 0066 03       		.uleb128 0x3
 1658 0067 08       		.uleb128 0x8
 1659 0068 3A       		.uleb128 0x3a
 1660 0069 0B       		.uleb128 0xb
 1661 006a 3B       		.uleb128 0x3b
ARM GAS  /tmp/ccrIVKPR.s 			page 44


 1662 006b 05       		.uleb128 0x5
 1663 006c 49       		.uleb128 0x49
 1664 006d 13       		.uleb128 0x13
 1665 006e 38       		.uleb128 0x38
 1666 006f 0B       		.uleb128 0xb
 1667 0070 00       		.byte	0
 1668 0071 00       		.byte	0
 1669 0072 09       		.uleb128 0x9
 1670 0073 0D       		.uleb128 0xd
 1671 0074 00       		.byte	0
 1672 0075 03       		.uleb128 0x3
 1673 0076 0E       		.uleb128 0xe
 1674 0077 3A       		.uleb128 0x3a
 1675 0078 0B       		.uleb128 0xb
 1676 0079 3B       		.uleb128 0x3b
 1677 007a 05       		.uleb128 0x5
 1678 007b 49       		.uleb128 0x49
 1679 007c 13       		.uleb128 0x13
 1680 007d 38       		.uleb128 0x38
 1681 007e 0B       		.uleb128 0xb
 1682 007f 00       		.byte	0
 1683 0080 00       		.byte	0
 1684 0081 0A       		.uleb128 0xa
 1685 0082 0F       		.uleb128 0xf
 1686 0083 00       		.byte	0
 1687 0084 0B       		.uleb128 0xb
 1688 0085 0B       		.uleb128 0xb
 1689 0086 49       		.uleb128 0x49
 1690 0087 13       		.uleb128 0x13
 1691 0088 00       		.byte	0
 1692 0089 00       		.byte	0
 1693 008a 0B       		.uleb128 0xb
 1694 008b 13       		.uleb128 0x13
 1695 008c 01       		.byte	0x1
 1696 008d 03       		.uleb128 0x3
 1697 008e 0E       		.uleb128 0xe
 1698 008f 0B       		.uleb128 0xb
 1699 0090 0B       		.uleb128 0xb
 1700 0091 3A       		.uleb128 0x3a
 1701 0092 0B       		.uleb128 0xb
 1702 0093 3B       		.uleb128 0x3b
 1703 0094 05       		.uleb128 0x5
 1704 0095 01       		.uleb128 0x1
 1705 0096 13       		.uleb128 0x13
 1706 0097 00       		.byte	0
 1707 0098 00       		.byte	0
 1708 0099 0C       		.uleb128 0xc
 1709 009a 15       		.uleb128 0x15
 1710 009b 01       		.byte	0x1
 1711 009c 27       		.uleb128 0x27
 1712 009d 19       		.uleb128 0x19
 1713 009e 01       		.uleb128 0x1
 1714 009f 13       		.uleb128 0x13
 1715 00a0 00       		.byte	0
 1716 00a1 00       		.byte	0
 1717 00a2 0D       		.uleb128 0xd
 1718 00a3 05       		.uleb128 0x5
ARM GAS  /tmp/ccrIVKPR.s 			page 45


 1719 00a4 00       		.byte	0
 1720 00a5 49       		.uleb128 0x49
 1721 00a6 13       		.uleb128 0x13
 1722 00a7 00       		.byte	0
 1723 00a8 00       		.byte	0
 1724 00a9 0E       		.uleb128 0xe
 1725 00aa 0F       		.uleb128 0xf
 1726 00ab 00       		.byte	0
 1727 00ac 0B       		.uleb128 0xb
 1728 00ad 0B       		.uleb128 0xb
 1729 00ae 00       		.byte	0
 1730 00af 00       		.byte	0
 1731 00b0 0F       		.uleb128 0xf
 1732 00b1 13       		.uleb128 0x13
 1733 00b2 01       		.byte	0x1
 1734 00b3 0B       		.uleb128 0xb
 1735 00b4 05       		.uleb128 0x5
 1736 00b5 3A       		.uleb128 0x3a
 1737 00b6 0B       		.uleb128 0xb
 1738 00b7 3B       		.uleb128 0x3b
 1739 00b8 05       		.uleb128 0x5
 1740 00b9 01       		.uleb128 0x1
 1741 00ba 13       		.uleb128 0x13
 1742 00bb 00       		.byte	0
 1743 00bc 00       		.byte	0
 1744 00bd 10       		.uleb128 0x10
 1745 00be 0D       		.uleb128 0xd
 1746 00bf 00       		.byte	0
 1747 00c0 03       		.uleb128 0x3
 1748 00c1 0E       		.uleb128 0xe
 1749 00c2 3A       		.uleb128 0x3a
 1750 00c3 0B       		.uleb128 0xb
 1751 00c4 3B       		.uleb128 0x3b
 1752 00c5 05       		.uleb128 0x5
 1753 00c6 49       		.uleb128 0x49
 1754 00c7 13       		.uleb128 0x13
 1755 00c8 38       		.uleb128 0x38
 1756 00c9 05       		.uleb128 0x5
 1757 00ca 00       		.byte	0
 1758 00cb 00       		.byte	0
 1759 00cc 11       		.uleb128 0x11
 1760 00cd 0D       		.uleb128 0xd
 1761 00ce 00       		.byte	0
 1762 00cf 03       		.uleb128 0x3
 1763 00d0 08       		.uleb128 0x8
 1764 00d1 3A       		.uleb128 0x3a
 1765 00d2 0B       		.uleb128 0xb
 1766 00d3 3B       		.uleb128 0x3b
 1767 00d4 05       		.uleb128 0x5
 1768 00d5 49       		.uleb128 0x49
 1769 00d6 13       		.uleb128 0x13
 1770 00d7 38       		.uleb128 0x38
 1771 00d8 05       		.uleb128 0x5
 1772 00d9 00       		.byte	0
 1773 00da 00       		.byte	0
 1774 00db 12       		.uleb128 0x12
 1775 00dc 01       		.uleb128 0x1
ARM GAS  /tmp/ccrIVKPR.s 			page 46


 1776 00dd 01       		.byte	0x1
 1777 00de 49       		.uleb128 0x49
 1778 00df 13       		.uleb128 0x13
 1779 00e0 01       		.uleb128 0x1
 1780 00e1 13       		.uleb128 0x13
 1781 00e2 00       		.byte	0
 1782 00e3 00       		.byte	0
 1783 00e4 13       		.uleb128 0x13
 1784 00e5 21       		.uleb128 0x21
 1785 00e6 00       		.byte	0
 1786 00e7 49       		.uleb128 0x49
 1787 00e8 13       		.uleb128 0x13
 1788 00e9 2F       		.uleb128 0x2f
 1789 00ea 0B       		.uleb128 0xb
 1790 00eb 00       		.byte	0
 1791 00ec 00       		.byte	0
 1792 00ed 14       		.uleb128 0x14
 1793 00ee 35       		.uleb128 0x35
 1794 00ef 00       		.byte	0
 1795 00f0 49       		.uleb128 0x49
 1796 00f1 13       		.uleb128 0x13
 1797 00f2 00       		.byte	0
 1798 00f3 00       		.byte	0
 1799 00f4 15       		.uleb128 0x15
 1800 00f5 21       		.uleb128 0x21
 1801 00f6 00       		.byte	0
 1802 00f7 49       		.uleb128 0x49
 1803 00f8 13       		.uleb128 0x13
 1804 00f9 2F       		.uleb128 0x2f
 1805 00fa 05       		.uleb128 0x5
 1806 00fb 00       		.byte	0
 1807 00fc 00       		.byte	0
 1808 00fd 16       		.uleb128 0x16
 1809 00fe 16       		.uleb128 0x16
 1810 00ff 00       		.byte	0
 1811 0100 03       		.uleb128 0x3
 1812 0101 0E       		.uleb128 0xe
 1813 0102 3A       		.uleb128 0x3a
 1814 0103 0B       		.uleb128 0xb
 1815 0104 3B       		.uleb128 0x3b
 1816 0105 05       		.uleb128 0x5
 1817 0106 49       		.uleb128 0x49
 1818 0107 13       		.uleb128 0x13
 1819 0108 00       		.byte	0
 1820 0109 00       		.byte	0
 1821 010a 17       		.uleb128 0x17
 1822 010b 13       		.uleb128 0x13
 1823 010c 01       		.byte	0x1
 1824 010d 0B       		.uleb128 0xb
 1825 010e 0B       		.uleb128 0xb
 1826 010f 3A       		.uleb128 0x3a
 1827 0110 0B       		.uleb128 0xb
 1828 0111 3B       		.uleb128 0x3b
 1829 0112 05       		.uleb128 0x5
 1830 0113 01       		.uleb128 0x1
 1831 0114 13       		.uleb128 0x13
 1832 0115 00       		.byte	0
ARM GAS  /tmp/ccrIVKPR.s 			page 47


 1833 0116 00       		.byte	0
 1834 0117 18       		.uleb128 0x18
 1835 0118 26       		.uleb128 0x26
 1836 0119 00       		.byte	0
 1837 011a 49       		.uleb128 0x49
 1838 011b 13       		.uleb128 0x13
 1839 011c 00       		.byte	0
 1840 011d 00       		.byte	0
 1841 011e 19       		.uleb128 0x19
 1842 011f 13       		.uleb128 0x13
 1843 0120 01       		.byte	0x1
 1844 0121 0B       		.uleb128 0xb
 1845 0122 0B       		.uleb128 0xb
 1846 0123 3A       		.uleb128 0x3a
 1847 0124 0B       		.uleb128 0xb
 1848 0125 3B       		.uleb128 0x3b
 1849 0126 0B       		.uleb128 0xb
 1850 0127 01       		.uleb128 0x1
 1851 0128 13       		.uleb128 0x13
 1852 0129 00       		.byte	0
 1853 012a 00       		.byte	0
 1854 012b 1A       		.uleb128 0x1a
 1855 012c 17       		.uleb128 0x17
 1856 012d 01       		.byte	0x1
 1857 012e 0B       		.uleb128 0xb
 1858 012f 0B       		.uleb128 0xb
 1859 0130 3A       		.uleb128 0x3a
 1860 0131 0B       		.uleb128 0xb
 1861 0132 3B       		.uleb128 0x3b
 1862 0133 0B       		.uleb128 0xb
 1863 0134 01       		.uleb128 0x1
 1864 0135 13       		.uleb128 0x13
 1865 0136 00       		.byte	0
 1866 0137 00       		.byte	0
 1867 0138 1B       		.uleb128 0x1b
 1868 0139 0D       		.uleb128 0xd
 1869 013a 00       		.byte	0
 1870 013b 03       		.uleb128 0x3
 1871 013c 0E       		.uleb128 0xe
 1872 013d 3A       		.uleb128 0x3a
 1873 013e 0B       		.uleb128 0xb
 1874 013f 3B       		.uleb128 0x3b
 1875 0140 0B       		.uleb128 0xb
 1876 0141 49       		.uleb128 0x49
 1877 0142 13       		.uleb128 0x13
 1878 0143 00       		.byte	0
 1879 0144 00       		.byte	0
 1880 0145 1C       		.uleb128 0x1c
 1881 0146 0D       		.uleb128 0xd
 1882 0147 00       		.byte	0
 1883 0148 03       		.uleb128 0x3
 1884 0149 0E       		.uleb128 0xe
 1885 014a 3A       		.uleb128 0x3a
 1886 014b 0B       		.uleb128 0xb
 1887 014c 3B       		.uleb128 0x3b
 1888 014d 05       		.uleb128 0x5
 1889 014e 49       		.uleb128 0x49
ARM GAS  /tmp/ccrIVKPR.s 			page 48


 1890 014f 13       		.uleb128 0x13
 1891 0150 00       		.byte	0
 1892 0151 00       		.byte	0
 1893 0152 1D       		.uleb128 0x1d
 1894 0153 2E       		.uleb128 0x2e
 1895 0154 01       		.byte	0x1
 1896 0155 3F       		.uleb128 0x3f
 1897 0156 19       		.uleb128 0x19
 1898 0157 03       		.uleb128 0x3
 1899 0158 0E       		.uleb128 0xe
 1900 0159 3A       		.uleb128 0x3a
 1901 015a 0B       		.uleb128 0xb
 1902 015b 3B       		.uleb128 0x3b
 1903 015c 0B       		.uleb128 0xb
 1904 015d 27       		.uleb128 0x27
 1905 015e 19       		.uleb128 0x19
 1906 015f 11       		.uleb128 0x11
 1907 0160 01       		.uleb128 0x1
 1908 0161 12       		.uleb128 0x12
 1909 0162 06       		.uleb128 0x6
 1910 0163 40       		.uleb128 0x40
 1911 0164 18       		.uleb128 0x18
 1912 0165 9742     		.uleb128 0x2117
 1913 0167 19       		.uleb128 0x19
 1914 0168 01       		.uleb128 0x1
 1915 0169 13       		.uleb128 0x13
 1916 016a 00       		.byte	0
 1917 016b 00       		.byte	0
 1918 016c 1E       		.uleb128 0x1e
 1919 016d 05       		.uleb128 0x5
 1920 016e 00       		.byte	0
 1921 016f 03       		.uleb128 0x3
 1922 0170 08       		.uleb128 0x8
 1923 0171 3A       		.uleb128 0x3a
 1924 0172 0B       		.uleb128 0xb
 1925 0173 3B       		.uleb128 0x3b
 1926 0174 0B       		.uleb128 0xb
 1927 0175 49       		.uleb128 0x49
 1928 0176 13       		.uleb128 0x13
 1929 0177 02       		.uleb128 0x2
 1930 0178 17       		.uleb128 0x17
 1931 0179 00       		.byte	0
 1932 017a 00       		.byte	0
 1933 017b 1F       		.uleb128 0x1f
 1934 017c 05       		.uleb128 0x5
 1935 017d 00       		.byte	0
 1936 017e 03       		.uleb128 0x3
 1937 017f 0E       		.uleb128 0xe
 1938 0180 3A       		.uleb128 0x3a
 1939 0181 0B       		.uleb128 0xb
 1940 0182 3B       		.uleb128 0x3b
 1941 0183 0B       		.uleb128 0xb
 1942 0184 49       		.uleb128 0x49
 1943 0185 13       		.uleb128 0x13
 1944 0186 02       		.uleb128 0x2
 1945 0187 17       		.uleb128 0x17
 1946 0188 00       		.byte	0
ARM GAS  /tmp/ccrIVKPR.s 			page 49


 1947 0189 00       		.byte	0
 1948 018a 20       		.uleb128 0x20
 1949 018b 34       		.uleb128 0x34
 1950 018c 00       		.byte	0
 1951 018d 03       		.uleb128 0x3
 1952 018e 0E       		.uleb128 0xe
 1953 018f 49       		.uleb128 0x49
 1954 0190 13       		.uleb128 0x13
 1955 0191 34       		.uleb128 0x34
 1956 0192 19       		.uleb128 0x19
 1957 0193 00       		.byte	0
 1958 0194 00       		.byte	0
 1959 0195 21       		.uleb128 0x21
 1960 0196 34       		.uleb128 0x34
 1961 0197 00       		.byte	0
 1962 0198 03       		.uleb128 0x3
 1963 0199 0E       		.uleb128 0xe
 1964 019a 3A       		.uleb128 0x3a
 1965 019b 0B       		.uleb128 0xb
 1966 019c 3B       		.uleb128 0x3b
 1967 019d 05       		.uleb128 0x5
 1968 019e 49       		.uleb128 0x49
 1969 019f 13       		.uleb128 0x13
 1970 01a0 3F       		.uleb128 0x3f
 1971 01a1 19       		.uleb128 0x19
 1972 01a2 3C       		.uleb128 0x3c
 1973 01a3 19       		.uleb128 0x19
 1974 01a4 00       		.byte	0
 1975 01a5 00       		.byte	0
 1976 01a6 22       		.uleb128 0x22
 1977 01a7 34       		.uleb128 0x34
 1978 01a8 00       		.byte	0
 1979 01a9 03       		.uleb128 0x3
 1980 01aa 08       		.uleb128 0x8
 1981 01ab 3A       		.uleb128 0x3a
 1982 01ac 0B       		.uleb128 0xb
 1983 01ad 3B       		.uleb128 0x3b
 1984 01ae 05       		.uleb128 0x5
 1985 01af 49       		.uleb128 0x49
 1986 01b0 13       		.uleb128 0x13
 1987 01b1 3F       		.uleb128 0x3f
 1988 01b2 19       		.uleb128 0x19
 1989 01b3 3C       		.uleb128 0x3c
 1990 01b4 19       		.uleb128 0x19
 1991 01b5 00       		.byte	0
 1992 01b6 00       		.byte	0
 1993 01b7 00       		.byte	0
 1994              		.section	.debug_loc,"",%progbits
 1995              	.Ldebug_loc0:
 1996              	.LLST0:
 1997 0000 00000000 		.4byte	.LVL0
 1998 0004 14000000 		.4byte	.LVL2
 1999 0008 0100     		.2byte	0x1
 2000 000a 50       		.byte	0x50
 2001 000b 14000000 		.4byte	.LVL2
 2002 000f 22000000 		.4byte	.LVL3
 2003 0013 0700     		.2byte	0x7
ARM GAS  /tmp/ccrIVKPR.s 			page 50


 2004 0015 70       		.byte	0x70
 2005 0016 80808080 		.sleb128 536870912
 2005      02
 2006 001b 9F       		.byte	0x9f
 2007 001c 22000000 		.4byte	.LVL3
 2008 0020 2E000000 		.4byte	.LFE217
 2009 0024 0700     		.2byte	0x7
 2010 0026 70       		.byte	0x70
 2011 0027 80BEFCFF 		.sleb128 536813312
 2011      01
 2012 002c 9F       		.byte	0x9f
 2013 002d 00000000 		.4byte	0
 2014 0031 00000000 		.4byte	0
 2015              	.LLST1:
 2016 0035 00000000 		.4byte	.LVL0
 2017 0039 10000000 		.4byte	.LVL1
 2018 003d 0100     		.2byte	0x1
 2019 003f 51       		.byte	0x51
 2020 0040 10000000 		.4byte	.LVL1
 2021 0044 2E000000 		.4byte	.LFE217
 2022 0048 0400     		.2byte	0x4
 2023 004a F3       		.byte	0xf3
 2024 004b 01       		.uleb128 0x1
 2025 004c 51       		.byte	0x51
 2026 004d 9F       		.byte	0x9f
 2027 004e 00000000 		.4byte	0
 2028 0052 00000000 		.4byte	0
 2029              	.LLST2:
 2030 0056 00000000 		.4byte	.LVL4
 2031 005a 18000000 		.4byte	.LVL5
 2032 005e 0100     		.2byte	0x1
 2033 0060 50       		.byte	0x50
 2034 0061 18000000 		.4byte	.LVL5
 2035 0065 28000000 		.4byte	.LFE218
 2036 0069 0400     		.2byte	0x4
 2037 006b F3       		.byte	0xf3
 2038 006c 01       		.uleb128 0x1
 2039 006d 50       		.byte	0x50
 2040 006e 9F       		.byte	0x9f
 2041 006f 00000000 		.4byte	0
 2042 0073 00000000 		.4byte	0
 2043              	.LLST3:
 2044 0077 00000000 		.4byte	.LVL6
 2045 007b 06000000 		.4byte	.LVL8
 2046 007f 0100     		.2byte	0x1
 2047 0081 50       		.byte	0x50
 2048 0082 06000000 		.4byte	.LVL8
 2049 0086 0C000000 		.4byte	.LVL9
 2050 008a 0700     		.2byte	0x7
 2051 008c 70       		.byte	0x70
 2052 008d 80808080 		.sleb128 536870912
 2052      02
 2053 0092 9F       		.byte	0x9f
 2054 0093 0C000000 		.4byte	.LVL9
 2055 0097 10000000 		.4byte	.LFE219
 2056 009b 0700     		.2byte	0x7
 2057 009d 70       		.byte	0x70
ARM GAS  /tmp/ccrIVKPR.s 			page 51


 2058 009e 80A6FCFF 		.sleb128 536810240
 2058      01
 2059 00a3 9F       		.byte	0x9f
 2060 00a4 00000000 		.4byte	0
 2061 00a8 00000000 		.4byte	0
 2062              	.LLST4:
 2063 00ac 00000000 		.4byte	.LVL6
 2064 00b0 02000000 		.4byte	.LVL7
 2065 00b4 0100     		.2byte	0x1
 2066 00b6 51       		.byte	0x51
 2067 00b7 02000000 		.4byte	.LVL7
 2068 00bb 10000000 		.4byte	.LFE219
 2069 00bf 0400     		.2byte	0x4
 2070 00c1 F3       		.byte	0xf3
 2071 00c2 01       		.uleb128 0x1
 2072 00c3 51       		.byte	0x51
 2073 00c4 9F       		.byte	0x9f
 2074 00c5 00000000 		.4byte	0
 2075 00c9 00000000 		.4byte	0
 2076              	.LLST5:
 2077 00cd 00000000 		.4byte	.LVL10
 2078 00d1 0A000000 		.4byte	.LVL11
 2079 00d5 0100     		.2byte	0x1
 2080 00d7 50       		.byte	0x50
 2081 00d8 0A000000 		.4byte	.LVL11
 2082 00dc 1A000000 		.4byte	.LFE220
 2083 00e0 0400     		.2byte	0x4
 2084 00e2 F3       		.byte	0xf3
 2085 00e3 01       		.uleb128 0x1
 2086 00e4 50       		.byte	0x50
 2087 00e5 9F       		.byte	0x9f
 2088 00e6 00000000 		.4byte	0
 2089 00ea 00000000 		.4byte	0
 2090              		.section	.debug_aranges,"",%progbits
 2091 0000 34000000 		.4byte	0x34
 2092 0004 0200     		.2byte	0x2
 2093 0006 00000000 		.4byte	.Ldebug_info0
 2094 000a 04       		.byte	0x4
 2095 000b 00       		.byte	0
 2096 000c 0000     		.2byte	0
 2097 000e 0000     		.2byte	0
 2098 0010 00000000 		.4byte	.LFB217
 2099 0014 2E000000 		.4byte	.LFE217-.LFB217
 2100 0018 00000000 		.4byte	.LFB218
 2101 001c 28000000 		.4byte	.LFE218-.LFB218
 2102 0020 00000000 		.4byte	.LFB219
 2103 0024 10000000 		.4byte	.LFE219-.LFB219
 2104 0028 00000000 		.4byte	.LFB220
 2105 002c 1A000000 		.4byte	.LFE220-.LFB220
 2106 0030 00000000 		.4byte	0
 2107 0034 00000000 		.4byte	0
 2108              		.section	.debug_ranges,"",%progbits
 2109              	.Ldebug_ranges0:
 2110 0000 00000000 		.4byte	.LFB217
 2111 0004 2E000000 		.4byte	.LFE217
 2112 0008 00000000 		.4byte	.LFB218
 2113 000c 28000000 		.4byte	.LFE218
ARM GAS  /tmp/ccrIVKPR.s 			page 52


 2114 0010 00000000 		.4byte	.LFB219
 2115 0014 10000000 		.4byte	.LFE219
 2116 0018 00000000 		.4byte	.LFB220
 2117 001c 1A000000 		.4byte	.LFE220
 2118 0020 00000000 		.4byte	0
 2119 0024 00000000 		.4byte	0
 2120              		.section	.debug_line,"",%progbits
 2121              	.Ldebug_line0:
 2122 0000 F1010000 		.section	.debug_str,"MS",%progbits,1
 2122      02009F01 
 2122      00000201 
 2122      FB0E0D00 
 2122      01010101 
 2123              	.LASF42:
 2124 0000 63685F74 		.ascii	"ch_threads_list\000"
 2124      68726561 
 2124      64735F6C 
 2124      69737400 
 2125              	.LASF93:
 2126 0010 43504143 		.ascii	"CPACR\000"
 2126      5200
 2127              	.LASF107:
 2128 0016 77746D74 		.ascii	"wtmtxp\000"
 2128      787000
 2129              	.LASF100:
 2130 001d 746D5F63 		.ascii	"tm_calibration_t\000"
 2130      616C6962 
 2130      72617469 
 2130      6F6E5F74 
 2130      00
 2131              	.LASF95:
 2132 002e 72656761 		.ascii	"regarm_t\000"
 2132      726D5F74 
 2132      00
 2133              	.LASF122:
 2134 0037 2E2E2F2E 		.ascii	"../../../os/hal/ports/common/ARMCMx/nvic.c\000"
 2134      2E2F2E2E 
 2134      2F6F732F 
 2134      68616C2F 
 2134      706F7274 
 2135              	.LASF31:
 2136 0062 666C6167 		.ascii	"flags\000"
 2136      7300
 2137              	.LASF22:
 2138 0068 73797374 		.ascii	"systime_t\000"
 2138      696D655F 
 2138      7400
 2139              	.LASF37:
 2140 0072 7265616C 		.ascii	"realprio\000"
 2140      7072696F 
 2140      00
 2141              	.LASF35:
 2142 007b 6570656E 		.ascii	"epending\000"
 2142      64696E67 
 2142      00
 2143              	.LASF0:
 2144 0084 756E7369 		.ascii	"unsigned int\000"
ARM GAS  /tmp/ccrIVKPR.s 			page 53


 2144      676E6564 
 2144      20696E74 
 2144      00
 2145              	.LASF43:
 2146 0091 6E657874 		.ascii	"next\000"
 2146      00
 2147              	.LASF40:
 2148 0096 74687265 		.ascii	"threads_list_t\000"
 2148      6164735F 
 2148      6C697374 
 2148      5F7400
 2149              	.LASF87:
 2150 00a5 44465352 		.ascii	"DFSR\000"
 2150      00
 2151              	.LASF32:
 2152 00aa 72656673 		.ascii	"refs\000"
 2152      00
 2153              	.LASF103:
 2154 00af 77746F62 		.ascii	"wtobjp\000"
 2154      6A7000
 2155              	.LASF118:
 2156 00b6 68616E64 		.ascii	"handler\000"
 2156      6C657200 
 2157              	.LASF64:
 2158 00be 76746C69 		.ascii	"vtlist\000"
 2158      737400
 2159              	.LASF97:
 2160 00c5 706F7274 		.ascii	"port_context\000"
 2160      5F636F6E 
 2160      74657874 
 2160      00
 2161              	.LASF48:
 2162 00d2 63685F72 		.ascii	"ch_ready_list\000"
 2162      65616479 
 2162      5F6C6973 
 2162      7400
 2163              	.LASF54:
 2164 00e0 66756E63 		.ascii	"func\000"
 2164      00
 2165              	.LASF108:
 2166 00e5 65776D61 		.ascii	"ewmask\000"
 2166      736B00
 2167              	.LASF116:
 2168 00ec 6E766963 		.ascii	"nvicDisableVector\000"
 2168      44697361 
 2168      626C6556 
 2168      6563746F 
 2168      7200
 2169              	.LASF46:
 2170 00fe 70726576 		.ascii	"prev\000"
 2170      00
 2171              	.LASF45:
 2172 0103 63685F74 		.ascii	"ch_threads_queue\000"
 2172      68726561 
 2172      64735F71 
 2172      75657565 
 2172      00
ARM GAS  /tmp/ccrIVKPR.s 			page 54


 2173              	.LASF50:
 2174 0114 76746675 		.ascii	"vtfunc_t\000"
 2174      6E635F74 
 2174      00
 2175              	.LASF59:
 2176 011d 63685F73 		.ascii	"ch_system_debug\000"
 2176      79737465 
 2176      6D5F6465 
 2176      62756700 
 2177              	.LASF9:
 2178 012d 75696E74 		.ascii	"uint32_t\000"
 2178      33325F74 
 2178      00
 2179              	.LASF105:
 2180 0136 73656E74 		.ascii	"sentmsg\000"
 2180      6D736700 
 2181              	.LASF91:
 2182 013e 4D4D4652 		.ascii	"MMFR\000"
 2182      00
 2183              	.LASF20:
 2184 0143 6576656E 		.ascii	"eventmask_t\000"
 2184      746D6173 
 2184      6B5F7400 
 2185              	.LASF66:
 2186 014f 49534552 		.ascii	"ISER\000"
 2186      00
 2187              	.LASF109:
 2188 0154 63685F73 		.ascii	"ch_semaphore\000"
 2188      656D6170 
 2188      686F7265 
 2188      00
 2189              	.LASF18:
 2190 0161 74707269 		.ascii	"tprio_t\000"
 2190      6F5F7400 
 2191              	.LASF69:
 2192 0169 52534552 		.ascii	"RSERVED1\000"
 2192      56454431 
 2192      00
 2193              	.LASF52:
 2194 0172 63685F76 		.ascii	"ch_virtual_timer\000"
 2194      69727475 
 2194      616C5F74 
 2194      696D6572 
 2194      00
 2195              	.LASF13:
 2196 0183 6C6F6E67 		.ascii	"long long unsigned int\000"
 2196      206C6F6E 
 2196      6720756E 
 2196      7369676E 
 2196      65642069 
 2197              	.LASF21:
 2198 019a 636E745F 		.ascii	"cnt_t\000"
 2198      7400
 2199              	.LASF111:
 2200 01a0 6F776E65 		.ascii	"owner\000"
 2200      7200
 2201              	.LASF44:
ARM GAS  /tmp/ccrIVKPR.s 			page 55


 2202 01a6 74687265 		.ascii	"threads_queue_t\000"
 2202      6164735F 
 2202      71756575 
 2202      655F7400 
 2203              	.LASF36:
 2204 01b6 6D74786C 		.ascii	"mtxlist\000"
 2204      69737400 
 2205              	.LASF56:
 2206 01be 63685F76 		.ascii	"ch_virtual_timers_list\000"
 2206      69727475 
 2206      616C5F74 
 2206      696D6572 
 2206      735F6C69 
 2207              	.LASF23:
 2208 01d5 74687265 		.ascii	"thread_t\000"
 2208      61645F74 
 2208      00
 2209              	.LASF101:
 2210 01de 7264796D 		.ascii	"rdymsg\000"
 2210      736700
 2211              	.LASF99:
 2212 01e5 6F666673 		.ascii	"offset\000"
 2212      657400
 2213              	.LASF80:
 2214 01ec 43505549 		.ascii	"CPUID\000"
 2214      4400
 2215              	.LASF114:
 2216 01f2 5F426F6F 		.ascii	"_Bool\000"
 2216      6C00
 2217              	.LASF110:
 2218 01f8 63685F6D 		.ascii	"ch_mutex\000"
 2218      75746578 
 2218      00
 2219              	.LASF90:
 2220 0201 41465352 		.ascii	"AFSR\000"
 2220      00
 2221              	.LASF119:
 2222 0206 6E766963 		.ascii	"nvicClearPending\000"
 2222      436C6561 
 2222      7250656E 
 2222      64696E67 
 2222      00
 2223              	.LASF121:
 2224 0217 474E5520 		.ascii	"GNU C 4.8.1 -mcpu=cortex-m3 -mno-thumb-interwork -m"
 2224      4320342E 
 2224      382E3120 
 2224      2D6D6370 
 2224      753D636F 
 2225 024a 7468756D 		.ascii	"thumb -ggdb -O2 -fomit-frame-pointer -falign-functi"
 2225      62202D67 
 2225      67646220 
 2225      2D4F3220 
 2225      2D666F6D 
 2226 027d 6F6E733D 		.ascii	"ons=16 -ffunction-sections -fdata-sections -fno-com"
 2226      3136202D 
 2226      6666756E 
 2226      6374696F 
ARM GAS  /tmp/ccrIVKPR.s 			page 56


 2226      6E2D7365 
 2227 02b0 6D6F6E20 		.ascii	"mon -flto\000"
 2227      2D666C74 
 2227      6F00
 2228              	.LASF86:
 2229 02ba 48465352 		.ascii	"HFSR\000"
 2229      00
 2230              	.LASF25:
 2231 02bf 7072696F 		.ascii	"prio\000"
 2231      00
 2232              	.LASF112:
 2233 02c4 63686172 		.ascii	"char\000"
 2233      00
 2234              	.LASF39:
 2235 02c9 74687265 		.ascii	"thread_reference_t\000"
 2235      61645F72 
 2235      65666572 
 2235      656E6365 
 2235      5F7400
 2236              	.LASF29:
 2237 02dc 77616261 		.ascii	"wabase\000"
 2237      736500
 2238              	.LASF81:
 2239 02e3 49435352 		.ascii	"ICSR\000"
 2239      00
 2240              	.LASF16:
 2241 02e8 74737461 		.ascii	"tstate_t\000"
 2241      74655F74 
 2241      00
 2242              	.LASF83:
 2243 02f1 41495243 		.ascii	"AIRCR\000"
 2243      5200
 2244              	.LASF4:
 2245 02f7 75696E74 		.ascii	"uint8_t\000"
 2245      385F7400 
 2246              	.LASF34:
 2247 02ff 6D736771 		.ascii	"msgqueue\000"
 2247      75657565 
 2247      00
 2248              	.LASF41:
 2249 0308 63685F74 		.ascii	"ch_thread\000"
 2249      68726561 
 2249      6400
 2250              	.LASF58:
 2251 0312 73797374 		.ascii	"system_debug_t\000"
 2251      656D5F64 
 2251      65627567 
 2251      5F7400
 2252              	.LASF11:
 2253 0321 6C6F6E67 		.ascii	"long long int\000"
 2253      206C6F6E 
 2253      6720696E 
 2253      7400
 2254              	.LASF84:
 2255 032f 53484353 		.ascii	"SHCSR\000"
 2255      5200
 2256              	.LASF19:
ARM GAS  /tmp/ccrIVKPR.s 			page 57


 2257 0335 6D73675F 		.ascii	"msg_t\000"
 2257      7400
 2258              	.LASF85:
 2259 033b 43465352 		.ascii	"CFSR\000"
 2259      00
 2260              	.LASF51:
 2261 0340 76697274 		.ascii	"virtual_timer_t\000"
 2261      75616C5F 
 2261      74696D65 
 2261      725F7400 
 2262              	.LASF72:
 2263 0350 49435052 		.ascii	"ICPR\000"
 2263      00
 2264              	.LASF60:
 2265 0355 70616E69 		.ascii	"panic_msg\000"
 2265      635F6D73 
 2265      6700
 2266              	.LASF15:
 2267 035f 746D6F64 		.ascii	"tmode_t\000"
 2267      655F7400 
 2268              	.LASF65:
 2269 0367 6D61696E 		.ascii	"mainthread\000"
 2269      74687265 
 2269      616400
 2270              	.LASF5:
 2271 0372 75696E74 		.ascii	"uint16_t\000"
 2271      31365F74 
 2271      00
 2272              	.LASF77:
 2273 037b 53544952 		.ascii	"STIR\000"
 2273      00
 2274              	.LASF14:
 2275 0380 7274636E 		.ascii	"rtcnt_t\000"
 2275      745F7400 
 2276              	.LASF115:
 2277 0388 6E766963 		.ascii	"nvicEnableVector\000"
 2277      456E6162 
 2277      6C655665 
 2277      63746F72 
 2277      00
 2278              	.LASF88:
 2279 0399 4D4D4641 		.ascii	"MMFAR\000"
 2279      5200
 2280              	.LASF124:
 2281 039f 5F5F6675 		.ascii	"__func__.6629\000"
 2281      6E635F5F 
 2281      2E363632 
 2281      3900
 2282              	.LASF67:
 2283 03ad 52455345 		.ascii	"RESERVED0\000"
 2283      52564544 
 2283      3000
 2284              	.LASF71:
 2285 03b7 52455345 		.ascii	"RESERVED2\000"
 2285      52564544 
 2285      3200
 2286              	.LASF73:
ARM GAS  /tmp/ccrIVKPR.s 			page 58


 2287 03c1 52455345 		.ascii	"RESERVED3\000"
 2287      52564544 
 2287      3300
 2288              	.LASF75:
 2289 03cb 52455345 		.ascii	"RESERVED4\000"
 2289      52564544 
 2289      3400
 2290              	.LASF76:
 2291 03d5 52455345 		.ascii	"RESERVED5\000"
 2291      52564544 
 2291      3500
 2292              	.LASF3:
 2293 03df 73686F72 		.ascii	"short int\000"
 2293      7420696E 
 2293      7400
 2294              	.LASF8:
 2295 03e9 6C6F6E67 		.ascii	"long int\000"
 2295      20696E74 
 2295      00
 2296              	.LASF98:
 2297 03f2 706F7274 		.ascii	"port_intctx\000"
 2297      5F696E74 
 2297      63747800 
 2298              	.LASF120:
 2299 03fe 49544D5F 		.ascii	"ITM_RxBuffer\000"
 2299      52784275 
 2299      66666572 
 2299      00
 2300              	.LASF62:
 2301 040b 63685F73 		.ascii	"ch_system\000"
 2301      79737465 
 2301      6D00
 2302              	.LASF57:
 2303 0415 6C617374 		.ascii	"lasttime\000"
 2303      74696D65 
 2303      00
 2304              	.LASF12:
 2305 041e 75696E74 		.ascii	"uint64_t\000"
 2305      36345F74 
 2305      00
 2306              	.LASF63:
 2307 0427 726C6973 		.ascii	"rlist\000"
 2307      7400
 2308              	.LASF79:
 2309 042d 4E564943 		.ascii	"NVIC_Type\000"
 2309      5F547970 
 2309      6500
 2310              	.LASF94:
 2311 0437 5343425F 		.ascii	"SCB_Type\000"
 2311      54797065 
 2311      00
 2312              	.LASF28:
 2313 0440 6E616D65 		.ascii	"name\000"
 2313      00
 2314              	.LASF89:
 2315 0445 42464152 		.ascii	"BFAR\000"
 2315      00
ARM GAS  /tmp/ccrIVKPR.s 			page 59


 2316              	.LASF82:
 2317 044a 56544F52 		.ascii	"VTOR\000"
 2317      00
 2318              	.LASF78:
 2319 044f 73697A65 		.ascii	"sizetype\000"
 2319      74797065 
 2319      00
 2320              	.LASF17:
 2321 0458 74726566 		.ascii	"trefs_t\000"
 2321      735F7400 
 2322              	.LASF10:
 2323 0460 6C6F6E67 		.ascii	"long unsigned int\000"
 2323      20756E73 
 2323      69676E65 
 2323      6420696E 
 2323      7400
 2324              	.LASF47:
 2325 0472 72656164 		.ascii	"ready_list_t\000"
 2325      795F6C69 
 2325      73745F74 
 2325      00
 2326              	.LASF24:
 2327 047f 71756575 		.ascii	"queue\000"
 2327      6500
 2328              	.LASF7:
 2329 0485 696E7433 		.ascii	"int32_t\000"
 2329      325F7400 
 2330              	.LASF113:
 2331 048d 6D757465 		.ascii	"mutex_t\000"
 2331      785F7400 
 2332              	.LASF26:
 2333 0495 6E657765 		.ascii	"newer\000"
 2333      7200
 2334              	.LASF2:
 2335 049b 756E7369 		.ascii	"unsigned char\000"
 2335      676E6564 
 2335      20636861 
 2335      7200
 2336              	.LASF33:
 2337 04a9 77616974 		.ascii	"waiting\000"
 2337      696E6700 
 2338              	.LASF55:
 2339 04b1 76697274 		.ascii	"virtual_timers_list_t\000"
 2339      75616C5F 
 2339      74696D65 
 2339      72735F6C 
 2339      6973745F 
 2340              	.LASF27:
 2341 04c7 6F6C6465 		.ascii	"older\000"
 2341      7200
 2342              	.LASF68:
 2343 04cd 49434552 		.ascii	"ICER\000"
 2343      00
 2344              	.LASF30:
 2345 04d2 73746174 		.ascii	"state\000"
 2345      6500
 2346              	.LASF74:
ARM GAS  /tmp/ccrIVKPR.s 			page 60


 2347 04d8 49414252 		.ascii	"IABR\000"
 2347      00
 2348              	.LASF61:
 2349 04dd 63685F73 		.ascii	"ch_system_t\000"
 2349      79737465 
 2349      6D5F7400 
 2350              	.LASF106:
 2351 04e9 77747365 		.ascii	"wtsemp\000"
 2351      6D7000
 2352              	.LASF104:
 2353 04f0 77747472 		.ascii	"wttrp\000"
 2353      7000
 2354              	.LASF1:
 2355 04f6 7369676E 		.ascii	"signed char\000"
 2355      65642063 
 2355      68617200 
 2356              	.LASF53:
 2357 0502 64656C74 		.ascii	"delta\000"
 2357      6100
 2358              	.LASF6:
 2359 0508 73686F72 		.ascii	"short unsigned int\000"
 2359      7420756E 
 2359      7369676E 
 2359      65642069 
 2359      6E7400
 2360              	.LASF96:
 2361 051b 73746B61 		.ascii	"stkalign_t\000"
 2361      6C69676E 
 2361      5F7400
 2362              	.LASF49:
 2363 0526 63757272 		.ascii	"current\000"
 2363      656E7400 
 2364              	.LASF70:
 2365 052e 49535052 		.ascii	"ISPR\000"
 2365      00
 2366              	.LASF92:
 2367 0533 49534152 		.ascii	"ISAR\000"
 2367      00
 2368              	.LASF123:
 2369 0538 2F686F6D 		.ascii	"/home/alex/Embebidos Proyecto/ChibiOS_17.6.1/demos/"
 2369      652F616C 
 2369      65782F45 
 2369      6D626562 
 2369      69646F73 
 2370 056b 53544D33 		.ascii	"STM32/RT-STM32F100-DISCOVERY\000"
 2370      322F5254 
 2370      2D53544D 
 2370      33324631 
 2370      30302D44 
 2371              	.LASF102:
 2372 0588 65786974 		.ascii	"exitcode\000"
 2372      636F6465 
 2372      00
 2373              	.LASF38:
 2374 0591 6D706F6F 		.ascii	"mpool\000"
 2374      6C00
 2375              	.LASF117:
ARM GAS  /tmp/ccrIVKPR.s 			page 61


 2376 0597 6E766963 		.ascii	"nvicSetSystemHandlerPriority\000"
 2376      53657453 
 2376      79737465 
 2376      6D48616E 
 2376      646C6572 
 2377              		.comm	__gnu_lto_v1,1,1
 2378              		.ident	"GCC: (Sourcery CodeBench Lite 2013.11-24) 4.8.1"
ARM GAS  /tmp/ccrIVKPR.s 			page 62


DEFINED SYMBOLS
                            *ABS*:00000000 nvic.c
     /tmp/ccrIVKPR.s:259    .text.nvicEnableVector:00000000 $t
     /tmp/ccrIVKPR.s:265    .text.nvicEnableVector:00000000 nvicEnableVector
     /tmp/ccrIVKPR.s:300    .text.nvicDisableVector:00000000 $t
     /tmp/ccrIVKPR.s:306    .text.nvicDisableVector:00000000 nvicDisableVector
     /tmp/ccrIVKPR.s:340    .text.nvicSetSystemHandlerPriority:00000000 $t
     /tmp/ccrIVKPR.s:346    .text.nvicSetSystemHandlerPriority:00000000 nvicSetSystemHandlerPriority
     /tmp/ccrIVKPR.s:368    .text.nvicClearPending:00000000 $t
     /tmp/ccrIVKPR.s:374    .text.nvicClearPending:00000000 nvicClearPending
                            *COM*:00000001 __gnu_lto_v1
                     .debug_frame:00000010 $d

NO UNDEFINED SYMBOLS
