ARM GAS  /tmp/ccrIVKPR.s 			page 1


   1              		.syntax unified
   2              		.cpu cortex-m3
   3              		.fpu softvfp
   4              		.eabi_attribute 20, 1
   5              		.eabi_attribute 21, 1
   6              		.eabi_attribute 23, 3
   7              		.eabi_attribute 24, 1
   8              		.eabi_attribute 25, 1
   9              		.eabi_attribute 26, 1
  10              		.eabi_attribute 30, 2
  11              		.eabi_attribute 34, 1
  12              		.eabi_attribute 18, 4
  13              		.thumb
  14              		.file	"nvic.c"
  15              		.text
  16              	.Ltext0:
  17              		.section	.gnu.lto_.jmpfuncs.5979797bdc4dbcfa,"",%progbits
  18 0000 789C6362 		.ascii	"x\234cb`b\300\006\270\2404\013\0033##\02333#\003\000"
  18      6062C006 
  18      B8A0340B 
  18      03332323 
  18      13333323 
  19 0016 01F00021 		.ascii	"\001\360\000!"
  20              		.text
  21              		.section	.gnu.lto_.inline.5979797bdc4dbcfa,"",%progbits
  22 0000 789C6D4C 		.ascii	"x\234mL\313\025\200 \014KK\205\352\305\021\330\300%"
  22      CB158020 
  22      0C4B4B85 
  22      EAC511D8 
  22      C025
  23 0012 5D84911C 		.ascii	"]\204\221\034\305\021LQy\036\354!}\371*\024\177\267"
  23      C5114C51 
  23      791EEC21 
  23      7DF92A14 
  23      7FB7
  24 0024 3FDF8065 		.ascii	"?\337\200e\026\025\011\022`\371\334\220[U\350\261\032"
  24      16150912 
  24      60F9DC90 
  24      5B55E8B1 
  24      1A
  25 0035 C89CAAD3 		.ascii	"\310\234\252\323\363\302TD\222\265zG\350Z\037QL&\322"
  25      F3C25444 
  25      92B57A47 
  25      E85A1F51 
  25      4C26D2
  26 0048 57127B9F 		.ascii	"W\022{\237\201PP\362[\035\346\250\342\002a/\015\002"
  26      815050F2 
  26      5B1DE6A8 
  26      E202612F 
  26      0D02
  27              		.text
  28              		.section	.gnu.lto_.pureconst.5979797bdc4dbcfa,"",%progbits
  29 0000 789C6362 		.ascii	"x\234cb`b\340d\200\000\026\006)F)&)f)\000\002\326\000"
  29      6062E064 
  29      80001606 
  29      29462926 
  29      29662900 
ARM GAS  /tmp/ccrIVKPR.s 			page 2


  30 0017 80       		.ascii	"\200"
  31              		.text
  32              		.section	.gnu.lto_nvicEnableVector.5979797bdc4dbcfa,"",%progbits
  33 0000 789C9D91 		.ascii	"x\234\235\221\277K\303@\024\307\337\273k\314\217\242"
  33      BF4BC340 
  33      14C7DFBB 
  33      6BCC8FA2 
  34 0010 AE3A5974 		.ascii	"\256:Yt\021\212\211N\016N\342\344\320\245T\320\261f"
  34      118A894E 
  34      0E4EE2E4 
  34      D0A554D0 
  34      B166
  35 0022 8801DB88 		.ascii	"\210\001\333\210\025q3m\272\351\320\301\305\352`\021"
  35      1571336D 
  35      BAE9D0C1 
  35      C5EA6011 
  36 0032 11C41F7F 		.ascii	"\021\304\037\177\200 \245\233C\0257')\256\202\210\223"
  36      8020A59B 
  36      43153727 
  36      29AE8288 
  36      93
  37 0043 A010DFE5 		.ascii	"\240\020\337\345l\245\"\016\036\311\335\273{\337\367"
  37      6CA5220E 
  37      1EC9DDBB 
  37      7BDFF7
  38 0052 BE9FE318 		.ascii	"\276\237\343\0300\3709\006\351O\323\361\004\255\310"
  38      30F83906 
  38      E94FD3F1 
  38      04ADC8
  39 0061 0159E506 		.ascii	"\001Y\345\006\240\2501D\021\000\302&\303\315\005\024"
  39      A0A83144 
  39      1100C226 
  39      C3CD0514 
  40 0071 521C869A 		.ascii	"R\034\206\232\357WZG\217olw\247^>\360?\302\020\321E"
  40      EF575A47 
  40      8F6F6C77 
  40      A75E3EF0 
  40      3FC210D1 
  41 0086 6A6B22D8 		.ascii	"jk\"\330\010\363\264\301D\264\260X\267\317\005\253\267"
  41      08F3B4C1 
  41      44B4B058 
  41      B7CF05AB 
  41      B7
  42 0097 C270FFB6 		.ascii	"\302p\377\266\3720\200\275\2109Q\344\"\347bRh\213*E"
  42      FA3080BD 
  42      883951E4 
  42      22E76252 
  42      688B2A45 
  43 00ab 310DB258 		.ascii	"1\015\262X#\037\2356`\320\244P\251\002e\262M\200p\240"
  43      231F9D36 
  43      60D0A450 
  43      A90265B2 
  43      4D8070A0 
  44 00bf 91A159B0 		.ascii	"\221\241Y\260\315!\023+oB\351)\010\3371\213\207$w\220"
  44      CD21132B 
  44      6F42E929 
  44      08DF318B 
ARM GAS  /tmp/ccrIVKPR.s 			page 3


  44      87247790 
  45 00d3 39488A26 		.ascii	"9H\212&\004g\274}\304\351T@\365\010\250&4feb\014N\375"
  45      0467BC7D 
  45      C4E95440 
  45      F508A826 
  45      34666562 
  46 00ea 72D19FA4 		.ascii	"r\321\237\244D\022ND\330\357\242\272\007U\222jB\257"
  46      44124E44 
  46      D8EFA2BA 
  46      0755926A 
  46      42AF
  47 00fc FB8DC0EF 		.ascii	"\373\215\300\357\213\356\243G\267XDy\033'\002\223\021"
  47      8BEEA347 
  47      B7584479 
  47      1B270293 
  47      11
  48 010d 8FCCCE83 		.ascii	"\217\314\316\203\343\355\321\266\237JyQ\004J\344Wz\016"
  48      E3EDD1B6 
  48      9F4A7951 
  48      044AE457 
  48      7A0E
  49 011f AE3A785A 		.ascii	"\256:xZTK\025\227\035<\335\221v0\004\022<x\355\310\015"
  49      544B1597 
  49      1D3CDD91 
  49      76300412 
  49      3C78EDC8 
  50 0134 915050A8 		.ascii	"\221PP\250\"\364\353\227x\027\374\224\213\3067|\374"
  50      22F4EB97 
  50      7817FC94 
  50      8BC6377C 
  50      FC
  51 0145 6F78FC42 		.ascii	"ox\374BV;\360\206lzOO\372\377\266\354\267\266wPlm\215"
  51      563BF086 
  51      6C7A4F4F 
  51      FAFFB6EC 
  51      B7B67750 
  52 015c C8A6ED91 		.ascii	"\310\246\355\221!\002z2\241O\232\246%?\257`-e\227\255"
  52      21027A32 
  52      A14F9AA6 
  52      253FAF60 
  52      2D6597AD 
  53 0170 156F75AD 		.ascii	"\025ou\255`\331^.\347\345\255\351tj&\265a\345\327]\333"
  53      60D95E2E 
  53      E7E5ADE9 
  53      746A26B5 
  53      61E5D75D 
  54 0185 B481E7CD 		.ascii	"\264\201\347\315\361O\265\353\222\340"
  54      F14FB5EB 
  54      92E0
  55              		.text
  56              		.section	.gnu.lto_nvicDisableVector.5979797bdc4dbcfa,"",%progbits
  57 0000 789C7D50 		.ascii	"x\234}P\277K\303P\020\276\357\245\321VAqt\262\350\""
  57      BF4BC350 
  57      10BEEFA5 
  57      D1564171 
  57      74B2E822 
  58 0014 14133A39 		.ascii	"\024\023:98\211s\027\251\240c\355P\003\266\021+\342"
ARM GAS  /tmp/ccrIVKPR.s 			page 4


  58      38897317 
  58      A9A063ED 
  58      5003B611 
  58      2BE2
  59 0026 D6D4D4CD 		.ascii	"\326\324\324\315\241\203\203?\026\213[\251?\300E\020"
  59      A183833F 
  59      168B5BA9 
  59      3FC04510 
  60 0036 A4141C1C 		.ascii	"\244\024\034\034*\370\037\024\027\301AD\227\016B\274"
  60      2AF81F14 
  60      17C14144 
  60      970E42BC 
  61 0046 4B1AA50E 		.ascii	"K\032\245\016\036\311\273{\367}\367\335\335S\244\350"
  61      1EC9BB7B 
  61      F77DF7DD 
  61      DD53A4E8 
  62 0056 AF8DF37F 		.ascii	"\257\215\363\177\017\242${h\004U}$*G\025 \001\201J\012"
  62      0FA2247B 
  62      6804557D 
  62      242A4715 
  62      2001814A 
  63 006b A5150815 		.ascii	"\245\025\010\025\223Ts\234jg\357\245\253\216\016\232"
  63      9354739C 
  63      6A67EFA5 
  63      AB8E0E9A 
  64 007b 9553E7CB 		.ascii	"\225S\347\313\363\000\013,k\200\262\240e\276 \356;\025"
  64      F3000B2C 
  64      6B80B2A0 
  64      65BE20EE 
  64      3B15
  65 008d E9EF73A9 		.ascii	"\351\357s\251\232\035\317k\\_=\3271\026\003\362ReA\323"
  65      9A1DCF6B 
  65      5C5F3DD7 
  65      311603F2 
  65      526541D3 
  66 00a1 28831A2B 		.ascii	"(\203\032+G\370B:\037R\247S\205\033\305I4\331\322|\312"
  66      47F8423A 
  66      1F52A753 
  66      851BC549 
  66      34D9D27C 
  67 00b6 344B50E2 		.ascii	"4KP\342\2656\271\027\356\347\376t\006g\320)\007\225"
  67      B536B917 
  67      EEE7FE74 
  67      0667D029 
  67      0795
  68 00c8 03A427D7 		.ascii	"\003\244'\327\021\265i\367\315\275C\210i\214I\322\275"
  68      11B569F7 
  68      CDBD4388 
  68      698C49D2 
  68      BD
  69 00d9 D5C25484 		.ascii	"\325\302T\204\263>}\302\247\273\347\356\307\017]\027"
  69      B33E7DC2 
  69      A7BBE7EE 
  69      C70F5D17 
  70 00e9 20026109 		.ascii	" \002a\011\326zx\037\016\240\031j8\225\2623gAOP]\302"
  70      D67A781F 
  70      0EA0196A 
ARM GAS  /tmp/ccrIVKPR.s 			page 5


  70      3895B233 
  70      67414F50 
  71 00ff 510B0327 		.ascii	"Q\013\003't\314\374A)\212:-\327\031\361w\217\372\033"
  71      74CCFC41 
  71      298A3A2D 
  71      D719F177 
  71      8FFA1B
  72 0112 AF22D89C 		.ascii	"\257\"\330\234\347\2430\322}\321\233\303\327.\372dg"
  72      E7A330D2 
  72      7DD19BC3 
  72      D72EFA64 
  72      67
  73 0123 2DC47E65 		.ascii	"-\304~e\207\376\227EO\254\247\357c1\011\236\250\334"
  73      87FE9745 
  73      4FACA7EF 
  73      6331099E 
  73      A8DC
  74 0135 A94F05C2 		.ascii	"\251O\005\302\241\245\231\306o&#$\014\303\014>\273h"
  74      A1A599C6 
  74      6F262324 
  74      0CC30C3E 
  74      BB68
  75 0147 AE65D6CD 		.ascii	"\256e\326\315\015{s\253hf\355|\336.\230\363\213\251"
  75      0D7B73AB 
  75      6866ED7C 
  75      DE2E98F3 
  75      8BA9
  76 0159 85D48E59 		.ascii	"\205\324\216Y\330\266\262F\226\264\202\221\374\006\256"
  76      D8B6B246 
  76      96B48291 
  76      FC06AE
  77 0168 7676D4   		.ascii	"vv\324"
  78              		.text
  79              		.section	.gnu.lto_nvicSetSystemHandlerPriority.5979797bdc4dbcfa,"",%progbits
  80 0000 789C6362 		.ascii	"x\234cb`b@\007\222@\374\001\210u\201\230\221\231\201"
  80      60624007 
  80      9240FC01 
  80      88758198 
  80      919981
  81 0013 9169C239 		.ascii	"\221i\3029\006\206F\016&FF\020\203\201\221\241\236\211"
  81      0686460E 
  81      26464610 
  81      838191A1 
  81      9E89
  82 0025 B13E9211 		.ascii	"\261>\222\021\254v=\323\201\007\377\377\257\373\322"
  82      AC763DD3 
  82      8107FFFF 
  82      AFFBD2
  83 0034 76EC20E3 		.ascii	"v\354 \3439evF\306\\F\240\211\231\214\014\314 \202\025"
  83      39657646 
  83      C65C46A0 
  83      89998C0C 
  83      CC208215 
  84 0048 C805A963 		.ascii	"\310\005\251cehih\230\240\220\313\010\264,\031\2541"
  84      65686968 
  84      98A090CB 
  84      08B42C19 
ARM GAS  /tmp/ccrIVKPR.s 			page 6


  84      AC31
  85 005a 0448824C 		.ascii	"\004H\202L\013\005\012\001i\346\263\014M\257\2337\367"
  85      0B050A01 
  85      69E6B30C 
  85      4DAF9B37 
  85      F7
  86 006b E926322E 		.ascii	"\351&2.ddeHgdJ\007i<\313\320\274\226\031&\304\014\024"
  86      64646548 
  86      67644A07 
  86      693CCBD0 
  86      BC961926 
  87 0082 8D60CC64 		.ascii	"\215`\314ddda\000\311\034\362\204H\3502\254ihil0\007"
  87      64646100 
  87      C91CF284 
  87      48E832AC 
  87      6968696C 
  88 0098 4A6833AC 		.ascii	"Jh3\254\0021y3\031\231f3\314\002*e\006\251gi\270\325"
  88      02317933 
  88      19996633 
  88      CC022A65 
  88      06A96769 
  89 00ae DCC0C700 		.ascii	"\334\300\307\000f\202\335\234\004q:\320HV\006\030\213"
  89      6682DD9C 
  89      04713AD0 
  89      48560618 
  89      8B
  90 00bf 9981E122 		.ascii	"\231\201\341\"C\343\203s\312\020Ca \004\350\012\240"
  90      43E38373 
  90      CA104361 
  90      2004E80A 
  90      A0
  91 00d0 F34061A4 		.ascii	"\363@a\244\255\247\247\017A\371\305\372\031\2119\372"
  91      ADA7A70F 
  91      41F9C5FA 
  91      198939FA 
  92 00e0 05F94525 		.ascii	"\005\371E%\305\372\311\371\271\271\371y\372\216A\276"
  92      C5FAC9F9 
  92      B9B9F979 
  92      FA8E41BE 
  93 00f0 CEBE15FA 		.ascii	"\316\276\025\372ye\231\311z\311\014\000\317\274E\347"
  93      796599C9 
  93      7AC90C00 
  93      CFBC45E7 
  94              		.text
  95              		.section	.gnu.lto_nvicClearPending.5979797bdc4dbcfa,"",%progbits
  96 0000 789C5D50 		.ascii	"x\234]P1H\303P\020\275\367\177\322\352\2428:Yt\021\212"
  96      3148C350 
  96      10BDF77F 
  96      D2EAA238 
  96      3A597411 
  97 0015 09BA3A89 		.ascii	"\011\272:\211\223C\027\251\240c\315P\003\266\021+\342"
  97      934317A9 
  97      A063CD50 
  97      03B6112B 
  97      E2
  98 0026 D65FD359 		.ascii	"\326_\323Y:\270\250\213\305M\252\356v)\335+\272;\024"
  98      3AB8A88B 
ARM GAS  /tmp/ccrIVKPR.s 			page 7


  98      C54DAAEE 
  98      7629DD2B 
  98      BA3B14
  99 0039 41280EAE 		.ascii	"A(\016\256.B\274KLA\217\237\177\367\337\275{w9E\212"
  99      2E42BC4B 
  99      4C418F9F 
  99      7FF7DFBD 
  99      7B773945 
 100 004e FEDB2C7F 		.ascii	"\376\333,\177\006D\313\354\241\011\252\365D\324\230"
 100      0644CBEC 
 100      A109AAF5 
 100      44D498
 101 005d 50800404 		.ascii	"P\200\004\004\252+\324w T\314S\333\230\326\360\375\353"
 101      AA2BD477 
 101      2054CC53 
 101      DB98D6F0 
 101      FDEB
 102 006f 595F9CF7 		.ascii	"Y_\234\367\232\327\346;\212\000\037,\353\200<\3206?"
 102      9AD7E63B 
 102      8A001F2C 
 102      EB803CD0 
 102      363F
 103 0081 908B9DB2 		.ascii	"\220\213\235\262\376\366yP\275a\024\275v;o#\314L\002"
 103      FEF67950 
 103      BD6114BD 
 103      763B6F23 
 103      CC4C02
 104 0094 15A9F2A1 		.ascii	"\025\251\362\2415\225\320fe\213\037d\313\225\021\230"
 104      3595D066 
 104      658B1F64 
 104      CB951198 
 105 00a4 2B6C6A72 		.ascii	"+ljr\267\034\2110[\221o\031i\013J\274\036Px\037Fg\213"
 105      B71C8930 
 105      5B916F19 
 105      690B4ABC 
 105      1E50781F 
 106 00bb 25DCC0A6 		.ascii	"%\334\300\2462T\031\220\306\\G4\240\323\317\360\003"
 106      32541990 
 106      C65C4734 
 106      A0D3CFF0 
 106      03
 107 00cc 694E734E 		.ascii	"iNsN\300\260\253S\310b4\246\317\305\364\360n\234\261"
 107      C0B0AB53 
 107      C86234A6 
 107      CFC5F4F0 
 107      6E9CB1
 108 00df 6318C2F9 		.ascii	"c\030\302\371\025z\034\013e8-`\177#A\226\250c\232\015"
 108      157A1C0B 
 108      65382D60 
 108      7F234196 
 108      A8639A0D 
 109 00f3 B3EAC3CA 		.ascii	"\263\352\303\312\323\255\204\323>\354+\272d\211\214"
 109      D3AD84D3 
 109      3EEC2BBA 
 109      64898C
 110 0102 E8644D3F 		.ascii	"\350dM?4S\361F\262\361\036v\221\354\203\007\2464\312"
 110      3453F146 
ARM GAS  /tmp/ccrIVKPR.s 			page 8


 110      B2F11E76 
 110      91EC8307 
 110      A634CA
 111 0115 10BD5063 		.ascii	"\020\275Pc8ZHDS+\362\320\374\247\302\313;\216\233\234"
 111      385A4844 
 111      532BF2D0 
 111      FCA7C2CB 
 111      3B8E9B9C 
 112 0129 A0E6EE95 		.ascii	"\240\346\356\225\366\335\203\340\360\250\346zA\245\022"
 112      F6DD83E0 
 112      F0A8E67A 
 112      41A512
 113 0138 54DDB5CD 		.ascii	"T\335\265\315\302z\341\304\255\036\373\236\343\221\256"
 113      C27AE1C4 
 113      AD1EFB9E 
 113      E391AE
 114 0147 3A2B3F72 		.ascii	":+?r\207f\302"
 114      8766C2
 115              		.text
 116              		.section	.gnu.lto_.symbol_nodes.5979797bdc4dbcfa,"",%progbits
 117 0000 789C6362 		.ascii	"x\234cb`b\260c\200\002\246\233\214\365\014\014\023\316"
 117      6062B063 
 117      8002A69B 
 117      8CF50C0C 
 117      13CE
 118 0012 3130D4D7 		.ascii	"10\324\327\317\353`d\272\305X\317\210\304\275\315X\317"
 118      CFEB6064 
 118      BAC558CF 
 118      88C4BDCD 
 118      58CF
 119 0024 84C4BDC3 		.ascii	"\204\304\275\303X\317\214\3402\000\000p\232\023\307"
 119      58CF8CE0 
 119      32000070 
 119      9A13C7
 120              		.text
 121              		.section	.gnu.lto_.refs.5979797bdc4dbcfa,"",%progbits
 122 0000 789C6362 		.ascii	"x\234cb`b`d\200\002\000\000F\000\006"
 122      60626064 
 122      80020000 
 122      460006
 123              		.text
 124              		.section	.gnu.lto_.decls.5979797bdc4dbcfa,"",%progbits
 125 0000 789CAD59 		.ascii	"x\234\255YmpT\325\031>\347\356\015I$Fp\254\205\031:"
 125      6D7054D5 
 125      193EE7EE 
 125      0D492446 
 125      70AC8519 
 126 0015 44AD9D8E 		.ascii	"D\255\235\216\324,\205\372\365\307a\263\011fg\032\233"
 126      D42C85FA 
 126      F5C761B3 
 126      0966671A 
 126      9B
 127 0026 D905A623 		.ascii	"\331\005\246#3]\216\313\325\354L\262\233\331,\016\374"
 127      335D8ECB 
 127      D5EC4CB2 
 127      9BD92C0E 
 127      FC
ARM GAS  /tmp/ccrIVKPR.s 			page 9


 128 0037 3B3162D1 		.ascii	";1b\321\2321|I\006if\243\211-\245-\031 TA\313*\025l"
 128      9A317C49 
 128      066966A3 
 128      892DA52D 
 128      19205441 
 129 004f 11A114C5 		.ascii	"\021\241\024\305\212\324\365\243Cmu\000qPk\351\372\236"
 129      8AD4F5A3 
 129      436D7500 
 129      71506BE9 
 129      FA9E
 130 0061 73BFCEB9 		.ascii	"s\277\316\271\273gs\327\361N\316{\317\275\367\234\347"
 130      BB6773D7 
 130      F14ECE7B 
 130      CFBDF79C 
 130      E7
 131 0072 7DDEE77C 		.ascii	"}\336\347|\334wo4\244\241\3070BE8\372g#t\203\206P\015"
 131      DC776F34 
 131      A4A1C730 
 131      424538FA 
 131      67237483 
 132 0089 42E84EE4 		.ascii	"B\350N\344\036:\224Q(;\241LB\331\217J\017\366\274\301"
 132      1E3A9451 
 132      283BA14C 
 132      42D98F4A 
 132      0FF6BCC1 
 133 009d 6ADB68D5 		.ascii	"j\333h\325\001\026\325\"\023\357\000\224\203P\016A9"
 133      0116D522 
 133      13EF0094 
 133      83500E41 
 133      39
 134 00ae 07E52894 		.ascii	"\007\345(\224W\241\004\240\234\205r\006\312\021\253"
 134      57A104A0 
 134      9C857206 
 134      CA11AB
 135 00bd 0FC3021A 		.ascii	"\017\303\002\032\350\267P~\343\361\3038L\367\370\261"
 135      E8B7507E 
 135      E3F1C338 
 135      4CF7F8B1 
 136 00cd 7DD898B6 		.ascii	"}\330\230\266\017\333'\303z\335\362\203-\014v\336\355"
 136      0FDB27C3 
 136      7ADDF283 
 136      2D0C76DE 
 136      ED
 137 00de C19EB470 		.ascii	"\301\236\264p\260\325\367<\224\213P\346a\363^\215u\236"
 137      B0D5F73C 
 137      948B50E6 
 137      61F35E8D 
 137      759E
 138 00f0 B4783F07 		.ascii	"\264x?\007\345\017P~\200e\034\246O]\031\216^~\330\212"
 138      E50F507E 
 138      80651CA6 
 138      4F5D198E 
 138      5E7ED88A 
 139 0104 1B5B7DD8 		.ascii	"\033[}\330\371\005\017\247\271h\204\346\012\205\361"
 139      F9050FA7 
 139      B96884E6 
 139      0A85F1
ARM GAS  /tmp/ccrIVKPR.s 			page 10


 140 0113 9123986E 		.ascii	"\221#\230n\240\377+\026\003\350Z\264\231\302\221{\230"
 140      A0FF2B16 
 140      03E85AB4 
 140      99C2917B 
 140      98
 141 0124 529C25F8 		.ascii	"R\234%\370\316o\241\237b\202\033\353Q\023\2574\324s"
 141      CE6FA19F 
 141      62821BEB 
 141      5113AF34 
 141      D473
 142 0136 C70811FC 		.ascii	"\307\010\021\374\024\276\226\327\002\\\002T\217\326"
 142      14BE96D7 
 142      025C0254 
 142      8FD6
 143 0144 51FA20EB 		.ascii	"Q\372 \353\330\376\012\360*\327\353F4F\351P\341\205"
 143      D8FE0AF0 
 143      2AD7EB46 
 143      3446E950 
 143      E185
 144 0156 D1C120A5 		.ascii	"\321\301 \245u\004\217\341z\350;\2101\272\011m\007\247"
 144      75048FE1 
 144      7AE83B88 
 144      31BA096D 
 144      07A7
 145 0168 4394BE34 		.ascii	"C\224\2764OC\245\007\301\265\365%\327\004\377\012\337"
 145      4F43A507 
 145      C1B5F525 
 145      D704FF0A 
 145      DF
 146 0179 844C4FFC 		.ascii	"\204LO\374\261Ua\223\355*\207\226\351\205W\226\006\034"
 146      B1556193 
 146      ED2A8796 
 146      E9855796 
 146      061C
 147 018b 000DFD12 		.ascii	"\000\015\375\022\274\332\010\354\370.z\232\322\015 "
 147      BCDA08EC 
 147      F82E7A9A 
 147      D20D20
 148 019a C5D86C9A 		.ascii	"\305\330l\232\323ln\277\347\255F\361\334\262\361X\330"
 148      D36C6EBF 
 148      E7AD46F1 
 148      DCB2F158 
 148      D8
 149 01ab 6657FA9C 		.ascii	"fW\372\234\321nw\233\360\323\015\241\357\241q\246\365"
 149      D16E779B 
 149      F0D30DA1 
 149      EFA171A6 
 149      F5
 150 01bc 205D3B03 		.ascii	" ];\003s\251\221\325K\012u;\226$1\307,\277\347P\303"
 150      73A991D5 
 150      4B0A753B 
 150      962431C7 
 150      2CBFE750 
 151 01d1 507FA158 		.ascii	"P\177\241X\234\353\177\300&\344\0013ixd\231,+\013\335"
 151      9CEB7FC0 
 151      26E40133 
 151      69786499 
ARM GAS  /tmp/ccrIVKPR.s 			page 11


 151      2C2B0BDD 
 152 01e5 68C746F0 		.ascii	"h\307F\360\016\240C\360\316\257\025\333Nol\273\312\306"
 152      0EA043F0 
 152      CEAF15DB 
 152      4E6F6CBB 
 152      CAC6
 153 01f7 F6A91D9B 		.ascii	"\366\251\035\2339\3114t\270<+A\361\017x\213I_\003u\331"
 153      39C93474 
 153      B83C2B41 
 153      F10F788B 
 153      495F0375 
 154 020c 0DE6773C 		.ascii	"\015\346w<\230)\272)\202\231\364\006\263\267l0\373\016"
 154      9829BA29 
 154      8299F406 
 154      B3B76C30 
 154      FB0E
 155 021e 3BC14CF0 		.ascii	";\301L\360`>*\037\314z\257\304\373\277\026\253\375^"
 155      603E2A1F 
 155      CC7AAFC4 
 155      FBBF16AB 
 155      FD5E
 156 0230 56CFCBAC 		.ascii	"V\317\313\254\3702\035\240\205q:k\330]\246u\266\003"
 156      F8321DA0 
 156      85713A6B 
 156      D85DA675 
 156      B603
 157 0242 B64BD8CB 		.ascii	"\266K\330\313\364\303\377j\260L\255u]\251\003\301y|"
 157      F4C3FF6A 
 157      B04CAD75 
 157      5DA903C1 
 157      797C
 158 0254 23582C2F 		.ascii	"#X,/J\\\357V\212\230\315\256\313\236\320\2556\002\333"
 158      4A5CEF56 
 158      8A98CDAE 
 158      CB9ED0AD 
 158      3602DB
 159 0267 292066A2 		.ascii	") f\242!\026r\323p#\301\007\340\236\305\206^e\3239o"
 159      211672D3 
 159      7023C107 
 159      E09EC586 
 159      5E65D339 
 160 027c EE9662BB 		.ascii	"\356\226b\273\027+\264#\370Ox\246\253\013\265\266/\336"
 160      172BB423 
 160      F84F78A6 
 160      AB0BB5B6 
 160      2FDE
 161 028e 44B58C5E 		.ascii	"D\265\214^\2668[\267\235\3129,Eb7CW\243\365\234\213"
 161      B6385BB7 
 161      9DCA392C 
 161      45623743 
 161      57A3F59C 
 162 02a3 B02BE60A 		.ascii	"\260+\346\012\330\356\365\320\034W\361'7\034[\3147\306"
 162      D8EEF5D0 
 162      1C57F127 
 162      371C5BCC 
 162      37C6
 163 02b5 43F86A50 		.ascii	"C\370jPk\257&\253\345\003\2109\3763t6\273qX\232/\236"
ARM GAS  /tmp/ccrIVKPR.s 			page 12


 163      6BAF26AB 
 163      E5038839 
 163      FE337436 
 163      BB71589A 
 164 02cb 6AA0BA79 		.ascii	"j\240\272y\037I\200\322q\035\312\321\207\372\363\033"
 164      1F4980D2 
 164      711DCAD1 
 164      87FAF31B 
 165 02db B76EC634 		.ascii	"\267n\3064\367\022\266\025|\245\321\2321\2256v\202\307"
 165      F712B615 
 165      7CA5D19A 
 165      31953676 
 165      82C7
 166 02ed F904987A 		.ascii	"\371\004\230zW\266\007B\263\2737I\343\305\244\037\023"
 166      57B60742 
 166      B3BB3749 
 166      E3C5A41F 
 166      13
 167 02fe C6CBD38C 		.ascii	"\306\313\323\214\340\327\252\036\256c\212\341\252\225"
 167      E0D7AA1E 
 167      AE638AE1 
 167      AA95
 168 030c 46CB6E05 		.ascii	"F\313n\005\262\347\271\354L\255\262,\034\034\033\264"
 168      B2E7B9EC 
 168      4CADB22C 
 168      1C1C1BB4 
 169 031c D199C24C 		.ascii	"\321\231\302LB\320{\323=CD\025\3204\273\377\012\313"
 169      42D07BD3 
 169      3D434415 
 169      D034BBFF 
 169      0ACB
 170 032e F189AA03 		.ascii	"\361\211\252\003\372\233\"\240o#;\202\227K\"\220\334"
 170      FA9B22A0 
 170      6F233B82 
 170      974B2290 
 170      DC
 171 033f 4A929646 		.ascii	"J\222\226F\000\223\340\011\210\200\340W\201\232\206"
 171      0093E009 
 171      8880E057 
 171      819A86
 172 034e 8EF99283 		.ascii	"\216\371\222\203b\265\036\303\034\355\004G;\351\213"
 172      62B51EC3 
 172      1CED0447 
 172      3BE98B
 173 035d 5A4E8506 		.ascii	"ZN\205\006\334\266\012\334\316\370\343\246\251\271m"
 173      DCB60ADC 
 173      CEF8E3A6 
 173      A9B96D
 174 036c 13B8BDE7 		.ascii	"\023\270\275\347\217\233\012\015\270\215\010\334>\362"
 174      8F9B0A0D 
 174      B88D08DC 
 174      3EF2
 175 037a C72DA0E6 		.ascii	"\307-\240\3466!p\273\340\217\233\012\015\270\355\022"
 175      362170BB 
 175      E08F9B0A 
 175      0DB8ED12 
 176 038a B87DE98F 		.ascii	"\270}\351\217\233\256\346\266\247\302\034o\264\001\012"
ARM GAS  /tmp/ccrIVKPR.s 			page 13


 176      9BAEE6B6 
 176      A7C21C6F 
 176      B4010A
 177 0399 F626FB41 		.ascii	"\366&\373A\325\223\374\237\212I~\2333\311i\300\033\203"
 177      D593FC9F 
 177      8A497E9B 
 177      33C969C0 
 177      1B83
 178 03ab ECD79644 		.ascii	"\354\327\226D\025\004H\262\367\236\211\025\004\037\344"
 178      150448B2 
 178      F79E8915 
 178      041FE4
 179 03ba 923C5A02 		.ascii	"\222<Z\002'\277+lM\246\2515y\266\202&\243\316>=t\215"
 179      27BF2B6C 
 179      4DA6A935 
 179      79B68226 
 179      A3CE3E3D 
 180 03d0 15E2BFAB 		.ascii	"\025\342\277\253\026\345?\012Q\006j\034U\006K\302\360"
 180      16E53F0A 
 180      51066A1C 
 180      55064BC2 
 180      F0
 181 03e1 78B663AA 		.ascii	"x\266c\252U\3112\220\337\367V\003\233*Gyb\265\305\013"
 181      55C93290 
 181      DFF75603 
 181      9B2A4779 
 181      62B5C50B 
 182 03f5 28B1B255 		.ascii	"(\261\262U\231S\006\255\334!\276\235\010\376\013\177"
 182      995306AD 
 182      DC21BE9D 
 182      08FE0B7F 
 183 0405 691CC1D7 		.ascii	"i\034\301\327\201\375+\267\257s{\212\333\277s{\232\333"
 183      81FD2BB7 
 183      AF737B8A 
 183      DBBF737B 
 183      9ADB
 184 0417 33DCBEC3 		.ascii	"3\334\276\303\355\273\334\276\317\355Yn?\344\366c\260"
 184      EDBBDCBE 
 184      CFED596E 
 184      3FE4F663 
 184      B0
 185 0428 CE311D3D 		.ascii	"\3161\035=\352\376\0321_\250*U\317\341\351v/Ez\261\302"
 185      EAFE1A31 
 185      5FA82A55 
 185      CFE1E976 
 185      2F457AB1 
 186 043d EED250D2 		.ascii	"\356\322P\322\352Ee+\202/T=\300\237(\006\330!(\265*"
 186      EA45652B 
 186      822F543D 
 186      C09F2806 
 186      D82128B5 
 187 0452 9710149C 		.ascii	"\227\020\024\234\304\35417\225\313_8\215\233\010\276"
 187      C4EC3137 
 187      95CB5F38 
 187      8D9B08BE 
 188 0462 C8B38A6D 		.ascii	"\310\263\212m\201)\263\012\017\010\363y\311\233Tl<\315"
 188      8129B30A 
ARM GAS  /tmp/ccrIVKPR.s 			page 14


 188      0F08F379 
 188      C99B546C 
 188      3CCD
 189 0474 938A4B53 		.ascii	"\223\212KS'\025\233\006\362[\236\334<\233%\025N*\221"
 189      27159B06 
 189      F25B9EDC 
 189      3C9B2515 
 189      4E2A91
 190 0487 FF065209 		.ascii	"\377\006R\011\015\215\363P.U\236\233H=\321\207O\013"
 190      0D8DF350 
 190      2E559E9B 
 190      483DD187 
 190      4F0B
 191 0499 137D47D5 		.ascii	"\023}G\325`M\022\330V\021l\302\017X\235\232\3316\021"
 191      604D12D8 
 191      56116CC2 
 191      0F589D9A 
 191      D93611
 192 04ac 6CB26A30 		.ascii	"l\262j0\231\331\210\010\266\337\017\330\0145\263\011"
 192      99D98808 
 192      B6DF0FD8 
 192      0C35B309 
 193 04bc 11EC40D5 		.ascii	"\021\354@\325`\"3x'-g\033\360y\276\001\037\364bI\353"
 193      60223378 
 193      272D671B 
 193      F079BE01 
 193      1FF46249 
 194 04d1 C9AACE52 		.ascii	"\311\252\316R\023\333#\022;\354\207X\223Z\262\275\""
 194      13DB2312 
 194      3BEC8758 
 194      935AB2BD 
 194      22
 195 04e2 D8513F60 		.ascii	"\330Q?`\337W3{V\004;Q5\230\314l\237\010v\312\017\330"
 195      DF57337B 
 195      56043B51 
 195      3598CC6C 
 195      9F0876CA 
 196 04f8 7C35B3E7 		.ascii	"|5\263\347E\260\267\253\006\223\231\375Q\004{\317\017"
 196      45B0B7AB 
 196      069399FD 
 196      51047BCF 
 196      0F
 197 0509 D8ED6A66 		.ascii	"\330\355jf\307E\260\263U\203\011\3146\365\347O,w^\314"
 197      C745B0B3 
 197      558309CC 
 197      36F5E74F 
 197      2C775ECC 
 198 051d B9456C0B 		.ascii	"\271El\013\376\302\335\265\027\311\013Hj6\246lF\360"
 198      FEC2DDB5 
 198      17C90B48 
 198      6A36A66C 
 198      46F0
 199 052f 16ADDACD 		.ascii	"\026\255\332\315}X+\277\271\313?\033\355V,\203\364\206"
 199      7D582BBF 
 199      B9CB3F1B 
 199      ED562C83 
 199      F486
ARM GAS  /tmp/ccrIVKPR.s 			page 15


 200 0541 2D91B0AA 		.ascii	"-\221\260\252\213\024\032\302\256{\322\324\360\013\256"
 200      8B141AC2 
 200      AE7BD2D4 
 200      F00BAE
 201 0550 E1793F1A 		.ascii	"\341y?\032\266\253\301\336\020\301>\255\032L\036\220"
 201      B6ABC1DE 
 201      10C13EAD 
 201      1A4C1E90 
 202 0560 3797CB99 		.ascii	"7\227\313\231\2220\036\324IWf\210\003R\222Py\232\021"
 202      92301ED4 
 202      49576688 
 202      03529250 
 202      799A11
 203 0573 9CAB7A40 		.ascii	"\234\253z@F\025\003\342~\017\023[A\330\237{\303\226"
 203      461503E2 
 203      7E0F135B 
 203      41D89F7B 
 203      C396
 204 0585 5958D54E 		.ascii	"YX\325N\225\210\375\371\267\324q\347\034\250k*\305\355"
 204      9588FDF9 
 204      B7D471E7 
 204      1CA86B2A 
 204      C5ED
 205 0597 6D06AFCB 		.ascii	"m\006\257\313\252\343~F\021\267.\305\375\214\033\367"
 205      AAE37E46 
 205      11B72EC5 
 205      FD8C1BF7 
 206 05a7 656FDC32 		.ascii	"eo\3342\013\253\272B\0217$\013o/gs\2071%\370$\377\270"
 206      0BABBA42 
 206      1137240B 
 206      6F2F6773 
 206      873125F8 
 207 05be 351558AF 		.ascii	"5\025X\257b\362\300\326\360\017qkxP\3671\023\327\225"
 207      62F2C0D6 
 207      F00F716B 
 207      7850F731 
 207      13D795
 208 05d1 FB3959EE 		.ascii	"\3739Y\356\020\363\034\202?\343\211\310\347<\271\374"
 208      10F31C82 
 208      3FE389C8 
 208      E73CB9FC 
 209 05e1 92DBCBDC 		.ascii	"\222\333\313\334\026\271\355\327\230\035\340v-\267?"
 209      16B9EDD7 
 209      981DE076 
 209      2DB73F
 210 05f0 E7F6116E 		.ascii	"\347\366\021n\177\301\355 \267\217s\273\236\333\215"
 210      7FC1ED20 
 210      B78F73BB 
 210      9EDB8D
 211 05ff DC6EE676 		.ascii	"\334n\346v+\267\333\270\035\341\366in\177\315\355vM"
 211      2BB7DBB8 
 211      1DE1F669 
 211      6E7FCDED 
 211      764D
 212 0611 9DCE5EAC 		.ascii	"\235\316^\254\220\316\356\320\234l\361z4J\217\037/\254"
 212      90CEEED0 
 212      9C6CF17A 
ARM GAS  /tmp/ccrIVKPR.s 			page 16


 212      344A8F1F 
 212      2FAC
 213 0623 3D378CD7 		.ascii	"=7\214\327\025\350\020\375\177\261\210\335\344\325\371"
 213      15E810FD 
 213      7FB188DD 
 213      E4D5F9
 214 0632 B097AFFC 		.ascii	"\260\227\257\374%\220}\226\327\204\257\200\263\312\267"
 214      25907D96 
 214      D784AF80 
 214      B3CAB7
 215 0641 2578A7C6 		.ascii	"%x\247\306\364\232\020f\227Y\267k\3467\300u\272\347"
 215      F49A1066 
 215      9759B76B 
 215      E637C075 
 215      BAE7
 216 0653 1F1AAEF8 		.ascii	"\037\032\256\370\225\273ZN\377\345L\227\357H\013\205"
 216      95BB5A4E 
 216      FFE54C97 
 216      EF480B85 
 217 0663 65E3ACA9 		.ascii	"e\343\254\251\242\031\301\273\252^(\273\025\013e\216"
 217      A219C1BB 
 217      AA5E28BB 
 217      150B658E 
 218 0673 C47AB7BB 		.ascii	"\304z\267\273P\006u\317Wh/\013\015=\241\333)\365\025"
 218      500675CF 
 218      57682F0B 
 218      0D3DA1DB 
 218      29F515
 219 0686 AC32AFB9 		.ascii	"\2542\257\2719h\376\245\373\202]\244;\330\233\316d\373"
 219      3968FEA5 
 219      FB825DA4 
 219      3BD89BCE 
 219      64FB
 220 0698 8289744F 		.ascii	"\202\211tOO:\025\014E;\302\035\253\203\251\007\222\211"
 220      4F3A150C 
 220      453BC21D 
 220      AB83A907 
 220      9289
 221 06aa E604FA59 		.ascii	"\346\004\372Y\260+\335c\004I\267\261:\330a\244\262\351"
 221      B02BDD63 
 221      0449B7B1 
 221      3AD861A4 
 221      B2E9
 222 06bc CC5D19D2 		.ascii	"\314]\031\322\333\225L\364\005c\351U\231\204\221Y\023"
 222      DB954CF4 
 222      0563E955 
 222      99849159 
 222      13
 223 06cd 0FA7571A 		.ascii	"\017\247W\032-F*\321\025\377q2k\304\357Kg\342\000\022"
 223      2D462AD1 
 223      15FF7132 
 223      6BC4EF4B 
 223      67E20012 
 224 06e1 6F0BB544 		.ascii	"o\013\265D\202$\323ss*\2352n6\310\275\311`2\225\350"
 224      8224D373 
 224      732A9D32 
 224      6E36C8BD 
ARM GAS  /tmp/ccrIVKPR.s 			page 17


 224      C9603295 
 225 06f6 5EB5D208 		.ascii	"^\265\322\010\366eW&S\331\346.T\267\012\316\013\027"
 225      F6655726 
 225      53D9E62E 
 225      54B70ACE 
 225      0B17
 226 0708 C4B3D3EE 		.ascii	"\304\263\323\356\272{iS\030\315`n\333R\344\336nc\231"
 226      BA7B6953 
 226      18CD606E 
 226      DB52E4DE 
 226      6E6399
 227 071b 91006F38 		.ascii	"\221\000o8\245\367f\222\351\231\354~k\262\317}0\207"
 227      A5F76692 
 227      E999EC7E 
 227      6BB2CF7D 
 227      3087
 228 072d DD8919D9 		.ascii	"\335\211\031\331\330\232\276\254\321\323NR+\273\215"
 228      D89ABEAC 
 228      D1D34E52 
 228      2BBB8D
 229 073c 4C2734CD 		.ascii	"L'4\315$\263kj\273\314k\016\027\3566H\246\323H\201\313"
 229      24B36B6A 
 229      BBCC6B0E 
 229      17EE3648 
 229      A6D34881 
 230 0751 FB6B99BF 		.ascii	"\373k\231\277\333\343\331\371\242\004V\340\306\352l"
 230      DBE3D9F9 
 230      A20456E0 
 230      C6EA6C
 231 0760 30DC118B 		.ascii	"0\334\021\213\304\034\232\211t\306\210'z\026\002\321"
 231      C41C9A89 
 231      74C68827 
 231      7A1602D1 
 232 0770 FABB9745 		.ascii	"\372\273\227E\302\361%kz\015=\022k\213\326G\333\300"
 232      C2F1256B 
 232      7A0D3D12 
 232      6B8BD647 
 232      DBC0
 233 0782 2E6B6B9D 		.ascii	".kk\235\257G\302m\321\272\250y\365Cx\330\351>\\\000"
 233      AF47C26D 
 233      D1BAA879 
 233      F54378D8 
 233      E93E5C00 
 234 0796 0F85CB85 		.ascii	"\017\205\313\205z$\324\342^\376H\213t:\027\267\350\261"
 234      7A24D4E2 
 234      5EFE488B 
 234      743A17B7 
 234      E8B1
 235 07a8 2591685D 		.ascii	"%\221h],\334\302\235\324\204;\227FZ\241{,\252/[\362"
 235      2CDCC29D 
 235      D4843B97 
 235      465AA17B 
 235      2CAA2F5B 
 236 07bd 93684D28 		.ascii	"\223hM(\022\015G\0031(avn\357\254\211\265\263\207"
 236      120D4703 
 236      31286176 
 236      6EEFAC89 
ARM GAS  /tmp/ccrIVKPR.s 			page 18


 236      B5B387
 237 07d0 E1C560DA 		.ascii	"\341\305`\332\231i\005S\323\321\2618\024\325[\230\011"
 237      99690553 
 237      D3D1B138 
 237      14D55B98 
 237      09
 238 07e1 C175A073 		.ascii	"\301u\240sq4\320\012%\324\032\325\341Y\024\370\205\242"
 238      7134D00A 
 238      25D41AD5 
 238      E15914F8 
 238      85A2
 239 07f3 001E0A47 		.ascii	"\000\036\012G\365D\027\311\324\305\343\367\255J%\342"
 239      F54417C9 
 239      D4C5E3F7 
 239      AD4A25E2 
 240 0803 F12BED4A 		.ascii	"\361+\355J\363\255\267.\270\343+7\205,<"
 240      F3ADB72E 
 240      B8E32B37 
 240      852C3C
 241              		.text
 242              		.section	.gnu.lto_.symtab.5979797bdc4dbcfa,"",%progbits
 243 0000 6E766963 		.ascii	"nvicEnableVector\000\000\000\000\000\000\000\000\000"
 243      456E6162 
 243      6C655665 
 243      63746F72 
 243      00000000 
 244 0019 000000A1 		.ascii	"\000\000\000\241\000\000\000nvicDisableVector\000\000"
 244      0000006E 
 244      76696344 
 244      69736162 
 244      6C655665 
 245 0033 00000000 		.ascii	"\000\000\000\000\000\000\000\000\000\000\257\000\000"
 245      00000000 
 245      0000AF00 
 245      00
 246 0040 006E7669 		.ascii	"\000nvicSetSystemHandlerPriority\000\000\000\000\000"
 246      63536574 
 246      53797374 
 246      656D4861 
 246      6E646C65 
 247 0062 00000000 		.ascii	"\000\000\000\000\000\000\000\265\000\000\000nvicCle"
 247      000000B5 
 247      0000006E 
 247      76696343 
 247      6C65
 248 0074 61725065 		.ascii	"arPending\000\000\000\000\000\000\000\000\000\000\000"
 248      6E64696E 
 248      67000000 
 248      00000000 
 248      00000000 
 249 0088 00BB0000 		.ascii	"\000\273\000\000\000"
 249      00
 250              		.text
 251              		.section	.gnu.lto_.opts,"",%progbits
 252 0000 272D6D63 		.ascii	"'-mcpu=cortex-m3' '-mno-thumb-interwork' '-mthumb' "
 252      70753D63 
 252      6F727465 
ARM GAS  /tmp/ccrIVKPR.s 			page 19


 252      782D6D33 
 252      2720272D 
 253 0033 272D6767 		.ascii	"'-ggdb' '-O2' '-fomit-frame-pointer' '-falign-funct"
 253      64622720 
 253      272D4F32 
 253      2720272D 
 253      666F6D69 
 254 0066 696F6E73 		.ascii	"ions=16' '-ffunction-sections' '-fdata-sections' '-"
 254      3D313627 
 254      20272D66 
 254      66756E63 
 254      74696F6E 
 255 0099 666E6F2D 		.ascii	"fno-common' '-flto'\000"
 255      636F6D6D 
 255      6F6E2720 
 255      272D666C 
 255      746F2700 
 256              		.text
 257              		.cfi_sections	.debug_frame
 258              		.section	.text.nvicEnableVector,"ax",%progbits
 259              		.align	2
 260              		.p2align 4,,15
 261              		.global	nvicEnableVector
 262              		.thumb
 263              		.thumb_func
 264              		.type	nvicEnableVector, %function
 265              	nvicEnableVector:
 266              	.LFB217:
 267              		.file 1 "../../../os/hal/ports/common/ARMCMx/nvic.c"
 268              		.loc 1 57 0
 269              		.cfi_startproc
 270              		@ args = 0, pretend = 0, frame = 0
 271              		@ frame_needed = 0, uses_anonymous_args = 0
 272              		@ link register save eliminated.
 273              	.LVL0:
 274              		.loc 1 65 0
 275 0000 00F01F03 		and	r3, r0, #31
 276 0004 0122     		movs	r2, #1
 277 0006 02FA03F3 		lsl	r3, r2, r3
 278 000a 4209     		lsrs	r2, r0, #5
 279 000c 9200     		lsls	r2, r2, #2
 280              		.loc 1 63 0
 281 000e 0901     		lsls	r1, r1, #4
 282              	.LVL1:
 283 0010 00F16040 		add	r0, r0, #-536870912
 284              	.LVL2:
 285 0014 02F16042 		add	r2, r2, #-536870912
 286 0018 02F56142 		add	r2, r2, #57600
 287 001c C9B2     		uxtb	r1, r1
 288 001e 00F56140 		add	r0, r0, #57600
 289              	.LVL3:
 290 0022 80F80013 		strb	r1, [r0, #768]
 291              		.loc 1 65 0
 292 0026 C2F88031 		str	r3, [r2, #384]
 293              		.loc 1 66 0
 294 002a 1360     		str	r3, [r2]
 295 002c 7047     		bx	lr
ARM GAS  /tmp/ccrIVKPR.s 			page 20


 296              		.cfi_endproc
 297              	.LFE217:
 298              		.size	nvicEnableVector, .-nvicEnableVector
 299 002e 00BF     		.section	.text.nvicDisableVector,"ax",%progbits
 300              		.align	2
 301              		.p2align 4,,15
 302              		.global	nvicDisableVector
 303              		.thumb
 304              		.thumb_func
 305              		.type	nvicDisableVector, %function
 306              	nvicDisableVector:
 307              	.LFB218:
 308              		.loc 1 74 0
 309              		.cfi_startproc
 310              		@ args = 0, pretend = 0, frame = 0
 311              		@ frame_needed = 0, uses_anonymous_args = 0
 312              		@ link register save eliminated.
 313              	.LVL4:
 314 0000 10B4     		push	{r4}
 315              		.cfi_def_cfa_offset 4
 316              		.cfi_offset 4, -4
 317              		.loc 1 76 0
 318 0002 00F01F03 		and	r3, r0, #31
 319 0006 0124     		movs	r4, #1
 320 0008 9C40     		lsls	r4, r4, r3
 321 000a 4FF46143 		mov	r3, #57600
 322 000e 4109     		lsrs	r1, r0, #5
 323 0010 CEF20003 		movt	r3, 57344
 324 0014 2031     		adds	r1, r1, #32
 325              		.loc 1 80 0
 326 0016 1844     		add	r0, r0, r3
 327              	.LVL5:
 328 0018 0022     		movs	r2, #0
 329              		.loc 1 76 0
 330 001a 43F82140 		str	r4, [r3, r1, lsl #2]
 331              		.loc 1 80 0
 332 001e 80F80023 		strb	r2, [r0, #768]
 333              		.loc 1 82 0
 334 0022 5DF8044B 		ldr	r4, [sp], #4
 335 0026 7047     		bx	lr
 336              		.cfi_endproc
 337              	.LFE218:
 338              		.size	nvicDisableVector, .-nvicDisableVector
 339 0028 AFF30080 		.section	.text.nvicSetSystemHandlerPriority,"ax",%progbits
 339      AFF30080 
 340              		.align	2
 341              		.p2align 4,,15
 342              		.global	nvicSetSystemHandlerPriority
 343              		.thumb
 344              		.thumb_func
 345              		.type	nvicSetSystemHandlerPriority, %function
 346              	nvicSetSystemHandlerPriority:
 347              	.LFB219:
 348              		.loc 1 90 0
 349              		.cfi_startproc
 350              		@ args = 0, pretend = 0, frame = 0
 351              		@ frame_needed = 0, uses_anonymous_args = 0
ARM GAS  /tmp/ccrIVKPR.s 			page 21


 352              		@ link register save eliminated.
 353              	.LVL6:
 354              		.loc 1 100 0
 355 0000 0901     		lsls	r1, r1, #4
 356              	.LVL7:
 357 0002 00F16040 		add	r0, r0, #-536870912
 358              	.LVL8:
 359 0006 C9B2     		uxtb	r1, r1
 360 0008 00F56D40 		add	r0, r0, #60672
 361              	.LVL9:
 362 000c 0176     		strb	r1, [r0, #24]
 363 000e 7047     		bx	lr
 364              		.cfi_endproc
 365              	.LFE219:
 366              		.size	nvicSetSystemHandlerPriority, .-nvicSetSystemHandlerPriority
 367              		.section	.text.nvicClearPending,"ax",%progbits
 368              		.align	2
 369              		.p2align 4,,15
 370              		.global	nvicClearPending
 371              		.thumb
 372              		.thumb_func
 373              		.type	nvicClearPending, %function
 374              	nvicClearPending:
 375              	.LFB220:
 376              		.loc 1 109 0
 377              		.cfi_startproc
 378              		@ args = 0, pretend = 0, frame = 0
 379              		@ frame_needed = 0, uses_anonymous_args = 0
 380              		@ link register save eliminated.
 381              	.LVL10:
 382              		.loc 1 111 0
 383 0000 00F01F03 		and	r3, r0, #31
 384 0004 0122     		movs	r2, #1
 385 0006 9A40     		lsls	r2, r2, r3
 386 0008 4009     		lsrs	r0, r0, #5
 387              	.LVL11:
 388 000a 4FF46143 		mov	r3, #57600
 389 000e 6030     		adds	r0, r0, #96
 390 0010 CEF20003 		movt	r3, 57344
 391 0014 43F82020 		str	r2, [r3, r0, lsl #2]
 392 0018 7047     		bx	lr
 393              		.cfi_endproc
 394              	.LFE220:
 395              		.size	nvicClearPending, .-nvicClearPending
 396 001a 00BFAFF3 		.text
 396      0080
 397              	.Letext0:
 398              		.file 2 "/home/alex/MentorGraphics/Sourcery_CodeBench_Lite_for_ARM_EABI/arm-none-eabi/include/stdi
 399              		.file 3 "../../../os/common/ports/ARMCMx/compilers/GCC/chtypes.h"
 400              		.file 4 "../../../os/rt/include/chsystypes.h"
 401              		.file 5 "../../../os/rt/include/chschd.h"
 402              		.file 6 "../../../os/common/ext/CMSIS/include/core_cm3.h"
 403              		.file 7 "../../../os/common/ports/ARMCMx/chcore.h"
 404              		.file 8 "../../../os/common/ports/ARMCMx/chcore_v7m.h"
 405              		.file 9 "../../../os/rt/include/chtm.h"
 406              		.file 10 "../../../os/rt/include/chsem.h"
 407              		.file 11 "../../../os/rt/include/chmtx.h"
ARM GAS  /tmp/ccrIVKPR.s 			page 22

