ARM GAS  /tmp/ccXlDfva.s 			page 1


   1              		.syntax unified
   2              		.cpu cortex-m3
   3              		.fpu softvfp
   4              		.eabi_attribute 20, 1
   5              		.eabi_attribute 21, 1
   6              		.eabi_attribute 23, 3
   7              		.eabi_attribute 24, 1
   8              		.eabi_attribute 25, 1
   9              		.eabi_attribute 26, 1
  10              		.eabi_attribute 30, 2
  11              		.eabi_attribute 34, 1
  12              		.eabi_attribute 18, 4
  13              		.thumb
  14              		.file	"test_sequence_001.c"
  15              		.text
  16              	.Ltext0:
  17              		.section	.gnu.lto_.jmpfuncs.81fe53e17c8c14b,"",%progbits
  18 0000 789CA593 		.ascii	"x\234\245\223\255o\024A\030\207g\267\337\250\376\005"
  18      AD6F1441 
  18      188767B7 
  18      DFA8FE05 
  19 0010 97152892 		.ascii	"\227\025(\222\026HP\213an\366\275\273I\367\253;\263"
  19      1648508B 
  19      616EF6BD 
  19      BB49F7AB 
  19      3BB3
  20 0022 A5C54CAE 		.ascii	"\245\305L\256\245\264K\31259\256\012sA\200@\000A\320"
  20      A5B44BCA 
  20      3539AE0A 
  20      73418040 
  20      0041D0
  21 0035 84100402 		.ascii	"\204\020\004\002\004\002\201@ \020\010\020\204 \020"
  21      04028140 
  21      20100810 
  21      842010
  22 0044 08040283 		.ascii	"\010\004\002\203 \004\201\250\240\354\336\355\245\354"
  22      200481A8 
  22      A0ECDEED 
  22      A5EC
  23 0052 D725C3AC 		.ascii	"\327%\303\254\334\367\231\347\375\315;3:\322Q\331w8"
  23      DCF799E7 
  23      FDCD3B33 
  23      3AD251D9 
  23      7738
  24 0064 87D0D929 		.ascii	"\207\320\331)\224T5\375\032:\350\357\367\347#\015\325"
  24      945435FD 
  24      1A3AE8EF 
  24      F7E7230D 
  24      D5
  25 0075 90F6B0BF 		.ascii	"\220\366\260\277\177.\322\264\001\245\351\253Z\244\351"
  25      7F2ED2B4 
  25      01A5E9AB 
  25      5AA4E9
  26 0084 28034DD4 		.ascii	"(\003M\324\320\304\020\232L!\351\365\307\025\327\203"
  26      D0C4109A 
  26      4C21E9F5 
  26      C715D783 
ARM GAS  /tmp/ccXlDfva.s 			page 2


  27 0094 DCFABE96 		.ascii	"\334\372\276\226\027\\\222\023\034\026\00475\305-<U"
  27      175C9213 
  27      1C160437 
  27      35C52D3C 
  27      55
  28 00a5 15BC5315 		.ascii	"\025\274S\025|W\025\334\322\345\004\205!>S\025\274W"
  28      7C5715DC 
  28      D2E50485 
  28      213E5315 
  28      BC57
  29 00b7 15FC5015 		.ascii	"\025\374P\025\334\226|\012\005\301s\325\267\364Q5\301"
  29      DC967C0A 
  29      05C173D5 
  29      B7F45135 
  29      C1
  30 00c8 2F55C1BD 		.ascii	"/U\301\275IE\301\013U\301'U\301oIA\341\024\356O)&x)"
  30      4945C10B 
  30      55C12755 
  30      C16F4941 
  30      E114EE4F 
  31 00e0 292824F8 		.ascii	")($\370\254\232\340@U\360`ZQ\360JU\360EU\360GRP8\205"
  31      AC9AE040 
  31      55F0605A 
  31      51F04A55 
  31      F04555F0 
  32 00f9 47338A82 		.ascii	"G3\212\202\327\252\202\257\222\002=/\270>+'\270\343"
  32      D7AA82AF 
  32      92023D2F 
  32      B83E2B27 
  32      B8E3
  33 010b E60D8F25 		.ascii	"\346\015\217%\015\363y\301\233\214@\377\237\223\374"
  33      0DF379C1 
  33      9B8C40FF 
  33      9F93FC
  34 011a 2699A130 		.ascii	"&\231\2410\307\033sr\202\311\274\340I\225`\252\206\336"
  34      C71B7372 
  34      82C9BCE0 
  34      499560AA 
  34      86DE
  35 012c A6B5E97C 		.ascii	"\246\265\351|-^\367A\262qa\353?\253\00435t\367\330\260"
  35      2D5EF741 
  35      B27161EB 
  35      3FAB0433 
  35      3574F7D8 
  36 0141 368B8645 		.ascii	"6\213\206Ed,,,\030\244%\254zS\360V\000\330b\302\017"
  36      642C2C2C 
  36      18A425AC 
  36      7A53F056 
  36      00D862C2 
  37 0156 BC06B5A9 		.ascii	"\274\006\265\251\3334\015#\003\304\177\355\021\025\327"
  37      DB340D23 
  37      03C47FED 
  37      1115D7
  38 0165 065F0600 		.ascii	"\006_\006\000\027\327m\020\214c\262$H\013\310\222\231"
  38      17D76D10 
  38      8C63B224 
  38      480BC892 
ARM GAS  /tmp/ccXlDfva.s 			page 3


  38      99
  39 0176 05788009 		.ascii	"\005x\200\011\210z\330h@ \030\275\000\371\026C\300\301"
  39      887AD868 
  39      402018BD 
  39      00F91643 
  39      C0C1
  40 0188 6C69D4A0 		.ascii	"li\324\240\274\005f\014\002\236\246(\003\006\335G)3"
  40      BC05660C 
  40      029EA628 
  40      0306DD47 
  40      2933
  41 019a 005B631C 		.ascii	"\000[c\034\234$$\207\322\220I\2052N\011+\311@\032M\021"
  41      9C242487 
  41      D2904985 
  41      324E092B 
  41      C9401A4D 
  42 01af 3210D69A 		.ascii	"2\020\326\232\213\035J\314J\300\001\307\367<\2738\250"
  42      8B1D4ACC 
  42      4AC001C7 
  42      F73CBB38 
  42      A8
  43 01c0 11D002EC 		.ascii	"\021\320\002\354\0375(7\020/\2001-0\265\353\336*\024"
  43      1F352837 
  43      102F8031 
  43      2D30B5EB 
  43      DE2A14
  44 01d3 B6796460 		.ascii	"\266yd`\0147!9Rj\216\003*C\302\012\270\234\011N\035"
  44      0C372139 
  44      526A8E03 
  44      2A43C20A 
  44      B89C094E 
  45 01e8 F0426E56 		.ascii	"\360BnV\001c\006E<\327Z\301A\352(1\214\200\312\014N"
  45      01630645 
  45      3CD75AC1 
  45      41EA2831 
  45      8C80CA0C 
  46 01fd C821DEA4 		.ascii	"\310!\336\244\010\200\204\011V\005T\017\212\201\203"
  46      08808409 
  46      5605540F 
  46      8A8183
  47 020c FD563CCB 		.ascii	"\375V<\313t\022c\000\263\334p\036\323\270\007\345\225"
  47      74126300 
  47      B3DC701E 
  47      D3B807E5 
  47      95
  48 021d 210368C6 		.ascii	"!\003h\306w&X\253\004\270\363\357a\347\000\317\217\247"
  48      772658AB 
  48      04B8F3EF 
  48      61E700CF 
  48      8FA7
  49 022f 133F07C1 		.ascii	"\023?\007\301|\000\253$\203\353\011j\305\327z\370\372"
  49      7C00AB24 
  49      83EB096A 
  49      C5D77AF8 
  49      FA
  50 0240 4A80F4B2 		.ascii	"J\200\364\262\214\036U\021H\306/\226C\354\362\320)\005"
  50      8C1E5511 
ARM GAS  /tmp/ccXlDfva.s 			page 4


  50      48C62F96 
  50      43ECF2D0 
  50      2905
  51 0252 181F3016 		.ascii	"\030\0370\026\330\034W\001\215\000\226CpI\3716c \236"
  51      D81C5701 
  51      8D009643 
  51      7049F936 
  51      63209E
  52 0265 A067879C 		.ascii	"\240g\207\234zn\346N\372\355\336\306\266\341\356]Y\337"
  52      7A6EE64E 
  52      FAEDDEC6 
  52      B6E1EE5D 
  52      59DF
  53 0277 EC66C790 		.ascii	"\354f\307\220\002N\324\331\355\216\005\332\227+\201"
  53      024ED4D9 
  53      ED8E05DA 
  53      972B81
  54 0286 E9338BA7 		.ascii	"\3513\213\247\026O\017\271\225\315\356\325h\267c\260"
  54      164F0FB9 
  54      95CDEED5 
  54      68B763B0 
  55 0296 5E37EA6C 		.ascii	"^7\352l\231E\021\353\265\327w6\215\306N{+\3471\320\211"
  55      994511EB 
  55      B5D77736 
  55      8DC64E7B 
  55      2BE731D0 
  56 02ab 41D6EEEE 		.ascii	"A\326\356\356\305\275\215^\276\230|d;Z\217<v2\340\350"
  56      C5BD8D5E 
  56      BE987C64 
  56      3B5A8F3C 
  56      7632E0E8 
  57 02bf 2FDDA556 		.ascii	"/\335\245V\324"
  57      D4
  58              		.text
  59              		.section	.gnu.lto_.inline.81fe53e17c8c14b,"",%progbits
  60 0000 789C6362 		.ascii	"x\234cb`b\300\006^B\205\201\324\005\306\247\034\214"
  60      6062C006 
  60      5E428581 
  60      D405C6A7 
  60      1C8C
  61 0012 0C4C4C17 		.ascii	"\014LL\027\370\031\330\026\310\203\305\231\270\031\030"
  61      F819D816 
  61      C883C599 
  61      B81918
  62 0021 1847C951 		.ascii	"\030G\311Q\222\226$\203\322\012F\272\245;\006\000\337"
  62      92962483 
  62      D20A46BA 
  62      A53B0600 
  62      DF
  63 0032 090D39   		.ascii	"\011\0159"
  64              		.text
  65              		.section	.gnu.lto_.pureconst.81fe53e17c8c14b,"",%progbits
  66 0000 789C6362 		.ascii	"x\234cb`b`e\200\000&\006\011&\011\000\001\000\000>"
  66      60626065 
  66      80002606 
  66      09260900 
  66      0100003E 
ARM GAS  /tmp/ccXlDfva.s 			page 5


  67              		.text
  68              		.section	.gnu.lto_test_001_002_execute.81fe53e17c8c14b,"",%progbits
  69 0000 789CA5D9 		.ascii	"x\234\245\331Ol\323V\034\007\360\367\234\226v\2348\262"
  69      4F6CD356 
  69      1C07F0F7 
  69      9C96769C 
  69      38B2
  70 0012 0BCA6DA7 		.ascii	"\013\312m\247\266 \355\324\323\\\347\245\261\232\330"
  70      B620EDD4 
  70      D35CE7A5 
  70      B19AD8
  71 0021 A9FD5C28 		.ascii	"\251\375\\(\027k\212r\310a\233F\213\204\264\003\356"
  71      176B8A72 
  71      C8619B46 
  71      8B84B403 
  71      EE
  72 0032 5469050A 		.ascii	"Ti\005\012\3440i\351?\030\232\320(\177\265\303$(\033"
  72      E43069E9 
  72      3F189AD0 
  72      287FB5C3 
  72      24281B
  73 0045 9B769836 		.ascii	"\233v\23066\212\266\303\004\024h%4\361\247@\017\223"
  73      368AB6C3 
  73      04146825 
  73      34F1A740 
  73      0F93
  74 0057 362885EC 		.ascii	"6(\205\354\331NHH\374S\336\323\263Z\327\215\277\357"
  74      D94E4848 
  74      FC53DED3 
  74      B35AD78D 
  74      BFEF
  75 0069 FD3EFEF9 		.ascii	"\375>\376\371\331\227(HA\215\333\333\354wh+B_\264!\204"
  75      D9972848 
  75      418DDBDB 
  75      EC77682B 
  75      425FB421 
  76 007e 63082BC5 		.ascii	"c\010+\305E\204\306:\025\214\375\003\204\321~\005\357"
  76      4584C63A 
  76      158CFD03 
  76      84D17E05 
  76      EF
  77 008f 1FC641F6 		.ascii	"\037\306A\366\202\362\343J\271|~\372\263\263\263xA)"
  77      82F2E34A 
  77      B97C7EFA 
  77      B3B3B378 
  77      4129
  78 00a1 B04FDAD1 		.ascii	"\260O\332\321\270\347\025\343\010\345\202\004e{\177"
  78      B8E715E3 
  78      08E58204 
  78      657B7F
  79 00b0 988315FF 		.ascii	"\230\203\025\377o\354\032\372\364b\351\337\255\357\343"
  79      6FEC1AFA 
  79      F462E9DF 
  79      ADEFE3
  80 00bf 13B81DCD 		.ascii	"\023\270\035\315\240\3511\317\333R\300\350\023\264\356"
  80      A0E931CF 
  80      DB52C0E8 
ARM GAS  /tmp/ccXlDfva.s 			page 6


  80      13B4EE
  81 00ce 4DF847F8 		.ascii	"M\370G\370\203`\330.\314\016Q\365\010\371\207\327\321"
  81      8360D82E 
  81      CC0E51F5 
  81      08F987D7 
  81      D1
  82 00df F8CAAD7B 		.ascii	"\370\312\255{\035\341HT\033\241\344*I\377\223\222\347"
  82      1DE14854 
  82      1BA1E42A 
  82      49FF9392 
  82      E7
  83 00f0 0D16706C 		.ascii	"\015\026pl\033zw\316+\275W\300m\250\222/\370;6\305\227"
  83      1B7A77CE 
  83      2BBD57C0 
  83      6DA8922F 
  83      F83B36C5 
  84 0105 4BB1A619 		.ascii	"K\261\246\0316\345\260\362\272V\307\026\226\355\014"
  84      36E5B0F2 
  84      BA56C716 
  84      96ED0C
  85 0114 CBDDFE6A 		.ascii	"\313\335\376jsT\271X}9\247\200\337\332\206\234\260\334"
  85      7354B958 
  85      7D39A780 
  85      DFDA869C 
  85      B0DC
  86 0126 E6C6722B 		.ascii	"\346\306r+w\270\305;!\361\335V\342\242Q#/\313\223\037"
  86      77B8C53B 
  86      21F1DD56 
  86      E2A25123 
  86      2FCB931F 
  87 013a 7093F741 		.ascii	"p\223\367A\344\207\255\310JM\374H^\274\312-\236\302"
  87      E487ADC8 
  87      4A4DFC48 
  87      5EBCCA2D 
  87      9EC2
  88 014c 10F9712B 		.ascii	"\020\371q+2\252\221\237\310\223\237r\223\027@\362\232"
  88      32AA919F 
  88      C8939F72 
  88      931740F2 
  88      9A
  89 015d 00F9993C 		.ascii	"\000\371\231<\37197y\011$\257\013\220_\310\2237\270"
  89      F9393779 
  89      0924AF0B 
  89      905FC893 
  89      37B8
  90 016f C91B20F9 		.ascii	"\311\033 \371e+2\256\221_\311\223\313\334\3449\005\""
  90      652B32AE 
  90      915FC993 
  90      CBDCE439 
  90      0522
  91 0181 4FB4F393 		.ascii	"O\264\363\223\017\234\224&\037\374\233\227|\005$\037"
  91      0F9C9426 
  91      1FFC9B97 
  91      7C05241F 
  92 0191 12204FCA 		.ascii	"\022 O\312\223\017s\223\227A\362\021\001\362Qyr\211"
  92      930F7393 
  92      9741F211 
ARM GAS  /tmp/ccXlDfva.s 			page 7


  92      01F25179 
  92      7289
  93 01a3 9BECC520 		.ascii	"\233\354\305 \362\224\000yZ\236<\303M>\001\222g[\221"
  93      F2940079 
  93      5A9E3CC3 
  93      4D3E0192 
  93      675B91
  94 01b6 EBDE1873 		.ascii	"\353\336\030s\362\344c\334\344\237@\362q\201.\237\222"
  94      F2E463DC 
  94      E49F40F2 
  94      71812E9F 
  94      92
  95 01c7 27CF7393 		.ascii	"'\317s\223\357\201\344\323\002]>#O>\313M\036o\203\310"
  95      EF81E4D3 
  95      025D3E23 
  95      4F3ECB4D 
  95      1E6F83C8 
  96 01db E704BA7C 		.ascii	"\347\004\272|^\236|\201\233|\022$_\024 _\222'/p\223"
  96      5E9E7C81 
  96      9B7C1224 
  96      5F14205F 
  96      92272F70 
  97 01f0 7F06C997 		.ascii	"\177\006\311\227\005\310\337\311\223\277\347&\337\007"
  97      05C8DFC9 
  97      93BFE726 
  97      DF07
  98 01fe C95704C8 		.ascii	"\311W\004\310?\310\223\177\341&O\264C\344_\005\310W"
  98      3FC8937F 
  98      E1264FB4 
  98      43E45F05 
  98      C857
  99 0210 E5C9BF71 		.ascii	"\345\311\277q\223\347A\362\357\002o\214k\362\344En\362"
  99      93E741F2 
  99      EF026F8C 
  99      6BF2E445 
  99      6EF2
 100 0222 55907C5D 		.ascii	"U\220|]\240\3137\344\3117\271\311\253 \371\226\000y"
 100      A0CB37E4 
 100      C937B9C9 
 100      AB20F996 
 100      0079
 101 0234 499E7C9B 		.ascii	"I\236|\233\233<\271\011\"\337\021 \337\225'/s\223\317"
 101      9B3CB909 
 101      22DF1120 
 101      DF95272F 
 101      7393CF
 102 0247 81E40702 		.ascii	"\201\344\007\002\344\207\362\344G\334\344E\220\274*"
 102      E487F2E4 
 102      47DCE445 
 102      90BC2A
 103 0256 407E2C4F 		.ascii	"@~,O~\302M^\003\311O\005\336\030k\362\344g\334\344b"
 103      7EC24D5E 
 103      03C94F05 
 103      DE186BF2 
 103      E467DCE4 
 104 026b 07447E2E 		.ascii	"\007D~.@^\227'\277\340&\177\003\2227\004\310/\345\311"
 104      405E9727 
ARM GAS  /tmp/ccXlDfva.s 			page 8


 104      BFE0267F 
 104      03923704 
 104      C82FE5C9 
 105 027f AFB8C97F 		.ascii	"\257\270\311\177\202\344\262\000y\342ki\362\201\373"
 105      82E4B200 
 105      79E26B69 
 105      F281FB
 106 028e BCE47F40 		.ascii	"\274\344\177@\362\301\346)\336$\227\353\236\277C\362"
 106      F2C1E629 
 106      DE2497EB 
 106      9EBF43F2 
 107 029e E6496EF3 		.ascii	"\346In\363\347\235\220\371p+\263Wg>\"o>\312m\376\026"
 107      E79D90F9 
 107      702BB357 
 107      673E226F 
 107      3ECA6DFE 
 108 02b3 34975A99 		.ascii	"4\227Z\231\353\226\306\224<y\232\233\374\027H\236\021"
 108      EB96C694 
 108      3C799A9B 
 108      FC17489E 
 108      11
 109 02c4 20CFCA93 		.ascii	" \317\312\223\347\270\311\377\201\344c\002\344\343r"
 109      E7B8C9FF 
 109      81E46302 
 109      E4E372
 110 02d3 E43FD0D8 		.ascii	"\344?\320\330\312\374;\325\031\302\2152mq1\370&bGww"
 110      CAFC3BD5 
 110      19C28D32 
 110      6D7131F8 
 110      26624777 
 111 02e8 4FF8339A 		.ascii	"O\3703\232\037\031\355\3313\3323\362\321\336=\271|\370"
 111      1F19EDD9 
 111      33DA33F2 
 111      D1DE3DB9 
 111      7CF8
 112 02fa AFBF7347 		.ascii	"\257\277sG\362\037\357\315\177\230\313\273\333\267\357"
 112      F21FEFCD 
 112      7F98CBBB 
 112      DBB7EF
 113 0309 E8CEA178 		.ascii	"\350\316\241xWWW\\K\271Z\262\337\265\251k\021\333L;"
 113      5757575C 
 113      4BB95AB2 
 113      DFB5A96B 
 113      11DB4C3B 
 114 031d 54378DDE 		.ascii	"T7\215\336x\260!\334\030IZd\320!\2066\\I\304\033\003"
 114      78B021DC 
 114      18495A64 
 114      D0218636 
 114      5C49C41B 
 115 0332 54CF9004 		.ascii	"T\317\220\004IS52\340\237u\007\035\325\240N&2\220!\031"
 115      49533532 
 115      E09F7507 
 115      1DD5A04E 
 115      26329021 
 116 0347 CDB4886B 		.ascii	"\315\264\210k\353\273Id\3000]=\221&.MYDM\3646\007\314"
 116      EBBB4964 
 116      C0305D3D 
ARM GAS  /tmp/ccXlDfva.s 			page 9


 116      91262E4D 
 116      59444DF4 
 117 035e 2C2BC246 		.ascii	",+\302F\273v\226\220\250\200c\263\321\257\253G\224\360"
 117      BB769690 
 117      A88063B3 
 117      D1AFAB47 
 117      94F0
 118 0370 0316E9D7 		.ascii	"\003\026\351\327mjE_\246\037\330\251\352\224\354\322"
 118      6D6A455F 
 118      A61FD8A9 
 118      EA94ECD2 
 119 0380 2918B049 		.ascii	")\030\260IF\315\246\330\265\330\200\241\026p\263\226"
 119      46CDA6D8 
 119      B5D880A1 
 119      1670B396 
 120 0390 DEDB1CC8 		.ascii	"\336\333\034\3108\254Bux\324\014\225\000\303j\216eG"
 120      38AC4275 
 120      78D40C95 
 120      00C36A8E 
 120      6547
 121 03a2 CCA09946 		.ascii	"\314\240\231FbH\265l\020Y\015\0047\306\214\230\201\014"
 121      6248B56C 
 121      10590D04 
 121      37C68C98 
 121      810C
 122 03b4 1183D608 		.ascii	"\021\203\326\010P \034\357\320\250\253 \266\255\366"
 122      50201CEF 
 122      D0A8AB20 
 122      B6ADF6
 123 03c3 13D8500D 		.ascii	"\023\330P\015\204]\210\012\250z\272\317\254u\"b\206"
 123      845D880A 
 123      A87ABACF 
 123      AC752262 
 123      86
 124 03d4 60D1C08D 		.ascii	"`\321\300\215J\0215[\177\303\243f\310\232f\032F&\206"
 124      4A11355B 
 124      7FC3A366 
 124      C89A661A 
 124      462686
 125 03e7 0D35A36B 		.ascii	"\0155\243k\315%\022}\376\262W)[-\272\026\325\250 0l"
 125      CD25127D 
 125      FEB25729 
 125      5B2DBA16 
 125      D5A82030 
 126 03fc 53920972 		.ascii	"S\222\011r\254\347)\242\015\364\276\031 \206\332\227"
 126      ACE729A2 
 126      0DF4BE19 
 126      2086DA97 
 127 040c AE9C6ABA 		.ascii	"\256\234j\272\314\272\200j\333\304\242\215+\312\017"
 127      CCBA806A 
 127      DBC4A28D 
 127      2BCA0F
 128 041b 504BD5FC 		.ascii	"PK\325\374V\331\003\200!\014\3649\311$\261\252\217W"
 128      56D90380 
 128      210CF439 
 128      C924B1AA 
 128      8F57
ARM GAS  /tmp/ccXlDfva.s 			page 10


 129 042d 540986D4 		.ascii	"T\011\206\324\006\"\221I=\235\256<w\315\215\012J\204"
 129      06229149 
 129      3D9DAE3C 
 129      77CD8D0A 
 129      4A84
 130 043f E7D88D34 		.ascii	"\347\330\2154YV7\372\375\022\377\003\034\026\032~"
 130      595637FA 
 130      FD12FF03 
 130      1C161A7E 
 131              		.text
 132              		.section	.gnu.lto_test_001_001_execute.81fe53e17c8c14b,"",%progbits
 133 0000 789C6362 		.ascii	"x\234cb`b@\007\222@\254\311\302\300\300\303\310\300"
 133      60624007 
 133      9240ACC9 
 133      C2C0C0C3 
 133      C8C0
 134 0012 C0C8CCC0 		.ascii	"\300\310\314\300\3104\341\034\003C#\007\023##\210\301"
 134      C834E11C 
 134      03432307 
 134      13232388 
 134      C1
 135 0023 C0C850CF 		.ascii	"\300\310P\317\304X\037\311\010V\273\236\351\300\203"
 135      C4581FC9 
 135      0856BB9E 
 135      E9C083
 136 0032 FFFFD7FD 		.ascii	"\377\377\327\375x\370h%\243\240\020P\200\225\241\245"
 136      78F86825 
 136      A3A01050 
 136      8095A1A5 
 137 0042 A1618202 		.ascii	"\241a\202\002\003C2XA\010\220\004\351\012ed\002\321"
 137      03433258 
 137      41089004 
 137      E90A6564 
 137      02D1
 138 0054 CC67199A 		.ascii	"\314g\031\232v\374\270\317\230\310\270\220\221\225a"
 138      76FCB8CF 
 138      98C8B890 
 138      919561
 139 0063 36C3ACC6 		.ascii	"6\303\254\306\206\006\201LF\206j\206_\015\035 \026c"
 139      8606814C 
 139      46866A86 
 139      5F0D1D20 
 139      1663
 140 0075 2E585B04 		.ascii	".X[\004#\220\311\000c1\200\230\347\031Z\036t.\346\202"
 140      2390C900 
 140      63318098 
 140      E7195A1E 
 140      742EE682 
 141 0089 E86440E8 		.ascii	"\350d@\350`J\206\252\004\211\314hh\010\315dd\226c0\231"
 141      604A86AA 
 141      0489CC68 
 141      6808CD64 
 141      64966330 
 142 009e DB30C321 		.ascii	"\3330\303!\223\221\205\001\252>\023D\200\214\350z\314"
 142      93918501 
 142      AA3E1344 
 142      808CE87A 
ARM GAS  /tmp/ccXlDfva.s 			page 11


 142      CC
 143 00af 8ECD0826 		.ascii	"\216\315\010&d#\0023\031\331\344\030\342!F\260\243\033"
 143      64230233 
 143      19D9E418 
 143      E22146B0 
 143      A31B
 144 00c1 B1A09B19 		.ascii	"\261\240\233\031\303\004\216d`@\301\234\313\311\010"
 144      C3048E64 
 144      6040C19C 
 144      CBC908
 145 00d0 54CB05B1 		.ascii	"T\313\005\261\256\2078\027s\313140B\354\343\301pr/\321"
 145      AE873817 
 145      73CB3134 
 145      3042ECE3 
 145      C170722F 
 146 00e5 4E6E62C4 		.ascii	"Nnb\304\341\346\007}\304\271\203W\216a1\324\014>\014"
 146      E1E6077D 
 146      C4B98357 
 146      8E6131D4 
 146      0C3E0C
 147 00f8 33FA8976 		.ascii	"3\372\211v\307*\\\356X0\203P\330\261 \302n&\025\302"
 147      C72A5CEE 
 147      58308350 
 147      D8B120C2 
 147      6E2615C2 
 148 010c 6E16D16E 		.ascii	"n\026\321n>\215\323\315\263\011\271\231\001\341\346"
 148      3E8DD3CD 
 148      B309B999 
 148      01E1E6
 149 011b 395470F3 		.ascii	"9Tp\363\\\242\335\374\006\247\233\347\221\220F\347S"
 149      5CA2DDFC 
 149      06A79BE7 
 149      919046E7 
 149      53
 150 012c E8E68B0C 		.ascii	"\350\346\213\014\215\017V*\303\214\200\200\020\240v"
 150      8D0F562A 
 150      C38C8080 
 150      10A076
 151 013b 607E07B9 		.ascii	"`~\007\271\331POO\037\202JR\213K\364\213J\364\213\363"
 151      D9504F4F 
 151      1F824A52 
 151      8B4BF48B 
 151      4AF48BF3 
 152 014f 4B8B9253 		.ascii	"K\213\222S!\\\020\021_\234ZX\232\232\227\234\032o``"
 152      215C1011 
 152      5F9C5A58 
 152      9A9A979C 
 152      1A6F6060 
 153 0163 A897CCA0 		.ascii	"\250\227\314\240\245\253\253\253\020P\224\237R\232\\"
 153      A5ABABAB 
 153      1050949F 
 153      529A5C
 154 0172 62A58009 		.ascii	"b\245\200\011\23432\2232\375\203\365\203B\030\024@J"
 154      9C333293 
 154      32FD83F5 
 154      83421814 
 154      404A
ARM GAS  /tmp/ccXlDfva.s 			page 12


 155 0184 834B1293 		.ascii	"\203K\022\223rR\025\334r\022\323\321\225\003\213\016"
 155      725215DC 
 155      7212D3D1 
 155      95038B0E 
 156 0194 B092B0D4 		.ascii	"\260\222\260\324\242\342\314\374<\240\322\242\314<T"
 156      A2E2CCFC 
 156      3CA0D2A2 
 156      CC3C54
 157 01a3 550C6C26 		.ascii	"U\014l&z\006z\206\020u\276\211Y\371E\012~\245\271I\251"
 157      7A067A86 
 157      1075BE89 
 157      59F9450A 
 157      7EA5B949 
 158 01b8 45686641 		.ascii	"EhfA\025d\346\341W\020\220X\222\234\201C\001\000\353"
 158      1564E6E1 
 158      57109058 
 158      929C8143 
 158      0100EB
 159 01cb 6D4841   		.ascii	"mHA"
 160              		.text
 161              		.section	.gnu.lto_.symbol_nodes.81fe53e17c8c14b,"",%progbits
 162 0000 789C4D93 		.ascii	"x\234M\223\315\212\032Q\020F\353V\353\350[\344)\362"
 162      CD8A1A51 
 162      1046EB56 
 162      EBE85BE4 
 162      29F2
 163 0012 4079923B 		.ascii	"@y\222;P\020\031\005\015\012\012\032t\321/\022\350}"
 163      50101905 
 163      0D0A0A1A 
 163      74D12F12 
 163      E87D
 164 0024 F693DF31 		.ascii	"\366\223\3371\027\0244(8\353\204t\272Ne\342\246n\237"
 164      17143428 
 164      38EB8474 
 164      BA4E65E2 
 164      A66E9F
 165 0037 4FCEB7FA 		.ascii	"O\316\267\372TT^\367\304\177\3729e\221w\037Er~\377\360"
 165      54545EF7 
 165      C47FFA39 
 165      6591771F 
 165      45727EFF 
 166 004c A6FF2DB5 		.ascii	"\246\377-\265/\321\307\224\323\177\364kJ\375,\375OI"
 166      2FD1C794 
 166      D37FF46B 
 166      4AFD2CFD 
 166      4F49
 167 005e 7BB9EA7F 		.ascii	"{\271\352\177IU{\322>e\365\377\334\337\247\364\224r"
 167      49557BD2 
 167      3E65F5FF 
 167      DCDFA7F4 
 167      9472
 168 0070 F5F2F53D 		.ascii	"\365\362\365=\345\336\277\257J\206R?\375n\357@\232\356"
 168      E5DEBFAF 
 168      4A86523F 
 168      FD6EEF40 
 168      9AEE
 169 0082 DE49E9EE 		.ascii	"\336I\351\356Pl\357\274\336;o\366\316\013\334\336\376"
ARM GAS  /tmp/ccXlDfva.s 			page 13


 169      506CEFBC 
 169      DE3B6FF6 
 169      CE0BDCDE 
 169      FE
 170 0093 7CF597D7 		.ascii	"|\365\227\327\335\035J\323\335\201\024\270\215\234\327"
 170      DD1D4AD3 
 170      DD8114B8 
 170      8D9CD7
 171 00a2 23E7CDC8 		.ascii	"#\347\315\310y\201\333\330y=v\336\214\235\027\270M\360"
 171      7981DBD8 
 171      793D76DE 
 171      8C9D17B8 
 171      4DF0
 172 00b4 4FF04FF0 		.ascii	"O\360O\360\303m\212\177\212\177\212\037n3\3743\3743"
 172      C36D8A7F 
 172      8A7F8A1F 
 172      6E33FC33 
 172      FC33
 173 00c6 FC709BE3 		.ascii	"\374p\233\343\237\343\237\343\207\333\002\377\002\377"
 173      9FE39FE3 
 173      87DB02FF 
 173      02FF
 174 00d4 023FDC96 		.ascii	"\002?\334\226\370\227\370\227\370\341\266\302\277\302"
 174      F897F897 
 174      F8E1B6C2 
 174      BFC2
 175 00e2 BFC20FB7 		.ascii	"\277\302\017\2675\3765\3765~\270m\360o\360o\360\303"
 175      35FE35FE 
 175      357EB86D 
 175      F06FF06F 
 175      F0C3
 176 00f4 6D8B7F8B 		.ascii	"m\213\177\213\177\213\037n;\374;\374;\374p\373\361\341"
 176      7F8B1F6E 
 176      3BFC3BFC 
 176      3BFC70FB 
 176      F1E1
 177 0106 57D515F8 		.ascii	"W\325\025\370\243m\360G[\021\221\025\242\272\0205\205"
 177      A36DF047 
 177      5B119115 
 177      A2BA1035 
 177      85
 178 0117 A8446407 		.ascii	"\250Dd\007\242\372@\324\034\210JDv\214\256ct\035\243"
 178      A2FA40D4 
 178      1C884A44 
 178      768CAE63 
 178      741DA3
 179 012a 2B223B45 		.ascii	"+\";E\327)\272N\321\025\221\235\243\353\034]\347\350"
 179      D729BA4E 
 179      D115919D 
 179      A3EB1C5D 
 179      E7E8
 180 013c 8AC82ED1 		.ascii	"\212\310.\321u\211\256KtEd\327\350\272F\3275\272\"\262"
 180      7589AE4B 
 180      744564D7 
 180      E8BA46D7 
 180      35BA22B2 
 181 0150 5B74DDA2 		.ascii	"[t\335\242\353\026]\021\331st=GW\367\320;\237\225\016"
ARM GAS  /tmp/ccXlDfva.s 			page 14


 181      EB165D11 
 181      D973743D 
 181      4757F7D0 
 181      3B9F950E 
 182 0164 7D563AF0 		.ascii	"}V:\360Y\265\274\233U\313\273Y)\263Rf\245\314J\231\225"
 182      59B5BC9B 
 182      55CBBB59 
 182      29B35266 
 182      A5CC4A99 
 183 0179 322B6556 		.ascii	"2+eV\312\254\224Y)\263R\237\225\374\001Y\017]\007"
 183      CAAC9459 
 183      29B3529F 
 183      95FC0159 
 183      0F5D07
 184              		.text
 185              		.section	.gnu.lto_.refs.81fe53e17c8c14b,"",%progbits
 186 0000 789C25C2 		.ascii	"x\234%\302\201\011\000 \014\300\260\266\316\033\374"
 186      81090020 
 186      0CC0B0B6 
 186      CE1BFC
 187 000f FF530543 		.ascii	"\377S\005C\"\016\237\250\275\253i;\345\016.\005H\000"
 187      220E9FA8 
 187      BDAB693B 
 187      E50E2E05 
 187      4800
 188 0021 47       		.ascii	"G"
 189              		.text
 190              		.section	.gnu.lto_.decls.81fe53e17c8c14b,"",%progbits
 191 0000 789C9D56 		.ascii	"x\234\235Vml\024E\030~g\257\327\366\354\345J\211\222"
 191      6D6C1445 
 191      187E67AF 
 191      D7F6ECE5 
 191      4A8992
 192 0013 92187A98 		.ascii	"\222\030z\230`b\023\356\332b\342\037C\370\210A\242\370"
 192      606213EE 
 192      DA62E21F 
 192      43F88841 
 192      A2F8
 193 0025 4342E20F 		.ascii	"CB\342\017\343\261\\\247\366\222v\257\336\355E\214\177"
 193      E3B15CA7 
 193      F69276AF 
 193      DEED458C 
 193      7F
 194 0036 C69A6843 		.ascii	"\306\232hC\214\036\305\217\376\020\323\026\260(\010"
 194      8C1EC58F 
 194      FE10D316 
 194      B02808
 195 0045 142A29B1 		.ascii	"\024*)\261\232\245\201RQk\211\200\030-\271\240\342G"
 195      9AA58152 
 195      516B8980 
 195      182DB9A0 
 195      E247
 196 0057 FC28267C 		.ascii	"\374(&|D\255\347\273;\263\267{w\273\336\235\223\276"
 196      44ADE7BB 
 196      3BB3B77B 
 196      77BBDE9D 
 196      93BE
ARM GAS  /tmp/ccXlDfva.s 			page 15


 197 0069 DBD9D979 		.ascii	"\333\331\331y\237\367y\237\231y\347$\220\340~\002\220"
 197      9FF7799F 
 197      9979E724 
 197      90E07E02 
 197      90
 198 007a C5F67800 		.ascii	"\305\366x\000`\004\373\036\000X\215\346C\033B\033F\033"
 198      6004FB1E 
 198      00588DE6 
 198      431B421B 
 198      461B
 199 008c 413B8076 		.ascii	"A;\200v\020\355\020\332a\264Q\264\243\300\233\027m\014"
 199      10ED10DA 
 199      61B451B4 
 199      A3C09B17 
 199      6D0C
 200 009e 6D1CED03 		.ascii	"m\034\355\003\264\223h\247\321\252\320\316\240}\214"
 200      B49368A7 
 200      D1AAD0CE 
 200      A07D8C
 201 00ad 7605ED17 		.ascii	"v\005\355\027\310o\272O\235\360\277\216v\303\026g\002"
 201      C86FBA4F 
 201      9DF0BF8E 
 201      76C31667 
 201      02
 202 00be EDA6883D 		.ascii	"\355\246\210=i\343\002\002wL\3048)b\022\021\313\336"
 202      69E30202 
 202      774CC438 
 202      29621211 
 202      CBDE
 203 00d0 743EF505 		.ascii	"t>\365\005\370&\357\011[,\2478f\236f<373\246S\274:\330"
 203      F826EF09 
 203      5B2CA738 
 203      669E663C 
 203      333733A6 
 204 00e8 C1582F1B 		.ascii	"\301X/\033|\201=8\035h\2004\303\226\361\016\004|\320"
 204      7C813D38 
 204      1D688034 
 204      C396F10E 
 204      047CD0
 205 00fb A78F67F6 		.ascii	"\247\217g\366\261\306F\200\307\210Lp\250\326\350\370"
 205      B1C64680 
 205      C7884C70 
 205      A8D6E8F8 
 206 010b 7D06D20A 		.ascii	"}\006\322\012\330\213s\321A\222\311\036\342\303u\221"
 206      D88B73D1 
 206      4192C91E 
 206      E2C37591 
 207 011b 083836FE 		.ascii	"\01086\376]o\272;\357\233\275,qF\327\275\206I\203\321"
 207      5D6FBA3B 
 207      EF9BBD2C 
 207      7146D7BD 
 207      864983D1 
 208 012f 33B830C1 		.ascii	"3\2700\301\321\230!<\202\246G\225\360x\333\026\307\357"
 208      D198213C 
 208      82A64795 
 208      F078DB16 
 208      C7EF
ARM GAS  /tmp/ccXlDfva.s 			page 16


 209 0141 B3772037 		.ascii	"\263w 7\356\3447D\352\314)\"q\036\314\331\303\310<\235"
 209      EEE43744 
 209      EACC2922 
 209      711ECCD9 
 209      C3C83C9D 
 210 0155 79E5E75B 		.ascii	"y\345\347[\022c\2652\0311\262\357 \320\014\357pI\256"
 210      1263B532 
 210      1931B2EF 
 210      20D00CEF 
 210      7049AE
 211 0168 DCE72485 		.ascii	"\334\347$\205Lj|E\3572y\2274\013j5>\253\243o\360z\347"
 211      4C6A7C45 
 211      EF327997 
 211      340B6A35 
 211      3EABA36F 
 212 017f F5090E04 		.ascii	"\365\011\016\004\270x\202\034\223LvA\201{\260b\345\336"
 212      B878821C 
 212      934C7641 
 212      817BB062 
 212      E5DE
 213 0191 7351AEA9 		.ascii	"sQ\256\251\204r\007,\345\312\241\332b\372W\013\377\303"
 213      8472072C 
 213      E5CAA1DA 
 213      62FA570B 
 213      FFC3
 214 01a3 15333DE2 		.ascii	"\0253=\342\302\324[\202\351\241\312\230\316\346Dm\026"
 214      C2D45B82 
 214      E9A1CA98 
 214      CEE6446D 
 214      16
 215 01b4 00472BA6 		.ascii	"\000G+\246z\314\205\352=%\250\216ZT\233\340-\246\315"
 215      7ACC85EA 
 215      3D25A88E 
 215      5A549BE0 
 215      2DA6CD
 216 01c7 67E6CE5C 		.ascii	"g\346\316\\=Gv>\317\246\331\274\276-\226\300k\202\002"
 216      3D47763E 
 216      CFA6D9BC 
 216      BE2D96C0 
 216      6B8202
 217 01da 23AA4C56 		.ascii	"#\252LV\337\341\012\365>Y\"z[<\034Q\202\375\204\344"
 217      DFE10AF5 
 217      3E59227A 
 217      5B3C1C51 
 217      82FD84E4 
 218 01ee B61D6F77 		.ascii	"\266\035ow\303>\035\217\355g\036\003M\237?F\232\300"
 218      C33E1D8F 
 218      ED671E03 
 218      4D9F3F46 
 218      9AC0
 219 0200 D664729C 		.ascii	"\326dr\234H\366\001\316L\273E9'\036J\202\017\313\002"
 219      48F601CE 
 219      4CBB4539 
 219      271E4A82 
 219      0FCB02
 220 0213 1F2F043F 		.ascii	"\037/\004?Q\014\236Ig.\314\374\326\213i\017V\234\366"
 220      510C9E49 
ARM GAS  /tmp/ccXlDfva.s 			page 17


 220      672ECCFC 
 220      D68B690F 
 220      569CF6
 221 0226 8448DB03 		.ascii	"\204H\333\003R\321\202\347J\233\3268\020p\256>2\331"
 221      52D182E7 
 221      4A9BD638 
 221      1070AE3E 
 221      32D9
 222 0238 4B56945B 		.ascii	"KV\224[\267\212\202\177d-\237%\273\241\374\357E\342"
 222      B78A827F 
 222      642D9F25 
 222      BBA1FCEF 
 222      45E2
 223 024a F0499A53 		.ascii	"\360I\232S\366\332\361O^b$\375\\&\233m*?\363\311\374"
 223      F6DAF14F 
 223      5E6224FD 
 223      5C269B6D 
 223      2A3FF3C9 
 224 025f CC79752A 		.ascii	"\314yu*\240\361\267\013\215S\2164\306-\032\\X\011\372"
 224      A0F1B70B 
 224      8D538E34 
 224      C62D1A5C 
 224      5809FA
 225 0272 246780A9 		.ascii	"$g\200\251|\200\273`\210\015\366k\013g_]\312\206z\031"
 225      7C80BB60 
 225      880DF66B 
 225      0B675F5D 
 225      CA867A19 
 226 0286 FB279B45 		.ascii	"\373'\233E\262^\275Z\356\312!\270%2ma\3518G4<\004\337"
 226      B25EBD5A 
 226      EECA21B8 
 226      25326D61 
 226      E9384734 
 227 029d ED21BB18 		.ascii	"\355!\273\030\036\002\246!R\223yr\247\003\271\365\325"
 227      1E02A621 
 227      52937972 
 227      A703B9F5 
 227      D5
 228 02ae 707D17C3 		.ascii	"p}\027\303NC+\224\312V\301\0311\003,\202\\\011\277\360"
 228      4E432B94 
 228      CA56C119 
 228      31032C82 
 228      5C09BFF0 
 229 02c2 F2E9562C 		.ascii	"\362\351V,\341\302#\350:]&\237\341~(9M\237\3709Y,\022"
 229      E1C223E8 
 229      3A5D269F 
 229      E17E2839 
 229      4D9FF839 
 230 02d9 E317A4F6 		.ascii	"\343\027\244\366\027\015\362Qp\220L\264\345\200l{\265"
 230      170DF251 
 230      70904CB4 
 230      E5806C7B 
 230      B5
 231 02ea 858569C2 		.ascii	"\205\205i\302\372\375|\007I\260\333\320Hwu\322(\357"
 231      FAFD7C07 
 231      49B0DBD0 
 231      487775D2 
ARM GAS  /tmp/ccXlDfva.s 			page 18


 231      28EF
 232 02fc 6A1313F2 		.ascii	"j\023\023\362\341\262?\031py\233\237\037S7\315\317c"
 232      E1B23F19 
 232      70799B9F 
 232      1F5337CD 
 232      CF63
 233 030e 5C1B4909 		.ascii	"\\\033I\011\206+\246\020\314\243\220\236\362\247e\216"
 233      862BA610 
 233      CCA3909E 
 233      F2A7658E 
 234 031e 8B75A71C 		.ascii	"\213u\247\034\260Z\367|\372\355`\243\025\203\005\013"
 234      B05AF77C 
 234      FAED60A3 
 234      1583050B 
 235 032e 44E789CA 		.ascii	"D\347\211\312d\3268\352\347\310r|~a</\032\317K\370\314"
 235      64D638EA 
 235      E7C8727C 
 235      7E613C2F 
 235      1ACF4BF8 
 236 0343 35094E14 		.ascii	"5\011N\024\354ysQmx\326\332CiD\3475(X\254O]\362\323"
 236      EC797351 
 236      6D78D6DA 
 236      436944E7 
 236      352858AC 
 237 035b F1BFB6CA 		.ascii	"\361\277\266\312L>\344Vs\246\337\030\265\216\011\367"
 237      4C3EE456 
 237      73A6DF18 
 237      B58E09F7 
 238 036b 719E2593 		.ascii	"q\236%\223o*\276\337\346\\\3567{\021\260f\341\360\251"
 238      6F2ABEDF 
 238      E65CEE37 
 238      7B11B066 
 238      E1F0A9
 239 037e C2535F44 		.ascii	"\302S_D\3422\236\372epQ\332\315\370\332\335\013\307"
 239      E2329EFA 
 239      657051DA 
 239      CDF8DADD 
 239      0BC7
 240 0390 589FD622 		.ascii	"X\237\326\"\223\263\310.\267+\236\205?\331\000\313\314"
 240      93B3C82E 
 240      B72B9E85 
 240      3FD900CB 
 240      CC
 241 03a1 BDF8FD2A 		.ascii	"\275\370\375*\236\223^!fg\265/\247\336$l0Wit\365$\230"
 241      9E935E21 
 241      6667B52F 
 241      A7DE246C 
 241      30576974 
 242 03b8 2F0C5A7C 		.ascii	"/\014Z|h\277\025\265\206G[\303=\371\012\362P\332WS\244"
 242      68BF15B5 
 242      86475BC3 
 242      3DF90AF2 
 242      50DA5753 
 243 03cd 9C5F0D45 		.ascii	"\234_\015E\371\374P\261\250?\272\210j.\266\233\337U"
 243      F9FC50B1 
 243      A83FBA88 
 243      6A2EB69B 
ARM GAS  /tmp/ccXlDfva.s 			page 19


 243      DF55
 244 03df 6B3B2C83 		.ascii	"k;,\203\005\024p`\215\025\236\357C\335\343\2741\215"
 244      05147060 
 244      8D159EEF 
 244      43DDE3BC 
 244      318D
 245 03f1 EF48FBFB 		.ascii	"\357H\373\373%\221k\037\323.W\233\225\300~M\213\270"
 245      25916B1F 
 245      D32E579B 
 245      95C07E4D 
 245      8BB8
 246 0403 C454E4F5 		.ascii	"\304T\344\365\372|\351g\034\244\337\341))\375\257\245"
 246      FA7CE967 
 246      1CA4DFE1 
 246      2929FDAF 
 246      A5
 247 0414 A59F294B 		.ascii	"\245\237)K\372b\350k\025k\377\207\213\366\365%\264\237"
 247      FA62E86B 
 247      156BFF87 
 247      8BF6F525 
 247      B49F
 248 0426 B76BFF86 		.ascii	"\267k\377\206\207k\177\355\177i\0370\265\037+\326\236"
 248      876B7FED 
 248      7F691F30 
 248      B51F2BD6 
 248      9E
 249 0437 FF2435CF 		.ascii	"\377$5\317}A\251\360\272\247u\335\345\247/\277\316\335"
 249      7D41A9F0 
 249      BAA775DD 
 249      E5A72FBF 
 249      CEDD
 250 0449 BC6EB87A 		.ascii	"\274n\270zM\376\207\327M[U\252\212v\312\211'\302\235"
 250      4DFE87D7 
 250      4D5B55AA 
 250      8A76CA89 
 250      27C29D
 251 045c F16E1A96 		.ascii	"\361n\032\226\273\350\366\360&\252\250\361\304\206\204"
 251      BBE8F6F0 
 251      26AAA8F1 
 251      C48684
 252 046b DCD3198B 		.ascii	"\334\323\031\213&\303\233\343\251D\224&\236\211\254"
 252      26C39BE3 
 252      A9449426 
 252      9E89AC
 253 047a 8FB7D375 		.ascii	"\217\267\323uT\211vF\036\216\2514\322\021OD\326>\272"
 253      54897646 
 253      1E8EA934 
 253      D2114F44 
 253      D63EBA
 254 048d 29F2C0DA 		.ascii	")\362\300\332u\033\303r\242{\245\022W\350J*o\213\205"
 254      751BC372 
 254      A27BA512 
 254      57E84A2A 
 254      6F8B85
 255 04a0 634AB42B 		.ascii	"cJ\264+\325N\303I\265=\246\250\241N\250M\341\377Um\021"
 255      D54EC349 
 255      B53DA6A8 
ARM GAS  /tmp/ccXlDfva.s 			page 20


 255      A14EA84D 
 255      E1FF556D 
 256 04b5 B57AC323 		.ascii	"\265z\303#[\202\353\2415\024\012\363?\225&\325pB\015"
 256      5B82EBA1 
 256      35140AF3 
 256      3F9526D5 
 256      70420D
 257 04c8 278D28FC 		.ascii	"'\215(\374U\177D\222\364\251\024\006\243\221\226\226"
 257      557F4492 
 257      F4A91406 
 257      A3919696 
 258 04d8 D650146E 		.ascii	"\326P\024n7\006\261\217\326\026\241\333i4\245R\373`"
 258      3706B18F 
 258      D616A1DB 
 258      6934A552 
 258      FB60
 259 04ea AB397867 		.ascii	"\2539xg>vWl[\030)\353}$\3427<z\022H\247K\251\263^\224"
 259      3E76576C 
 259      5B1829EB 
 259      7D24E237 
 259      3C7A1248 
 260 0504 DBACBE8F 		.ascii	"\333\254\276\217\307WiO\225\"wSo\222\252\251\236Z\225"
 260      C757694F 
 260      95227753 
 260      6F92AAA9 
 260      9E5A95
 261 0517 CA89F6F8 		.ascii	"\312\211\366\370\323J\215\010c8D\345$\215\250\015E\204"
 261      D34A8D08 
 261      633844E5 
 261      248DA80D 
 261      4584
 262 0529 978612F1 		.ascii	"\227\206\022\361vY\225CE_\374v\312\376\207hB\241]\301"
 262      76599543 
 262      455FFC76 
 262      CAFE8768 
 262      42A15DC1 
 263 053d 8D4A471C 		.ascii	"\215JG\034\354_\332\026\211/\233\251\252\306\224'\223"
 263      EC5FDA16 
 263      892F9BA9 
 263      AAC69427 
 263      93
 264 054e F02F8E3B 		.ascii	"\360/\216;i\262"
 264      69B2
 265              		.text
 266              		.section	.gnu.lto_.symtab.81fe53e17c8c14b,"",%progbits
 267 0000 74657374 		.ascii	"test_sequence_001\000\000\000\000\000\000\000\000\000"
 267      5F736571 
 267      75656E63 
 267      655F3030 
 267      31000000 
 268 001a 000000C9 		.ascii	"\000\000\000\311\000\000\000test_step\000\000\002\000"
 268      00000074 
 268      6573745F 
 268      73746570 
 268      00000200 
 269 002e 00000000 		.ascii	"\000\000\000\000\000\000\000\000\307\000\000\000tes"
 269      00000000 
ARM GAS  /tmp/ccXlDfva.s 			page 21


 269      C7000000 
 269      746573
 270 003d 745F7072 		.ascii	"t_println\000\000\002\000\000\000\000\000\000\000\000"
 270      696E746C 
 270      6E000002 
 270      00000000 
 270      00000000 
 271 0051 00BB0000 		.ascii	"\000\273\000\000\000test_printn\000\000\002\000\000"
 271      00746573 
 271      745F7072 
 271      696E746E 
 271      00000200 
 272 0066 00000000 		.ascii	"\000\000\000\000\000\000\000\301\000\000\000test_pr"
 272      000000C1 
 272      00000074 
 272      6573745F 
 272      7072
 273 0078 696E7400 		.ascii	"int\000\000\002\000\000\000\000\000\000\000\000\000"
 273      00020000 
 273      00000000 
 273      000000
 274 0087 C5000000 		.ascii	"\305\000\000\000"
 275              		.text
 276              		.section	.gnu.lto_.opts,"",%progbits
 277 0000 272D6D63 		.ascii	"'-mcpu=cortex-m3' '-mno-thumb-interwork' '-mthumb' "
 277      70753D63 
 277      6F727465 
 277      782D6D33 
 277      2720272D 
 278 0033 272D6767 		.ascii	"'-ggdb' '-O2' '-fomit-frame-pointer' '-falign-funct"
 278      64622720 
 278      272D4F32 
 278      2720272D 
 278      666F6D69 
 279 0066 696F6E73 		.ascii	"ions=16' '-ffunction-sections' '-fdata-sections' '-"
 279      3D313627 
 279      20272D66 
 279      66756E63 
 279      74696F6E 
 280 0099 666E6F2D 		.ascii	"fno-common' '-flto'\000"
 280      636F6D6D 
 280      6F6E2720 
 280      272D666C 
 280      746F2700 
 281              		.text
 282              		.cfi_sections	.debug_frame
 283              		.section	.text.test_001_002_execute,"ax",%progbits
 284              		.align	2
 285              		.p2align 4,,15
 286              		.thumb
 287              		.thumb_func
 288              		.type	test_001_002_execute, %function
 289              	test_001_002_execute:
 290              	.LFB218:
 291              		.file 1 "../../../test/rt/source/test/test_sequence_001.c"
 292              		.loc 1 101 0
 293              		.cfi_startproc
ARM GAS  /tmp/ccXlDfva.s 			page 22


 294              		@ args = 0, pretend = 0, frame = 0
 295              		@ frame_needed = 0, uses_anonymous_args = 0
 296 0000 38B5     		push	{r3, r4, r5, lr}
 297              		.cfi_def_cfa_offset 16
 298              		.cfi_offset 3, -16
 299              		.cfi_offset 4, -12
 300              		.cfi_offset 5, -8
 301              		.cfi_offset 14, -4
 302              		.loc 1 106 0
 303 0002 40F20000 		movw	r0, #:lower16:.LC0
 304              		.loc 1 104 0
 305 0006 40F20003 		movw	r3, #:lower16:test_step
 306 000a C0F20003 		movt	r3, #:upper16:test_step
 307 000e 0125     		movs	r5, #1
 308              		.loc 1 106 0
 309 0010 C0F20000 		movt	r0, #:upper16:.LC0
 310              		.loc 1 108 0
 311 0014 40F20004 		movw	r4, #:lower16:.LC1
 312              		.loc 1 104 0
 313 0018 1D60     		str	r5, [r3]
 314              		.loc 1 108 0
 315 001a C0F20004 		movt	r4, #:upper16:.LC1
 316              		.loc 1 106 0
 317 001e FFF7FEFF 		bl	test_print
 318              	.LVL0:
 319              		.loc 1 107 0
 320 0022 1020     		movs	r0, #16
 321 0024 FFF7FEFF 		bl	test_printn
 322              	.LVL1:
 323              		.loc 1 108 0
 324 0028 2046     		mov	r0, r4
 325 002a FFF7FEFF 		bl	test_println
 326              	.LVL2:
 327              		.loc 1 109 0
 328 002e 40F20000 		movw	r0, #:lower16:.LC2
 329 0032 C0F20000 		movt	r0, #:upper16:.LC2
 330 0036 FFF7FEFF 		bl	test_print
 331              	.LVL3:
 332              		.loc 1 110 0
 333 003a 42F21070 		movw	r0, #10000
 334 003e FFF7FEFF 		bl	test_printn
 335              	.LVL4:
 336              		.loc 1 111 0
 337 0042 2046     		mov	r0, r4
 338 0044 FFF7FEFF 		bl	test_println
 339              	.LVL5:
 340              		.loc 1 112 0
 341 0048 40F20000 		movw	r0, #:lower16:.LC3
 342 004c C0F20000 		movt	r0, #:upper16:.LC3
 343 0050 FFF7FEFF 		bl	test_print
 344              	.LVL6:
 345              		.loc 1 113 0
 346 0054 0220     		movs	r0, #2
 347 0056 FFF7FEFF 		bl	test_printn
 348              	.LVL7:
 349              		.loc 1 114 0
 350 005a 2046     		mov	r0, r4
ARM GAS  /tmp/ccXlDfva.s 			page 23


 351 005c FFF7FEFF 		bl	test_println
 352              	.LVL8:
 353              		.loc 1 115 0
 354 0060 40F20000 		movw	r0, #:lower16:.LC4
 355 0064 C0F20000 		movt	r0, #:upper16:.LC4
 356 0068 FFF7FEFF 		bl	test_print
 357              	.LVL9:
 358              		.loc 1 116 0
 359 006c 0020     		movs	r0, #0
 360 006e FFF7FEFF 		bl	test_printn
 361              	.LVL10:
 362              		.loc 1 117 0
 363 0072 2046     		mov	r0, r4
 364 0074 FFF7FEFF 		bl	test_println
 365              	.LVL11:
 366              		.loc 1 118 0
 367 0078 40F20000 		movw	r0, #:lower16:.LC5
 368 007c C0F20000 		movt	r0, #:upper16:.LC5
 369 0080 FFF7FEFF 		bl	test_print
 370              	.LVL12:
 371              		.loc 1 119 0
 372 0084 0020     		movs	r0, #0
 373 0086 FFF7FEFF 		bl	test_printn
 374              	.LVL13:
 375              		.loc 1 120 0
 376 008a 2046     		mov	r0, r4
 377 008c FFF7FEFF 		bl	test_println
 378              	.LVL14:
 379              		.loc 1 121 0
 380 0090 40F20000 		movw	r0, #:lower16:.LC6
 381 0094 C0F20000 		movt	r0, #:upper16:.LC6
 382 0098 FFF7FEFF 		bl	test_print
 383              	.LVL15:
 384              		.loc 1 122 0
 385 009c 0020     		movs	r0, #0
 386 009e FFF7FEFF 		bl	test_printn
 387              	.LVL16:
 388              		.loc 1 123 0
 389 00a2 2046     		mov	r0, r4
 390 00a4 FFF7FEFF 		bl	test_println
 391              	.LVL17:
 392              		.loc 1 124 0
 393 00a8 40F20000 		movw	r0, #:lower16:.LC7
 394 00ac C0F20000 		movt	r0, #:upper16:.LC7
 395 00b0 FFF7FEFF 		bl	test_print
 396              	.LVL18:
 397              		.loc 1 125 0
 398 00b4 2846     		mov	r0, r5
 399 00b6 FFF7FEFF 		bl	test_printn
 400              	.LVL19:
 401              		.loc 1 126 0
 402 00ba 2046     		mov	r0, r4
 403 00bc FFF7FEFF 		bl	test_println
 404              	.LVL20:
 405              		.loc 1 127 0
 406 00c0 40F20000 		movw	r0, #:lower16:.LC8
 407 00c4 C0F20000 		movt	r0, #:upper16:.LC8
ARM GAS  /tmp/ccXlDfva.s 			page 24


 408 00c8 FFF7FEFF 		bl	test_print
 409              	.LVL21:
 410              		.loc 1 128 0
 411 00cc 2846     		mov	r0, r5
 412 00ce FFF7FEFF 		bl	test_printn
 413              	.LVL22:
 414              		.loc 1 129 0
 415 00d2 2046     		mov	r0, r4
 416 00d4 FFF7FEFF 		bl	test_println
 417              	.LVL23:
 418              		.loc 1 130 0
 419 00d8 40F20000 		movw	r0, #:lower16:.LC9
 420 00dc C0F20000 		movt	r0, #:upper16:.LC9
 421 00e0 FFF7FEFF 		bl	test_print
 422              	.LVL24:
 423              		.loc 1 131 0
 424 00e4 2846     		mov	r0, r5
 425 00e6 FFF7FEFF 		bl	test_printn
 426              	.LVL25:
 427              		.loc 1 132 0
 428 00ea 2046     		mov	r0, r4
 429 00ec FFF7FEFF 		bl	test_println
 430              	.LVL26:
 431              		.loc 1 133 0
 432 00f0 40F20000 		movw	r0, #:lower16:.LC10
 433 00f4 C0F20000 		movt	r0, #:upper16:.LC10
 434 00f8 FFF7FEFF 		bl	test_print
 435              	.LVL27:
 436              		.loc 1 134 0
 437 00fc 2846     		mov	r0, r5
 438 00fe FFF7FEFF 		bl	test_printn
 439              	.LVL28:
 440              		.loc 1 135 0
 441 0102 2046     		mov	r0, r4
 442 0104 FFF7FEFF 		bl	test_println
 443              	.LVL29:
 444              		.loc 1 136 0
 445 0108 40F20000 		movw	r0, #:lower16:.LC11
 446 010c C0F20000 		movt	r0, #:upper16:.LC11
 447 0110 FFF7FEFF 		bl	test_print
 448              	.LVL30:
 449              		.loc 1 137 0
 450 0114 2846     		mov	r0, r5
 451 0116 FFF7FEFF 		bl	test_printn
 452              	.LVL31:
 453              		.loc 1 138 0
 454 011a 2046     		mov	r0, r4
 455 011c FFF7FEFF 		bl	test_println
 456              	.LVL32:
 457              		.loc 1 139 0
 458 0120 40F20000 		movw	r0, #:lower16:.LC12
 459 0124 C0F20000 		movt	r0, #:upper16:.LC12
 460 0128 FFF7FEFF 		bl	test_print
 461              	.LVL33:
 462              		.loc 1 140 0
 463 012c 0020     		movs	r0, #0
 464 012e FFF7FEFF 		bl	test_printn
ARM GAS  /tmp/ccXlDfva.s 			page 25


 465              	.LVL34:
 466              		.loc 1 141 0
 467 0132 2046     		mov	r0, r4
 468 0134 FFF7FEFF 		bl	test_println
 469              	.LVL35:
 470              		.loc 1 142 0
 471 0138 40F20000 		movw	r0, #:lower16:.LC13
 472 013c C0F20000 		movt	r0, #:upper16:.LC13
 473 0140 FFF7FEFF 		bl	test_print
 474              	.LVL36:
 475              		.loc 1 143 0
 476 0144 2846     		mov	r0, r5
 477 0146 FFF7FEFF 		bl	test_printn
 478              	.LVL37:
 479              		.loc 1 144 0
 480 014a 2046     		mov	r0, r4
 481 014c FFF7FEFF 		bl	test_println
 482              	.LVL38:
 483              		.loc 1 145 0
 484 0150 40F20000 		movw	r0, #:lower16:.LC14
 485 0154 C0F20000 		movt	r0, #:upper16:.LC14
 486 0158 FFF7FEFF 		bl	test_print
 487              	.LVL39:
 488              		.loc 1 146 0
 489 015c 0020     		movs	r0, #0
 490 015e FFF7FEFF 		bl	test_printn
 491              	.LVL40:
 492              		.loc 1 147 0
 493 0162 2046     		mov	r0, r4
 494 0164 FFF7FEFF 		bl	test_println
 495              	.LVL41:
 496              		.loc 1 148 0
 497 0168 40F20000 		movw	r0, #:lower16:.LC15
 498 016c C0F20000 		movt	r0, #:upper16:.LC15
 499 0170 FFF7FEFF 		bl	test_print
 500              	.LVL42:
 501              		.loc 1 149 0
 502 0174 2846     		mov	r0, r5
 503 0176 FFF7FEFF 		bl	test_printn
 504              	.LVL43:
 505              		.loc 1 150 0
 506 017a 2046     		mov	r0, r4
 507 017c FFF7FEFF 		bl	test_println
 508              	.LVL44:
 509              		.loc 1 151 0
 510 0180 40F20000 		movw	r0, #:lower16:.LC16
 511 0184 C0F20000 		movt	r0, #:upper16:.LC16
 512 0188 FFF7FEFF 		bl	test_print
 513              	.LVL45:
 514              		.loc 1 152 0
 515 018c 2846     		mov	r0, r5
 516 018e FFF7FEFF 		bl	test_printn
 517              	.LVL46:
 518              		.loc 1 153 0
 519 0192 2046     		mov	r0, r4
 520 0194 FFF7FEFF 		bl	test_println
 521              	.LVL47:
ARM GAS  /tmp/ccXlDfva.s 			page 26


 522              		.loc 1 154 0
 523 0198 40F20000 		movw	r0, #:lower16:.LC17
 524 019c C0F20000 		movt	r0, #:upper16:.LC17
 525 01a0 FFF7FEFF 		bl	test_print
 526              	.LVL48:
 527              		.loc 1 155 0
 528 01a4 2846     		mov	r0, r5
 529 01a6 FFF7FEFF 		bl	test_printn
 530              	.LVL49:
 531              		.loc 1 156 0
 532 01aa 2046     		mov	r0, r4
 533 01ac FFF7FEFF 		bl	test_println
 534              	.LVL50:
 535              		.loc 1 157 0
 536 01b0 40F20000 		movw	r0, #:lower16:.LC18
 537 01b4 C0F20000 		movt	r0, #:upper16:.LC18
 538 01b8 FFF7FEFF 		bl	test_print
 539              	.LVL51:
 540              		.loc 1 158 0
 541 01bc 2846     		mov	r0, r5
 542 01be FFF7FEFF 		bl	test_printn
 543              	.LVL52:
 544              		.loc 1 159 0
 545 01c2 2046     		mov	r0, r4
 546 01c4 FFF7FEFF 		bl	test_println
 547              	.LVL53:
 548              		.loc 1 160 0
 549 01c8 40F20000 		movw	r0, #:lower16:.LC19
 550 01cc C0F20000 		movt	r0, #:upper16:.LC19
 551 01d0 FFF7FEFF 		bl	test_print
 552              	.LVL54:
 553              		.loc 1 161 0
 554 01d4 2846     		mov	r0, r5
 555 01d6 FFF7FEFF 		bl	test_printn
 556              	.LVL55:
 557              		.loc 1 162 0
 558 01da 2046     		mov	r0, r4
 559 01dc FFF7FEFF 		bl	test_println
 560              	.LVL56:
 561              		.loc 1 163 0
 562 01e0 40F20000 		movw	r0, #:lower16:.LC20
 563 01e4 C0F20000 		movt	r0, #:upper16:.LC20
 564 01e8 FFF7FEFF 		bl	test_print
 565              	.LVL57:
 566              		.loc 1 164 0
 567 01ec 0020     		movs	r0, #0
 568 01ee FFF7FEFF 		bl	test_printn
 569              	.LVL58:
 570              		.loc 1 165 0
 571 01f2 2046     		mov	r0, r4
 572 01f4 FFF7FEFF 		bl	test_println
 573              	.LVL59:
 574              		.loc 1 166 0
 575 01f8 40F20000 		movw	r0, #:lower16:.LC21
 576 01fc C0F20000 		movt	r0, #:upper16:.LC21
 577 0200 FFF7FEFF 		bl	test_print
 578              	.LVL60:
ARM GAS  /tmp/ccXlDfva.s 			page 27


 579              		.loc 1 167 0
 580 0204 2846     		mov	r0, r5
 581 0206 FFF7FEFF 		bl	test_printn
 582              	.LVL61:
 583              		.loc 1 168 0
 584 020a 2046     		mov	r0, r4
 585 020c FFF7FEFF 		bl	test_println
 586              	.LVL62:
 587              		.loc 1 169 0
 588 0210 40F20000 		movw	r0, #:lower16:.LC22
 589 0214 C0F20000 		movt	r0, #:upper16:.LC22
 590 0218 FFF7FEFF 		bl	test_print
 591              	.LVL63:
 592              		.loc 1 170 0
 593 021c 2846     		mov	r0, r5
 594 021e FFF7FEFF 		bl	test_printn
 595              	.LVL64:
 596              		.loc 1 171 0
 597 0222 2046     		mov	r0, r4
 598 0224 FFF7FEFF 		bl	test_println
 599              	.LVL65:
 600              		.loc 1 172 0
 601 0228 40F20000 		movw	r0, #:lower16:.LC23
 602 022c C0F20000 		movt	r0, #:upper16:.LC23
 603 0230 FFF7FEFF 		bl	test_print
 604              	.LVL66:
 605              		.loc 1 173 0
 606 0234 2846     		mov	r0, r5
 607 0236 FFF7FEFF 		bl	test_printn
 608              	.LVL67:
 609              		.loc 1 174 0
 610 023a 2046     		mov	r0, r4
 611 023c FFF7FEFF 		bl	test_println
 612              	.LVL68:
 613              		.loc 1 175 0
 614 0240 40F20000 		movw	r0, #:lower16:.LC24
 615 0244 C0F20000 		movt	r0, #:upper16:.LC24
 616 0248 FFF7FEFF 		bl	test_print
 617              	.LVL69:
 618              		.loc 1 176 0
 619 024c 2846     		mov	r0, r5
 620 024e FFF7FEFF 		bl	test_printn
 621              	.LVL70:
 622              		.loc 1 177 0
 623 0252 2046     		mov	r0, r4
 624 0254 FFF7FEFF 		bl	test_println
 625              	.LVL71:
 626              		.loc 1 178 0
 627 0258 40F20000 		movw	r0, #:lower16:.LC25
 628 025c C0F20000 		movt	r0, #:upper16:.LC25
 629 0260 FFF7FEFF 		bl	test_print
 630              	.LVL72:
 631              		.loc 1 179 0
 632 0264 2846     		mov	r0, r5
 633 0266 FFF7FEFF 		bl	test_printn
 634              	.LVL73:
 635              		.loc 1 180 0
ARM GAS  /tmp/ccXlDfva.s 			page 28


 636 026a 2046     		mov	r0, r4
 637 026c FFF7FEFF 		bl	test_println
 638              	.LVL74:
 639              		.loc 1 181 0
 640 0270 40F20000 		movw	r0, #:lower16:.LC26
 641 0274 C0F20000 		movt	r0, #:upper16:.LC26
 642 0278 FFF7FEFF 		bl	test_print
 643              	.LVL75:
 644              		.loc 1 182 0
 645 027c 0020     		movs	r0, #0
 646 027e FFF7FEFF 		bl	test_printn
 647              	.LVL76:
 648              		.loc 1 183 0
 649 0282 2046     		mov	r0, r4
 650 0284 FFF7FEFF 		bl	test_println
 651              	.LVL77:
 652              		.loc 1 184 0
 653 0288 40F20000 		movw	r0, #:lower16:.LC27
 654 028c C0F20000 		movt	r0, #:upper16:.LC27
 655 0290 FFF7FEFF 		bl	test_print
 656              	.LVL78:
 657              		.loc 1 185 0
 658 0294 0020     		movs	r0, #0
 659 0296 FFF7FEFF 		bl	test_printn
 660              	.LVL79:
 661              		.loc 1 186 0
 662 029a 2046     		mov	r0, r4
 663 029c FFF7FEFF 		bl	test_println
 664              	.LVL80:
 665              		.loc 1 187 0
 666 02a0 40F20000 		movw	r0, #:lower16:.LC28
 667 02a4 C0F20000 		movt	r0, #:upper16:.LC28
 668 02a8 FFF7FEFF 		bl	test_print
 669              	.LVL81:
 670              		.loc 1 188 0
 671 02ac 0020     		movs	r0, #0
 672 02ae FFF7FEFF 		bl	test_printn
 673              	.LVL82:
 674              		.loc 1 189 0
 675 02b2 2046     		mov	r0, r4
 676 02b4 FFF7FEFF 		bl	test_println
 677              	.LVL83:
 678              		.loc 1 190 0
 679 02b8 40F20000 		movw	r0, #:lower16:.LC29
 680 02bc C0F20000 		movt	r0, #:upper16:.LC29
 681 02c0 FFF7FEFF 		bl	test_print
 682              	.LVL84:
 683              		.loc 1 191 0
 684 02c4 0020     		movs	r0, #0
 685 02c6 FFF7FEFF 		bl	test_printn
 686              	.LVL85:
 687              		.loc 1 192 0
 688 02ca 2046     		mov	r0, r4
 689 02cc FFF7FEFF 		bl	test_println
 690              	.LVL86:
 691              		.loc 1 193 0
 692 02d0 40F20000 		movw	r0, #:lower16:.LC30
ARM GAS  /tmp/ccXlDfva.s 			page 29


 693 02d4 C0F20000 		movt	r0, #:upper16:.LC30
 694 02d8 FFF7FEFF 		bl	test_print
 695              	.LVL87:
 696              		.loc 1 194 0
 697 02dc FF20     		movs	r0, #255
 698 02de FFF7FEFF 		bl	test_printn
 699              	.LVL88:
 700              		.loc 1 195 0
 701 02e2 2046     		mov	r0, r4
 702 02e4 FFF7FEFF 		bl	test_println
 703              	.LVL89:
 704              		.loc 1 196 0
 705 02e8 40F20000 		movw	r0, #:lower16:.LC31
 706 02ec C0F20000 		movt	r0, #:upper16:.LC31
 707 02f0 FFF7FEFF 		bl	test_print
 708              	.LVL90:
 709              		.loc 1 197 0
 710 02f4 8020     		movs	r0, #128
 711 02f6 FFF7FEFF 		bl	test_printn
 712              	.LVL91:
 713              		.loc 1 198 0
 714 02fa 2046     		mov	r0, r4
 715 02fc FFF7FEFF 		bl	test_println
 716              	.LVL92:
 717              		.loc 1 199 0
 718 0300 40F20000 		movw	r0, #:lower16:.LC32
 719 0304 C0F20000 		movt	r0, #:upper16:.LC32
 720 0308 FFF7FEFF 		bl	test_print
 721              	.LVL93:
 722              		.loc 1 200 0
 723 030c 0020     		movs	r0, #0
 724 030e FFF7FEFF 		bl	test_printn
 725              	.LVL94:
 726              		.loc 1 201 0
 727 0312 2046     		mov	r0, r4
 728 0314 FFF7FEFF 		bl	test_println
 729              	.LVL95:
 730              		.loc 1 202 0
 731 0318 40F20000 		movw	r0, #:lower16:.LC33
 732 031c C0F20000 		movt	r0, #:upper16:.LC33
 733 0320 FFF7FEFF 		bl	test_print
 734              	.LVL96:
 735              		.loc 1 203 0
 736 0324 0020     		movs	r0, #0
 737 0326 FFF7FEFF 		bl	test_printn
 738              	.LVL97:
 739              		.loc 1 204 0
 740 032a 2046     		mov	r0, r4
 741 032c FFF7FEFF 		bl	test_println
 742              	.LVL98:
 743              		.loc 1 205 0
 744 0330 40F20000 		movw	r0, #:lower16:.LC34
 745 0334 C0F20000 		movt	r0, #:upper16:.LC34
 746 0338 FFF7FEFF 		bl	test_print
 747              	.LVL99:
 748              		.loc 1 206 0
 749 033c 0020     		movs	r0, #0
ARM GAS  /tmp/ccXlDfva.s 			page 30


 750 033e FFF7FEFF 		bl	test_printn
 751              	.LVL100:
 752              		.loc 1 207 0
 753 0342 2046     		mov	r0, r4
 754              		.loc 1 209 0
 755 0344 BDE83840 		pop	{r3, r4, r5, lr}
 756              		.loc 1 207 0
 757 0348 FFF7FEBF 		b	test_println
 758              	.LVL101:
 759              		.cfi_endproc
 760              	.LFE218:
 761              		.size	test_001_002_execute, .-test_001_002_execute
 762 034c AFF30080 		.section	.text.test_001_001_execute,"ax",%progbits
 763              		.align	2
 764              		.p2align 4,,15
 765              		.thumb
 766              		.thumb_func
 767              		.type	test_001_001_execute, %function
 768              	test_001_001_execute:
 769              	.LFB217:
 770              		.loc 1 60 0
 771              		.cfi_startproc
 772              		@ args = 0, pretend = 0, frame = 0
 773              		@ frame_needed = 0, uses_anonymous_args = 0
 774 0000 38B5     		push	{r3, r4, r5, lr}
 775              		.cfi_def_cfa_offset 16
 776              		.cfi_offset 3, -16
 777              		.cfi_offset 4, -12
 778              		.cfi_offset 5, -8
 779              		.cfi_offset 14, -4
 780              		.loc 1 65 0
 781 0002 40F20000 		movw	r0, #:lower16:.LC35
 782              		.loc 1 63 0
 783 0006 40F20003 		movw	r3, #:lower16:test_step
 784 000a C0F20003 		movt	r3, #:upper16:test_step
 785 000e 0125     		movs	r5, #1
 786              		.loc 1 65 0
 787 0010 C0F20000 		movt	r0, #:upper16:.LC35
 788              		.loc 1 63 0
 789 0014 1D60     		str	r5, [r3]
 790              		.loc 1 65 0
 791 0016 FFF7FEFF 		bl	test_println
 792              	.LVL102:
 793              		.loc 1 66 0
 794 001a 40F20000 		movw	r0, #:lower16:.LC36
 795 001e C0F20000 		movt	r0, #:upper16:.LC36
 796              		.loc 1 68 0
 797 0022 40F20004 		movw	r4, #:lower16:.LC1
 798 0026 C0F20004 		movt	r4, #:upper16:.LC1
 799              		.loc 1 66 0
 800 002a FFF7FEFF 		bl	test_print
 801              	.LVL103:
 802              		.loc 1 67 0
 803 002e 2846     		mov	r0, r5
 804 0030 FFF7FEFF 		bl	test_printn
 805              	.LVL104:
 806              		.loc 1 68 0
ARM GAS  /tmp/ccXlDfva.s 			page 31


 807 0034 2046     		mov	r0, r4
 808 0036 FFF7FEFF 		bl	test_println
 809              	.LVL105:
 810              		.loc 1 69 0
 811 003a 40F20000 		movw	r0, #:lower16:.LC37
 812 003e C0F20000 		movt	r0, #:upper16:.LC37
 813 0042 FFF7FEFF 		bl	test_print
 814              	.LVL106:
 815              		.loc 1 70 0
 816 0046 40F20000 		movw	r0, #:lower16:.LC38
 817 004a C0F20000 		movt	r0, #:upper16:.LC38
 818 004e FFF7FEFF 		bl	test_println
 819              	.LVL107:
 820              		.loc 1 71 0
 821 0052 40F20000 		movw	r0, #:lower16:.LC39
 822 0056 C0F20000 		movt	r0, #:upper16:.LC39
 823 005a FFF7FEFF 		bl	test_print
 824              	.LVL108:
 825              		.loc 1 72 0
 826 005e 0420     		movs	r0, #4
 827 0060 FFF7FEFF 		bl	test_printn
 828              	.LVL109:
 829              		.loc 1 73 0
 830 0064 2046     		mov	r0, r4
 831 0066 FFF7FEFF 		bl	test_println
 832              	.LVL110:
 833              		.loc 1 74 0
 834 006a 40F20000 		movw	r0, #:lower16:.LC40
 835 006e C0F20000 		movt	r0, #:upper16:.LC40
 836 0072 FFF7FEFF 		bl	test_print
 837              	.LVL111:
 838              		.loc 1 75 0
 839 0076 0020     		movs	r0, #0
 840 0078 FFF7FEFF 		bl	test_printn
 841              	.LVL112:
 842              		.loc 1 76 0
 843 007c 2046     		mov	r0, r4
 844 007e FFF7FEFF 		bl	test_println
 845              	.LVL113:
 846              		.loc 1 77 0
 847 0082 40F20000 		movw	r0, #:lower16:.LC41
 848 0086 C0F20000 		movt	r0, #:upper16:.LC41
 849 008a FFF7FEFF 		bl	test_print
 850              	.LVL114:
 851              		.loc 1 78 0
 852 008e 2846     		mov	r0, r5
 853 0090 FFF7FEFF 		bl	test_printn
 854              	.LVL115:
 855              		.loc 1 79 0
 856 0094 2046     		mov	r0, r4
 857              		.loc 1 81 0
 858 0096 BDE83840 		pop	{r3, r4, r5, lr}
 859              		.loc 1 79 0
 860 009a FFF7FEBF 		b	test_println
 861              	.LVL116:
 862              		.cfi_endproc
 863              	.LFE217:
ARM GAS  /tmp/ccXlDfva.s 			page 32


 864              		.size	test_001_001_execute, .-test_001_001_execute
 865              		.global	test_sequence_001
 866 009e 00BF     		.section	.rodata.test_sequence_001,"a",%progbits
 867              		.align	2
 868              		.type	test_sequence_001, %object
 869              		.size	test_sequence_001, 12
 870              	test_sequence_001:
 871 0000 00000000 		.word	test_001_001
 872 0004 00000000 		.word	test_001_002
 873 0008 00000000 		.word	0
 874              		.section	.rodata.test_001_001,"a",%progbits
 875              		.align	2
 876              		.type	test_001_001, %object
 877              		.size	test_001_001, 16
 878              	test_001_001:
 879 0000 28050000 		.word	.LC43
 880 0004 00000000 		.word	0
 881 0008 00000000 		.word	0
 882 000c 00000000 		.word	test_001_001_execute
 883              		.section	.rodata.test_001_002,"a",%progbits
 884              		.align	2
 885              		.type	test_001_002, %object
 886              		.size	test_001_002, 16
 887              	test_001_002:
 888 0000 18050000 		.word	.LC42
 889 0004 00000000 		.word	0
 890 0008 00000000 		.word	0
 891 000c 00000000 		.word	test_001_002_execute
 892              		.section	.rodata.str1.4,"aMS",%progbits,1
 893              		.align	2
 894              	.LC0:
 895 0000 2D2D2D20 		.ascii	"--- CH_CFG_ST_RESOLUTION:      \000"
 895      43485F43 
 895      46475F53 
 895      545F5245 
 895      534F4C55 
 896              	.LC1:
 897 0020 00       		.ascii	"\000"
 898 0021 000000   		.space	3
 899              	.LC2:
 900 0024 2D2D2D20 		.ascii	"--- CH_CFG_ST_FREQUENCY:       \000"
 900      43485F43 
 900      46475F53 
 900      545F4652 
 900      45515545 
 901              	.LC3:
 902 0044 2D2D2D20 		.ascii	"--- CH_CFG_ST_TIMEDELTA:       \000"
 902      43485F43 
 902      46475F53 
 902      545F5449 
 902      4D454445 
 903              	.LC4:
 904 0064 2D2D2D20 		.ascii	"--- CH_CFG_TIME_QUANTUM:       \000"
 904      43485F43 
 904      46475F54 
 904      494D455F 
 904      5155414E 
ARM GAS  /tmp/ccXlDfva.s 			page 33


 905              	.LC5:
 906 0084 2D2D2D20 		.ascii	"--- CH_CFG_MEMCORE_SIZE:       \000"
 906      43485F43 
 906      46475F4D 
 906      454D434F 
 906      52455F53 
 907              	.LC6:
 908 00a4 2D2D2D20 		.ascii	"--- CH_CFG_NO_IDLE_THREAD:     \000"
 908      43485F43 
 908      46475F4E 
 908      4F5F4944 
 908      4C455F54 
 909              	.LC7:
 910 00c4 2D2D2D20 		.ascii	"--- CH_CFG_OPTIMIZE_SPEED:     \000"
 910      43485F43 
 910      46475F4F 
 910      5054494D 
 910      495A455F 
 911              	.LC8:
 912 00e4 2D2D2D20 		.ascii	"--- CH_CFG_USE_TM:             \000"
 912      43485F43 
 912      46475F55 
 912      53455F54 
 912      4D3A2020 
 913              	.LC9:
 914 0104 2D2D2D20 		.ascii	"--- CH_CFG_USE_REGISTRY:       \000"
 914      43485F43 
 914      46475F55 
 914      53455F52 
 914      45474953 
 915              	.LC10:
 916 0124 2D2D2D20 		.ascii	"--- CH_CFG_USE_WAITEXIT:       \000"
 916      43485F43 
 916      46475F55 
 916      53455F57 
 916      41495445 
 917              	.LC11:
 918 0144 2D2D2D20 		.ascii	"--- CH_CFG_USE_SEMAPHORES:     \000"
 918      43485F43 
 918      46475F55 
 918      53455F53 
 918      454D4150 
 919              	.LC12:
 920 0164 2D2D2D20 		.ascii	"--- CH_CFG_USE_SEMAPHORES_PRI: \000"
 920      43485F43 
 920      46475F55 
 920      53455F53 
 920      454D4150 
 921              	.LC13:
 922 0184 2D2D2D20 		.ascii	"--- CH_CFG_USE_MUTEXES:        \000"
 922      43485F43 
 922      46475F55 
 922      53455F4D 
 922      55544558 
 923              	.LC14:
 924 01a4 2D2D2D20 		.ascii	"--- CH_CFG_USE_MUTEXES_RECURS: \000"
 924      43485F43 
ARM GAS  /tmp/ccXlDfva.s 			page 34


 924      46475F55 
 924      53455F4D 
 924      55544558 
 925              	.LC15:
 926 01c4 2D2D2D20 		.ascii	"--- CH_CFG_USE_CONDVARS:       \000"
 926      43485F43 
 926      46475F55 
 926      53455F43 
 926      4F4E4456 
 927              	.LC16:
 928 01e4 2D2D2D20 		.ascii	"--- CH_CFG_USE_CONDVARS_TIMEO: \000"
 928      43485F43 
 928      46475F55 
 928      53455F43 
 928      4F4E4456 
 929              	.LC17:
 930 0204 2D2D2D20 		.ascii	"--- CH_CFG_USE_EVENTS:         \000"
 930      43485F43 
 930      46475F55 
 930      53455F45 
 930      56454E54 
 931              	.LC18:
 932 0224 2D2D2D20 		.ascii	"--- CH_CFG_USE_EVENTS_TIMEOUT: \000"
 932      43485F43 
 932      46475F55 
 932      53455F45 
 932      56454E54 
 933              	.LC19:
 934 0244 2D2D2D20 		.ascii	"--- CH_CFG_USE_MESSAGES:       \000"
 934      43485F43 
 934      46475F55 
 934      53455F4D 
 934      45535341 
 935              	.LC20:
 936 0264 2D2D2D20 		.ascii	"--- CH_CFG_USE_MESSAGES_PRI:   \000"
 936      43485F43 
 936      46475F55 
 936      53455F4D 
 936      45535341 
 937              	.LC21:
 938 0284 2D2D2D20 		.ascii	"--- CH_CFG_USE_MAILBOXES:      \000"
 938      43485F43 
 938      46475F55 
 938      53455F4D 
 938      41494C42 
 939              	.LC22:
 940 02a4 2D2D2D20 		.ascii	"--- CH_CFG_USE_MEMCORE:        \000"
 940      43485F43 
 940      46475F55 
 940      53455F4D 
 940      454D434F 
 941              	.LC23:
 942 02c4 2D2D2D20 		.ascii	"--- CH_CFG_USE_HEAP:           \000"
 942      43485F43 
 942      46475F55 
 942      53455F48 
 942      4541503A 
ARM GAS  /tmp/ccXlDfva.s 			page 35


 943              	.LC24:
 944 02e4 2D2D2D20 		.ascii	"--- CH_CFG_USE_MEMPOOLS:       \000"
 944      43485F43 
 944      46475F55 
 944      53455F4D 
 944      454D504F 
 945              	.LC25:
 946 0304 2D2D2D20 		.ascii	"--- CH_CFG_USE_DYNAMIC:        \000"
 946      43485F43 
 946      46475F55 
 946      53455F44 
 946      594E414D 
 947              	.LC26:
 948 0324 2D2D2D20 		.ascii	"--- CH_DBG_STATISTICS:         \000"
 948      43485F44 
 948      42475F53 
 948      54415449 
 948      53544943 
 949              	.LC27:
 950 0344 2D2D2D20 		.ascii	"--- CH_DBG_SYSTEM_STATE_CHECK: \000"
 950      43485F44 
 950      42475F53 
 950      59535445 
 950      4D5F5354 
 951              	.LC28:
 952 0364 2D2D2D20 		.ascii	"--- CH_DBG_ENABLE_CHECKS:      \000"
 952      43485F44 
 952      42475F45 
 952      4E41424C 
 952      455F4348 
 953              	.LC29:
 954 0384 2D2D2D20 		.ascii	"--- CH_DBG_ENABLE_ASSERTS:     \000"
 954      43485F44 
 954      42475F45 
 954      4E41424C 
 954      455F4153 
 955              	.LC30:
 956 03a4 2D2D2D20 		.ascii	"--- CH_DBG_TRACE_MASK:         \000"
 956      43485F44 
 956      42475F54 
 956      52414345 
 956      5F4D4153 
 957              	.LC31:
 958 03c4 2D2D2D20 		.ascii	"--- CH_DBG_TRACE_BUFFER_SIZE:  \000"
 958      43485F44 
 958      42475F54 
 958      52414345 
 958      5F425546 
 959              	.LC32:
 960 03e4 2D2D2D20 		.ascii	"--- CH_DBG_ENABLE_STACK_CHECK: \000"
 960      43485F44 
 960      42475F45 
 960      4E41424C 
 960      455F5354 
 961              	.LC33:
 962 0404 2D2D2D20 		.ascii	"--- CH_DBG_FILL_THREADS:       \000"
 962      43485F44 
ARM GAS  /tmp/ccXlDfva.s 			page 36


 962      42475F46 
 962      494C4C5F 
 962      54485245 
 963              	.LC34:
 964 0424 2D2D2D20 		.ascii	"--- CH_DBG_THREADS_PROFILING:  \000"
 964      43485F44 
 964      42475F54 
 964      48524541 
 964      44535F50 
 965              	.LC35:
 966 0444 2D2D2D20 		.ascii	"--- Product:                   ChibiOS/RT\000"
 966      50726F64 
 966      7563743A 
 966      20202020 
 966      20202020 
 967 046e 0000     		.space	2
 968              	.LC36:
 969 0470 2D2D2D20 		.ascii	"--- Stable Flag:               \000"
 969      53746162 
 969      6C652046 
 969      6C61673A 
 969      20202020 
 970              	.LC37:
 971 0490 2D2D2D20 		.ascii	"--- Version String:            \000"
 971      56657273 
 971      696F6E20 
 971      53747269 
 971      6E673A20 
 972              	.LC38:
 973 04b0 342E302E 		.ascii	"4.0.1\000"
 973      3100
 974 04b6 0000     		.space	2
 975              	.LC39:
 976 04b8 2D2D2D20 		.ascii	"--- Major Number:              \000"
 976      4D616A6F 
 976      72204E75 
 976      6D626572 
 976      3A202020 
 977              	.LC40:
 978 04d8 2D2D2D20 		.ascii	"--- Minor Number:              \000"
 978      4D696E6F 
 978      72204E75 
 978      6D626572 
 978      3A202020 
 979              	.LC41:
 980 04f8 2D2D2D20 		.ascii	"--- Patch Number:              \000"
 980      50617463 
 980      68204E75 
 980      6D626572 
 980      3A202020 
 981              	.LC42:
 982 0518 4B65726E 		.ascii	"Kernel Settings\000"
 982      656C2053 
 982      65747469 
 982      6E677300 
 983              	.LC43:
 984 0528 4B65726E 		.ascii	"Kernel Info\000"
ARM GAS  /tmp/ccXlDfva.s 			page 37


 984      656C2049 
 984      6E666F00 
 985              		.text
 986              	.Letext0:
 987              		.file 2 "/home/alex/MentorGraphics/Sourcery_CodeBench_Lite_for_ARM_EABI/lib/gcc/arm-none-eabi/4.8.
 988              		.file 3 "/home/alex/MentorGraphics/Sourcery_CodeBench_Lite_for_ARM_EABI/arm-none-eabi/include/stdi
 989              		.file 4 "../../../os/common/ports/ARMCMx/compilers/GCC/chtypes.h"
 990              		.file 5 "../../../os/rt/include/chsystypes.h"
 991              		.file 6 "../../../os/rt/include/chschd.h"
 992              		.file 7 "../../../os/common/ports/ARMCMx/chcore.h"
 993              		.file 8 "../../../os/common/ports/ARMCMx/chcore_v7m.h"
 994              		.file 9 "../../../os/rt/include/chtm.h"
 995              		.file 10 "../../../os/rt/include/chsem.h"
 996              		.file 11 "../../../os/rt/include/chmtx.h"
 997              		.file 12 "../../../test/lib/ch_test.h"
 998              		.file 13 "../../../os/common/ext/CMSIS/include/core_cm3.h"