ARM GAS  /tmp/cca0jqD2.s 			page 1


   1              		.syntax unified
   2              		.cpu cortex-m3
   3              		.fpu softvfp
   4              		.eabi_attribute 20, 1
   5              		.eabi_attribute 21, 1
   6              		.eabi_attribute 23, 3
   7              		.eabi_attribute 24, 1
   8              		.eabi_attribute 25, 1
   9              		.eabi_attribute 26, 1
  10              		.eabi_attribute 30, 2
  11              		.eabi_attribute 34, 1
  12              		.eabi_attribute 18, 4
  13              		.thumb
  14              		.file	"test_sequence_007.c"
  15              		.text
  16              	.Ltext0:
  17              		.section	.gnu.lto_.jmpfuncs.7935f74bde241716,"",%progbits
  18 0000 789C6362 		.ascii	"x\234cb`b\300\006\326\000\261\004\020\003e\231\230\252"
  18      6062C006 
  18      D600B104 
  18      10036599 
  18      98AA
  19 0012 197E35CC 		.ascii	"\031~5\314h\020\310dd\220c`\234\3330\303!\223\221\021"
  19      6810C864 
  19      64906360 
  19      9CDB30C3 
  19      21939111 
  20 0026 AC0A21C3 		.ascii	"\254\012!\303$\307\300\016\221a\206\030\300\310\000"
  20      24C7C00E 
  20      91618618 
  20      C0C800
  21 0035 359915C8 		.ascii	"5\231\025\310\210`\314dd9\301\004\327\322\001\322\302"
  21      8860CC64 
  21      6439C104 
  21      D7D201D2 
  21      C2
  22 0046 9ACC08B5 		.ascii	"\232\314\010\265\214\205\221\011\244\253\014\252\222"
  22      8C859109 
  22      A4AB0CAA 
  22      92
  23 0053 CD05C840 		.ascii	"\315\005\310@\021pF\027pB\027p\004\331\344\350\344\354"
  23      11704617 
  23      70421770 
  23      04D9E4E8 
  23      E4EC
  24 0065 C2209899 		.ascii	"\302 \230\231W\226\230\223\231\242P\234ZX\232\232\227"
  24      57969893 
  24      99A2509C 
  24      5A589A9A 
  24      97
  25 0076 9CCA0000 		.ascii	"\234\312\000\000\333\023 \013"
  25      DB13200B 
  26              		.text
  27              		.section	.gnu.lto_.inline.7935f74bde241716,"",%progbits
  28 0000 789C6362 		.ascii	"x\234cb`b\300\006\312\2414PV\341$##\003\223\330\205"
  28      6062C006 
  28      CAA13450 
ARM GAS  /tmp/cca0jqD2.s 			page 2


  28      56E12423 
  28      230393D8 
  29 0015 366606B6 		.ascii	"6f\006\266\005\362`\345\314<`\031F.\220\012nF\006\306"
  29      05F260E5 
  29      CC3C6019 
  29      462E900A 
  29      6E4606C6 
  30 0029 097ECC3C 		.ascii	"\011~\314<@E\023\374&\370\201\370\014\354\002\014\014"
  30      404513FC 
  30      26F881F8 
  30      0CEC020C 
  30      0C
  31 003a AC13FC18 		.ascii	"\254\023\374\030\300\210\205\201\337\210\021l\017\212"
  31      C0888581 
  31      DF88116C 
  31      0F8A
  32 0048 7EA01C2E 		.ascii	"~\240\034.\232\001\000ot\016\007"
  32      9A01006F 
  32      740E07
  33              		.text
  34              		.section	.gnu.lto_.pureconst.7935f74bde241716,"",%progbits
  35 0000 789C6362 		.ascii	"x\234cb`b`e\200\000&\006I\026\011\000\001\007\000A"
  35      60626065 
  35      80002606 
  35      49160900 
  35      01070041 
  36              		.text
  37              		.section	.gnu.lto_test_007_001_execute.7935f74bde241716,"",%progbits
  38 0000 789C9554 		.ascii	"x\234\225T[kSY\024^k\237s\3224M\215\321V\353\255\255"
  38      5B6B5359 
  38      145E6B9F 
  38      73D2344D 
  38      8DD156EB 
  39 0016 B7979149 		.ascii	"\267\227\221I\024\004)\210x\373\011\012\372$\3614\244"
  39      14042988 
  39      78FB090A 
  39      FA24F134 
  39      A4
  40 0027 079A3A36 		.ascii	"\007\232:6\351\274\314\203\273M\035}\360\022\364\245"
  40      E9BCCC83 
  40      BB4D1D7D 
  40      F012F4A5 
  41 0037 2AE2A554 		.ascii	"*\342\245TA\304\013\202\212x\211\024$\245j\355\203\240"
  41      41C40B82 
  41      8A788914 
  41      24A56AED 
  41      83A0
  42 0049 224C1807 		.ascii	"\"L\030\007\025\005\025_\2523\203\235\265\366>\373L"
  42      1505155F 
  42      AA33839D 
  42      B5F63EFB 
  42      4C
  43 005a B5E38887 		.ascii	"\265\343\210\207d\237u\326Z\337\267\327e\257-@\300\227"
  43      649F75D6 
  43      5ADFB7D7 
  43      65AF2D40 
  43      C097
ARM GAS  /tmp/cca0jqD2.s 			page 3


  44 006c CF4AFA4F 		.ascii	"\317J\372O\013\001\364\321\033C\200\242x\037\240;,\320"
  44      0B01F4D1 
  44      1B4380A2 
  44      781FA03B 
  44      2CD0
  45 007e D682A585 		.ascii	"\326\202\245\205\333a[X\245U #\316\203\030\310\250\203"
  45      DB615B58 
  45      A5552023 
  45      CE8318C8 
  45      A883
  46 0090 C86A40D8 		.ascii	"\310j@\330!,\333\301\035\233\221\331\304\0028!\345\201"
  46      212CDBC1 
  46      1D9B91D9 
  46      C4023821 
  46      E581
  47 00a2 CAC08B97 		.ascii	"\312\300\213\227xH\226z\217\313\277\307\307\021=\244"
  47      7848967A 
  47      8FCBBFC7 
  47      C7113DA4 
  48 00b2 9D9723B8 		.ascii	"\235\227#\270\010\233\350\003\233\325K\330\237\207\242"
  48      089BE803 
  48      9BD54BD8 
  48      9F87A2
  49 00c1 B1A5B15F 		.ascii	"\261\245\261_\367\317\222\307{\212\362\023A=\264\004"
  49      F7CF92C7 
  49      7B8AF213 
  49      413DB404 
  50 00d1 ACF816F2 		.ascii	"\254\370\026\362\274(U\306\307\357^\252\374~\037\343"
  50      BC2855C6 
  50      C7EF5EAA 
  50      FC7E1FE3 
  51 00e1 331052D8 		.ascii	"3\020R\330\217\013\300\001\017\355\020-N\230\026\210"
  51      8F0BC001 
  51      0FED102D 
  51      4E981688 
  52 00f1 92FA04A9 		.ascii	"\222\372\004\251k\351#\024\243\245*\356;\326\261\271"
  52      6BE92314 
  52      A3A52AEE 
  52      3BD6B1B9 
  53 0101 9E963071 		.ascii	"\236\2260q9\320+e\261Y\373\252\220\212\245\033w\366"
  53      39D02B65 
  53      B159FBAA 
  53      908AA51B 
  53      77F6
  54 0113 4C0CA95A 		.ascii	"L\014\251Z@\313\267B\002\266\323\263\201V\252\330F\024"
  54      40CBB742 
  54      02B6D3B3 
  54      8156AAD8 
  54      4614
  55 0125 F4B2EE41 		.ascii	"\364\262\356A\317\325\253\257\032R8\200\016\034\201"
  55      CFD5ABAF 
  55      1A523880 
  55      0E1C81
  56 0134 C3DD524E 		.ascii	"\303\335RN\245\024\177\201?\345n\226\"Y\005b\302\010"
  56      A5147F81 
  56      3FE56E96 
  56      22590562 
ARM GAS  /tmp/cca0jqD2.s 			page 4


  56      C208
  57 0146 18C9621D 		.ascii	"\030\311b\035!\237~x\365\310\326\320\014:?\302YF\324"
  57      219F7E78 
  57      F5C8D6D0 
  57      0C3A3FC2 
  57      5946D4
  58 0159 304B91A5 		.ascii	"0K\221\245(\263\364\261T\233E\364\261\265\001\313\224"
  58      28B3F4B1 
  58      549B45F4 
  58      B1B501CB 
  58      94
  59 016a 09A111D9 		.ascii	"\011\241\021\331\223\353\307~[\356\347j\222\226oO%\203"
  59      93EBC77E 
  59      5BEEE76A 
  59      92966F4F 
  59      2583
  60 017c 0218A134 		.ascii	"\002\030\2414\374p4NtzcW1\323K\235\244\014\326-\201"
  60      FC70344E 
  60      747A6357 
  60      31D34B9D 
  60      A40CD62D 
  61 0191 3352CACA 		.ascii	"3R\312\312_\037\007~\240\"\352/\331\342a,\310nj\220"
  61      5F1F077E 
  61      A022EA2F 
  61      D9E2612C 
  61      C86E6A90 
  62 01a5 5D3CAB60 		.ascii	"]<\253`\034M\\\305\261\225\311Rx\216\210I\306@\326\021"
  62      1C4D5CC5 
  62      B195C952 
  62      788E8849 
  62      C640D611 
  63 01b9 7EB83C3B 		.ascii	"~\270<;\205\347U\266\365>q\216z\024\020O\243\355\231"
  63      85E755B6 
  63      F53E718E 
  63      7A14104F 
  63      A3ED99
  64 01cc 0B7C2EC1 		.ascii	"\013|.\301\370\013\006_\330=8\374\360b\265\251W\210"
  64      F80B065F 
  64      D83D38FC 
  64      F062B5A9 
  64      5788
  65 01de 48D8D961 		.ascii	"H\330\331a\367\021h0\372p\020\335t\027-\320Y9\252\354"
  65      F7116830 
  65      FA7010DD 
  65      74172DD0 
  65      5939AAEC 
  66 01f2 65C138B6 		.ascii	"e\3018\266\207=\254s\321\257=g\355a\275\212q\250\030"
  66      873DAC73 
  66      D1AF3D67 
  66      ED61BD8A 
  66      71A818
  67 0205 D14AEE86 		.ascii	"\321J\356\206N\374\337\266\316\010\250gf\0255\263\316"
  67      4EFCDFB6 
  67      CE08A867 
  67      661535B3 
  67      CE
  68 0216 FC8F8664 		.ascii	"\374\217\206d\370\340\251\243\361\346{\217\006\327s"
ARM GAS  /tmp/cca0jqD2.s 			page 5


  68      F8E0A9A3 
  68      F1E67B8F 
  68      06D773
  69 0225 087A2A37 		.ascii	"\010z*7\012U\301\301\345#m\372\245\004V(o\263\341F\022"
  69      0A55C1C1 
  69      E5236DFA 
  69      A5045628 
  69      6FB3E146 
  70 023a 4BABAC11 		.ascii	"K\253\254\021(Tn\016\206RxS\225\"\032\354\325\340j("
  70      28546E0E 
  70      86527853 
  70      95221AEC 
  70      D5E06A28 
  71 024e 8DC42CE6 		.ascii	"\215\304,\346\027\332E\317\0049\252h\257\355\034\333"
  71      17DA45CF 
  71      0439AA68 
  71      AFED1CDB 
  72 025e 338F83AF 		.ascii	"3\217\203\257\245hy*\310\240\332\261Ho\302a\335z\346"
  72      A568792A 
  72      C8A0DAB1 
  72      486FC261 
  72      DD7AE6
  73 0271 B367D156 		.ascii	"\263g\321V8R\206\315\244W\016\356\372c\024\017\024d"
  73      385286CD 
  73      A4570EEE 
  73      FA63140F 
  73      1464
  74 0283 59F69668 		.ascii	"Y\366\226h\260\232<\236\334\223\324\307\377\037-\342"
  74      B09A3C9E 
  74      DC93D4C7 
  74      FF1F2DE2 
  75 0293 5244EFDE 		.ascii	"RD\357\336_i7\201\235R9sgwV\312\317\"Z\015\020d4\333"
  75      5F693781 
  75      9D523973 
  75      677756CA 
  75      CF225A0D 
  76 02ab A5CB4DD7 		.ascii	"\245\313M\327:J\021{8G\345\360\272pz_\302\344\037\313"
  76      3A4A117B 
  76      3847E5F0 
  76      BA707A5F 
  76      C2E41FCB 
  77 02bf F0B88C80 		.ascii	"\360\270\214\200=\011=\327\305*\037\035\363p\236>^\205"
  77      3D093DD7 
  77      C52A1F1D 
  77      F3709E3E 
  77      5E85
  78 02d1 B1BD2D06 		.ascii	"\261\275-\006\032\317 \006\243:\241^\375\252^qSu\033"
  78      1ACF2006 
  78      A33AA15E 
  78      FDAA5E71 
  78      53751B
  79 02e4 E8D2B474 		.ascii	"\350\322\264t\015\214\221\020e\350}\336]c\2704Q\320"
  79      0D8C9110 
  79      65E87DDE 
  79      5D63B834 
  79      51D0
  80 02f6 2B780CE8 		.ascii	"+x\014\3507O\224-\"\263\372\252\230\313\341\373\204"
ARM GAS  /tmp/cca0jqD2.s 			page 6


  80      374F942D 
  80      22B3FAAA 
  80      98CBE1FB 
  80      84
  81 0307 3B383C58 		.ascii	";8<X3)\340FW\335e\334\300&]\224\273\3758\311\253\331"
  81      3329E046 
  81      57DD65DC 
  81      C0265D94 
  81      BBFD38C9 
  82 031d C56AE5C5 		.ascii	"\305j\345\305\232\006\017\3477B7\036\225}\253=\212\314"
  82      9A060FE7 
  82      3742371E 
  82      957DAB3D 
  82      8ACC
  83 032f F7F64D0B 		.ascii	"\367\366M\013\033a\227oZdL\036.\006\030\205\200W?\033"
  83      1B61976F 
  83      5A644C1E 
  83      2E061885 
  83      80573F1B 
  84 0343 28A30731 		.ascii	"(\243\0071>\227\313\022\211\244\376\345\323\271|\262"
  84      3E97CB12 
  84      89A4FEE5 
  84      D3B97CB2 
  85 0353 339FCC6D 		.ascii	"3\237\314m\353\352t\323\372\223\227-\271\364\366\256"
  85      EBEA74D3 
  85      FA93972D 
  85      B9F4F6AE 
  86 0363 74879BDE 		.ascii	"t\207\233\336\262t\351\212\204\013\"\377\023zV6\227"
  86      B274E98A 
  86      840B22FF 
  86      137A5636 
  86      97
  87 0374 591840B7 		.ascii	"Y\030@\267\345\030\350u\270\355]\255\351\244\333\226"
  87      E518E875 
  87      B8ED5DAD 
  87      E9A4DB96 
  88 0384 6FEB4CA7 		.ascii	"o\353L\247Zs\2116h\372\252\017\021\220\335Y\263v\335"
  88      5A738936 
  88      68FAAA0F 
  88      1190DD59 
  88      B376DD
  89 0397 7A887B1D 		.ascii	"z\210{\035?\247\332\275\326f\263\025\374\003\271r\232"
  89      3FA7DABD 
  89      D666B315 
  89      FC03B972 
  89      9A
  90 03a8 36       		.ascii	"6"
  91              		.text
  92              		.section	.gnu.lto_msg_thread1.7935f74bde241716,"",%progbits
  93 0000 789C6362 		.ascii	"x\234cb`b@\007\222@,\304\310\300`\014\244\031\231\031"
  93      60624007 
  93      92402CC4 
  93      C8C0600C 
  93      A4199919 
  94 0014 1899269C 		.ascii	"\030\231&\234c`h\344`bd\0041\030\030\031\352\231\030"
  94      636068E4 
  94      60626404 
ARM GAS  /tmp/cca0jqD2.s 			page 7


  94      31181819 
  94      EA9918
  95 0027 EB2319C1 		.ascii	"\353#\031\301j\3273\035x\360\377\377\272+[\037U0\262"
  95      6AD7331D 
  95      78F0FFFF 
  95      BA2B5B1F 
  95      5530B2
  96 003a 3331E682 		.ascii	"31\346\202EY\031Z\032\032&(00$\203\271!@\022\2443\224"
  96      4559195A 
  96      1A1A2628 
  96      30302483 
  96      B9214012 
  97 0051 91094433 		.ascii	"\221\011D3\237gh}\360\306\"\221q!#+P\266\232\341WCG"
  97      9F67687D 
  97      F0C62291 
  97      7121232B 
  97      50B69AE1 
  98 0068 83402623 		.ascii	"\203@&#P5\304\314tF\246\010\306LFFG\206L\240\016\006"
  98      5035C4CC 
  98      7446A608 
  98      C64C4646 
  98      47864CA0 
  99 007e A0F205B9 		.ascii	"\240\362\005\271\204U;!T\347\021V\355\214P\235OX\265"
  99      84553B21 
  99      54E71156 
  99      ED8C509D 
  99      4F58B5
 100 0091 0B44F545 		.ascii	"\013D\365E\206\306\007?\230`\312! \004\250\024\350)"
 100      86C6073F 
 100      9860CA21 
 100      2004A814 
 100      E829
 101 00a3 50281AEA 		.ascii	"P(\032\352\351\351CPIjq\211~Q\211~q~iQr*\204\013\"\342"
 101      E9E94350 
 101      496A7189 
 101      7E51897E 
 101      717E6951 
 102 00bd 8B530B4B 		.ascii	"\213S\013KS\363\222S\343\015\014\314\365\222\031\000"
 102      53F39253 
 102      E30D0CCC 
 102      F5921900 
 103 00cd 7CCE4F65 		.ascii	"|\316Oe"
 104              		.text
 105              		.section	.gnu.lto_.symbol_nodes.7935f74bde241716,"",%progbits
 106 0000 789C4DCA 		.ascii	"x\234M\3129\016\3020\024\204\341\031/\020\326+p6.\302"
 106      390EC230 
 106      1484E119 
 106      2F10D62B 
 106      70362EC2 
 107 0014 8B840402 		.ascii	"\213\204\004\002\032\016@\347\243\244\247gOp\200\206"
 107      1A0E40E7 
 107      A3A4A767 
 107      4F708086 
 108 0024 2320842D 		.ascii	"# \204-\"\214\233\317\277\336((\274\320<\265\247\020"
 108      228C9BCF 
 108      BFDE2828 
 108      BCD03CB5 
ARM GAS  /tmp/cca0jqD2.s 			page 8


 108      A710
 109 0036 EB2D20B2 		.ascii	"\353- \262Y\214\355\211\341\007{&#\017\252\200\332Q"
 109      598CED89 
 109      E1077B26 
 109      230FAA80 
 109      DA51
 110 0048 F0B729A9 		.ascii	"\360\267)\251\343\361Hc\003\007Z#\2327\212\372n\362"
 110      E3F14863 
 110      03075A23 
 110      9A378AFA 
 110      6EF2
 111 005a 9CAC293A 		.ascii	"\234\254):\225\247\230TW\212MUQZ\251.\224v\252;%\373"
 111      95A79854 
 111      578A4D55 
 111      515AA92E 
 111      9476AA3B 
 112 0070 95C600AE 		.ascii	"\225\306\000\256z\007\373p\263z\242\321\203\237G\273"
 112      7A07FB70 
 112      B37AA2D1 
 112      839F47BB 
 113 0080 70CB6807 		.ascii	"p\313h\007\305\3529\322\310\340\243f\210i\031\366A\327"
 113      C5EA39D2 
 113      C8E0A366 
 113      886919F6 
 113      41D7
 114 0092 5834FA20 		.ascii	"X4\372 >l\322L\007"
 114      3E6CD24C 
 114      07
 115              		.text
 116              		.section	.gnu.lto_.refs.7935f74bde241716,"",%progbits
 117 0000 789C6362 		.ascii	"x\234cb`b\020g\200\0006\006FF \227\231\211\205\221\225"
 117      60621067 
 117      80003606 
 117      46462097 
 117      99898591 
 118 0015 9191918D 		.ascii	"\221\221\221\215\211\235\221\235\211\201\001\000\005"
 118      899D919D 
 118      89810100 
 118      05
 119 0022 C70051   		.ascii	"\307\000Q"
 120              		.text
 121              		.section	.gnu.lto_.decls.7935f74bde241716,"",%progbits
 122 0000 789CAD5B 		.ascii	"x\234\255[yp\024Wz\177\3353\243\231A\342\362\032\027"
 122      79701457 
 122      7A7FDD33 
 122      A39941E2 
 122      F21A17
 123 0013 A41C5B4E 		.ascii	"\244\034[N\274\211\355*#\22486\331\252\265\261I\212"
 123      BC89ED2A 
 123      23943836 
 123      D9AAB5B1 
 123      498A
 124 0025 A42AA452 		.ascii	"\244*\244RK\266\342\252T2\333\214\032ibif\266\247\205"
 124      4BB6E2AA 
 124      5432DB8C 
 124      1A696269 
 124      66B6A785 
ARM GAS  /tmp/cca0jqD2.s 			page 9


 125 0039 20F9C38D 		.ascii	" \371\303\215\000Y\006l\353\300H\\\2268\014B\341X.s"
 125      0059066C 
 125      EBC0485C 
 125      96380C42 
 125      E1582E73 
 126 004d 1918AF17 		.ascii	"\031\030\257\027\220\021\213@`\260\000\013\231E\030"
 126      90118B40 
 126      60B0000B 
 126      994518
 127 005c 820F8CC1 		.ascii	"\202\017\214\301\030\214Q\276\367\3651}\316t\213\355"
 127      188C51BE 
 127      F7F5317D 
 127      CE748BED 
 128 006c D27BEAEE 		.ascii	"\322{\352\356y\337\357}\367\273fX\302\222m\014!\003"
 128      79DFEF7D 
 128      F7BB6658 
 128      C2926D0C 
 128      2103
 129 007e 704DF939 		.ascii	"pM\3719!\205AB|\204\220\347\241\300-Y\001e%\224\265"
 129      21854142 
 129      7C8490E7 
 129      A1C02D59 
 129      01652594 
 130 0093 50DAA004 		.ascii	"P\332\240\004\240\264C\331H\344+\014e\033\224]P\366"
 130      A0B443D9 
 130      48E42B0C 
 130      651B945D 
 130      50F6
 131 00a5 42E98072 		.ascii	"B\351\200r\030\312Q()\300\235\016e\016\224<x~\035\376"
 131      18CA5128 
 131      29C09D0E 
 131      650E943C 
 131      787E1DFE 
 132 00b9 CF875207 		.ascii	"\317\207R\007\245\037\312e(\320\275\341\2428\177\001"
 132      A51FCA65 
 132      28D0BDE1 
 132      A2387F01 
 133 00c9 E5389461 		.ascii	"\3458\224aP\012\224>_P\370\2418\253\240\364+<\204\201"
 133      500A943E 
 133      5F50F8A1 
 133      38ABA0F4 
 133      2B3C8481 
 134 00dd FE0DC059 		.ascii	"\376\015\300Y\000e\010\334\373\341]3\334\327C\311\207"
 134      006508DC 
 134      FBE15D33 
 134      DCD743C9 
 134      87
 135 00ee E76E8AC1 		.ascii	"\347n\212\301\312<W\301\273KP\206\302\3630(\"\334\017"
 135      CA3C57C1 
 135      BB4B5086 
 135      C2F33028 
 135      22DC0F
 136 0101 87FF5DF0 		.ascii	"\207\377]\360\331\010\370\337\011\377\257\303\273\335"
 136      D908F8DF 
 136      09FFAFC3 
 136      BBDD
 137 010f F07F246B 		.ascii	"\360\177$k\225}\037\221u\323\004mVA\271\010\367C\024"
ARM GAS  /tmp/cca0jqD2.s 			page 10


 137      957D1F91 
 137      75D3046D 
 137      5641B908 
 137      F74314
 138 0122 9E1F80F6 		.ascii	"\236\037\200\366\017\261\262\274\333\024\331\217*\272"
 138      0FB1B2BC 
 138      DB14D98F 
 138      2ABA
 139 0130 E8507413 		.ascii	"\350Pt\023\260\321\301\030\223\374\333\224>\376\204"
 139      B0D1C118 
 139      93FCDB94 
 139      3EFE84
 140 013f 95E59BCB 		.ascii	"\225\345\233\313\310\357Y\3453\252K\372\352=#\031\311"
 140      C8EF59E5 
 140      33AA4BFA 
 140      EA3D2319 
 140      C9
 141 0150 27F324A9 		.ascii	"'\363$\251Zj\255\221\376\241c\330HR'\301U\330<,Lj\351"
 141      5A6AAD91 
 141      FEA163D8 
 141      485227C1 
 141      55D83C2C 
 142 0167 EBBE77A5 		.ascii	"\353\276w\245\321\243\011y\231\341\030x\025\302\233"
 142      D1A30979 
 142      99E11878 
 142      15C29B
 143 0176 823002FD 		.ascii	"\2020\002\375\224\254\206\246\320\236\345\230UL\030"
 143      94AC86A6 
 143      D09EE598 
 143      554C18
 144 0185 3A621962 		.ascii	":b\031b{\311\237\323\213\222\313\367\352\335\000\243"
 144      7BC99FD3 
 144      8B92CBF7 
 144      EADD00A3 
 145 0195 A13FA1A2 		.ascii	"\241?\241\242\007\024\252\225\314H\305Uj)W2\213\330"
 145      0714AA95 
 145      CC48C555 
 145      6A295732 
 145      8BD8
 146 01a7 42A12854 		.ascii	"B\241(T)\374\012\305\032]?\005\341\314\215_\341\304"
 146      29FC0AC5 
 146      1A5D3F05 
 146      E1CC8D5F 
 146      E1C4
 147 01b9 896E0593 		.ascii	"\211n\005\223\237C\0372\267\012}-\243\002\214T\000\332"
 147      9F431F32 
 147      B70A7D2D 
 147      A3028C54 
 147      00DA
 148 01cb 3CB3BACE 		.ascii	"<\263\272\316\201\325\0219X]\353\300\352C\344m\245g"
 148      81D51139 
 148      585DEBC0 
 148      EA43E46D 
 148      A567
 149 01dd 891139E6 		.ascii	"\211\0219\346\371Q\216\010\377\313<\204w>9\2048\346"
 149      F9518E08 
 149      FFCB3C84 
ARM GAS  /tmp/cca0jqD2.s 			page 11


 149      773E3984 
 149      38E6
 150 01ef 857CA87E 		.ascii	"\205|\250~\351\323\354\345D\330\016]?E\326\311V\277"
 150      E9D3ECE5 
 150      44D80E5D 
 150      3F45D6C9 
 150      56BF
 151 0201 60636C83 		.ascii	"`cl\203\364\3668\3505u}{W/\370\271$\2058f#z\316$\006"
 151      F4F638E8 
 151      35757D7B 
 151      572FF8B9 
 151      24853866 
 152 021a E037304F 		.ascii	"\34070Oy\306\331s\260\3538S\015\"s\314fDZ\317\030\241"
 152      79C6D973 
 152      B0EB3853 
 152      0D2273CC 
 152      66445ACF 
 153 0230 38262F6C 		.ascii	"8&/l\364ExV\033P<x\244}}O\363\030\363\252\362\206>\004"
 153      F4457856 
 153      1B503C78 
 153      A47D7D4F 
 153      F318F3AA 
 154 0248 C9A0E91E 		.ascii	"\311\240\351\036%\357H\351k}=\363\267\217^,\245\347"
 154      25EF48E9 
 154      6B7D3DF3 
 154      B78F5E2C 
 154      A5E7
 155 025a 480303AF 		.ascii	"H\003\003\257*zg!\217\030\031|\234\254\222\244\006i"
 155      2A7A6721 
 155      8F18197C 
 155      9CAC92A4 
 155      0669
 156 026c 8B2485D1 		.ascii	"\213$\205\321\022,d\022\332b\033\363\250\255\340\330"
 156      122C6412 
 156      DA621BF3 
 156      A8ADE0D8 
 157 027c 88D05CF7 		.ascii	"\210\320\\\367.\355_j\223|hm\242\320\030x\336\316\030"
 157      2EED5F6A 
 157      937C686D 
 157      A2D01878 
 157      DECE18
 158 028f B284CC57 		.ascii	"\262\204\314Wz\327\3017\307H\255\325\351\201\201\027"
 158      7AD7C137 
 158      C748ADD5 
 158      E9818117 
 159 029f 887BB7D9 		.ascii	"\210{\267\331\255\270M\306UXr\303$\214=[\273\314l\355"
 159      ADB84DC6 
 159      555872C3 
 159      248C3D5B 
 159      BBCC6CED 
 160 02b3 B1B2D557 		.ascii	"\261\262\325W\327\267\265\373\363j\246~vk\207tm``\270"
 160      D7B7B5FB 
 160      F36AA67E 
 160      766B8774 
 160      6D6060B8 
 161 02c7 91B31079 		.ascii	"\221\263\020y\015\323\321\\i\026\363\353\334\371h?\023"
 161      0DD3D15C 
ARM GAS  /tmp/cca0jqD2.s 			page 12


 161      6916F3EB 
 161      DCF9683F 
 161      13
 162 02d8 02EED638 		.ascii	"\002\356\3268'$\332\200(\226\224\357\325;\306\331\377"
 162      2724DA80 
 162      289694EF 
 162      D53BC6D9 
 162      FF
 163 02e9 F71903C7 		.ascii	"\367\031\003\307\020~\206\374`\241\3740\023\264v\304"
 163      107E86FC 
 163      60A1FC30 
 163      13B476C4 
 164 02f9 5AB24D8F 		.ascii	"Z\262M\217n\036f/\035\307\254f~\3526\223Z\372?\220\351"
 164      6E1E662F 
 164      1DC7AC66 
 164      7EEA3693 
 164      5AFA3F90 
 165 030e DF604134 		.ascii	"\337`A4\342z\326lD\271\321![+\275}\352\"\267X\372\255"
 165      E27AD66C 
 165      44B9D121 
 165      5B2BBD7D 
 165      EA22B758 
 166 0324 EAD4BBD1 		.ascii	"\352\324\273\321\251\277p\200\370\310\336\320\015_;"
 166      A9BF7080 
 166      F8C8DED0 
 166      0D5F3B
 167 0333 1A3AAB0B 		.ascii	"\032:\253\013v\2323\027\225\333$\315=\007V~o\313\312"
 167      769A3317 
 167      95DB24CD 
 167      3D07567E 
 167      6FCBCA
 168 0346 FB4BF68F 		.ascii	"\373K\366\217\221Vx\015\205\256,\216\360\000\251\307"
 168      9156780D 
 168      85AE2C8E 
 168      F000A9C7 
 169 0356 214397B8 		.ascii	"!C\227\270Z\375*\300\337\221L\006<\273\377g\230\001"
 169      5AFD2AC0 
 169      DF914C06 
 169      3CBBFF67 
 169      9801
 170 0368 BB990700 		.ascii	"\273\231\007\000\346\204\317\310vN\030\226\234C\222"
 170      E684CFC8 
 170      764E1896 
 170      9C4392
 171 0377 8F815C26 		.ascii	"\217\201\\&\224\003\240oy\313\247\325\314,L\211\364"
 171      9403A06F 
 171      79CBA7D5 
 171      CC2C4C89 
 171      F4
 172 0388 3362A30D 		.ascii	"3b\243\015\345z\214\264\002A\372\326\341e\214\324\372"
 172      E57A8CB4 
 172      0241FAD6 
 172      E1658CD4 
 172      FA
 173 0399 5BC6A6CB 		.ascii	"[\306\246\313\011j\217!\035\343KO\3263s\020\277\007"
 173      096A8F21 
 173      1DE34B4F 
ARM GAS  /tmp/cca0jqD2.s 			page 13


 173      D6337310 
 173      BF07
 174 03ab 597FCD6F 		.ascii	"Y\177\315o\313z\353\004' \2264!\3119\013\353\347\273"
 174      CB7AEB04 
 174      27209634 
 174      21C9390B 
 174      EBE7BB
 175 03be 54D6CFB9 		.ascii	"T\326\317\271`\275:}|\336\3621\224u\2169\316\320\324"
 175      60BD3A7D 
 175      7CDEF231 
 175      94758E39 
 175      CED0D4
 176 03d1 D9A6E1DA 		.ascii	"\331\246\341\332\231N\033j\011\321\0303\342u\037.\250"
 176      994E1B6A 
 176      09D11833 
 176      E2751F2E 
 176      A8
 177 03e2 E354B00D 		.ascii	"\343T\260\015\236\301\012\355XU\0350#-\307\364b,\237"
 177      9EC10AED 
 177      58551D30 
 177      232DC7F4 
 177      622C9F
 178 03f5 671E83FA 		.ascii	"g\036\203\3723\250\265\213%[\374\252U\355T\227[\204"
 178      33A8B58B 
 178      255BFCAA 
 178      55ED5497 
 178      5B84
 179 0407 DB8797A1 		.ascii	"\333\207\227\241J\224\234\342f,nU\306\342~\034Aw\372"
 179      4A949CE2 
 179      662C6E55 
 179      C6E27E1C 
 179      4177FA
 180 041a 6D066357 		.ascii	"m\006cW@{jN~\243\014\306\227\021*\3557\017\306A\323"
 180      407B6A4E 
 180      7EA30CC6 
 180      97112AED 
 180      370FC641 
 181 042f 601C340E 		.ascii	"`\0344\016\252\301p\346\206\216\245\303\211\327\346"
 181      AAC170E6 
 181      868EA5C3 
 181      89D7E6
 182 043e 2CF9C8AC 		.ascii	",\371\310\254@;\263e\262\277I\201\324\011{\033\230\306"
 182      403BB365 
 182      B2BF4981 
 182      D4097B1B 
 182      98C6
 183 0450 D952C738 		.ascii	"\331R\3078\325\221\363\234\344f\311Q\354\354K\263#\337"
 183      D591F39C 
 183      E466C951 
 183      ECEC4BB3 
 183      23DF
 184 0462 BAD4F164 		.ascii	"\272\324\361d\263$\215\220?\312\355\307\333\0177\241"
 184      B3248D90 
 184      3FCAEDC7 
 184      DB0F37A1 
 185 0472 D1726612 		.ascii	"\321rf\022V\355\376q\354~n\200v\177\335\334\375\211"
 185      56EDFE71 
ARM GAS  /tmp/cca0jqD2.s 			page 14


 185      EC7E6E80 
 185      767FDDDC 
 185      FD89
 186 0484 FFEBF877 		.ascii	"\377\353\370w\271\373\353\256\272\337uz\241\265{\307"
 186      B9FBEBAE 
 186      BADF757A 
 186      A1B57BC7 
 187 0494 0CA858FB 		.ascii	"\014\250X\373\326\245\313\017\267`'\337a\270\354\017"
 187      D6A5CB0F 
 187      B76027DF 
 187      61B8EC0F 
 188 04a4 988DFD82 		.ascii	"\230\215\375\202~\320Q\347\231Z\003\226th\334\017*Z"
 188      7ED051E7 
 188      995A0396 
 188      7468DC0F 
 188      2A5A
 189 04b6 41CCCBFF 		.ascii	"A\314\313\377\261\016&N\257\347\251<tzF,4(\342\375\323"
 189      B10E264E 
 189      AFE7A93C 
 189      747A462C 
 189      3428E2FD 
 190 04cb 18FF32D8 		.ascii	"\030\3772\330Q7`\216\216T\235\336\247\007;\356\031\314"
 190      5137608E 
 190      8E549DDE 
 190      A7073BEE 
 190      19CC
 191 04dd C8D9313D 		.ascii	"\310\3311=\330I7`#\2349\353\326\203\235\366\014f\344"
 191      D8493760 
 191      239C39EB 
 191      D6839DF6 
 191      0C66E4
 192 04f0 ECA41EEC 		.ascii	"\354\244\036\354\214\033\260\321\316\234\235\322\203"
 192      8C1BB0D1 
 192      CE9C9DD2 
 192      83
 193 04fd F57A0633 		.ascii	"\365z\0063r\366\211\036\354\202\033\260B\033\316\264"
 193      72F6891E 
 193      EC821BB0 
 193      421BCEB4 
 194 050d CB6936F0 		.ascii	"\313i6\360Mfr\305\222\376\200\232\020<\3724\311`\\\016"
 194      4D6672C5 
 194      92FE809A 
 194      103CFA34 
 194      C9605C0E 
 195 0521 78CD6006 		.ascii	"x\315`\006\271!\203\235_)g0u(\373\302\015b\026\207\251"
 195      B921839D 
 195      5F296730 
 195      7528FBC2 
 195      0D621687 
 196 0536 EBD48D8B 		.ascii	"\353\324\215\213\327=\203\031\315\362\216\014v\000\301"
 196      D73D8319 
 196      CDF28E0C 
 196      7600C1
 197 0545 BE770396 		.ascii	"\276w\003\226\305a\216Q0\273\311t\272F\252efm~8\353"
 197      C5618E51 
 197      30BBC974 
 197      BA46AA65 
ARM GAS  /tmp/cca0jqD2.s 			page 15


 197      666D7E38 
 198 055a 5C0672D8 		.ascii	"\\\006r\330\237\266c\016[\310\322\001\353\307\200\355"
 198      9FB6630E 
 198      5BC8D201 
 198      EBC780ED 
 199 056a D8E70A6B 		.ascii	"\330\347\012kO\315\335\017\230\3318\3725!Xm\2369!\206"
 199      4FCDDD0F 
 199      98D938FA 
 199      3521586D 
 199      9E392186 
 200 057e 4DA35FD8 		.ascii	"M\243_\3308\234\205\303\231\233\001\3652.a\\\32389k"
 200      389C85C3 
 200      999B01F5 
 200      322E615C 
 200      D338396B 
 201 0592 23AB73D6 		.ascii	"#\253s\326\372<\257\3127;\332w\015\314\267\325R\363"
 201      FA3CAFCA 
 201      373BDA77 
 201      0DCCB7D5 
 201      52F3
 202 05a4 38DD7691 		.ascii	"8\335v\221\323\012F\235m\334\270\352\303\331\3062TR"
 202      D30A469D 
 202      6DDCB8EA 
 202      C3D9C632 
 202      5452
 203 05b6 739EADC6 		.ascii	"s\236\255\306]\000\355\251\331P\204@-\010\264\302\242"
 203      5D00EDA9 
 203      D9508440 
 203      2D08B4C2 
 203      A2
 204 05c7 6DC6A46D 		.ascii	"m\306\244m\306\2509m\361\244\254\235\274\264e\311:\263"
 204      C6A8396D 
 204      F1A4AC9D 
 204      BCB465C9 
 204      3AB3
 205 05d9 EA0C2C66 		.ascii	"\352\014,fI'\232\352\356zW\3355Eu\253Q\342M\026\211"
 205      49279AEA 
 205      EE7A57DD 
 205      354575AB 
 205      51E24D16 
 206 05ee A926BC89 		.ascii	"\251&\274\211\261\303\263\030!\243\030-\003\336\305"
 206      B1C3B318 
 206      21A3182D 
 206      03DEC5
 207 05fd F85E1163 		.ascii	"\370^\021c\035\212\261\367\217 \306\001\317b\214\320"
 207      1D8AB1F7 
 207      8F20C601 
 207      CF628CD0 
 208 060d 89810B8F 		.ascii	"\211\201\013\217\205r\306\374\011i\310>\347\243\374"
 208      8572C6FC 
 208      0969C83E 
 208      E7A3FC
 209 061c 6C647F62 		.ascii	"ld\177b\230p\245?>\312\024\312\257s/\267\276=\272LY"
 209      9870A53F 
 209      3ECA14CA 
 209      AF732FB7 
 209      BE3DBA4C 
ARM GAS  /tmp/cca0jqD2.s 			page 16


 210 0631 B3C87B5F 		.ascii	"\263\310{_\207\221wJ;\230Y\220\224\256\353\302t*\203"
 210      8791774A 
 210      3B985990 
 210      94AEEBC2 
 210      742A83
 211 0644 1DBF2FB0 		.ascii	"\035\277/\260\352t\313[\352\202\012\267\242\316\334"
 211      EA74CB5B 
 211      EA820AB7 
 211      A2CEDC
 212 0653 27DCFB5D 		.ascii	"'\334\373]\346\354l\232bv;\344\036m\255y\360\003eE\261"
 212      E6EC6C9A 
 212      62763BE4 
 212      1E6DAD79 
 212      F0036545 
 213 0668 93A50C7D 		.ascii	"\223\245\014}fq\226\343\214i\226I_\350\2328\331p\207"
 213      667196E3 
 213      8C699649 
 213      5FE89A38 
 213      D97087
 214 067b 3E11DEB8 		.ascii	">\021\336\270?\033\200\377\334lTG\\\331\020w\356Ss\267"
 214      3F1B80FF 
 214      DC6C5447 
 214      5CD91077 
 214      EE5373B7 
 215 068f 1543E45A 		.ascii	"\025C\344Z\021\374J\305*@A\252\203\264\3334kZ\020\354"
 215      11FC4AC5 
 215      2A4041AA 
 215      83B4DB34 
 215      6B5A10EC 
 216 06a3 BFD357A3 		.ascii	"\277\323W\243\350\221~\226\333I\317\366\207\245\206"
 216      E8917E96 
 216      DB49CFF6 
 216      87A586
 217 06b2 027985CF 		.ascii	"\002y\205\3171\177`X\005\325n\374\313\355\242\275|\307"
 217      317F6058 
 217      05D56EFC 
 217      CBEDA2BD 
 217      7CC7
 218 06c4 380F7BC3 		.ascii	"8\017{\303\333\224\365\350\0019\315\005\315&\337l\316"
 218      DB94F5E8 
 218      0139CD05 
 218      CD26DF6C 
 218      CE
 219 06d5 EC1EB666 		.ascii	"\354\036\266fY\262]S\221\307i\275v9\271\324~\275K\355"
 219      59B25D53 
 219      91C769BD 
 219      7639B9D4 
 219      7EBD4BED 
 220 06e9 0ADE9703 		.ascii	"\012\336\227\003\200K\035\\-\273T.\027\220\264\323\210"
 220      804B1D5C 
 220      2DBB542E 
 220      1790B4D3 
 220      88
 221 06fa 11D8731A 		.ascii	"\021\330s\032{>b\366\201\255\367:^S6W\216\270\362\201"
 221      7B3E62F6 
 221      81ADF73A 
 221      5E533657 
ARM GAS  /tmp/cca0jqD2.s 			page 17


 221      8EB8F281 
 222 070e 9B363E70 		.ascii	"\2336>pd\220>\000\016}\345#\006\341\344I\344\025\215"
 222      64903E00 
 222      0E7DE523 
 222      06E1E449 
 222      E4158D
 223 0721 498F5650 		.ascii	"I\217VP\340\356\362^\025#{W\272\247\237\246\352\223"
 223      E0EEF25E 
 223      15237B57 
 223      BAA79FA6 
 223      EA93
 224 0733 2CDDB9FA 		.ascii	",\335\271\372\332\342Z\262ft\256\225Q#\307\034e\351"
 224      DAE25AB2 
 224      6674AE95 
 224      5123C71C 
 224      65E9
 225 0745 AE4D174B 		.ascii	"\256M\027Kwm\216a\335\315\352\366n\234\334\342D\306"
 225      776D8E61 
 225      DDCDEAF6 
 225      6E9CDCE2 
 225      44C6
 226 0757 2D38A6CF 		.ascii	"-8\246\317\254F\267s\373\234\335t\352\275\357\326}z"
 226      AC46B773 
 226      FB9CDD74 
 226      EABDEFD6 
 226      7D7A
 227 0769 DFB2F347 		.ascii	"\337\262\363G\375\364\350\302\347a\033i\275\022\266"
 227      FDF4E8C2 
 227      E7611B69 
 227      BD12B6
 228 0778 3D18B6F7 		.ascii	"=\030\266\367,\272\275l\016[7\2739\363B\203\024D\273"
 228      2CBABD6C 
 228      0E5B37BB 
 228      39F34283 
 228      1444BB
 229 078b 609A1B72 		.ascii	"`\232\033r1\315-\264\321\271\232\335[N-t\271#\244m\356"
 229      31CD2DB4 
 229      D1B99ADD 
 229      5B4E2D74 
 229      B923A46D 
 230 07a0 1E99A5EC 		.ascii	"\036\231\245\354\221\236GOk\014\331\357\221f\331ZZ\211"
 230      919E474F 
 230      6B0CD9EF 
 230      9166D95A 
 230      5A89
 231 07b2 2417CC61 		.ascii	"$\027\314a\274\274\345\210\272Gz\301E\030W\247\267\032"
 231      BCBCE588 
 231      BA477AC1 
 231      451857A7 
 231      B71A
 232 07c4 F648550F 		.ascii	"\366HU\017\274\220\335\003\263j\324`"
 232      BC90DD03 
 232      B36AD460 
 233 07d0 C40BBA00 		.ascii	"\304\013\272\000\271\210\001\322\257\017\012\226lq\243"
 233      B98801D2 
 233      AF0F0A96 
 233      6C71A3
ARM GAS  /tmp/cca0jqD2.s 			page 18


 234 07df FD279C5C 		.ascii	"\375'\234\\\021\322P\267\274=\255n7\3576\343\331%\""
 234      11D250B7 
 234      BC3DAD6E 
 234      37EF36E3 
 234      D92522
 235 07f2 039EDE9A 		.ascii	"\003\236\336\232\260\226=\201\363%\331K?t\303\3348g"
 235      B0963D81 
 235      F325D94B 
 235      3F74C3DC 
 235      3867
 236 0804 B0964655 		.ascii	"\260\226FU\271\2358?9\342\006o\274\223\260\325\351\035"
 236      B99D383F 
 236      39E2066F 
 236      BC93B0D5 
 236      E91D
 237 0816 27D4C9A1 		.ascii	"'\324\311\241\274\031{\3223\236\221\277\217\033\015"
 237      BC197BD2 
 237      339E91BF 
 237      8F1B0D
 238 0825 F3B94FDD 		.ascii	"\363\271O\335\300Mpm\373\314\331\003\307\234\306-\355"
 238      C04D706D 
 238      FBCCD903 
 238      C79CC62D 
 238      ED
 239 0836 4F704BFB 		.ascii	"OpK\373\"\326_`\275\000\023\345\233X\327a\335\200\365"
 239      22D65F60 
 239      BD0013E5 
 239      9B58D761 
 239      DD80F5
 240 0849 52AC5761 		.ascii	"R\254Wa\335\206\365\006\254{\261\376\034\353+X_\305"
 240      DD86F506 
 240      AC7BB1FE 
 240      1CEB2B58 
 240      5FC5
 241 085b FA4BACBF 		.ascii	"\372K\254\277v\223pM3@\355\264h\243\234\200L\007F\177"
 241      7693704D 
 241      3340EDB4 
 241      68A39C80 
 241      4C07467F 
 242 086f 3085A62A 		.ascii	"0\205\246*\334u\326\356\300h\357\231}\217h\307_\246"
 242      DC75D6EE 
 242      C068EF99 
 242      7D8F68C7 
 242      5FA6
 243 0881 1323DAAF 		.ascii	"\023#\332\257\023O7X\353\351\3515\207\236o\332\366|"
 243      134F3758 
 243      EBE9E935 
 243      879E6FDA 
 243      F67C
 244 0893 736DCFF3 		.ascii	"sm\317\363\313\267Hs^\227\356\015\274\312x\350\372\026"
 244      CBB74873 
 244      5E97EE0D 
 244      BCCA78E8 
 244      FA16
 245 08a5 6B3DEF57 		.ascii	"k=\357W\356\335g\367\037\333?\373\331&\334)\271\203"
 245      EEDD67F7 
 245      1FDB3FFB 
ARM GAS  /tmp/cca0jqD2.s 			page 19


 245      D926DC29 
 245      B983
 246 08b7 81337F88 		.ascii	"\2013\177\2109\275\007L\331=`\314\356\201p\346&\263"
 246      39BD074C 
 246      D93D60CC 
 246      EE8170E6 
 246      26B3
 247 08c9 B5AFF1D4 		.ascii	"\265\257\361\324/\333\306\376h\225\236\234g\341\355"
 247      2FDBC6FE 
 247      68959E9C 
 247      67E1ED
 248 08d8 E6DA0F46 		.ascii	"\346\332\017F\267!o\003\030\204\015\026\336\332\315"
 248      B7216F03 
 248      18840D16 
 248      DEDACD
 249 08e7 8B8476A3 		.ascii	"\213\204v\243\213\230\264cu\222%C\354M5\333g\353$K\366"
 249      8B98B463 
 249      75922543 
 249      EC4D35DB 
 249      67EB244B 
 250 08fc 8D717292 		.ascii	"\215qr\222\215Y\216\211\347\372L\226\242f\315\341\276"
 250      8D598E89 
 250      E7FA4C96 
 250      A266CDE1 
 250      BE
 251 090d EB1D38AB 		.ascii	"\353\0358\2535r\366gd\205\324\332\320\267\265\341|\003"
 251      3572F667 
 251      6485D4DA 
 251      D0B7B5E1 
 251      7C03
 252 091f D3408F5E 		.ascii	"\323@\217^\2454L\216\037Es\260\344=\015\304\211\265"
 252      A5344C8E 
 252      1F4573B0 
 252      E43D0DC4 
 252      89B5
 253 0931 7919380A 		.ascii	"y\0318\012\365\033z\020\334;\213i\2244(\365\2732\272"
 253      F51B7A10 
 253      DC3B8B69 
 253      943428F5 
 253      BB32BA
 254 0944 355E3ADB 		.ascii	"5^:\3331\202\365D@i\325\252M\333\036\304\327\031`$p"
 254      3182F544 
 254      4069D5AA 
 254      4DDB1EC4 
 254      D7196024 
 255 0959 680539C6 		.ascii	"h\0059\306\247~\033g\215~\246\241{\204\271\261YP+\314"
 255      A77E1B67 
 255      8D7EA6A1 
 255      7B84B9B1 
 255      59502BCC 
 256 096d 5B4649C1 		.ascii	"[FI\301\234\313[>>\3044d$\265;\230\011\2520\"\321\255"
 256      9CCB5B3E 
 256      3EC43464 
 256      24B53B98 
 256      09AA3022 
 257 0983 5E6FAC50 		.ascii	"^o\254Pv\004\353}t\350\372p\210\355,\300\031\210%]H"
 257      7604EB7D 
ARM GAS  /tmp/cca0jqD2.s 			page 20


 257      74E8FA70 
 257      88ED2CC0 
 257      1988255D 
 258 0998 B2D06799 		.ascii	"\262\320g\231\005\364\326(\263\000\372Y\356\311|\375"
 258      05F4D628 
 258      B300FA59 
 258      EEC97CFD 
 259 09a8 59C743DE 		.ascii	"Y\307C\336>M\005\017\353x?{\3723\205\367f\344\275'7"
 259      3E4D050F 
 259      EB783F7B 
 259      FA3385F7 
 259      66E4BD27 
 260 09bd EF462096 		.ascii	"\357F \226\\B\222\245V\336\277\234\253\360\276\324\025"
 260      5C4292A5 
 260      56DEBF9C 
 260      ABF0BED4 
 260      15
 261 09ce EF3B4EEB 		.ascii	"\357;N\353g\000\352R\204\322\016n)\262S>\027\350\307"
 261      6700EA52 
 261      84D20E6E 
 261      29B2533E 
 261      17E8C7
 262 09e1 6DA5AB66 		.ascii	"m\245\253f0O\013\021I=2\222\217\000\347\263^\301\012"
 262      304F0B11 
 262      493D3292 
 262      8F00E7B3 
 262      5EC10A
 263 09f4 0D9C9D68 		.ascii	"\015\234\235h2\316\325\336p\203\227e\337^9\233\221\301"
 263      32CED5DE 
 263      70839765 
 263      DF5E399B 
 263      91C1
 264 0a06 DEF20C66 		.ascii	"\336\362\014fd\356\314i\335!\300\015\315\266Y\300\354"
 264      64EECC69 
 264      DD21C00D 
 264      CDB659C0 
 264      EC
 265 0a17 F6EDED2E 		.ascii	"\366\355\355.\275\223p\314r\037\235I\274\343\243\343"
 265      BD9370CC 
 265      721F9D49 
 265      BCE3A3E3 
 266 0a27 7D0BD6AD 		.ascii	"}\013\326\255X\257\300z%\326\253|\2069\346]-Jl]1\227"
 266      58AFC07A 
 266      25D6AB7C 
 266      8639E65D 
 266      2D4A6C5D 
 267 0a3d 4B48E9C5 		.ascii	"KH\351\305\316\341a\330a\321\"\373\363Y\314\\t\341\265"
 267      CEE161D8 
 267      61D122FB 
 267      F359CC5C 
 267      74E1B5
 268 0a50 181DD5F9 		.ascii	"\030\035\325\3719\243\303\264S\323\214\024\355\226\340"
 268      39A3C3B4 
 268      53D38C14 
 268      ED96E0
 269 0a5f 387F4A0D 		.ascii	"8\177J\015\216v\027\301Q\235\376t\221\273\215\"c\242"
 269      8E7617C1 
ARM GAS  /tmp/cca0jqD2.s 			page 21


 269      519DFE74 
 269      91BB8D22 
 269      63A2
 270 0a71 D3A2FCA2 		.ascii	"\323\242\374\242\372]\216M(\307\246\334r\030\201X\262"
 270      FA5D8E4D 
 270      28C7A6DC 
 270      72188158 
 270      B2
 271 0a82 1F49B658 		.ascii	"\037I\266X\0059\250\012\262\305\225 \313\027\251\276"
 271      0539A80A 
 271      B2C59520 
 271      CB17A9BE 
 272 0a92 BFD19759 		.ascii	"\277\321\227Y\247l\311\356a\216&\255N\277sJ\336\027"
 272      A76CC9EE 
 272      618E26AD 
 272      4EBF734A 
 272      DE17
 273 0aa4 45B00B9E 		.ascii	"E\260\013\236\301\214\276\277\371\324\262\321R\353\007"
 273      C18CBEBF 
 273      F9D4B2D1 
 273      52EB07
 274 0ab3 EAB72AA4 		.ascii	"\352\267*\244\032\351\211\266\214JF\250\010\254^\265"
 274      1AE989B6 
 274      8C4A46A8 
 274      08AC5EB5 
 275 0ac3 EF3D85CB 		.ascii	"\357=\205\313\341\235>\372\376\230I\261\356\201\366"
 275      E19D3EFA 
 275      FE9849B1 
 275      EE81F6
 276 0ad2 D4EC188F 		.ascii	"\324\354\030\217@{\020\350L\276yr\3433M\274|\306\211"
 276      407B10E8 
 276      4CBE7972 
 276      E3334DBC 
 276      7CC689
 277 0ae5 972F9CB9 		.ascii	"\227/\234\271\031\030\360\021o\215a~\254\331\327\216"
 277      1918F011 
 277      6F8D617E 
 277      ACD9D78E 
 278 0af5 C95C0992 		.ascii	"\311\\\011\222nd\035y\333f#+\347\254n\357R\230_({\226"
 278      6E641D79 
 278      DB66232B 
 278      E7AC6EEF 
 278      52985F28 
 279 0b0b 3EDC32B2 		.ascii	">\3342\262H\236kZ\307\222\353f\346\275%d`\376\367\357"
 279      489E6B5A 
 279      C792EB66 
 279      E6BD2564 
 279      60FEF7EF 
 280 0b1f AA1BBBB8 		.ascii	"\252\033\273\270\202\272\345\006\320.#\333]\372\260"
 280      82BAE506 
 280      D02E23DB 
 280      5DFAB0
 281 0b2e E1986D98 		.ascii	"\341\230m\230\367\266c~{\017\353\035X\357\307\372w>"
 281      F7B6637E 
 281      7B0FEB1D 
 281      58EFC7FA 
 281      773E
ARM GAS  /tmp/cca0jqD2.s 			page 22


 282 0b40 172B1FEA 		.ascii	"\027+\037\352\354\032\266\034@\355\203\016\240k\326"
 282      EC1AB61C 
 282      40ED830E 
 282      A06BD6
 283 0b4f 00F20266 		.ascii	"\000\362\002fPd\372\246\022@r<p\314>\237\011\317\233"
 283      5064FAA6 
 283      1240723C 
 283      70CC3E9F 
 283      09CF9B
 284 0b62 57A51736 		.ascii	"W\245\0276\025\034\373\225\032\\?h\271\324-\230\372"
 284      151CFB95 
 284      1A5C3F68 
 284      B9D42D98 
 284      FA
 285 0b73 2D6B5BA3 		.ascii	"-k[\243\264\353\214\262\036\215\262\001Mp\020\353CX"
 285      B4EB8CB2 
 285      1E8DB201 
 285      4D7010EB 
 285      4358
 286 0b85 771807A0 		.ascii	"w\030\007\2409\005\246\001\310\220\355\355\206C\275"
 286      3905A601 
 286      C890EDED 
 286      8643BD
 287 0b94 7AA4F46F 		.ascii	"z\244\364o\316\202\256\335\357.}\251\356.\035\301\254"
 287      CE82AEDD 
 287      EF2E7DA9 
 287      EE2E1DC1 
 287      AC
 288 0ba5 3DBFC0F3 		.ascii	"=\277\300\363\356\322\022$\351\262\316\315\356\251Y"
 288      EED21224 
 288      E9B2CECD 
 288      EEA959
 289 0bb4 BB2B77D6 		.ascii	"\273+w\326\2363;\275x\311\232\314\3603[\213\355\203"
 289      9E333BBD 
 289      78C99ACC 
 289      F0335B8B 
 289      ED83
 290 0bc6 59563907 		.ascii	"YV9\007\364\337\227h\327\370\360\350\244\366\246\353"
 290      F4DF9768 
 290      D7F8F0E8 
 290      A4F6A6EB 
 291 0bd6 D299EE38 		.ascii	"\322\231\3568\232\256\333h\250mfCy\334\215\332uV\235"
 291      9AAEDB68 
 291      A86D6643 
 291      79DC8DDA 
 291      75569D
 292 0be9 8BCADFDB 		.ascii	"\213\312\337\333\334i\3063~K\323\016\320h\371n/\226"
 292      DC69C633 
 292      7E4BD30E 
 292      D068F96E 
 292      2F96
 293 0bfb 6FBA74E5 		.ascii	"o\272t\3459y\217\025\355~\301\253\335\361{\210&\233"
 293      39798F15 
 293      ED7EC1AB 
 293      DDF17B88 
 293      269B
 294 0c0d A7BFE10B 		.ascii	"\247\277\341\013\345\267\271\307\350\333\375\270\211"
ARM GAS  /tmp/cca0jqD2.s 			page 23


 294      E5B7B9C7 
 294      E8DBFDB8 
 294      89
 295 0c1a EF6153F8 		.ascii	"\357aS\370\242r\326{\036\003\365\333\002s\012\037\324"
 295      A272D67B 
 295      1E03F5DB 
 295      02730A1F 
 295      D4
 296 0c2b A6F00F08 		.ascii	"\246\360\017\010s\356\217\3454\347tN\363):M\257\321"
 296      73EE8FE5 
 296      34E7744E 
 296      F3293A4D 
 296      AFD1
 297 0c3d 69AA87BA 		.ascii	"i\252\207\272p\232\244\353\376\026\352\372[\204\375"
 297      709AA4EB 
 297      FE16EAFA 
 297      5B84FD
 298 0c4c 35614E59 		.ascii	"5aNY\203u'\326\247\260\376\304\310\307\334\241\346\325"
 298      837527D6 
 298      A7B0FEC4 
 298      C8C7DCA1 
 298      E6D5
 299 0c5e AB61B548 		.ascii	"\253a\265H\261/\032W\257\255\260N_\324\273B\277z\325"
 299      B12F1A57 
 299      AFADB04E 
 299      5FD4BB42 
 299      BF7AD5
 300 0c71 2FA775DB 		.ascii	"/\247u\333F\326\205\360%\353z\232%\265\026\026,t\237"
 300      46D685F0 
 300      25EB7A9A 
 300      25B51616 
 300      2C749F
 301 0c84 9BB60AD2 		.ascii	"\233\266\012\322}=\363o\255`\032%\311\304\002\375\206"
 301      7D3DF36F 
 301      AD601A25 
 301      C9C402FD 
 301      86
 302 0c95 B061AF40 		.ascii	"\260a\257@\365_\310?9\216q\372\2666\034(\006\307\312"
 302      F55FC83F 
 302      398E71FA 
 302      B6361C28 
 302      06C7CA
 303 0ca8 79EAC331 		.ascii	"y\352\3031_\200\206s6\243\015\2772\007\306\01740\276"
 303      5F808673 
 303      36A30DBF 
 303      3207C60F 
 303      3430BE
 304 0cbb 7215183F 		.ascii	"r\025\030?\376\330!\237n\035\300\031H=.\265\276\032"
 304      FED8219F 
 304      6E1DC019 
 304      483D2EB5 
 304      BE1A
 305 0ccd F4D03B70 		.ascii	"\364\320;p\005\341L\023\246\335\016\023&\334\255\364"
 305      05E14C13 
 305      A6DD0E13 
 305      26DCADF4 
 306 0cdd 99663E75 		.ascii	"\231f>uh(/,\024\032X\250;\210\243\377u\234z-r\003\226"
ARM GAS  /tmp/cca0jqD2.s 			page 24


 306      68282F2C 
 306      141A58A8 
 306      3B88A3FF 
 306      759C7A2D 
 307 0cf4 65B46ED0 		.ascii	"e\264n\320\203\265x\006+\264\204\220\034<_c\360\\\303"
 307      83B57806 
 307      2BB48490 
 307      1C3C5F63 
 307      F05CC3
 308 0d07 50F906EB 		.ascii	"P\371\006\353\033X\177g\014\233\265C\315YG6\252\016"
 308      1B587F67 
 308      0C9BB543 
 308      CD594736 
 308      AA0E
 309 0d19 2F637B92 		.ascii	"/c{\222\033\321\336\006&c]u\220\217\342\337\366\031"
 309      1BD1DE06 
 309      26635D75 
 309      908FE2DF 
 309      F619
 310 0d2b E6AD19C8 		.ascii	"\346\255\031\310\011F\361uq\"\023\3317\343\230;>\257"
 310      0946F175 
 310      712213D9 
 310      37E3983B 
 310      3EAF
 311 0d3d 3F3FFBC1 		.ascii	"??\373\301g\377\3633\375\027\2412\255\3501\2169\360"
 311      67FFF333 
 311      FD17A132 
 311      ADE8318E 
 311      39F0
 312 0d4f 2D4CDC85 		.ascii	"-L\334\205\270\177\204\374n\350rI~\363\014\331*\325"
 312      B87F84FC 
 312      6EE87249 
 312      7EF30CD9 
 312      2AD5
 313 0d61 A62184AE 		.ascii	"\246!\204\256\000w\232[\374\017\271#5K}=\235\267\212"
 313      00779A5B 
 313      FC0FB923 
 313      354B7D3D 
 313      9DB78A
 314 0d74 6599688E 		.ascii	"e\231h\2168v,\275\371\020\035Xa\276\177\0172\204\254"
 314      38762CBD 
 314      F9101D58 
 314      61BE7F0F 
 314      3284AC
 315 0d87 3E96F49A 		.ascii	">\226\364\232;\265F\355,?\253\353m\202L)\233P\356*\275"
 315      3BB546ED 
 315      2C3FABEB 
 315      6D824C29 
 315      9B50EE2A 
 316 0d9c F510E3E6 		.ascii	"\365\020\343\346G}m\032\364(\005z\256\337\253Vk\374"
 316      477D6D1A 
 316      F428057A 
 316      AEDFAB56 
 316      6BFC
 317 0dae F65A7D30 		.ascii	"\366Z}0\253\347p\314\034\277\346\020\217\220\253\240"
 317      ABE770CC 
 317      1CBFE610 
ARM GAS  /tmp/cca0jqD2.s 			page 25


 317      8F90ABA0 
 318 0dbe C1E60999 		.ascii	"\301\346\011\231\356eO\244\024\327\321od\237\324?\177"
 318      EE654FA4 
 318      14D7D16F 
 318      649FD43F 
 318      7F
 319 0dcf A7085B2B 		.ascii	"\247\010[+\245w\006\325\\\240\377\325\225\322\257,\241"
 319      A57706D5 
 319      5CA0FFD5 
 319      95D2AF2C 
 319      A1
 320 0de0 EA7D2687 		.ascii	"\352}&\207\0158\213\365\272\337\3767\207\034\263 cZ"
 320      0D388BF5 
 320      BADFFE37 
 320      871CB320 
 320      635A
 321 0df2 0BD53C47 		.ascii	"\013\325<G\252\372,\2611\337\221\212\236c8Q-p\244\272"
 321      AAFA2CB1 
 321      31DF918A 
 321      9E633851 
 321      2D70A4BA 
 322 0e06 9485C337 		.ascii	"\224\205\3037\034\251nd\351\353MG\252\256,\011\372-"
 322      1CA96E64 
 322      E9EB4D47 
 322      AAAE2C09 
 322      FA2D
 323 0e18 47AACE2C 		.ascii	"G\252\316,Tu\216T\373\262P\325g\250\224\237\"\336\\"
 323      54758E54 
 323      FBB250D5 
 323      67A8949F 
 323      22DE5C
 324 0e2b FBD1E44D 		.ascii	"\373\321\344M\364\253\362\364\360h\326\234\027M\207"
 324      F4ABF2F4 
 324      F068D69C 
 324      174D87
 325 0e3a 12FD59A6 		.ascii	"\022\375Y\246\353\215~\353\311\325\254a\346C\007\374"
 325      EB8D7EEB 
 325      C9D5AC61 
 325      E64307FC 
 326 0e4a DD5FB5B4 		.ascii	"\335_\265\264\245\215\376\214Q>\314\341\230\006\277"
 326      A58DFE8C 
 326      513ECCE1 
 326      9806BF
 327 0e59 FD6F1815 		.ascii	"\375o\030\025\274\205~\273_'\336\356^\246\374:q\277"
 327      BC857EBB 
 327      5F27DEEE 
 327      5EA6FC3A 
 327      71BF
 328 0e6b F4584836 		.ascii	"\364XH6\005K\032\263\367(\177\013\014\246S\331{l2\366"
 328      054B1AB3 
 328      F7287F0B 
 328      0CA653D9 
 328      7B6C32F6 
 329 0e7f F897640D 		.ascii	"\370\227d\015]\364\364t\336\035\271\270.d\371.\231E"
 329      5DF4F474 
 329      DE1DB9B8 
 329      2E64F92E 
ARM GAS  /tmp/cca0jqD2.s 			page 26


 329      9945
 330 0e91 E7F47CC6 		.ascii	"\347\364|\306IMK2:'\376h\031'\344M\372\347_\026N$\343"
 330      494D4B32 
 330      3A27FE68 
 330      1927E44D 
 330      FAE75F16 
 331 0ea8 C78E2D92 		.ascii	"\307\216-\222\377\022\251\242h\242\242\"\021/J&\004"
 331      FF12A9A2 
 331      68A2A222 
 331      112F4A26 
 331      04
 332 0eb9 3155F4E2 		.ascii	"1U\364\342/&O\234<\203\276K\306\312y!U4i\342\304\242"
 332      2F264F9C 
 332      3C83BE4B 
 332      C6CA7921 
 332      553469E2 
 333 0ecf 68993833 		.ascii	"h\23183\311\247\306\226\221@E\2524\"\376gQY\242\202"
 333      C9A7C696 
 333      914045AA 
 333      3422FE67 
 333      5159A282 
 334 0ee3 2FE2CAF9 		.ascii	"/\342\312\371\031E\223\371\270\230\020&\011\\\262,\026"
 334      194593F9 
 334      B8981026 
 334      095CB22C 
 334      16
 335 0ef4 4D154D49 		.ascii	"M\025MIT\012Q^\230\031\231\230(\341_\342\343\321\262"
 335      540A515E 
 335      98199998 
 335      28E15FE2 
 335      E3D1B2
 336 0f07 C83FC544 		.ascii	"\310?\305D>2-!D\000;\362\367/\276\364\217E\234P\361"
 336      3E322D21 
 336      44003BF2 
 336      F72FBEF4 
 336      8F459C50 
 337 0f1c 743C11E7 		.ascii	"t<\021\347\237\346\271\251\261\242X<Z^Y\302\027\245"
 337      9FE6B9A9 
 337      B1A2583C 
 337      5A5E59C2 
 337      17A5
 338 0f2e C492585C 		.ascii	"\304\222X\\\204N\202\360\357\257\377*\"\026k\\\212|"
 338      844E82F0 
 338      EFAFFF2A 
 338      22166B5C 
 338      8A7C
 339 0f40 4A2C12C4 		.ascii	"J,\022\304\242\024\242\313\217\264\212\244\370_WB'|"
 339      A214A2CB 
 339      8FB48AA4 
 339      F85F5742 
 339      277C
 340 0f52 64DCB8E7 		.ascii	"d\334\270\347\306FI>\262W&\360\\I1\223|\020\233\300"
 340      C646493E 
 340      B25726F0 
 340      5C493193 
 340      7C109BC0 
 341 0f66 27508A23 		.ascii	"'P\212#\374\014>Z)\362\017\033A\313cSA\274\010\275\247"
ARM GAS  /tmp/cca0jqD2.s 			page 27


 341      FC0C3E5A 
 341      29F20F1B 
 341      41CB6353 
 341      41BC08BD 
 342 0f7b E2455E4A 		.ascii	"\342E^J$\312G\341c\204K\245x!\323\305\223\271\271\021"
 342      24CA47E1 
 342      63844BA5 
 342      7821D3C5 
 342      93B9B911 
 343 0f8f 12098A32 		.ascii	"\022\011\2122\022\037\252\270\230\250\360\222\032\216"
 343      121FAAB8 
 343      98A8F092 
 343      1A8E
 344 0f9d 6FF80A   		.ascii	"o\370\012"
 345 0fa0 FA26F10A 		.ascii	"\372&\361\012\037\177T\257\177@RU\020-\003\001\000\341"
 345      1F7F54AF 
 345      7F405255 
 345      102D0301 
 345      00E1
 346 0fb2 71C7CF53 		.ascii	"q\307\317S3S\252-B2xD\014S\001\360\276\320\231.ZV\002"
 346      3353AA2D 
 346      42327844 
 346      0C5301F0 
 346      BED0992E 
 347 0fc9 34C31586 		.ascii	"4\303\025\206\" S%\037\021Gh\244\312+\177\234\237!\372"
 347      22205325 
 347      1F114768 
 347      A4CA2B7F 
 347      9C9F21FA 
 348 0fdd 93023F3D 		.ascii	"\223\002?=\200\317A1)\304\022\0211T\251\030\305O\237"
 348      80CF4131 
 348      29C41211 
 348      3154A918 
 348      C54F9F
 349 0ff0 0BA8B344 		.ascii	"\013\250\263D\242\211\270\010\255\237\314\351Le\321"
 349      A289B808 
 349      AD9FCCE9 
 349      4C65D1
 350 0fff 84       		.ascii	"\204"
 351 1000 C043EFF9 		.ascii	"\300C\357\371H\006@Qq\306\323\356\250\"\323\237\253"
 351      48064051 
 351      71C6D3EE 
 351      A822D39F 
 351      AB
 352 1011 A0B20A7C 		.ascii	"\240\262\012|)xMDd\205gX\341oX\341YVx\216\025\306\263"
 352      29784D44 
 352      64856758 
 352      E16F58E1 
 352      5956788E 
 353 1028 C2DFFA84 		.ascii	"\302\337\372\204\342qP\212\331r\201M%}\000\035\210\363"
 353      E271508A 
 353      D972814D 
 353      257D001D 
 353      88F3
 354 103a 55BC1048 		.ascii	"U\274\020H\224\227\360\202?\316U\360CR\342+\\y\2544"
 354      9497F082 
 354      3FCE55F0 
ARM GAS  /tmp/cca0jqD2.s 			page 28


 354      4352E22B 
 354      5C79AC34 
 355 104e AEC8F1EC 		.ascii	"\256\310\361\3543\0211\257\212\233\312\245\370\220\230"
 355      331131AF 
 355      8A9BCAA5 
 355      F89098
 356 105d 1239F04F 		.ascii	"\0229\360O1H?\030\037\021\003\370\034\024+\300\177\341"
 356      31483F18 
 356      1F1103F8 
 356      1C142BC0 
 356      7FE1
 357 106f 695A3957 		.ascii	"iZ9W\232\012\212\002?-\005\262\323\177yB\311L\260R\210"
 357      9A0A8A02 
 357      3F2D05B2 
 357      D37F7942 
 357      C94CB052 
 358 1084 9F1113A3 		.ascii	"\237\021\023\243\320(\257JLL\375\257\344\003\2125\240"
 358      D028AF4A 
 358      4C4CFDAF 
 358      E4038A35 
 358      A0
 359 1095 092FA04B 		.ascii	"\011/\240K\212\201*Q\024\222\301\024D\010\020\024\200"
 359      8A812A51 
 359      1492C114 
 359      44081014 
 359      80
 360 10a6 AA537C05 		.ascii	"\252S|\005\304\011\210\345\354\000\320\204:b4\016\256"
 360      C40988E5 
 360      EC00D084 
 360      3A62340E 
 360      AE
 361 10b7 E2831AE0 		.ascii	"\342\203\032\340\341U2\004\324\025\340\2763\262\270"
 361      E1553204 
 361      D415E0BE 
 361      33B2B8
 362 10c6 8E388352 		.ascii	"\2168\203R&\252\342\274\020\304\266TJ\021^'\363\371"
 362      26AAE2BC 
 362      10C4B654 
 362      4A115E27 
 362      F3F9
 363 10d8 E994092E 		.ascii	"\351\224\011.\365\012\274\342\253\350\015S9L5|y\014"
 363      F50ABCE2 
 363      ABE80D53 
 363      394C357C 
 363      790C
 364 10ea 9C531CAE 		.ascii	"\234S\034\256s\005\372&H\0358\026/\015\001\357\350\012"
 364      7305FA26 
 364      481D3816 
 364      2F0D01EF 
 364      E80A
 365 10fc 213EC9C7 		.ascii	"!>\311\307!DK\203\000I[\200Q\270r\352\016\201\212$\204"
 365      21444B83 
 365      00495B80 
 365      51B872EA 
 365      0E818A24 
 366 1111 0D083839 		.ascii	"\015\01089U\372\013\276\234\007\275\206\361\341\337"
 366      55FA0BBE 
ARM GAS  /tmp/cca0jqD2.s 			page 29


 366      9C07BD86 
 366      F1E1DF
 367 1120 00E2CF1D 		.ascii	"\000\342\317\035\031Vz\003\246\313\3573\241\320(.\215"
 367      19567A03 
 367      A6CBEF33 
 367      A1D0282E 
 367      8D
 368 1131 464D89E5 		.ascii	"FM\211\345\231\261\343\307\026\353\323K\011?\015:\313"
 368      99B1E3C7 
 368      16EBD34B 
 368      093F0D3A 
 368      CB
 369 1142 4BC5FE9B 		.ascii	"K\305\376\233\032\\\234V\031\217F\304\221\321\262\177"
 369      1A5C9C56 
 369      198F46C4 
 369      91D1B27F 
 370 1152 2D2B9908 		.ascii	"-+\231\010\254\210\374\024\260},*\363>\005\204\015\313"
 370      AC88FC14 
 370      B07D2C2A 
 370      F33E0584 
 370      0DCB
 371 1164 4946E493 		.ascii	"IF\344\223l\025\227O\015\010\341\307W\310!'\337\027"
 371      6C15974F 
 371      0D08E1C7 
 371      57C82127 
 371      DF17
 372 1176 5019662A 		.ascii	"P\031f*:\034\012\2573\317\301h\245\000\256 \006\004"
 372      3A1C0AAF 
 372      33CFC168 
 372      A500AE20 
 372      0604
 373 1188 FA346A7A 		.ascii	"\3724jzL\020+\271\362\210\030\253\200\304\252P<\004"
 373      4C102BB9 
 373      F28818AB 
 373      80C4AA50 
 373      3C04
 374 119a 14361F0C 		.ascii	"\0246\037\0147\274\223\343\324\360*L{\207\033\305\243"
 374      37BC93E3 
 374      D4F02A4C 
 374      7B871BC5 
 374      A3
 375 11ab 8B9F0577 		.ascii	"\213\237\005w+\341\313E.4]\221\313O\377\371\222\234"
 375      2BE1CB45 
 375      2E345D91 
 375      CB4FFFF9 
 375      929C
 376 11bd 102AE752 		.ascii	"\020*\347R\"m\2337]\244\330\303\024!J\370\251\225\245"
 376      226D9B37 
 376      5DA4D8C3 
 376      14214AF8 
 376      A995A5
 377 11d0 B2DDF56F 		.ascii	"\262\335\365o\302I.\036\213F\300\352\276\222\251\245"
 377      C2492E1E 
 377      8B46C0EA 
 377      BE92A9A5 
 378 11e0 432A3880 		.ascii	"C*8\200GC=\342lH\352\262#\304\212H\024\242l\252\000"
 378      47433DE2 
ARM GAS  /tmp/cca0jqD2.s 			page 30


 378      6C48EAB2 
 378      23C48A48 
 378      14A26CAA 
 379 11f5 3A4C40A8 		.ascii	":L@\250\005\005\021\2758/1mZ\212\027Y\261\202\215\226"
 379      050511BD 
 379      382F316D 
 379      5A8A1759 
 379      B1828D96 
 380 1209 0515A307 		.ascii	"\005\025\243\007\340Me2$\362\234P\002\036\033T\262\363"
 380      E04D6532 
 380      24F29C50 
 380      021E1B54 
 380      B2F3
 381 121b 10AAF028 		.ascii	"\020\252\360(\370\017\330\305\222\340\307\214\025\022"
 381      F80FD8C5 
 381      92E0C78C 
 381      1512
 382 1229 259CC88D 		.ascii	"%\234\310\215\265|R\240\317\364\243&\363\251\024W\312"
 382      B57C52A0 
 382      CFF4A326 
 382      F3A91457 
 382      CA
 383 123a A70AA7F0 		.ascii	"\247\012\247\360\302t^(,O$\222D6\363$^\374\027pX!&\316"
 383      C2745E28 
 383      2C4F2492 
 383      4436F324 
 383      5EFC1770 
 384 1252 7C79A8FA 		.ascii	"|y\250\372f\012_>\355\345\377\007\262)\3577"
 384      660A5F3E 
 384      EDE5FF07 
 384      B229EF37 
 385              		.text
 386              		.section	.gnu.lto_.symtab.7935f74bde241716,"",%progbits
 387 0000 74657374 		.ascii	"test_sequence_007\000\000\000\000\000\000\000\000\000"
 387      5F736571 
 387      75656E63 
 387      655F3030 
 387      37000000 
 388 001a 000000E8 		.ascii	"\000\000\000\350\001\000\000test_step\000\000\002\000"
 388      01000074 
 388      6573745F 
 388      73746570 
 388      00000200 
 389 002e 00000000 		.ascii	"\000\000\000\000\000\000\000\000\211\001\000\000wa\000"
 389      00000000 
 389      89010000 
 389      776100
 390 003d 00020000 		.ascii	"\000\002\000\000\000\000\000\000\000\000\000\213\001"
 390      00000000 
 390      0000008B 
 390      01
 391 004a 00006368 		.ascii	"\000\000ch\000\000\002\000\000\000\000\000\000\000\000"
 391      00000200 
 391      00000000 
 391      000000
 392 0059 00900100 		.ascii	"\000\220\001\000\000threads\000\000\002\000\000\000"
 392      00746872 
ARM GAS  /tmp/cca0jqD2.s 			page 31


 392      65616473 
 392      00000200 
 392      0000
 393 006b 00000000 		.ascii	"\000\000\000\000\000\000\345\001\000\000_test_asser"
 393      0000E501 
 393      00005F74 
 393      6573745F 
 393      61737365 
 394 0080 745F7365 		.ascii	"t_sequence\000\000\002\000\000\000\000\000\000\000\000"
 394      7175656E 
 394      63650000 
 394      02000000 
 394      00000000 
 395 0095 00BD0000 		.ascii	"\000\275\000\000\000test_wait_threads\000\000\002\000"
 395      00746573 
 395      745F7761 
 395      69745F74 
 395      68726561 
 396 00af 00000000 		.ascii	"\000\000\000\000\000\000\000\000\310\000\000\000tes"
 396      00000000 
 396      C8000000 
 396      746573
 397 00be 745F656D 		.ascii	"t_emit_token\000\000\002\000\000\000\000\000\000\000"
 397      69745F74 
 397      6F6B656E 
 397      00000200 
 397      00000000 
 398 00d4 0000CA00 		.ascii	"\000\000\312\000\000\000chMsgRelease\000\000\002\000"
 398      00006368 
 398      4D736752 
 398      656C6561 
 398      73650000 
 399 00ea 00000000 		.ascii	"\000\000\000\000\000\000\000\000\316\000\000\000chM"
 399      00000000 
 399      CE000000 
 399      63684D
 400 00f9 73675761 		.ascii	"sgWait\000\000\002\000\000\000\000\000\000\000\000\000"
 400      69740000 
 400      02000000 
 400      00000000 
 400      0000
 401 010b 73010000 		.ascii	"s\001\000\000chThdCreateStatic\000\000\002\000\000\000"
 401      63685468 
 401      64437265 
 401      61746553 
 401      74617469 
 402 0126 00000000 		.ascii	"\000\000\000\000\000\000v\001\000\000chMsgSend\000\000"
 402      00007601 
 402      00006368 
 402      4D736753 
 402      656E6400 
 403 013b 02000000 		.ascii	"\002\000\000\000\000\000\000\000\000\000\204\001\000"
 403      00000000 
 403      00008401 
 403      00
 404 0148 00       		.ascii	"\000"
 405              		.text
ARM GAS  /tmp/cca0jqD2.s 			page 32


 406              		.section	.gnu.lto_.opts,"",%progbits
 407 0000 272D6D63 		.ascii	"'-mcpu=cortex-m3' '-mno-thumb-interwork' '-mthumb' "
 407      70753D63 
 407      6F727465 
 407      782D6D33 
 407      2720272D 
 408 0033 272D6767 		.ascii	"'-ggdb' '-O2' '-fomit-frame-pointer' '-falign-funct"
 408      64622720 
 408      272D4F32 
 408      2720272D 
 408      666F6D69 
 409 0066 696F6E73 		.ascii	"ions=16' '-ffunction-sections' '-fdata-sections' '-"
 409      3D313627 
 409      20272D66 
 409      66756E63 
 409      74696F6E 
 410 0099 666E6F2D 		.ascii	"fno-common' '-flto'\000"
 410      636F6D6D 
 410      6F6E2720 
 410      272D666C 
 410      746F2700 
 411              		.text
 412              		.cfi_sections	.debug_frame
 413              		.section	.text.test_007_001_execute,"ax",%progbits
 414              		.align	2
 415              		.p2align 4,,15
 416              		.thumb
 417              		.thumb_func
 418              		.type	test_007_001_execute, %function
 419              	test_007_001_execute:
 420              	.LFB218:
 421              		.file 1 "../../../test/rt/source/test/test_sequence_007.c"
 422              		.loc 1 76 0
 423              		.cfi_startproc
 424              		@ args = 0, pretend = 0, frame = 0
 425              		@ frame_needed = 0, uses_anonymous_args = 0
 426 0000 30B5     		push	{r4, r5, lr}
 427              		.cfi_def_cfa_offset 12
 428              		.cfi_offset 4, -12
 429              		.cfi_offset 5, -8
 430              		.cfi_offset 14, -4
 431              	.LBB13:
 432              	.LBB14:
 433              	.LBB15:
 434              	.LBB16:
 435              		.file 2 "../../../os/rt/include/chthreads.h"
 436              		.loc 2 286 0
 437 0002 40F20003 		movw	r3, #:lower16:ch
 438 0006 C0F20003 		movt	r3, #:upper16:ch
 439 000a 9969     		ldr	r1, [r3, #24]
 440              	.LBE16:
 441              	.LBE15:
 442              	.LBE14:
 443              	.LBE13:
 444              		.loc 1 83 0
 445 000c 40F20003 		movw	r3, #:lower16:wa
 446 0010 8A68     		ldr	r2, [r1, #8]
ARM GAS  /tmp/cca0jqD2.s 			page 33


 447 0012 C0F20003 		movt	r3, #:upper16:wa
 448              		.loc 1 81 0
 449 0016 40F20004 		movw	r4, #:lower16:test_step
 450 001a C0F20004 		movt	r4, #:upper16:test_step
 451              		.loc 1 76 0
 452 001e 83B0     		sub	sp, sp, #12
 453              		.cfi_def_cfa_offset 24
 454              		.loc 1 83 0
 455 0020 1868     		ldr	r0, [r3]
 456              		.loc 1 81 0
 457 0022 0125     		movs	r5, #1
 458              		.loc 1 83 0
 459 0024 40F20003 		movw	r3, #:lower16:msg_thread1
 460 0028 0091     		str	r1, [sp]
 461 002a 0132     		adds	r2, r2, #1
 462 002c C0F20003 		movt	r3, #:upper16:msg_thread1
 463              		.loc 1 81 0
 464 0030 2560     		str	r5, [r4]
 465              		.loc 1 83 0
 466 0032 4FF4A471 		mov	r1, #328
 467 0036 FFF7FEFF 		bl	chThdCreateStatic
 468              	.LVL0:
 469 003a 40F20003 		movw	r3, #:lower16:threads
 470 003e C0F20003 		movt	r3, #:upper16:threads
 471              		.loc 1 89 0
 472 0042 0222     		movs	r2, #2
 473 0044 2260     		str	r2, [r4]
 474              	.LVL1:
 475              		.loc 1 83 0
 476 0046 1860     		str	r0, [r3]
 477              		.loc 1 89 0
 478 0048 0424     		movs	r4, #4
 479              	.LVL2:
 480              	.L3:
 481              	.LBB17:
 482              		.loc 1 94 0 discriminator 2
 483 004a FFF7FEFF 		bl	chMsgWait
 484              	.LVL3:
 485              	.LBE17:
 486              		.loc 1 77 0 discriminator 2
 487 004e 456A     		ldr	r5, [r0, #36]
 488              	.LVL4:
 489              	.LBB18:
 490              		.loc 1 96 0 discriminator 2
 491 0050 2946     		mov	r1, r5
 492 0052 FFF7FEFF 		bl	chMsgRelease
 493              	.LVL5:
 494              		.loc 1 97 0 discriminator 2
 495 0056 E8B2     		uxtb	r0, r5
 496 0058 FFF7FEFF 		bl	test_emit_token
 497              	.LVL6:
 498              		.loc 1 93 0 discriminator 2
 499 005c 013C     		subs	r4, r4, #1
 500              	.LVL7:
 501 005e F4D1     		bne	.L3
 502              		.loc 1 99 0
 503 0060 FFF7FEFF 		bl	test_wait_threads
ARM GAS  /tmp/cca0jqD2.s 			page 34


 504              	.LVL8:
 505              		.loc 1 100 0
 506 0064 40F20000 		movw	r0, #:lower16:.LC0
 507 0068 40F20001 		movw	r1, #:lower16:.LC1
 508 006c C0F20000 		movt	r0, #:upper16:.LC0
 509 0070 C0F20001 		movt	r1, #:upper16:.LC1
 510              	.LBE18:
 511              		.loc 1 102 0
 512 0074 03B0     		add	sp, sp, #12
 513              		@ sp needed
 514 0076 BDE83040 		pop	{r4, r5, lr}
 515              	.LVL9:
 516              	.LBB19:
 517              		.loc 1 100 0
 518 007a FFF7FEBF 		b	_test_assert_sequence
 519              	.LVL10:
 520              	.LBE19:
 521              		.cfi_endproc
 522              	.LFE218:
 523              		.size	test_007_001_execute, .-test_007_001_execute
 524 007e 00BF     		.section	.text.msg_thread1,"ax",%progbits
 525              		.align	2
 526              		.p2align 4,,15
 527              		.thumb
 528              		.thumb_func
 529              		.type	msg_thread1, %function
 530              	msg_thread1:
 531              	.LFB217:
 532              		.loc 1 50 0
 533              		.cfi_startproc
 534              		@ args = 0, pretend = 0, frame = 0
 535              		@ frame_needed = 0, uses_anonymous_args = 0
 536              	.LVL11:
 537 0000 10B5     		push	{r4, lr}
 538              		.cfi_def_cfa_offset 8
 539              		.cfi_offset 4, -8
 540              		.cfi_offset 14, -4
 541              		.loc 1 52 0
 542 0002 4121     		movs	r1, #65
 543              		.loc 1 50 0
 544 0004 0446     		mov	r4, r0
 545              		.loc 1 52 0
 546 0006 FFF7FEFF 		bl	chMsgSend
 547              	.LVL12:
 548              		.loc 1 53 0
 549 000a 2046     		mov	r0, r4
 550 000c 4221     		movs	r1, #66
 551 000e FFF7FEFF 		bl	chMsgSend
 552              	.LVL13:
 553              		.loc 1 54 0
 554 0012 2046     		mov	r0, r4
 555 0014 4321     		movs	r1, #67
 556 0016 FFF7FEFF 		bl	chMsgSend
 557              	.LVL14:
 558              		.loc 1 55 0
 559 001a 2046     		mov	r0, r4
 560 001c 4421     		movs	r1, #68
ARM GAS  /tmp/cca0jqD2.s 			page 35


 561              		.loc 1 56 0
 562 001e BDE81040 		pop	{r4, lr}
 563              	.LVL15:
 564              		.loc 1 55 0
 565 0022 FFF7FEBF 		b	chMsgSend
 566              	.LVL16:
 567              		.cfi_endproc
 568              	.LFE217:
 569              		.size	msg_thread1, .-msg_thread1
 570              		.global	test_sequence_007
 571 0026 00BFAFF3 		.section	.rodata.test_007_001,"a",%progbits
 571      0080AFF3 
 571      0080
 572              		.align	2
 573              		.type	test_007_001, %object
 574              		.size	test_007_001, 16
 575              	test_007_001:
 576 0000 1C000000 		.word	.LC2
 577 0004 00000000 		.word	0
 578 0008 00000000 		.word	0
 579 000c 00000000 		.word	test_007_001_execute
 580              		.section	.rodata.test_sequence_007,"a",%progbits
 581              		.align	2
 582              		.type	test_sequence_007, %object
 583              		.size	test_sequence_007, 8
 584              	test_sequence_007:
 585 0000 00000000 		.word	test_007_001
 586 0004 00000000 		.word	0
 587              		.section	.rodata.str1.4,"aMS",%progbits,1
 588              		.align	2
 589              	.LC0:
 590 0000 41424344 		.ascii	"ABCD\000"
 590      00
 591 0005 000000   		.space	3
 592              	.LC1:
 593 0008 696E7661 		.ascii	"invalid sequence\000"
 593      6C696420 
 593      73657175 
 593      656E6365 
 593      00
 594 0019 000000   		.space	3
 595              	.LC2:
 596 001c 4D657373 		.ascii	"Messages Server loop\000"
 596      61676573 
 596      20536572 
 596      76657220 
 596      6C6F6F70 
 597 0031 000000   		.text
 598              	.Letext0:
 599              		.file 3 "/home/alex/MentorGraphics/Sourcery_CodeBench_Lite_for_ARM_EABI/lib/gcc/arm-none-eabi/4.8.
 600              		.file 4 "/home/alex/MentorGraphics/Sourcery_CodeBench_Lite_for_ARM_EABI/arm-none-eabi/include/stdi
 601              		.file 5 "../../../os/common/ports/ARMCMx/compilers/GCC/chtypes.h"
 602              		.file 6 "../../../os/rt/include/chsystypes.h"
 603              		.file 7 "../../../os/rt/include/chschd.h"
 604              		.file 8 "../../../os/common/ports/ARMCMx/chcore.h"
 605              		.file 9 "../../../os/common/ports/ARMCMx/chcore_v7m.h"
 606              		.file 10 "../../../os/rt/include/chtm.h"
ARM GAS  /tmp/cca0jqD2.s 			page 36


 607              		.file 11 "../../../os/rt/include/chsem.h"
 608              		.file 12 "../../../os/rt/include/chmtx.h"
 609              		.file 13 "../../../test/lib/ch_test.h"
 610              		.file 14 "../../../os/common/ext/CMSIS/include/core_cm3.h"
 611              		.file 15 "../../../test/rt/source/test/test_root.h"
 612              		.file 16 "../../../os/rt/include/chmsg.h"
 613              		.section	.debug_info,"",%progbits
 614              	.Ldebug_info0:
 615 0000 2D090000 		.4byte	0x92d
 616 0004 0400     		.2byte	0x4
 617 0006 00000000 		.4byte	.Ldebug_abbrev0
 618 000a 04       		.byte	0x4
 619 000b 01       		.uleb128 0x1
 620 000c 3D030000 		.4byte	.LASF108
 621 0010 01       		.byte	0x1
 622 0011 10050000 		.4byte	.LASF109
 623 0015 D0020000 		.4byte	.LASF110
 624 0019 20000000 		.4byte	.Ldebug_ranges0+0x20
 625 001d 00000000 		.4byte	0
 626 0021 00000000 		.4byte	.Ldebug_line0
 627 0025 02       		.uleb128 0x2
 628 0026 04       		.byte	0x4
 629 0027 05       		.byte	0x5
 630 0028 696E7400 		.ascii	"int\000"
 631 002c 03       		.uleb128 0x3
 632 002d 15000000 		.4byte	.LASF2
 633 0031 03       		.byte	0x3
 634 0032 D4       		.byte	0xd4
 635 0033 37000000 		.4byte	0x37
 636 0037 04       		.uleb128 0x4
 637 0038 04       		.byte	0x4
 638 0039 07       		.byte	0x7
 639 003a 60010000 		.4byte	.LASF0
 640 003e 04       		.uleb128 0x4
 641 003f 01       		.byte	0x1
 642 0040 06       		.byte	0x6
 643 0041 D8000000 		.4byte	.LASF1
 644 0045 03       		.uleb128 0x3
 645 0046 6E050000 		.4byte	.LASF3
 646 004a 04       		.byte	0x4
 647 004b 2A       		.byte	0x2a
 648 004c 50000000 		.4byte	0x50
 649 0050 04       		.uleb128 0x4
 650 0051 01       		.byte	0x1
 651 0052 08       		.byte	0x8
 652 0053 06040000 		.4byte	.LASF4
 653 0057 04       		.uleb128 0x4
 654 0058 02       		.byte	0x2
 655 0059 05       		.byte	0x5
 656 005a 1C040000 		.4byte	.LASF5
 657 005e 03       		.uleb128 0x3
 658 005f 38010000 		.4byte	.LASF6
 659 0063 04       		.byte	0x4
 660 0064 36       		.byte	0x36
 661 0065 69000000 		.4byte	0x69
 662 0069 04       		.uleb128 0x4
 663 006a 02       		.byte	0x2
ARM GAS  /tmp/cca0jqD2.s 			page 37


 664 006b 07       		.byte	0x7
 665 006c 9D010000 		.4byte	.LASF7
 666 0070 03       		.uleb128 0x3
 667 0071 FE030000 		.4byte	.LASF8
 668 0075 04       		.byte	0x4
 669 0076 4F       		.byte	0x4f
 670 0077 7B000000 		.4byte	0x7b
 671 007b 04       		.uleb128 0x4
 672 007c 04       		.byte	0x4
 673 007d 05       		.byte	0x5
 674 007e 17010000 		.4byte	.LASF9
 675 0082 03       		.uleb128 0x3
 676 0083 73040000 		.4byte	.LASF10
 677 0087 04       		.byte	0x4
 678 0088 50       		.byte	0x50
 679 0089 8D000000 		.4byte	0x8d
 680 008d 04       		.uleb128 0x4
 681 008e 04       		.byte	0x4
 682 008f 07       		.byte	0x7
 683 0090 99040000 		.4byte	.LASF11
 684 0094 04       		.uleb128 0x4
 685 0095 08       		.byte	0x8
 686 0096 05       		.byte	0x5
 687 0097 CA000000 		.4byte	.LASF12
 688 009b 03       		.uleb128 0x3
 689 009c 29000000 		.4byte	.LASF13
 690 00a0 04       		.byte	0x4
 691 00a1 78       		.byte	0x78
 692 00a2 A6000000 		.4byte	0xa6
 693 00a6 04       		.uleb128 0x4
 694 00a7 08       		.byte	0x8
 695 00a8 07       		.byte	0x7
 696 00a9 5E000000 		.4byte	.LASF14
 697 00ad 03       		.uleb128 0x3
 698 00ae F8040000 		.4byte	.LASF15
 699 00b2 05       		.byte	0x5
 700 00b3 39       		.byte	0x39
 701 00b4 82000000 		.4byte	0x82
 702 00b8 03       		.uleb128 0x3
 703 00b9 D5010000 		.4byte	.LASF16
 704 00bd 05       		.byte	0x5
 705 00be 3C       		.byte	0x3c
 706 00bf 45000000 		.4byte	0x45
 707 00c3 03       		.uleb128 0x3
 708 00c4 2A010000 		.4byte	.LASF17
 709 00c8 05       		.byte	0x5
 710 00c9 3D       		.byte	0x3d
 711 00ca 45000000 		.4byte	0x45
 712 00ce 03       		.uleb128 0x3
 713 00cf 20030000 		.4byte	.LASF18
 714 00d3 05       		.byte	0x5
 715 00d4 3E       		.byte	0x3e
 716 00d5 45000000 		.4byte	0x45
 717 00d9 03       		.uleb128 0x3
 718 00da E0030000 		.4byte	.LASF19
 719 00de 05       		.byte	0x5
 720 00df 40       		.byte	0x40
ARM GAS  /tmp/cca0jqD2.s 			page 38


 721 00e0 82000000 		.4byte	0x82
 722 00e4 03       		.uleb128 0x3
 723 00e5 BA010000 		.4byte	.LASF20
 724 00e9 05       		.byte	0x5
 725 00ea 41       		.byte	0x41
 726 00eb 70000000 		.4byte	0x70
 727 00ef 03       		.uleb128 0x3
 728 00f0 EB010000 		.4byte	.LASF21
 729 00f4 05       		.byte	0x5
 730 00f5 43       		.byte	0x43
 731 00f6 82000000 		.4byte	0x82
 732 00fa 03       		.uleb128 0x3
 733 00fb 5A010000 		.4byte	.LASF22
 734 00ff 05       		.byte	0x5
 735 0100 45       		.byte	0x45
 736 0101 70000000 		.4byte	0x70
 737 0105 03       		.uleb128 0x3
 738 0106 C6040000 		.4byte	.LASF23
 739 010a 06       		.byte	0x6
 740 010b 35       		.byte	0x35
 741 010c 5E000000 		.4byte	0x5e
 742 0110 03       		.uleb128 0x3
 743 0111 BD040000 		.4byte	.LASF24
 744 0115 06       		.byte	0x6
 745 0116 3F       		.byte	0x3f
 746 0117 1B010000 		.4byte	0x11b
 747 011b 05       		.uleb128 0x5
 748 011c B0010000 		.4byte	.LASF42
 749 0120 44       		.byte	0x44
 750 0121 07       		.byte	0x7
 751 0122 9A       		.byte	0x9a
 752 0123 F9010000 		.4byte	0x1f9
 753 0127 06       		.uleb128 0x6
 754 0128 91010000 		.4byte	.LASF25
 755 012c 07       		.byte	0x7
 756 012d 9B       		.byte	0x9b
 757 012e 2E020000 		.4byte	0x22e
 758 0132 00       		.byte	0
 759 0133 06       		.uleb128 0x6
 760 0134 C3020000 		.4byte	.LASF26
 761 0138 07       		.byte	0x7
 762 0139 9C       		.byte	0x9c
 763 013a D9000000 		.4byte	0xd9
 764 013e 08       		.byte	0x8
 765 013f 07       		.uleb128 0x7
 766 0140 63747800 		.ascii	"ctx\000"
 767 0144 07       		.byte	0x7
 768 0145 9D       		.byte	0x9d
 769 0146 26040000 		.4byte	0x426
 770 014a 0C       		.byte	0xc
 771 014b 06       		.uleb128 0x6
 772 014c 00050000 		.4byte	.LASF27
 773 0150 07       		.byte	0x7
 774 0151 9F       		.byte	0x9f
 775 0152 04020000 		.4byte	0x204
 776 0156 10       		.byte	0x10
 777 0157 06       		.uleb128 0x6
ARM GAS  /tmp/cca0jqD2.s 			page 39


 778 0158 B7040000 		.4byte	.LASF28
 779 015c 07       		.byte	0x7
 780 015d A0       		.byte	0xa0
 781 015e 04020000 		.4byte	0x204
 782 0162 14       		.byte	0x14
 783 0163 06       		.uleb128 0x6
 784 0164 8C010000 		.4byte	.LASF29
 785 0168 07       		.byte	0x7
 786 0169 A7       		.byte	0xa7
 787 016a AB050000 		.4byte	0x5ab
 788 016e 18       		.byte	0x18
 789 016f 06       		.uleb128 0x6
 790 0170 AB040000 		.4byte	.LASF30
 791 0174 07       		.byte	0x7
 792 0175 B0       		.byte	0xb0
 793 0176 BD050000 		.4byte	0x5bd
 794 017a 1C       		.byte	0x1c
 795 017b 06       		.uleb128 0x6
 796 017c 11010000 		.4byte	.LASF31
 797 0180 07       		.byte	0x7
 798 0181 B5       		.byte	0xb5
 799 0182 C3000000 		.4byte	0xc3
 800 0186 20       		.byte	0x20
 801 0187 06       		.uleb128 0x6
 802 0188 76050000 		.4byte	.LASF32
 803 018c 07       		.byte	0x7
 804 018d B9       		.byte	0xb9
 805 018e B8000000 		.4byte	0xb8
 806 0192 21       		.byte	0x21
 807 0193 06       		.uleb128 0x6
 808 0194 28030000 		.4byte	.LASF33
 809 0198 07       		.byte	0x7
 810 0199 BE       		.byte	0xbe
 811 019a CE000000 		.4byte	0xce
 812 019e 22       		.byte	0x22
 813 019f 08       		.uleb128 0x8
 814 01a0 7500     		.ascii	"u\000"
 815 01a2 07       		.byte	0x7
 816 01a3 0F01     		.2byte	0x10f
 817 01a5 E0040000 		.4byte	0x4e0
 818 01a9 24       		.byte	0x24
 819 01aa 09       		.uleb128 0x9
 820 01ab 4A010000 		.4byte	.LASF34
 821 01af 07       		.byte	0x7
 822 01b0 1401     		.2byte	0x114
 823 01b2 0A020000 		.4byte	0x20a
 824 01b6 28       		.byte	0x28
 825 01b7 09       		.uleb128 0x9
 826 01b8 08010000 		.4byte	.LASF35
 827 01bc 07       		.byte	0x7
 828 01bd 1A01     		.2byte	0x11a
 829 01bf 2E020000 		.4byte	0x22e
 830 01c3 2C       		.byte	0x2c
 831 01c4 09       		.uleb128 0x9
 832 01c5 C0010000 		.4byte	.LASF36
 833 01c9 07       		.byte	0x7
 834 01ca 2001     		.2byte	0x120
ARM GAS  /tmp/cca0jqD2.s 			page 40


 835 01cc EF000000 		.4byte	0xef
 836 01d0 34       		.byte	0x34
 837 01d1 09       		.uleb128 0x9
 838 01d2 B9050000 		.4byte	.LASF37
 839 01d6 07       		.byte	0x7
 840 01d7 2701     		.2byte	0x127
 841 01d9 A5050000 		.4byte	0x5a5
 842 01dd 38       		.byte	0x38
 843 01de 09       		.uleb128 0x9
 844 01df 1F020000 		.4byte	.LASF38
 845 01e3 07       		.byte	0x7
 846 01e4 2B01     		.2byte	0x12b
 847 01e6 D9000000 		.4byte	0xd9
 848 01ea 3C       		.byte	0x3c
 849 01eb 09       		.uleb128 0x9
 850 01ec 97010000 		.4byte	.LASF39
 851 01f0 07       		.byte	0x7
 852 01f1 3201     		.2byte	0x132
 853 01f3 E1020000 		.4byte	0x2e1
 854 01f7 40       		.byte	0x40
 855 01f8 00       		.byte	0
 856 01f9 03       		.uleb128 0x3
 857 01fa 31020000 		.4byte	.LASF40
 858 01fe 06       		.byte	0x6
 859 01ff 44       		.byte	0x44
 860 0200 04020000 		.4byte	0x204
 861 0204 0A       		.uleb128 0xa
 862 0205 04       		.byte	0x4
 863 0206 10010000 		.4byte	0x110
 864 020a 03       		.uleb128 0x3
 865 020b 95050000 		.4byte	.LASF41
 866 020f 06       		.byte	0x6
 867 0210 49       		.byte	0x49
 868 0211 15020000 		.4byte	0x215
 869 0215 05       		.uleb128 0x5
 870 0216 83040000 		.4byte	.LASF43
 871 021a 04       		.byte	0x4
 872 021b 07       		.byte	0x7
 873 021c 88       		.byte	0x88
 874 021d 2E020000 		.4byte	0x22e
 875 0221 06       		.uleb128 0x6
 876 0222 B4000000 		.4byte	.LASF44
 877 0226 07       		.byte	0x7
 878 0227 89       		.byte	0x89
 879 0228 04020000 		.4byte	0x204
 880 022c 00       		.byte	0
 881 022d 00       		.byte	0
 882 022e 03       		.uleb128 0x3
 883 022f 41050000 		.4byte	.LASF45
 884 0233 06       		.byte	0x6
 885 0234 50       		.byte	0x50
 886 0235 39020000 		.4byte	0x239
 887 0239 05       		.uleb128 0x5
 888 023a B9000000 		.4byte	.LASF46
 889 023e 08       		.byte	0x8
 890 023f 07       		.byte	0x7
 891 0240 8F       		.byte	0x8f
ARM GAS  /tmp/cca0jqD2.s 			page 41


 892 0241 5E020000 		.4byte	0x25e
 893 0245 06       		.uleb128 0x6
 894 0246 B4000000 		.4byte	.LASF44
 895 024a 07       		.byte	0x7
 896 024b 90       		.byte	0x90
 897 024c 04020000 		.4byte	0x204
 898 0250 00       		.byte	0
 899 0251 06       		.uleb128 0x6
 900 0252 32000000 		.4byte	.LASF47
 901 0256 07       		.byte	0x7
 902 0257 91       		.byte	0x91
 903 0258 04020000 		.4byte	0x204
 904 025c 04       		.byte	0x4
 905 025d 00       		.byte	0
 906 025e 03       		.uleb128 0x3
 907 025f 08000000 		.4byte	.LASF48
 908 0263 06       		.byte	0x6
 909 0264 57       		.byte	0x57
 910 0265 69020000 		.4byte	0x269
 911 0269 0B       		.uleb128 0xb
 912 026a DD010000 		.4byte	.LASF49
 913 026e 1C       		.byte	0x1c
 914 026f 07       		.byte	0x7
 915 0270 6A01     		.2byte	0x16a
 916 0272 C5020000 		.4byte	0x2c5
 917 0276 09       		.uleb128 0x9
 918 0277 91010000 		.4byte	.LASF25
 919 027b 07       		.byte	0x7
 920 027c 6B01     		.2byte	0x16b
 921 027e 2E020000 		.4byte	0x22e
 922 0282 00       		.byte	0
 923 0283 09       		.uleb128 0x9
 924 0284 C3020000 		.4byte	.LASF26
 925 0288 07       		.byte	0x7
 926 0289 6C01     		.2byte	0x16c
 927 028b D9000000 		.4byte	0xd9
 928 028f 08       		.byte	0x8
 929 0290 08       		.uleb128 0x8
 930 0291 63747800 		.ascii	"ctx\000"
 931 0295 07       		.byte	0x7
 932 0296 6E01     		.2byte	0x16e
 933 0298 26040000 		.4byte	0x426
 934 029c 0C       		.byte	0xc
 935 029d 09       		.uleb128 0x9
 936 029e 00050000 		.4byte	.LASF27
 937 02a2 07       		.byte	0x7
 938 02a3 7101     		.2byte	0x171
 939 02a5 04020000 		.4byte	0x204
 940 02a9 10       		.byte	0x10
 941 02aa 09       		.uleb128 0x9
 942 02ab B7040000 		.4byte	.LASF28
 943 02af 07       		.byte	0x7
 944 02b0 7201     		.2byte	0x172
 945 02b2 04020000 		.4byte	0x204
 946 02b6 14       		.byte	0x14
 947 02b7 09       		.uleb128 0x9
 948 02b8 C8020000 		.4byte	.LASF50
ARM GAS  /tmp/cca0jqD2.s 			page 42


 949 02bc 07       		.byte	0x7
 950 02bd 7501     		.2byte	0x175
 951 02bf 04020000 		.4byte	0x204
 952 02c3 18       		.byte	0x18
 953 02c4 00       		.byte	0
 954 02c5 03       		.uleb128 0x3
 955 02c6 D0040000 		.4byte	.LASF51
 956 02ca 06       		.byte	0x6
 957 02cb 5C       		.byte	0x5c
 958 02cc D0020000 		.4byte	0x2d0
 959 02d0 0A       		.uleb128 0xa
 960 02d1 04       		.byte	0x4
 961 02d2 D6020000 		.4byte	0x2d6
 962 02d6 0C       		.uleb128 0xc
 963 02d7 E1020000 		.4byte	0x2e1
 964 02db 0D       		.uleb128 0xd
 965 02dc E1020000 		.4byte	0x2e1
 966 02e0 00       		.byte	0
 967 02e1 0E       		.uleb128 0xe
 968 02e2 04       		.byte	0x4
 969 02e3 03       		.uleb128 0x3
 970 02e4 2D030000 		.4byte	.LASF52
 971 02e8 06       		.byte	0x6
 972 02e9 61       		.byte	0x61
 973 02ea EE020000 		.4byte	0x2ee
 974 02ee 0B       		.uleb128 0xb
 975 02ef 48040000 		.4byte	.LASF53
 976 02f3 14       		.byte	0x14
 977 02f4 07       		.byte	0x7
 978 02f5 4501     		.2byte	0x145
 979 02f7 3D030000 		.4byte	0x33d
 980 02fb 09       		.uleb128 0x9
 981 02fc B4000000 		.4byte	.LASF44
 982 0300 07       		.byte	0x7
 983 0301 4601     		.2byte	0x146
 984 0303 C3050000 		.4byte	0x5c3
 985 0307 00       		.byte	0
 986 0308 09       		.uleb128 0x9
 987 0309 32000000 		.4byte	.LASF47
 988 030d 07       		.byte	0x7
 989 030e 4701     		.2byte	0x147
 990 0310 C3050000 		.4byte	0x5c3
 991 0314 04       		.byte	0x4
 992 0315 09       		.uleb128 0x9
 993 0316 1C000000 		.4byte	.LASF54
 994 031a 07       		.byte	0x7
 995 031b 4801     		.2byte	0x148
 996 031d 05010000 		.4byte	0x105
 997 0321 08       		.byte	0x8
 998 0322 09       		.uleb128 0x9
 999 0323 33010000 		.4byte	.LASF55
 1000 0327 07       		.byte	0x7
 1001 0328 4901     		.2byte	0x149
 1002 032a C5020000 		.4byte	0x2c5
 1003 032e 0C       		.byte	0xc
 1004 032f 08       		.uleb128 0x8
 1005 0330 70617200 		.ascii	"par\000"
ARM GAS  /tmp/cca0jqD2.s 			page 43


 1006 0334 07       		.byte	0x7
 1007 0335 4B01     		.2byte	0x14b
 1008 0337 E1020000 		.4byte	0x2e1
 1009 033b 10       		.byte	0x10
 1010 033c 00       		.byte	0
 1011 033d 03       		.uleb128 0x3
 1012 033e 91000000 		.4byte	.LASF56
 1013 0342 06       		.byte	0x6
 1014 0343 66       		.byte	0x66
 1015 0344 48030000 		.4byte	0x348
 1016 0348 0B       		.uleb128 0xb
 1017 0349 44020000 		.4byte	.LASF57
 1018 034d 0C       		.byte	0xc
 1019 034e 07       		.byte	0x7
 1020 034f 5501     		.2byte	0x155
 1021 0351 8A030000 		.4byte	0x38a
 1022 0355 09       		.uleb128 0x9
 1023 0356 B4000000 		.4byte	.LASF44
 1024 035a 07       		.byte	0x7
 1025 035b 5601     		.2byte	0x156
 1026 035d C3050000 		.4byte	0x5c3
 1027 0361 00       		.byte	0
 1028 0362 09       		.uleb128 0x9
 1029 0363 32000000 		.4byte	.LASF47
 1030 0367 07       		.byte	0x7
 1031 0368 5801     		.2byte	0x158
 1032 036a C3050000 		.4byte	0x5c3
 1033 036e 04       		.byte	0x4
 1034 036f 09       		.uleb128 0x9
 1035 0370 1C000000 		.4byte	.LASF54
 1036 0374 07       		.byte	0x7
 1037 0375 5A01     		.2byte	0x15a
 1038 0377 05010000 		.4byte	0x105
 1039 037b 08       		.byte	0x8
 1040 037c 09       		.uleb128 0x9
 1041 037d 26040000 		.4byte	.LASF58
 1042 0381 07       		.byte	0x7
 1043 0382 6201     		.2byte	0x162
 1044 0384 05010000 		.4byte	0x105
 1045 0388 0A       		.byte	0xa
 1046 0389 00       		.byte	0
 1047 038a 03       		.uleb128 0x3
 1048 038b 43000000 		.4byte	.LASF59
 1049 038f 06       		.byte	0x6
 1050 0390 6B       		.byte	0x6b
 1051 0391 95030000 		.4byte	0x395
 1052 0395 0B       		.uleb128 0xb
 1053 0396 E8030000 		.4byte	.LASF60
 1054 039a 04       		.byte	0x4
 1055 039b 07       		.byte	0x7
 1056 039c 7C01     		.2byte	0x17c
 1057 039e B0030000 		.4byte	0x3b0
 1058 03a2 09       		.uleb128 0x9
 1059 03a3 D9040000 		.4byte	.LASF61
 1060 03a7 07       		.byte	0x7
 1061 03a8 8401     		.2byte	0x184
 1062 03aa C9050000 		.4byte	0x5c9
ARM GAS  /tmp/cca0jqD2.s 			page 44


 1063 03ae 00       		.byte	0
 1064 03af 00       		.byte	0
 1065 03b0 03       		.uleb128 0x3
 1066 03b1 C9010000 		.4byte	.LASF62
 1067 03b5 06       		.byte	0x6
 1068 03b6 70       		.byte	0x70
 1069 03b7 BB030000 		.4byte	0x3bb
 1070 03bb 0B       		.uleb128 0xb
 1071 03bc 3E040000 		.4byte	.LASF63
 1072 03c0 74       		.byte	0x74
 1073 03c1 07       		.byte	0x7
 1074 03c2 9C01     		.2byte	0x19c
 1075 03c4 09040000 		.4byte	0x409
 1076 03c8 09       		.uleb128 0x9
 1077 03c9 5A050000 		.4byte	.LASF64
 1078 03cd 07       		.byte	0x7
 1079 03ce A001     		.2byte	0x1a0
 1080 03d0 5E020000 		.4byte	0x25e
 1081 03d4 00       		.byte	0
 1082 03d5 09       		.uleb128 0x9
 1083 03d6 01010000 		.4byte	.LASF65
 1084 03da 07       		.byte	0x7
 1085 03db A401     		.2byte	0x1a4
 1086 03dd 3D030000 		.4byte	0x33d
 1087 03e1 1C       		.byte	0x1c
 1088 03e2 08       		.uleb128 0x8
 1089 03e3 64626700 		.ascii	"dbg\000"
 1090 03e7 07       		.byte	0x7
 1091 03e8 A801     		.2byte	0x1a8
 1092 03ea 8A030000 		.4byte	0x38a
 1093 03ee 28       		.byte	0x28
 1094 03ef 09       		.uleb128 0x9
 1095 03f0 7E000000 		.4byte	.LASF66
 1096 03f4 07       		.byte	0x7
 1097 03f5 AC01     		.2byte	0x1ac
 1098 03f7 10010000 		.4byte	0x110
 1099 03fb 2C       		.byte	0x2c
 1100 03fc 08       		.uleb128 0x8
 1101 03fd 746D00   		.ascii	"tm\000"
 1102 0400 07       		.byte	0x7
 1103 0401 B101     		.2byte	0x1b1
 1104 0403 D5040000 		.4byte	0x4d5
 1105 0407 70       		.byte	0x70
 1106 0408 00       		.byte	0
 1107 0409 04       		.uleb128 0x4
 1108 040a 04       		.byte	0x4
 1109 040b 07       		.byte	0x7
 1110 040c 28020000 		.4byte	.LASF67
 1111 0410 03       		.uleb128 0x3
 1112 0411 41010000 		.4byte	.LASF68
 1113 0415 08       		.byte	0x8
 1114 0416 65       		.byte	0x65
 1115 0417 E1020000 		.4byte	0x2e1
 1116 041b 03       		.uleb128 0x3
 1117 041c F7010000 		.4byte	.LASF69
 1118 0420 08       		.byte	0x8
 1119 0421 6D       		.byte	0x6d
ARM GAS  /tmp/cca0jqD2.s 			page 45


 1120 0422 9B000000 		.4byte	0x9b
 1121 0426 05       		.uleb128 0x5
 1122 0427 88020000 		.4byte	.LASF70
 1123 042b 04       		.byte	0x4
 1124 042c 08       		.byte	0x8
 1125 042d 89       		.byte	0x89
 1126 042e 3E040000 		.4byte	0x43e
 1127 0432 07       		.uleb128 0x7
 1128 0433 737000   		.ascii	"sp\000"
 1129 0436 08       		.byte	0x8
 1130 0437 8A       		.byte	0x8a
 1131 0438 BA040000 		.4byte	0x4ba
 1132 043c 00       		.byte	0
 1133 043d 00       		.byte	0
 1134 043e 0B       		.uleb128 0xb
 1135 043f 37000000 		.4byte	.LASF71
 1136 0443 24       		.byte	0x24
 1137 0444 09       		.byte	0x9
 1138 0445 5901     		.2byte	0x159
 1139 0447 BA040000 		.4byte	0x4ba
 1140 044b 08       		.uleb128 0x8
 1141 044c 723400   		.ascii	"r4\000"
 1142 044f 09       		.byte	0x9
 1143 0450 6C01     		.2byte	0x16c
 1144 0452 10040000 		.4byte	0x410
 1145 0456 00       		.byte	0
 1146 0457 08       		.uleb128 0x8
 1147 0458 723500   		.ascii	"r5\000"
 1148 045b 09       		.byte	0x9
 1149 045c 6D01     		.2byte	0x16d
 1150 045e 10040000 		.4byte	0x410
 1151 0462 04       		.byte	0x4
 1152 0463 08       		.uleb128 0x8
 1153 0464 723600   		.ascii	"r6\000"
 1154 0467 09       		.byte	0x9
 1155 0468 6E01     		.2byte	0x16e
 1156 046a 10040000 		.4byte	0x410
 1157 046e 08       		.byte	0x8
 1158 046f 08       		.uleb128 0x8
 1159 0470 723700   		.ascii	"r7\000"
 1160 0473 09       		.byte	0x9
 1161 0474 6F01     		.2byte	0x16f
 1162 0476 10040000 		.4byte	0x410
 1163 047a 0C       		.byte	0xc
 1164 047b 08       		.uleb128 0x8
 1165 047c 723800   		.ascii	"r8\000"
 1166 047f 09       		.byte	0x9
 1167 0480 7001     		.2byte	0x170
 1168 0482 10040000 		.4byte	0x410
 1169 0486 10       		.byte	0x10
 1170 0487 08       		.uleb128 0x8
 1171 0488 723900   		.ascii	"r9\000"
 1172 048b 09       		.byte	0x9
 1173 048c 7101     		.2byte	0x171
 1174 048e 10040000 		.4byte	0x410
 1175 0492 14       		.byte	0x14
 1176 0493 08       		.uleb128 0x8
ARM GAS  /tmp/cca0jqD2.s 			page 46


 1177 0494 72313000 		.ascii	"r10\000"
 1178 0498 09       		.byte	0x9
 1179 0499 7201     		.2byte	0x172
 1180 049b 10040000 		.4byte	0x410
 1181 049f 18       		.byte	0x18
 1182 04a0 08       		.uleb128 0x8
 1183 04a1 72313100 		.ascii	"r11\000"
 1184 04a5 09       		.byte	0x9
 1185 04a6 7301     		.2byte	0x173
 1186 04a8 10040000 		.4byte	0x410
 1187 04ac 1C       		.byte	0x1c
 1188 04ad 08       		.uleb128 0x8
 1189 04ae 6C7200   		.ascii	"lr\000"
 1190 04b1 09       		.byte	0x9
 1191 04b2 7401     		.2byte	0x174
 1192 04b4 10040000 		.4byte	0x410
 1193 04b8 20       		.byte	0x20
 1194 04b9 00       		.byte	0
 1195 04ba 0A       		.uleb128 0xa
 1196 04bb 04       		.byte	0x4
 1197 04bc 3E040000 		.4byte	0x43e
 1198 04c0 0F       		.uleb128 0xf
 1199 04c1 04       		.byte	0x4
 1200 04c2 0A       		.byte	0xa
 1201 04c3 38       		.byte	0x38
 1202 04c4 D5040000 		.4byte	0x4d5
 1203 04c8 06       		.uleb128 0x6
 1204 04c9 F1040000 		.4byte	.LASF72
 1205 04cd 0A       		.byte	0xa
 1206 04ce 3C       		.byte	0x3c
 1207 04cf AD000000 		.4byte	0xad
 1208 04d3 00       		.byte	0
 1209 04d4 00       		.byte	0
 1210 04d5 03       		.uleb128 0x3
 1211 04d6 65020000 		.4byte	.LASF73
 1212 04da 0A       		.byte	0xa
 1213 04db 3D       		.byte	0x3d
 1214 04dc C0040000 		.4byte	0x4c0
 1215 04e0 10       		.uleb128 0x10
 1216 04e1 04       		.byte	0x4
 1217 04e2 07       		.byte	0x7
 1218 04e3 D2       		.byte	0xd2
 1219 04e4 43050000 		.4byte	0x543
 1220 04e8 11       		.uleb128 0x11
 1221 04e9 22000000 		.4byte	.LASF74
 1222 04ed 07       		.byte	0x7
 1223 04ee D9       		.byte	0xd9
 1224 04ef E4000000 		.4byte	0xe4
 1225 04f3 11       		.uleb128 0x11
 1226 04f4 75000000 		.4byte	.LASF75
 1227 04f8 07       		.byte	0x7
 1228 04f9 E0       		.byte	0xe0
 1229 04fa E4000000 		.4byte	0xe4
 1230 04fe 11       		.uleb128 0x11
 1231 04ff 8E050000 		.4byte	.LASF76
 1232 0503 07       		.byte	0x7
 1233 0504 E7       		.byte	0xe7
ARM GAS  /tmp/cca0jqD2.s 			page 47


 1234 0505 E1020000 		.4byte	0x2e1
 1235 0509 11       		.uleb128 0x11
 1236 050a 74010000 		.4byte	.LASF77
 1237 050e 07       		.byte	0x7
 1238 050f EE       		.byte	0xee
 1239 0510 43050000 		.4byte	0x543
 1240 0514 11       		.uleb128 0x11
 1241 0515 89000000 		.4byte	.LASF78
 1242 0519 07       		.byte	0x7
 1243 051a F3       		.byte	0xf3
 1244 051b E4000000 		.4byte	0xe4
 1245 051f 11       		.uleb128 0x11
 1246 0520 6D010000 		.4byte	.LASF79
 1247 0524 07       		.byte	0x7
 1248 0525 FC       		.byte	0xfc
 1249 0526 6E050000 		.4byte	0x56e
 1250 052a 12       		.uleb128 0x12
 1251 052b 7C040000 		.4byte	.LASF80
 1252 052f 07       		.byte	0x7
 1253 0530 0501     		.2byte	0x105
 1254 0532 A5050000 		.4byte	0x5a5
 1255 0536 12       		.uleb128 0x12
 1256 0537 37040000 		.4byte	.LASF81
 1257 053b 07       		.byte	0x7
 1258 053c 0D01     		.2byte	0x10d
 1259 053e EF000000 		.4byte	0xef
 1260 0542 00       		.byte	0
 1261 0543 0A       		.uleb128 0xa
 1262 0544 04       		.byte	0x4
 1263 0545 F9010000 		.4byte	0x1f9
 1264 0549 05       		.uleb128 0x5
 1265 054a 66040000 		.4byte	.LASF82
 1266 054e 0C       		.byte	0xc
 1267 054f 0B       		.byte	0xb
 1268 0550 34       		.byte	0x34
 1269 0551 6E050000 		.4byte	0x56e
 1270 0555 06       		.uleb128 0x6
 1271 0556 91010000 		.4byte	.LASF25
 1272 055a 0B       		.byte	0xb
 1273 055b 35       		.byte	0x35
 1274 055c 2E020000 		.4byte	0x22e
 1275 0560 00       		.byte	0
 1276 0561 07       		.uleb128 0x7
 1277 0562 636E7400 		.ascii	"cnt\000"
 1278 0566 0B       		.byte	0xb
 1279 0567 37       		.byte	0x37
 1280 0568 FA000000 		.4byte	0xfa
 1281 056c 08       		.byte	0x8
 1282 056d 00       		.byte	0
 1283 056e 0A       		.uleb128 0xa
 1284 056f 04       		.byte	0x4
 1285 0570 49050000 		.4byte	0x549
 1286 0574 05       		.uleb128 0x5
 1287 0575 51050000 		.4byte	.LASF83
 1288 0579 10       		.byte	0x10
 1289 057a 0C       		.byte	0xc
 1290 057b 39       		.byte	0x39
ARM GAS  /tmp/cca0jqD2.s 			page 48


 1291 057c A5050000 		.4byte	0x5a5
 1292 0580 06       		.uleb128 0x6
 1293 0581 91010000 		.4byte	.LASF25
 1294 0585 0C       		.byte	0xc
 1295 0586 3A       		.byte	0x3a
 1296 0587 2E020000 		.4byte	0x22e
 1297 058b 00       		.byte	0
 1298 058c 06       		.uleb128 0x6
 1299 058d 93040000 		.4byte	.LASF84
 1300 0591 0C       		.byte	0xc
 1301 0592 3C       		.byte	0x3c
 1302 0593 04020000 		.4byte	0x204
 1303 0597 08       		.byte	0x8
 1304 0598 06       		.uleb128 0x6
 1305 0599 B4000000 		.4byte	.LASF44
 1306 059d 0C       		.byte	0xc
 1307 059e 3E       		.byte	0x3e
 1308 059f E4050000 		.4byte	0x5e4
 1309 05a3 0C       		.byte	0xc
 1310 05a4 00       		.byte	0
 1311 05a5 0A       		.uleb128 0xa
 1312 05a6 04       		.byte	0x4
 1313 05a7 74050000 		.4byte	0x574
 1314 05ab 0A       		.uleb128 0xa
 1315 05ac 04       		.byte	0x4
 1316 05ad B1050000 		.4byte	0x5b1
 1317 05b1 13       		.uleb128 0x13
 1318 05b2 B6050000 		.4byte	0x5b6
 1319 05b6 04       		.uleb128 0x4
 1320 05b7 01       		.byte	0x1
 1321 05b8 08       		.byte	0x8
 1322 05b9 B2040000 		.4byte	.LASF85
 1323 05bd 0A       		.uleb128 0xa
 1324 05be 04       		.byte	0x4
 1325 05bf 1B040000 		.4byte	0x41b
 1326 05c3 0A       		.uleb128 0xa
 1327 05c4 04       		.byte	0x4
 1328 05c5 E3020000 		.4byte	0x2e3
 1329 05c9 14       		.uleb128 0x14
 1330 05ca AB050000 		.4byte	0x5ab
 1331 05ce 03       		.uleb128 0x3
 1332 05cf 00000000 		.4byte	.LASF86
 1333 05d3 02       		.byte	0x2
 1334 05d4 40       		.byte	0x40
 1335 05d5 D0020000 		.4byte	0x2d0
 1336 05d9 03       		.uleb128 0x3
 1337 05da 52010000 		.4byte	.LASF87
 1338 05de 0C       		.byte	0xc
 1339 05df 34       		.byte	0x34
 1340 05e0 74050000 		.4byte	0x574
 1341 05e4 0A       		.uleb128 0xa
 1342 05e5 04       		.byte	0x4
 1343 05e6 D9050000 		.4byte	0x5d9
 1344 05ea 04       		.uleb128 0x4
 1345 05eb 01       		.byte	0x1
 1346 05ec 02       		.byte	0x2
 1347 05ed F8030000 		.4byte	.LASF88
ARM GAS  /tmp/cca0jqD2.s 			page 49


 1348 05f1 0A       		.uleb128 0xa
 1349 05f2 04       		.byte	0x4
 1350 05f3 F7050000 		.4byte	0x5f7
 1351 05f7 15       		.uleb128 0x15
 1352 05f8 0F       		.uleb128 0xf
 1353 05f9 10       		.byte	0x10
 1354 05fa 0D       		.byte	0xd
 1355 05fb 3D       		.byte	0x3d
 1356 05fc 31060000 		.4byte	0x631
 1357 0600 06       		.uleb128 0x6
 1358 0601 8C010000 		.4byte	.LASF29
 1359 0605 0D       		.byte	0xd
 1360 0606 3E       		.byte	0x3e
 1361 0607 AB050000 		.4byte	0x5ab
 1362 060b 00       		.byte	0
 1363 060c 06       		.uleb128 0x6
 1364 060d A7020000 		.4byte	.LASF89
 1365 0611 0D       		.byte	0xd
 1366 0612 3F       		.byte	0x3f
 1367 0613 F1050000 		.4byte	0x5f1
 1368 0617 04       		.byte	0x4
 1369 0618 06       		.uleb128 0x6
 1370 0619 7A010000 		.4byte	.LASF90
 1371 061d 0D       		.byte	0xd
 1372 061e 40       		.byte	0x40
 1373 061f F1050000 		.4byte	0x5f1
 1374 0623 08       		.byte	0x8
 1375 0624 06       		.uleb128 0x6
 1376 0625 14040000 		.4byte	.LASF91
 1377 0629 0D       		.byte	0xd
 1378 062a 41       		.byte	0x41
 1379 062b F1050000 		.4byte	0x5f1
 1380 062f 0C       		.byte	0xc
 1381 0630 00       		.byte	0
 1382 0631 03       		.uleb128 0x3
 1383 0632 02020000 		.4byte	.LASF92
 1384 0636 0D       		.byte	0xd
 1385 0637 42       		.byte	0x42
 1386 0638 F8050000 		.4byte	0x5f8
 1387 063c 16       		.uleb128 0x16
 1388 063d 60050000 		.4byte	.LASF93
 1389 0641 02       		.byte	0x2
 1390 0642 1C01     		.2byte	0x11c
 1391 0644 04020000 		.4byte	0x204
 1392 0648 03       		.byte	0x3
 1393 0649 17       		.uleb128 0x17
 1394 064a 83010000 		.4byte	.LASF111
 1395 064e 10       		.byte	0x10
 1396 064f 60       		.byte	0x60
 1397 0650 E4000000 		.4byte	0xe4
 1398 0654 03       		.byte	0x3
 1399 0655 71060000 		.4byte	0x671
 1400 0659 18       		.uleb128 0x18
 1401 065a 747000   		.ascii	"tp\000"
 1402 065d 10       		.byte	0x10
 1403 065e 60       		.byte	0x60
 1404 065f 04020000 		.4byte	0x204
ARM GAS  /tmp/cca0jqD2.s 			page 50


 1405 0663 19       		.uleb128 0x19
 1406 0664 E3040000 		.4byte	.LASF95
 1407 0668 81060000 		.4byte	0x681
 1408 066c 83010000 		.4byte	.LASF111
 1409 0670 00       		.byte	0
 1410 0671 1A       		.uleb128 0x1a
 1411 0672 B6050000 		.4byte	0x5b6
 1412 0676 81060000 		.4byte	0x681
 1413 067a 1B       		.uleb128 0x1b
 1414 067b 09040000 		.4byte	0x409
 1415 067f 08       		.byte	0x8
 1416 0680 00       		.byte	0
 1417 0681 13       		.uleb128 0x13
 1418 0682 71060000 		.4byte	0x671
 1419 0686 16       		.uleb128 0x16
 1420 0687 95020000 		.4byte	.LASF94
 1421 068b 02       		.byte	0x2
 1422 068c 2901     		.2byte	0x129
 1423 068e D9000000 		.4byte	0xd9
 1424 0692 03       		.byte	0x3
 1425 0693 1C       		.uleb128 0x1c
 1426 0694 A4050000 		.4byte	.LASF96
 1427 0698 01       		.byte	0x1
 1428 0699 4C       		.byte	0x4c
 1429 069a 00000000 		.4byte	.LFB218
 1430 069e 7E000000 		.4byte	.LFE218-.LFB218
 1431 06a2 01       		.uleb128 0x1
 1432 06a3 9C       		.byte	0x9c
 1433 06a4 6D070000 		.4byte	0x76d
 1434 06a8 1D       		.uleb128 0x1d
 1435 06a9 747000   		.ascii	"tp\000"
 1436 06ac 01       		.byte	0x1
 1437 06ad 4D       		.byte	0x4d
 1438 06ae 04020000 		.4byte	0x204
 1439 06b2 00000000 		.4byte	.LLST0
 1440 06b6 1E       		.uleb128 0x1e
 1441 06b7 6D736700 		.ascii	"msg\000"
 1442 06bb 01       		.byte	0x1
 1443 06bc 4E       		.byte	0x4e
 1444 06bd E4000000 		.4byte	0xe4
 1445 06c1 1F       		.uleb128 0x1f
 1446 06c2 86060000 		.4byte	0x686
 1447 06c6 02000000 		.4byte	.LBB13
 1448 06ca 0A000000 		.4byte	.LBE13-.LBB13
 1449 06ce 01       		.byte	0x1
 1450 06cf 53       		.byte	0x53
 1451 06d0 E5060000 		.4byte	0x6e5
 1452 06d4 20       		.uleb128 0x20
 1453 06d5 3C060000 		.4byte	0x63c
 1454 06d9 02000000 		.4byte	.LBB15
 1455 06dd 0A000000 		.4byte	.LBE15-.LBB15
 1456 06e1 02       		.byte	0x2
 1457 06e2 2B01     		.2byte	0x12b
 1458 06e4 00       		.byte	0
 1459 06e5 21       		.uleb128 0x21
 1460 06e6 00000000 		.4byte	.Ldebug_ranges0+0
 1461 06ea 52070000 		.4byte	0x752
ARM GAS  /tmp/cca0jqD2.s 			page 51


 1462 06ee 1D       		.uleb128 0x1d
 1463 06ef 6900     		.ascii	"i\000"
 1464 06f1 01       		.byte	0x1
 1465 06f2 5B       		.byte	0x5b
 1466 06f3 37000000 		.4byte	0x37
 1467 06f7 13000000 		.4byte	.LLST1
 1468 06fb 22       		.uleb128 0x22
 1469 06fc 4E000000 		.4byte	.LVL3
 1470 0700 98080000 		.4byte	0x898
 1471 0704 23       		.uleb128 0x23
 1472 0705 56000000 		.4byte	.LVL5
 1473 0709 A3080000 		.4byte	0x8a3
 1474 070d 18070000 		.4byte	0x718
 1475 0711 24       		.uleb128 0x24
 1476 0712 01       		.uleb128 0x1
 1477 0713 51       		.byte	0x51
 1478 0714 02       		.uleb128 0x2
 1479 0715 75       		.byte	0x75
 1480 0716 00       		.sleb128 0
 1481 0717 00       		.byte	0
 1482 0718 23       		.uleb128 0x23
 1483 0719 5C000000 		.4byte	.LVL6
 1484 071d B9080000 		.4byte	0x8b9
 1485 0721 2C070000 		.4byte	0x72c
 1486 0725 24       		.uleb128 0x24
 1487 0726 01       		.uleb128 0x1
 1488 0727 50       		.byte	0x50
 1489 0728 02       		.uleb128 0x2
 1490 0729 75       		.byte	0x75
 1491 072a 00       		.sleb128 0
 1492 072b 00       		.byte	0
 1493 072c 22       		.uleb128 0x22
 1494 072d 64000000 		.4byte	.LVL8
 1495 0731 CA080000 		.4byte	0x8ca
 1496 0735 25       		.uleb128 0x25
 1497 0736 7E000000 		.4byte	.LVL10
 1498 073a D1080000 		.4byte	0x8d1
 1499 073e 24       		.uleb128 0x24
 1500 073f 01       		.uleb128 0x1
 1501 0740 51       		.byte	0x51
 1502 0741 05       		.uleb128 0x5
 1503 0742 03       		.byte	0x3
 1504 0743 08000000 		.4byte	.LC1
 1505 0747 24       		.uleb128 0x24
 1506 0748 01       		.uleb128 0x1
 1507 0749 50       		.byte	0x50
 1508 074a 05       		.uleb128 0x5
 1509 074b 03       		.byte	0x3
 1510 074c 00000000 		.4byte	.LC0
 1511 0750 00       		.byte	0
 1512 0751 00       		.byte	0
 1513 0752 26       		.uleb128 0x26
 1514 0753 3A000000 		.4byte	.LVL0
 1515 0757 F1080000 		.4byte	0x8f1
 1516 075b 24       		.uleb128 0x24
 1517 075c 01       		.uleb128 0x1
 1518 075d 53       		.byte	0x53
ARM GAS  /tmp/cca0jqD2.s 			page 52


 1519 075e 05       		.uleb128 0x5
 1520 075f 03       		.byte	0x3
 1521 0760 00000000 		.4byte	msg_thread1
 1522 0764 24       		.uleb128 0x24
 1523 0765 01       		.uleb128 0x1
 1524 0766 51       		.byte	0x51
 1525 0767 03       		.uleb128 0x3
 1526 0768 0A       		.byte	0xa
 1527 0769 4801     		.2byte	0x148
 1528 076b 00       		.byte	0
 1529 076c 00       		.byte	0
 1530 076d 1C       		.uleb128 0x1c
 1531 076e 52000000 		.4byte	.LASF97
 1532 0772 01       		.byte	0x1
 1533 0773 32       		.byte	0x32
 1534 0774 00000000 		.4byte	.LFB217
 1535 0778 26000000 		.4byte	.LFE217-.LFB217
 1536 077c 01       		.uleb128 0x1
 1537 077d 9C       		.byte	0x9c
 1538 077e F5070000 		.4byte	0x7f5
 1539 0782 27       		.uleb128 0x27
 1540 0783 7000     		.ascii	"p\000"
 1541 0785 01       		.byte	0x1
 1542 0786 32       		.byte	0x32
 1543 0787 E1020000 		.4byte	0x2e1
 1544 078b 54000000 		.4byte	.LLST2
 1545 078f 23       		.uleb128 0x23
 1546 0790 0A000000 		.4byte	.LVL12
 1547 0794 1A090000 		.4byte	0x91a
 1548 0798 A9070000 		.4byte	0x7a9
 1549 079c 24       		.uleb128 0x24
 1550 079d 01       		.uleb128 0x1
 1551 079e 51       		.byte	0x51
 1552 079f 02       		.uleb128 0x2
 1553 07a0 08       		.byte	0x8
 1554 07a1 41       		.byte	0x41
 1555 07a2 24       		.uleb128 0x24
 1556 07a3 01       		.uleb128 0x1
 1557 07a4 50       		.byte	0x50
 1558 07a5 02       		.uleb128 0x2
 1559 07a6 74       		.byte	0x74
 1560 07a7 00       		.sleb128 0
 1561 07a8 00       		.byte	0
 1562 07a9 23       		.uleb128 0x23
 1563 07aa 12000000 		.4byte	.LVL13
 1564 07ae 1A090000 		.4byte	0x91a
 1565 07b2 C3070000 		.4byte	0x7c3
 1566 07b6 24       		.uleb128 0x24
 1567 07b7 01       		.uleb128 0x1
 1568 07b8 51       		.byte	0x51
 1569 07b9 02       		.uleb128 0x2
 1570 07ba 08       		.byte	0x8
 1571 07bb 42       		.byte	0x42
 1572 07bc 24       		.uleb128 0x24
 1573 07bd 01       		.uleb128 0x1
 1574 07be 50       		.byte	0x50
 1575 07bf 02       		.uleb128 0x2
ARM GAS  /tmp/cca0jqD2.s 			page 53


 1576 07c0 74       		.byte	0x74
 1577 07c1 00       		.sleb128 0
 1578 07c2 00       		.byte	0
 1579 07c3 23       		.uleb128 0x23
 1580 07c4 1A000000 		.4byte	.LVL14
 1581 07c8 1A090000 		.4byte	0x91a
 1582 07cc DD070000 		.4byte	0x7dd
 1583 07d0 24       		.uleb128 0x24
 1584 07d1 01       		.uleb128 0x1
 1585 07d2 51       		.byte	0x51
 1586 07d3 02       		.uleb128 0x2
 1587 07d4 08       		.byte	0x8
 1588 07d5 43       		.byte	0x43
 1589 07d6 24       		.uleb128 0x24
 1590 07d7 01       		.uleb128 0x1
 1591 07d8 50       		.byte	0x50
 1592 07d9 02       		.uleb128 0x2
 1593 07da 74       		.byte	0x74
 1594 07db 00       		.sleb128 0
 1595 07dc 00       		.byte	0
 1596 07dd 25       		.uleb128 0x25
 1597 07de 26000000 		.4byte	.LVL16
 1598 07e2 1A090000 		.4byte	0x91a
 1599 07e6 24       		.uleb128 0x24
 1600 07e7 01       		.uleb128 0x1
 1601 07e8 51       		.byte	0x51
 1602 07e9 02       		.uleb128 0x2
 1603 07ea 08       		.byte	0x8
 1604 07eb 44       		.byte	0x44
 1605 07ec 24       		.uleb128 0x24
 1606 07ed 01       		.uleb128 0x1
 1607 07ee 50       		.byte	0x50
 1608 07ef 03       		.uleb128 0x3
 1609 07f0 F3       		.byte	0xf3
 1610 07f1 01       		.uleb128 0x1
 1611 07f2 50       		.byte	0x50
 1612 07f3 00       		.byte	0
 1613 07f4 00       		.byte	0
 1614 07f5 28       		.uleb128 0x28
 1615 07f6 E4000000 		.4byte	.LASF98
 1616 07fa 01       		.byte	0x1
 1617 07fb 68       		.byte	0x68
 1618 07fc 06080000 		.4byte	0x806
 1619 0800 05       		.uleb128 0x5
 1620 0801 03       		.byte	0x3
 1621 0802 00000000 		.4byte	test_007_001
 1622 0806 13       		.uleb128 0x13
 1623 0807 31060000 		.4byte	0x631
 1624 080b 29       		.uleb128 0x29
 1625 080c A7000000 		.4byte	.LASF99
 1626 0810 0E       		.byte	0xe
 1627 0811 9606     		.2byte	0x696
 1628 0813 17080000 		.4byte	0x817
 1629 0817 14       		.uleb128 0x14
 1630 0818 70000000 		.4byte	0x70
 1631 081c 2A       		.uleb128 0x2a
 1632 081d 636800   		.ascii	"ch\000"
ARM GAS  /tmp/cca0jqD2.s 			page 54


 1633 0820 07       		.byte	0x7
 1634 0821 D201     		.2byte	0x1d2
 1635 0823 B0030000 		.4byte	0x3b0
 1636 0827 2B       		.uleb128 0x2b
 1637 0828 5B020000 		.4byte	.LASF100
 1638 082c 0D       		.byte	0xd
 1639 082d 9E       		.byte	0x9e
 1640 082e 37000000 		.4byte	0x37
 1641 0832 1A       		.uleb128 0x1a
 1642 0833 42080000 		.4byte	0x842
 1643 0837 42080000 		.4byte	0x842
 1644 083b 1B       		.uleb128 0x1b
 1645 083c 09040000 		.4byte	0x409
 1646 0840 01       		.byte	0x1
 1647 0841 00       		.byte	0
 1648 0842 0A       		.uleb128 0xa
 1649 0843 04       		.byte	0x4
 1650 0844 06080000 		.4byte	0x806
 1651 0848 2C       		.uleb128 0x2c
 1652 0849 7C050000 		.4byte	.LASF101
 1653 084d 01       		.byte	0x1
 1654 084e 76       		.byte	0x76
 1655 084f 59080000 		.4byte	0x859
 1656 0853 05       		.uleb128 0x5
 1657 0854 03       		.byte	0x3
 1658 0855 00000000 		.4byte	test_sequence_007
 1659 0859 13       		.uleb128 0x13
 1660 085a 32080000 		.4byte	0x832
 1661 085e 1A       		.uleb128 0x1a
 1662 085f 04020000 		.4byte	0x204
 1663 0863 6E080000 		.4byte	0x86e
 1664 0867 1B       		.uleb128 0x1b
 1665 0868 09040000 		.4byte	0x409
 1666 086c 04       		.byte	0x4
 1667 086d 00       		.byte	0
 1668 086e 2B       		.uleb128 0x2b
 1669 086f 2F040000 		.4byte	.LASF102
 1670 0873 0F       		.byte	0xf
 1671 0874 5C       		.byte	0x5c
 1672 0875 5E080000 		.4byte	0x85e
 1673 0879 1A       		.uleb128 0x1a
 1674 087a E1020000 		.4byte	0x2e1
 1675 087e 89080000 		.4byte	0x889
 1676 0882 1B       		.uleb128 0x1b
 1677 0883 09040000 		.4byte	0x409
 1678 0887 04       		.byte	0x4
 1679 0888 00       		.byte	0
 1680 0889 2D       		.uleb128 0x2d
 1681 088a 776100   		.ascii	"wa\000"
 1682 088d 0F       		.byte	0xf
 1683 088e 5D       		.byte	0x5d
 1684 088f 93080000 		.4byte	0x893
 1685 0893 13       		.uleb128 0x13
 1686 0894 79080000 		.4byte	0x879
 1687 0898 2E       		.uleb128 0x2e
 1688 0899 06050000 		.4byte	.LASF112
 1689 089d 10       		.byte	0x10
ARM GAS  /tmp/cca0jqD2.s 			page 55


 1690 089e 3D       		.byte	0x3d
 1691 089f 04020000 		.4byte	0x204
 1692 08a3 2F       		.uleb128 0x2f
 1693 08a4 59040000 		.4byte	.LASF103
 1694 08a8 10       		.byte	0x10
 1695 08a9 3E       		.byte	0x3e
 1696 08aa B9080000 		.4byte	0x8b9
 1697 08ae 0D       		.uleb128 0xd
 1698 08af 04020000 		.4byte	0x204
 1699 08b3 0D       		.uleb128 0xd
 1700 08b4 E4000000 		.4byte	0xe4
 1701 08b8 00       		.byte	0
 1702 08b9 2F       		.uleb128 0x2f
 1703 08ba F1000000 		.4byte	.LASF104
 1704 08be 0D       		.byte	0xd
 1705 08bf AE       		.byte	0xae
 1706 08c0 CA080000 		.4byte	0x8ca
 1707 08c4 0D       		.uleb128 0xd
 1708 08c5 B6050000 		.4byte	0x5b6
 1709 08c9 00       		.byte	0
 1710 08ca 30       		.uleb128 0x30
 1711 08cb 76020000 		.4byte	.LASF113
 1712 08cf 0F       		.byte	0xf
 1713 08d0 61       		.byte	0x61
 1714 08d1 31       		.uleb128 0x31
 1715 08d2 AD020000 		.4byte	.LASF105
 1716 08d6 0D       		.byte	0xd
 1717 08d7 A7       		.byte	0xa7
 1718 08d8 EA050000 		.4byte	0x5ea
 1719 08dc EB080000 		.4byte	0x8eb
 1720 08e0 0D       		.uleb128 0xd
 1721 08e1 EB080000 		.4byte	0x8eb
 1722 08e5 0D       		.uleb128 0xd
 1723 08e6 AB050000 		.4byte	0x5ab
 1724 08ea 00       		.byte	0
 1725 08eb 0A       		.uleb128 0xa
 1726 08ec 04       		.byte	0x4
 1727 08ed B6050000 		.4byte	0x5b6
 1728 08f1 31       		.uleb128 0x31
 1729 08f2 0D020000 		.4byte	.LASF106
 1730 08f6 02       		.byte	0x2
 1731 08f7 F3       		.byte	0xf3
 1732 08f8 04020000 		.4byte	0x204
 1733 08fc 1A090000 		.4byte	0x91a
 1734 0900 0D       		.uleb128 0xd
 1735 0901 E1020000 		.4byte	0x2e1
 1736 0905 0D       		.uleb128 0xd
 1737 0906 2C000000 		.4byte	0x2c
 1738 090a 0D       		.uleb128 0xd
 1739 090b D9000000 		.4byte	0xd9
 1740 090f 0D       		.uleb128 0xd
 1741 0910 CE050000 		.4byte	0x5ce
 1742 0914 0D       		.uleb128 0xd
 1743 0915 E1020000 		.4byte	0x2e1
 1744 0919 00       		.byte	0
 1745 091a 32       		.uleb128 0x32
 1746 091b 20010000 		.4byte	.LASF107
ARM GAS  /tmp/cca0jqD2.s 			page 56


 1747 091f 10       		.byte	0x10
 1748 0920 3C       		.byte	0x3c
 1749 0921 E4000000 		.4byte	0xe4
 1750 0925 0D       		.uleb128 0xd
 1751 0926 04020000 		.4byte	0x204
 1752 092a 0D       		.uleb128 0xd
 1753 092b E4000000 		.4byte	0xe4
 1754 092f 00       		.byte	0
 1755 0930 00       		.byte	0
 1756              		.section	.debug_abbrev,"",%progbits
 1757              	.Ldebug_abbrev0:
 1758 0000 01       		.uleb128 0x1
 1759 0001 11       		.uleb128 0x11
 1760 0002 01       		.byte	0x1
 1761 0003 25       		.uleb128 0x25
 1762 0004 0E       		.uleb128 0xe
 1763 0005 13       		.uleb128 0x13
 1764 0006 0B       		.uleb128 0xb
 1765 0007 03       		.uleb128 0x3
 1766 0008 0E       		.uleb128 0xe
 1767 0009 1B       		.uleb128 0x1b
 1768 000a 0E       		.uleb128 0xe
 1769 000b 55       		.uleb128 0x55
 1770 000c 17       		.uleb128 0x17
 1771 000d 11       		.uleb128 0x11
 1772 000e 01       		.uleb128 0x1
 1773 000f 10       		.uleb128 0x10
 1774 0010 17       		.uleb128 0x17
 1775 0011 00       		.byte	0
 1776 0012 00       		.byte	0
 1777 0013 02       		.uleb128 0x2
 1778 0014 24       		.uleb128 0x24
 1779 0015 00       		.byte	0
 1780 0016 0B       		.uleb128 0xb
 1781 0017 0B       		.uleb128 0xb
 1782 0018 3E       		.uleb128 0x3e
 1783 0019 0B       		.uleb128 0xb
 1784 001a 03       		.uleb128 0x3
 1785 001b 08       		.uleb128 0x8
 1786 001c 00       		.byte	0
 1787 001d 00       		.byte	0
 1788 001e 03       		.uleb128 0x3
 1789 001f 16       		.uleb128 0x16
 1790 0020 00       		.byte	0
 1791 0021 03       		.uleb128 0x3
 1792 0022 0E       		.uleb128 0xe
 1793 0023 3A       		.uleb128 0x3a
 1794 0024 0B       		.uleb128 0xb
 1795 0025 3B       		.uleb128 0x3b
 1796 0026 0B       		.uleb128 0xb
 1797 0027 49       		.uleb128 0x49
 1798 0028 13       		.uleb128 0x13
 1799 0029 00       		.byte	0
 1800 002a 00       		.byte	0
 1801 002b 04       		.uleb128 0x4
 1802 002c 24       		.uleb128 0x24
 1803 002d 00       		.byte	0
ARM GAS  /tmp/cca0jqD2.s 			page 57


 1804 002e 0B       		.uleb128 0xb
 1805 002f 0B       		.uleb128 0xb
 1806 0030 3E       		.uleb128 0x3e
 1807 0031 0B       		.uleb128 0xb
 1808 0032 03       		.uleb128 0x3
 1809 0033 0E       		.uleb128 0xe
 1810 0034 00       		.byte	0
 1811 0035 00       		.byte	0
 1812 0036 05       		.uleb128 0x5
 1813 0037 13       		.uleb128 0x13
 1814 0038 01       		.byte	0x1
 1815 0039 03       		.uleb128 0x3
 1816 003a 0E       		.uleb128 0xe
 1817 003b 0B       		.uleb128 0xb
 1818 003c 0B       		.uleb128 0xb
 1819 003d 3A       		.uleb128 0x3a
 1820 003e 0B       		.uleb128 0xb
 1821 003f 3B       		.uleb128 0x3b
 1822 0040 0B       		.uleb128 0xb
 1823 0041 01       		.uleb128 0x1
 1824 0042 13       		.uleb128 0x13
 1825 0043 00       		.byte	0
 1826 0044 00       		.byte	0
 1827 0045 06       		.uleb128 0x6
 1828 0046 0D       		.uleb128 0xd
 1829 0047 00       		.byte	0
 1830 0048 03       		.uleb128 0x3
 1831 0049 0E       		.uleb128 0xe
 1832 004a 3A       		.uleb128 0x3a
 1833 004b 0B       		.uleb128 0xb
 1834 004c 3B       		.uleb128 0x3b
 1835 004d 0B       		.uleb128 0xb
 1836 004e 49       		.uleb128 0x49
 1837 004f 13       		.uleb128 0x13
 1838 0050 38       		.uleb128 0x38
 1839 0051 0B       		.uleb128 0xb
 1840 0052 00       		.byte	0
 1841 0053 00       		.byte	0
 1842 0054 07       		.uleb128 0x7
 1843 0055 0D       		.uleb128 0xd
 1844 0056 00       		.byte	0
 1845 0057 03       		.uleb128 0x3
 1846 0058 08       		.uleb128 0x8
 1847 0059 3A       		.uleb128 0x3a
 1848 005a 0B       		.uleb128 0xb
 1849 005b 3B       		.uleb128 0x3b
 1850 005c 0B       		.uleb128 0xb
 1851 005d 49       		.uleb128 0x49
 1852 005e 13       		.uleb128 0x13
 1853 005f 38       		.uleb128 0x38
 1854 0060 0B       		.uleb128 0xb
 1855 0061 00       		.byte	0
 1856 0062 00       		.byte	0
 1857 0063 08       		.uleb128 0x8
 1858 0064 0D       		.uleb128 0xd
 1859 0065 00       		.byte	0
 1860 0066 03       		.uleb128 0x3
ARM GAS  /tmp/cca0jqD2.s 			page 58


 1861 0067 08       		.uleb128 0x8
 1862 0068 3A       		.uleb128 0x3a
 1863 0069 0B       		.uleb128 0xb
 1864 006a 3B       		.uleb128 0x3b
 1865 006b 05       		.uleb128 0x5
 1866 006c 49       		.uleb128 0x49
 1867 006d 13       		.uleb128 0x13
 1868 006e 38       		.uleb128 0x38
 1869 006f 0B       		.uleb128 0xb
 1870 0070 00       		.byte	0
 1871 0071 00       		.byte	0
 1872 0072 09       		.uleb128 0x9
 1873 0073 0D       		.uleb128 0xd
 1874 0074 00       		.byte	0
 1875 0075 03       		.uleb128 0x3
 1876 0076 0E       		.uleb128 0xe
 1877 0077 3A       		.uleb128 0x3a
 1878 0078 0B       		.uleb128 0xb
 1879 0079 3B       		.uleb128 0x3b
 1880 007a 05       		.uleb128 0x5
 1881 007b 49       		.uleb128 0x49
 1882 007c 13       		.uleb128 0x13
 1883 007d 38       		.uleb128 0x38
 1884 007e 0B       		.uleb128 0xb
 1885 007f 00       		.byte	0
 1886 0080 00       		.byte	0
 1887 0081 0A       		.uleb128 0xa
 1888 0082 0F       		.uleb128 0xf
 1889 0083 00       		.byte	0
 1890 0084 0B       		.uleb128 0xb
 1891 0085 0B       		.uleb128 0xb
 1892 0086 49       		.uleb128 0x49
 1893 0087 13       		.uleb128 0x13
 1894 0088 00       		.byte	0
 1895 0089 00       		.byte	0
 1896 008a 0B       		.uleb128 0xb
 1897 008b 13       		.uleb128 0x13
 1898 008c 01       		.byte	0x1
 1899 008d 03       		.uleb128 0x3
 1900 008e 0E       		.uleb128 0xe
 1901 008f 0B       		.uleb128 0xb
 1902 0090 0B       		.uleb128 0xb
 1903 0091 3A       		.uleb128 0x3a
 1904 0092 0B       		.uleb128 0xb
 1905 0093 3B       		.uleb128 0x3b
 1906 0094 05       		.uleb128 0x5
 1907 0095 01       		.uleb128 0x1
 1908 0096 13       		.uleb128 0x13
 1909 0097 00       		.byte	0
 1910 0098 00       		.byte	0
 1911 0099 0C       		.uleb128 0xc
 1912 009a 15       		.uleb128 0x15
 1913 009b 01       		.byte	0x1
 1914 009c 27       		.uleb128 0x27
 1915 009d 19       		.uleb128 0x19
 1916 009e 01       		.uleb128 0x1
 1917 009f 13       		.uleb128 0x13
ARM GAS  /tmp/cca0jqD2.s 			page 59


 1918 00a0 00       		.byte	0
 1919 00a1 00       		.byte	0
 1920 00a2 0D       		.uleb128 0xd
 1921 00a3 05       		.uleb128 0x5
 1922 00a4 00       		.byte	0
 1923 00a5 49       		.uleb128 0x49
 1924 00a6 13       		.uleb128 0x13
 1925 00a7 00       		.byte	0
 1926 00a8 00       		.byte	0
 1927 00a9 0E       		.uleb128 0xe
 1928 00aa 0F       		.uleb128 0xf
 1929 00ab 00       		.byte	0
 1930 00ac 0B       		.uleb128 0xb
 1931 00ad 0B       		.uleb128 0xb
 1932 00ae 00       		.byte	0
 1933 00af 00       		.byte	0
 1934 00b0 0F       		.uleb128 0xf
 1935 00b1 13       		.uleb128 0x13
 1936 00b2 01       		.byte	0x1
 1937 00b3 0B       		.uleb128 0xb
 1938 00b4 0B       		.uleb128 0xb
 1939 00b5 3A       		.uleb128 0x3a
 1940 00b6 0B       		.uleb128 0xb
 1941 00b7 3B       		.uleb128 0x3b
 1942 00b8 0B       		.uleb128 0xb
 1943 00b9 01       		.uleb128 0x1
 1944 00ba 13       		.uleb128 0x13
 1945 00bb 00       		.byte	0
 1946 00bc 00       		.byte	0
 1947 00bd 10       		.uleb128 0x10
 1948 00be 17       		.uleb128 0x17
 1949 00bf 01       		.byte	0x1
 1950 00c0 0B       		.uleb128 0xb
 1951 00c1 0B       		.uleb128 0xb
 1952 00c2 3A       		.uleb128 0x3a
 1953 00c3 0B       		.uleb128 0xb
 1954 00c4 3B       		.uleb128 0x3b
 1955 00c5 0B       		.uleb128 0xb
 1956 00c6 01       		.uleb128 0x1
 1957 00c7 13       		.uleb128 0x13
 1958 00c8 00       		.byte	0
 1959 00c9 00       		.byte	0
 1960 00ca 11       		.uleb128 0x11
 1961 00cb 0D       		.uleb128 0xd
 1962 00cc 00       		.byte	0
 1963 00cd 03       		.uleb128 0x3
 1964 00ce 0E       		.uleb128 0xe
 1965 00cf 3A       		.uleb128 0x3a
 1966 00d0 0B       		.uleb128 0xb
 1967 00d1 3B       		.uleb128 0x3b
 1968 00d2 0B       		.uleb128 0xb
 1969 00d3 49       		.uleb128 0x49
 1970 00d4 13       		.uleb128 0x13
 1971 00d5 00       		.byte	0
 1972 00d6 00       		.byte	0
 1973 00d7 12       		.uleb128 0x12
 1974 00d8 0D       		.uleb128 0xd
ARM GAS  /tmp/cca0jqD2.s 			page 60


 1975 00d9 00       		.byte	0
 1976 00da 03       		.uleb128 0x3
 1977 00db 0E       		.uleb128 0xe
 1978 00dc 3A       		.uleb128 0x3a
 1979 00dd 0B       		.uleb128 0xb
 1980 00de 3B       		.uleb128 0x3b
 1981 00df 05       		.uleb128 0x5
 1982 00e0 49       		.uleb128 0x49
 1983 00e1 13       		.uleb128 0x13
 1984 00e2 00       		.byte	0
 1985 00e3 00       		.byte	0
 1986 00e4 13       		.uleb128 0x13
 1987 00e5 26       		.uleb128 0x26
 1988 00e6 00       		.byte	0
 1989 00e7 49       		.uleb128 0x49
 1990 00e8 13       		.uleb128 0x13
 1991 00e9 00       		.byte	0
 1992 00ea 00       		.byte	0
 1993 00eb 14       		.uleb128 0x14
 1994 00ec 35       		.uleb128 0x35
 1995 00ed 00       		.byte	0
 1996 00ee 49       		.uleb128 0x49
 1997 00ef 13       		.uleb128 0x13
 1998 00f0 00       		.byte	0
 1999 00f1 00       		.byte	0
 2000 00f2 15       		.uleb128 0x15
 2001 00f3 15       		.uleb128 0x15
 2002 00f4 00       		.byte	0
 2003 00f5 27       		.uleb128 0x27
 2004 00f6 19       		.uleb128 0x19
 2005 00f7 00       		.byte	0
 2006 00f8 00       		.byte	0
 2007 00f9 16       		.uleb128 0x16
 2008 00fa 2E       		.uleb128 0x2e
 2009 00fb 00       		.byte	0
 2010 00fc 03       		.uleb128 0x3
 2011 00fd 0E       		.uleb128 0xe
 2012 00fe 3A       		.uleb128 0x3a
 2013 00ff 0B       		.uleb128 0xb
 2014 0100 3B       		.uleb128 0x3b
 2015 0101 05       		.uleb128 0x5
 2016 0102 27       		.uleb128 0x27
 2017 0103 19       		.uleb128 0x19
 2018 0104 49       		.uleb128 0x49
 2019 0105 13       		.uleb128 0x13
 2020 0106 20       		.uleb128 0x20
 2021 0107 0B       		.uleb128 0xb
 2022 0108 00       		.byte	0
 2023 0109 00       		.byte	0
 2024 010a 17       		.uleb128 0x17
 2025 010b 2E       		.uleb128 0x2e
 2026 010c 01       		.byte	0x1
 2027 010d 03       		.uleb128 0x3
 2028 010e 0E       		.uleb128 0xe
 2029 010f 3A       		.uleb128 0x3a
 2030 0110 0B       		.uleb128 0xb
 2031 0111 3B       		.uleb128 0x3b
ARM GAS  /tmp/cca0jqD2.s 			page 61


 2032 0112 0B       		.uleb128 0xb
 2033 0113 27       		.uleb128 0x27
 2034 0114 19       		.uleb128 0x19
 2035 0115 49       		.uleb128 0x49
 2036 0116 13       		.uleb128 0x13
 2037 0117 20       		.uleb128 0x20
 2038 0118 0B       		.uleb128 0xb
 2039 0119 01       		.uleb128 0x1
 2040 011a 13       		.uleb128 0x13
 2041 011b 00       		.byte	0
 2042 011c 00       		.byte	0
 2043 011d 18       		.uleb128 0x18
 2044 011e 05       		.uleb128 0x5
 2045 011f 00       		.byte	0
 2046 0120 03       		.uleb128 0x3
 2047 0121 08       		.uleb128 0x8
 2048 0122 3A       		.uleb128 0x3a
 2049 0123 0B       		.uleb128 0xb
 2050 0124 3B       		.uleb128 0x3b
 2051 0125 0B       		.uleb128 0xb
 2052 0126 49       		.uleb128 0x49
 2053 0127 13       		.uleb128 0x13
 2054 0128 00       		.byte	0
 2055 0129 00       		.byte	0
 2056 012a 19       		.uleb128 0x19
 2057 012b 34       		.uleb128 0x34
 2058 012c 00       		.byte	0
 2059 012d 03       		.uleb128 0x3
 2060 012e 0E       		.uleb128 0xe
 2061 012f 49       		.uleb128 0x49
 2062 0130 13       		.uleb128 0x13
 2063 0131 34       		.uleb128 0x34
 2064 0132 19       		.uleb128 0x19
 2065 0133 1C       		.uleb128 0x1c
 2066 0134 0E       		.uleb128 0xe
 2067 0135 00       		.byte	0
 2068 0136 00       		.byte	0
 2069 0137 1A       		.uleb128 0x1a
 2070 0138 01       		.uleb128 0x1
 2071 0139 01       		.byte	0x1
 2072 013a 49       		.uleb128 0x49
 2073 013b 13       		.uleb128 0x13
 2074 013c 01       		.uleb128 0x1
 2075 013d 13       		.uleb128 0x13
 2076 013e 00       		.byte	0
 2077 013f 00       		.byte	0
 2078 0140 1B       		.uleb128 0x1b
 2079 0141 21       		.uleb128 0x21
 2080 0142 00       		.byte	0
 2081 0143 49       		.uleb128 0x49
 2082 0144 13       		.uleb128 0x13
 2083 0145 2F       		.uleb128 0x2f
 2084 0146 0B       		.uleb128 0xb
 2085 0147 00       		.byte	0
 2086 0148 00       		.byte	0
 2087 0149 1C       		.uleb128 0x1c
 2088 014a 2E       		.uleb128 0x2e
ARM GAS  /tmp/cca0jqD2.s 			page 62


 2089 014b 01       		.byte	0x1
 2090 014c 03       		.uleb128 0x3
 2091 014d 0E       		.uleb128 0xe
 2092 014e 3A       		.uleb128 0x3a
 2093 014f 0B       		.uleb128 0xb
 2094 0150 3B       		.uleb128 0x3b
 2095 0151 0B       		.uleb128 0xb
 2096 0152 27       		.uleb128 0x27
 2097 0153 19       		.uleb128 0x19
 2098 0154 11       		.uleb128 0x11
 2099 0155 01       		.uleb128 0x1
 2100 0156 12       		.uleb128 0x12
 2101 0157 06       		.uleb128 0x6
 2102 0158 40       		.uleb128 0x40
 2103 0159 18       		.uleb128 0x18
 2104 015a 9742     		.uleb128 0x2117
 2105 015c 19       		.uleb128 0x19
 2106 015d 01       		.uleb128 0x1
 2107 015e 13       		.uleb128 0x13
 2108 015f 00       		.byte	0
 2109 0160 00       		.byte	0
 2110 0161 1D       		.uleb128 0x1d
 2111 0162 34       		.uleb128 0x34
 2112 0163 00       		.byte	0
 2113 0164 03       		.uleb128 0x3
 2114 0165 08       		.uleb128 0x8
 2115 0166 3A       		.uleb128 0x3a
 2116 0167 0B       		.uleb128 0xb
 2117 0168 3B       		.uleb128 0x3b
 2118 0169 0B       		.uleb128 0xb
 2119 016a 49       		.uleb128 0x49
 2120 016b 13       		.uleb128 0x13
 2121 016c 02       		.uleb128 0x2
 2122 016d 17       		.uleb128 0x17
 2123 016e 00       		.byte	0
 2124 016f 00       		.byte	0
 2125 0170 1E       		.uleb128 0x1e
 2126 0171 34       		.uleb128 0x34
 2127 0172 00       		.byte	0
 2128 0173 03       		.uleb128 0x3
 2129 0174 08       		.uleb128 0x8
 2130 0175 3A       		.uleb128 0x3a
 2131 0176 0B       		.uleb128 0xb
 2132 0177 3B       		.uleb128 0x3b
 2133 0178 0B       		.uleb128 0xb
 2134 0179 49       		.uleb128 0x49
 2135 017a 13       		.uleb128 0x13
 2136 017b 00       		.byte	0
 2137 017c 00       		.byte	0
 2138 017d 1F       		.uleb128 0x1f
 2139 017e 1D       		.uleb128 0x1d
 2140 017f 01       		.byte	0x1
 2141 0180 31       		.uleb128 0x31
 2142 0181 13       		.uleb128 0x13
 2143 0182 11       		.uleb128 0x11
 2144 0183 01       		.uleb128 0x1
 2145 0184 12       		.uleb128 0x12
ARM GAS  /tmp/cca0jqD2.s 			page 63


 2146 0185 06       		.uleb128 0x6
 2147 0186 58       		.uleb128 0x58
 2148 0187 0B       		.uleb128 0xb
 2149 0188 59       		.uleb128 0x59
 2150 0189 0B       		.uleb128 0xb
 2151 018a 01       		.uleb128 0x1
 2152 018b 13       		.uleb128 0x13
 2153 018c 00       		.byte	0
 2154 018d 00       		.byte	0
 2155 018e 20       		.uleb128 0x20
 2156 018f 1D       		.uleb128 0x1d
 2157 0190 00       		.byte	0
 2158 0191 31       		.uleb128 0x31
 2159 0192 13       		.uleb128 0x13
 2160 0193 11       		.uleb128 0x11
 2161 0194 01       		.uleb128 0x1
 2162 0195 12       		.uleb128 0x12
 2163 0196 06       		.uleb128 0x6
 2164 0197 58       		.uleb128 0x58
 2165 0198 0B       		.uleb128 0xb
 2166 0199 59       		.uleb128 0x59
 2167 019a 05       		.uleb128 0x5
 2168 019b 00       		.byte	0
 2169 019c 00       		.byte	0
 2170 019d 21       		.uleb128 0x21
 2171 019e 0B       		.uleb128 0xb
 2172 019f 01       		.byte	0x1
 2173 01a0 55       		.uleb128 0x55
 2174 01a1 17       		.uleb128 0x17
 2175 01a2 01       		.uleb128 0x1
 2176 01a3 13       		.uleb128 0x13
 2177 01a4 00       		.byte	0
 2178 01a5 00       		.byte	0
 2179 01a6 22       		.uleb128 0x22
 2180 01a7 898201   		.uleb128 0x4109
 2181 01aa 00       		.byte	0
 2182 01ab 11       		.uleb128 0x11
 2183 01ac 01       		.uleb128 0x1
 2184 01ad 31       		.uleb128 0x31
 2185 01ae 13       		.uleb128 0x13
 2186 01af 00       		.byte	0
 2187 01b0 00       		.byte	0
 2188 01b1 23       		.uleb128 0x23
 2189 01b2 898201   		.uleb128 0x4109
 2190 01b5 01       		.byte	0x1
 2191 01b6 11       		.uleb128 0x11
 2192 01b7 01       		.uleb128 0x1
 2193 01b8 31       		.uleb128 0x31
 2194 01b9 13       		.uleb128 0x13
 2195 01ba 01       		.uleb128 0x1
 2196 01bb 13       		.uleb128 0x13
 2197 01bc 00       		.byte	0
 2198 01bd 00       		.byte	0
 2199 01be 24       		.uleb128 0x24
 2200 01bf 8A8201   		.uleb128 0x410a
 2201 01c2 00       		.byte	0
 2202 01c3 02       		.uleb128 0x2
ARM GAS  /tmp/cca0jqD2.s 			page 64


 2203 01c4 18       		.uleb128 0x18
 2204 01c5 9142     		.uleb128 0x2111
 2205 01c7 18       		.uleb128 0x18
 2206 01c8 00       		.byte	0
 2207 01c9 00       		.byte	0
 2208 01ca 25       		.uleb128 0x25
 2209 01cb 898201   		.uleb128 0x4109
 2210 01ce 01       		.byte	0x1
 2211 01cf 11       		.uleb128 0x11
 2212 01d0 01       		.uleb128 0x1
 2213 01d1 9542     		.uleb128 0x2115
 2214 01d3 19       		.uleb128 0x19
 2215 01d4 31       		.uleb128 0x31
 2216 01d5 13       		.uleb128 0x13
 2217 01d6 00       		.byte	0
 2218 01d7 00       		.byte	0
 2219 01d8 26       		.uleb128 0x26
 2220 01d9 898201   		.uleb128 0x4109
 2221 01dc 01       		.byte	0x1
 2222 01dd 11       		.uleb128 0x11
 2223 01de 01       		.uleb128 0x1
 2224 01df 31       		.uleb128 0x31
 2225 01e0 13       		.uleb128 0x13
 2226 01e1 00       		.byte	0
 2227 01e2 00       		.byte	0
 2228 01e3 27       		.uleb128 0x27
 2229 01e4 05       		.uleb128 0x5
 2230 01e5 00       		.byte	0
 2231 01e6 03       		.uleb128 0x3
 2232 01e7 08       		.uleb128 0x8
 2233 01e8 3A       		.uleb128 0x3a
 2234 01e9 0B       		.uleb128 0xb
 2235 01ea 3B       		.uleb128 0x3b
 2236 01eb 0B       		.uleb128 0xb
 2237 01ec 49       		.uleb128 0x49
 2238 01ed 13       		.uleb128 0x13
 2239 01ee 02       		.uleb128 0x2
 2240 01ef 17       		.uleb128 0x17
 2241 01f0 00       		.byte	0
 2242 01f1 00       		.byte	0
 2243 01f2 28       		.uleb128 0x28
 2244 01f3 34       		.uleb128 0x34
 2245 01f4 00       		.byte	0
 2246 01f5 03       		.uleb128 0x3
 2247 01f6 0E       		.uleb128 0xe
 2248 01f7 3A       		.uleb128 0x3a
 2249 01f8 0B       		.uleb128 0xb
 2250 01f9 3B       		.uleb128 0x3b
 2251 01fa 0B       		.uleb128 0xb
 2252 01fb 49       		.uleb128 0x49
 2253 01fc 13       		.uleb128 0x13
 2254 01fd 02       		.uleb128 0x2
 2255 01fe 18       		.uleb128 0x18
 2256 01ff 00       		.byte	0
 2257 0200 00       		.byte	0
 2258 0201 29       		.uleb128 0x29
 2259 0202 34       		.uleb128 0x34
ARM GAS  /tmp/cca0jqD2.s 			page 65


 2260 0203 00       		.byte	0
 2261 0204 03       		.uleb128 0x3
 2262 0205 0E       		.uleb128 0xe
 2263 0206 3A       		.uleb128 0x3a
 2264 0207 0B       		.uleb128 0xb
 2265 0208 3B       		.uleb128 0x3b
 2266 0209 05       		.uleb128 0x5
 2267 020a 49       		.uleb128 0x49
 2268 020b 13       		.uleb128 0x13
 2269 020c 3F       		.uleb128 0x3f
 2270 020d 19       		.uleb128 0x19
 2271 020e 3C       		.uleb128 0x3c
 2272 020f 19       		.uleb128 0x19
 2273 0210 00       		.byte	0
 2274 0211 00       		.byte	0
 2275 0212 2A       		.uleb128 0x2a
 2276 0213 34       		.uleb128 0x34
 2277 0214 00       		.byte	0
 2278 0215 03       		.uleb128 0x3
 2279 0216 08       		.uleb128 0x8
 2280 0217 3A       		.uleb128 0x3a
 2281 0218 0B       		.uleb128 0xb
 2282 0219 3B       		.uleb128 0x3b
 2283 021a 05       		.uleb128 0x5
 2284 021b 49       		.uleb128 0x49
 2285 021c 13       		.uleb128 0x13
 2286 021d 3F       		.uleb128 0x3f
 2287 021e 19       		.uleb128 0x19
 2288 021f 3C       		.uleb128 0x3c
 2289 0220 19       		.uleb128 0x19
 2290 0221 00       		.byte	0
 2291 0222 00       		.byte	0
 2292 0223 2B       		.uleb128 0x2b
 2293 0224 34       		.uleb128 0x34
 2294 0225 00       		.byte	0
 2295 0226 03       		.uleb128 0x3
 2296 0227 0E       		.uleb128 0xe
 2297 0228 3A       		.uleb128 0x3a
 2298 0229 0B       		.uleb128 0xb
 2299 022a 3B       		.uleb128 0x3b
 2300 022b 0B       		.uleb128 0xb
 2301 022c 49       		.uleb128 0x49
 2302 022d 13       		.uleb128 0x13
 2303 022e 3F       		.uleb128 0x3f
 2304 022f 19       		.uleb128 0x19
 2305 0230 3C       		.uleb128 0x3c
 2306 0231 19       		.uleb128 0x19
 2307 0232 00       		.byte	0
 2308 0233 00       		.byte	0
 2309 0234 2C       		.uleb128 0x2c
 2310 0235 34       		.uleb128 0x34
 2311 0236 00       		.byte	0
 2312 0237 03       		.uleb128 0x3
 2313 0238 0E       		.uleb128 0xe
 2314 0239 3A       		.uleb128 0x3a
 2315 023a 0B       		.uleb128 0xb
 2316 023b 3B       		.uleb128 0x3b
ARM GAS  /tmp/cca0jqD2.s 			page 66


 2317 023c 0B       		.uleb128 0xb
 2318 023d 49       		.uleb128 0x49
 2319 023e 13       		.uleb128 0x13
 2320 023f 3F       		.uleb128 0x3f
 2321 0240 19       		.uleb128 0x19
 2322 0241 02       		.uleb128 0x2
 2323 0242 18       		.uleb128 0x18
 2324 0243 00       		.byte	0
 2325 0244 00       		.byte	0
 2326 0245 2D       		.uleb128 0x2d
 2327 0246 34       		.uleb128 0x34
 2328 0247 00       		.byte	0
 2329 0248 03       		.uleb128 0x3
 2330 0249 08       		.uleb128 0x8
 2331 024a 3A       		.uleb128 0x3a
 2332 024b 0B       		.uleb128 0xb
 2333 024c 3B       		.uleb128 0x3b
 2334 024d 0B       		.uleb128 0xb
 2335 024e 49       		.uleb128 0x49
 2336 024f 13       		.uleb128 0x13
 2337 0250 3F       		.uleb128 0x3f
 2338 0251 19       		.uleb128 0x19
 2339 0252 3C       		.uleb128 0x3c
 2340 0253 19       		.uleb128 0x19
 2341 0254 00       		.byte	0
 2342 0255 00       		.byte	0
 2343 0256 2E       		.uleb128 0x2e
 2344 0257 2E       		.uleb128 0x2e
 2345 0258 00       		.byte	0
 2346 0259 3F       		.uleb128 0x3f
 2347 025a 19       		.uleb128 0x19
 2348 025b 03       		.uleb128 0x3
 2349 025c 0E       		.uleb128 0xe
 2350 025d 3A       		.uleb128 0x3a
 2351 025e 0B       		.uleb128 0xb
 2352 025f 3B       		.uleb128 0x3b
 2353 0260 0B       		.uleb128 0xb
 2354 0261 27       		.uleb128 0x27
 2355 0262 19       		.uleb128 0x19
 2356 0263 49       		.uleb128 0x49
 2357 0264 13       		.uleb128 0x13
 2358 0265 3C       		.uleb128 0x3c
 2359 0266 19       		.uleb128 0x19
 2360 0267 00       		.byte	0
 2361 0268 00       		.byte	0
 2362 0269 2F       		.uleb128 0x2f
 2363 026a 2E       		.uleb128 0x2e
 2364 026b 01       		.byte	0x1
 2365 026c 3F       		.uleb128 0x3f
 2366 026d 19       		.uleb128 0x19
 2367 026e 03       		.uleb128 0x3
 2368 026f 0E       		.uleb128 0xe
 2369 0270 3A       		.uleb128 0x3a
 2370 0271 0B       		.uleb128 0xb
 2371 0272 3B       		.uleb128 0x3b
 2372 0273 0B       		.uleb128 0xb
 2373 0274 27       		.uleb128 0x27
ARM GAS  /tmp/cca0jqD2.s 			page 67


 2374 0275 19       		.uleb128 0x19
 2375 0276 3C       		.uleb128 0x3c
 2376 0277 19       		.uleb128 0x19
 2377 0278 01       		.uleb128 0x1
 2378 0279 13       		.uleb128 0x13
 2379 027a 00       		.byte	0
 2380 027b 00       		.byte	0
 2381 027c 30       		.uleb128 0x30
 2382 027d 2E       		.uleb128 0x2e
 2383 027e 00       		.byte	0
 2384 027f 3F       		.uleb128 0x3f
 2385 0280 19       		.uleb128 0x19
 2386 0281 03       		.uleb128 0x3
 2387 0282 0E       		.uleb128 0xe
 2388 0283 3A       		.uleb128 0x3a
 2389 0284 0B       		.uleb128 0xb
 2390 0285 3B       		.uleb128 0x3b
 2391 0286 0B       		.uleb128 0xb
 2392 0287 27       		.uleb128 0x27
 2393 0288 19       		.uleb128 0x19
 2394 0289 3C       		.uleb128 0x3c
 2395 028a 19       		.uleb128 0x19
 2396 028b 00       		.byte	0
 2397 028c 00       		.byte	0
 2398 028d 31       		.uleb128 0x31
 2399 028e 2E       		.uleb128 0x2e
 2400 028f 01       		.byte	0x1
 2401 0290 3F       		.uleb128 0x3f
 2402 0291 19       		.uleb128 0x19
 2403 0292 03       		.uleb128 0x3
 2404 0293 0E       		.uleb128 0xe
 2405 0294 3A       		.uleb128 0x3a
 2406 0295 0B       		.uleb128 0xb
 2407 0296 3B       		.uleb128 0x3b
 2408 0297 0B       		.uleb128 0xb
 2409 0298 27       		.uleb128 0x27
 2410 0299 19       		.uleb128 0x19
 2411 029a 49       		.uleb128 0x49
 2412 029b 13       		.uleb128 0x13
 2413 029c 3C       		.uleb128 0x3c
 2414 029d 19       		.uleb128 0x19
 2415 029e 01       		.uleb128 0x1
 2416 029f 13       		.uleb128 0x13
 2417 02a0 00       		.byte	0
 2418 02a1 00       		.byte	0
 2419 02a2 32       		.uleb128 0x32
 2420 02a3 2E       		.uleb128 0x2e
 2421 02a4 01       		.byte	0x1
 2422 02a5 3F       		.uleb128 0x3f
 2423 02a6 19       		.uleb128 0x19
 2424 02a7 03       		.uleb128 0x3
 2425 02a8 0E       		.uleb128 0xe
 2426 02a9 3A       		.uleb128 0x3a
 2427 02aa 0B       		.uleb128 0xb
 2428 02ab 3B       		.uleb128 0x3b
 2429 02ac 0B       		.uleb128 0xb
 2430 02ad 27       		.uleb128 0x27
ARM GAS  /tmp/cca0jqD2.s 			page 68


 2431 02ae 19       		.uleb128 0x19
 2432 02af 49       		.uleb128 0x49
 2433 02b0 13       		.uleb128 0x13
 2434 02b1 3C       		.uleb128 0x3c
 2435 02b2 19       		.uleb128 0x19
 2436 02b3 00       		.byte	0
 2437 02b4 00       		.byte	0
 2438 02b5 00       		.byte	0
 2439              		.section	.debug_loc,"",%progbits
 2440              	.Ldebug_loc0:
 2441              	.LLST0:
 2442 0000 4E000000 		.4byte	.LVL3
 2443 0004 55000000 		.4byte	.LVL5-1
 2444 0008 0100     		.2byte	0x1
 2445 000a 50       		.byte	0x50
 2446 000b 00000000 		.4byte	0
 2447 000f 00000000 		.4byte	0
 2448              	.LLST1:
 2449 0013 46000000 		.4byte	.LVL1
 2450 0017 4A000000 		.4byte	.LVL2
 2451 001b 0200     		.2byte	0x2
 2452 001d 30       		.byte	0x30
 2453 001e 9F       		.byte	0x9f
 2454 001f 4A000000 		.4byte	.LVL2
 2455 0023 5C000000 		.4byte	.LVL6
 2456 0027 0500     		.2byte	0x5
 2457 0029 34       		.byte	0x34
 2458 002a 74       		.byte	0x74
 2459 002b 00       		.sleb128 0
 2460 002c 1C       		.byte	0x1c
 2461 002d 9F       		.byte	0x9f
 2462 002e 5C000000 		.4byte	.LVL6
 2463 0032 5E000000 		.4byte	.LVL7
 2464 0036 0500     		.2byte	0x5
 2465 0038 35       		.byte	0x35
 2466 0039 74       		.byte	0x74
 2467 003a 00       		.sleb128 0
 2468 003b 1C       		.byte	0x1c
 2469 003c 9F       		.byte	0x9f
 2470 003d 5E000000 		.4byte	.LVL7
 2471 0041 7A000000 		.4byte	.LVL9
 2472 0045 0500     		.2byte	0x5
 2473 0047 34       		.byte	0x34
 2474 0048 74       		.byte	0x74
 2475 0049 00       		.sleb128 0
 2476 004a 1C       		.byte	0x1c
 2477 004b 9F       		.byte	0x9f
 2478 004c 00000000 		.4byte	0
 2479 0050 00000000 		.4byte	0
 2480              	.LLST2:
 2481 0054 00000000 		.4byte	.LVL11
 2482 0058 09000000 		.4byte	.LVL12-1
 2483 005c 0100     		.2byte	0x1
 2484 005e 50       		.byte	0x50
 2485 005f 09000000 		.4byte	.LVL12-1
 2486 0063 22000000 		.4byte	.LVL15
 2487 0067 0100     		.2byte	0x1
ARM GAS  /tmp/cca0jqD2.s 			page 69


 2488 0069 54       		.byte	0x54
 2489 006a 22000000 		.4byte	.LVL15
 2490 006e 25000000 		.4byte	.LVL16-1
 2491 0072 0100     		.2byte	0x1
 2492 0074 50       		.byte	0x50
 2493 0075 25000000 		.4byte	.LVL16-1
 2494 0079 26000000 		.4byte	.LFE217
 2495 007d 0400     		.2byte	0x4
 2496 007f F3       		.byte	0xf3
 2497 0080 01       		.uleb128 0x1
 2498 0081 50       		.byte	0x50
 2499 0082 9F       		.byte	0x9f
 2500 0083 00000000 		.4byte	0
 2501 0087 00000000 		.4byte	0
 2502              		.section	.debug_aranges,"",%progbits
 2503 0000 24000000 		.4byte	0x24
 2504 0004 0200     		.2byte	0x2
 2505 0006 00000000 		.4byte	.Ldebug_info0
 2506 000a 04       		.byte	0x4
 2507 000b 00       		.byte	0
 2508 000c 0000     		.2byte	0
 2509 000e 0000     		.2byte	0
 2510 0010 00000000 		.4byte	.LFB218
 2511 0014 7E000000 		.4byte	.LFE218-.LFB218
 2512 0018 00000000 		.4byte	.LFB217
 2513 001c 26000000 		.4byte	.LFE217-.LFB217
 2514 0020 00000000 		.4byte	0
 2515 0024 00000000 		.4byte	0
 2516              		.section	.debug_ranges,"",%progbits
 2517              	.Ldebug_ranges0:
 2518 0000 4A000000 		.4byte	.LBB17
 2519 0004 4E000000 		.4byte	.LBE17
 2520 0008 50000000 		.4byte	.LBB18
 2521 000c 74000000 		.4byte	.LBE18
 2522 0010 7A000000 		.4byte	.LBB19
 2523 0014 7E000000 		.4byte	.LBE19
 2524 0018 00000000 		.4byte	0
 2525 001c 00000000 		.4byte	0
 2526 0020 00000000 		.4byte	.LFB218
 2527 0024 7E000000 		.4byte	.LFE218
 2528 0028 00000000 		.4byte	.LFB217
 2529 002c 26000000 		.4byte	.LFE217
 2530 0030 00000000 		.4byte	0
 2531 0034 00000000 		.4byte	0
 2532              		.section	.debug_line,"",%progbits
 2533              	.Ldebug_line0:
 2534 0000 C2020000 		.section	.debug_str,"MS",%progbits,1
 2534      02005C02 
 2534      00000201 
 2534      FB0E0D00 
 2534      01010101 
 2535              	.LASF86:
 2536 0000 7466756E 		.ascii	"tfunc_t\000"
 2536      635F7400 
 2537              	.LASF48:
 2538 0008 72656164 		.ascii	"ready_list_t\000"
 2538      795F6C69 
ARM GAS  /tmp/cca0jqD2.s 			page 70


 2538      73745F74 
 2538      00
 2539              	.LASF2:
 2540 0015 73697A65 		.ascii	"size_t\000"
 2540      5F7400
 2541              	.LASF54:
 2542 001c 64656C74 		.ascii	"delta\000"
 2542      6100
 2543              	.LASF74:
 2544 0022 7264796D 		.ascii	"rdymsg\000"
 2544      736700
 2545              	.LASF13:
 2546 0029 75696E74 		.ascii	"uint64_t\000"
 2546      36345F74 
 2546      00
 2547              	.LASF47:
 2548 0032 70726576 		.ascii	"prev\000"
 2548      00
 2549              	.LASF71:
 2550 0037 706F7274 		.ascii	"port_intctx\000"
 2550      5F696E74 
 2550      63747800 
 2551              	.LASF59:
 2552 0043 73797374 		.ascii	"system_debug_t\000"
 2552      656D5F64 
 2552      65627567 
 2552      5F7400
 2553              	.LASF97:
 2554 0052 6D73675F 		.ascii	"msg_thread1\000"
 2554      74687265 
 2554      61643100 
 2555              	.LASF14:
 2556 005e 6C6F6E67 		.ascii	"long long unsigned int\000"
 2556      206C6F6E 
 2556      6720756E 
 2556      7369676E 
 2556      65642069 
 2557              	.LASF75:
 2558 0075 65786974 		.ascii	"exitcode\000"
 2558      636F6465 
 2558      00
 2559              	.LASF66:
 2560 007e 6D61696E 		.ascii	"mainthread\000"
 2560      74687265 
 2560      616400
 2561              	.LASF78:
 2562 0089 73656E74 		.ascii	"sentmsg\000"
 2562      6D736700 
 2563              	.LASF56:
 2564 0091 76697274 		.ascii	"virtual_timers_list_t\000"
 2564      75616C5F 
 2564      74696D65 
 2564      72735F6C 
 2564      6973745F 
 2565              	.LASF99:
 2566 00a7 49544D5F 		.ascii	"ITM_RxBuffer\000"
 2566      52784275 
ARM GAS  /tmp/cca0jqD2.s 			page 71


 2566      66666572 
 2566      00
 2567              	.LASF44:
 2568 00b4 6E657874 		.ascii	"next\000"
 2568      00
 2569              	.LASF46:
 2570 00b9 63685F74 		.ascii	"ch_threads_queue\000"
 2570      68726561 
 2570      64735F71 
 2570      75657565 
 2570      00
 2571              	.LASF12:
 2572 00ca 6C6F6E67 		.ascii	"long long int\000"
 2572      206C6F6E 
 2572      6720696E 
 2572      7400
 2573              	.LASF1:
 2574 00d8 7369676E 		.ascii	"signed char\000"
 2574      65642063 
 2574      68617200 
 2575              	.LASF98:
 2576 00e4 74657374 		.ascii	"test_007_001\000"
 2576      5F303037 
 2576      5F303031 
 2576      00
 2577              	.LASF104:
 2578 00f1 74657374 		.ascii	"test_emit_token\000"
 2578      5F656D69 
 2578      745F746F 
 2578      6B656E00 
 2579              	.LASF65:
 2580 0101 76746C69 		.ascii	"vtlist\000"
 2580      737400
 2581              	.LASF35:
 2582 0108 6D736771 		.ascii	"msgqueue\000"
 2582      75657565 
 2582      00
 2583              	.LASF31:
 2584 0111 73746174 		.ascii	"state\000"
 2584      6500
 2585              	.LASF9:
 2586 0117 6C6F6E67 		.ascii	"long int\000"
 2586      20696E74 
 2586      00
 2587              	.LASF107:
 2588 0120 63684D73 		.ascii	"chMsgSend\000"
 2588      6753656E 
 2588      6400
 2589              	.LASF17:
 2590 012a 74737461 		.ascii	"tstate_t\000"
 2590      74655F74 
 2590      00
 2591              	.LASF55:
 2592 0133 66756E63 		.ascii	"func\000"
 2592      00
 2593              	.LASF6:
 2594 0138 75696E74 		.ascii	"uint16_t\000"
ARM GAS  /tmp/cca0jqD2.s 			page 72


 2594      31365F74 
 2594      00
 2595              	.LASF68:
 2596 0141 72656761 		.ascii	"regarm_t\000"
 2596      726D5F74 
 2596      00
 2597              	.LASF34:
 2598 014a 77616974 		.ascii	"waiting\000"
 2598      696E6700 
 2599              	.LASF87:
 2600 0152 6D757465 		.ascii	"mutex_t\000"
 2600      785F7400 
 2601              	.LASF22:
 2602 015a 636E745F 		.ascii	"cnt_t\000"
 2602      7400
 2603              	.LASF0:
 2604 0160 756E7369 		.ascii	"unsigned int\000"
 2604      676E6564 
 2604      20696E74 
 2604      00
 2605              	.LASF79:
 2606 016d 77747365 		.ascii	"wtsemp\000"
 2606      6D7000
 2607              	.LASF77:
 2608 0174 77747472 		.ascii	"wttrp\000"
 2608      7000
 2609              	.LASF90:
 2610 017a 74656172 		.ascii	"teardown\000"
 2610      646F776E 
 2610      00
 2611              	.LASF111:
 2612 0183 63684D73 		.ascii	"chMsgGet\000"
 2612      67476574 
 2612      00
 2613              	.LASF29:
 2614 018c 6E616D65 		.ascii	"name\000"
 2614      00
 2615              	.LASF25:
 2616 0191 71756575 		.ascii	"queue\000"
 2616      6500
 2617              	.LASF39:
 2618 0197 6D706F6F 		.ascii	"mpool\000"
 2618      6C00
 2619              	.LASF7:
 2620 019d 73686F72 		.ascii	"short unsigned int\000"
 2620      7420756E 
 2620      7369676E 
 2620      65642069 
 2620      6E7400
 2621              	.LASF42:
 2622 01b0 63685F74 		.ascii	"ch_thread\000"
 2622      68726561 
 2622      6400
 2623              	.LASF20:
 2624 01ba 6D73675F 		.ascii	"msg_t\000"
 2624      7400
 2625              	.LASF36:
ARM GAS  /tmp/cca0jqD2.s 			page 73


 2626 01c0 6570656E 		.ascii	"epending\000"
 2626      64696E67 
 2626      00
 2627              	.LASF62:
 2628 01c9 63685F73 		.ascii	"ch_system_t\000"
 2628      79737465 
 2628      6D5F7400 
 2629              	.LASF16:
 2630 01d5 746D6F64 		.ascii	"tmode_t\000"
 2630      655F7400 
 2631              	.LASF49:
 2632 01dd 63685F72 		.ascii	"ch_ready_list\000"
 2632      65616479 
 2632      5F6C6973 
 2632      7400
 2633              	.LASF21:
 2634 01eb 6576656E 		.ascii	"eventmask_t\000"
 2634      746D6173 
 2634      6B5F7400 
 2635              	.LASF69:
 2636 01f7 73746B61 		.ascii	"stkalign_t\000"
 2636      6C69676E 
 2636      5F7400
 2637              	.LASF92:
 2638 0202 74657374 		.ascii	"testcase_t\000"
 2638      63617365 
 2638      5F7400
 2639              	.LASF106:
 2640 020d 63685468 		.ascii	"chThdCreateStatic\000"
 2640      64437265 
 2640      61746553 
 2640      74617469 
 2640      6300
 2641              	.LASF38:
 2642 021f 7265616C 		.ascii	"realprio\000"
 2642      7072696F 
 2642      00
 2643              	.LASF67:
 2644 0228 73697A65 		.ascii	"sizetype\000"
 2644      74797065 
 2644      00
 2645              	.LASF40:
 2646 0231 74687265 		.ascii	"thread_reference_t\000"
 2646      61645F72 
 2646      65666572 
 2646      656E6365 
 2646      5F7400
 2647              	.LASF57:
 2648 0244 63685F76 		.ascii	"ch_virtual_timers_list\000"
 2648      69727475 
 2648      616C5F74 
 2648      696D6572 
 2648      735F6C69 
 2649              	.LASF100:
 2650 025b 74657374 		.ascii	"test_step\000"
 2650      5F737465 
 2650      7000
ARM GAS  /tmp/cca0jqD2.s 			page 74


 2651              	.LASF73:
 2652 0265 746D5F63 		.ascii	"tm_calibration_t\000"
 2652      616C6962 
 2652      72617469 
 2652      6F6E5F74 
 2652      00
 2653              	.LASF113:
 2654 0276 74657374 		.ascii	"test_wait_threads\000"
 2654      5F776169 
 2654      745F7468 
 2654      72656164 
 2654      7300
 2655              	.LASF70:
 2656 0288 706F7274 		.ascii	"port_context\000"
 2656      5F636F6E 
 2656      74657874 
 2656      00
 2657              	.LASF94:
 2658 0295 63685468 		.ascii	"chThdGetPriorityX\000"
 2658      64476574 
 2658      5072696F 
 2658      72697479 
 2658      5800
 2659              	.LASF89:
 2660 02a7 73657475 		.ascii	"setup\000"
 2660      7000
 2661              	.LASF105:
 2662 02ad 5F746573 		.ascii	"_test_assert_sequence\000"
 2662      745F6173 
 2662      73657274 
 2662      5F736571 
 2662      75656E63 
 2663              	.LASF26:
 2664 02c3 7072696F 		.ascii	"prio\000"
 2664      00
 2665              	.LASF50:
 2666 02c8 63757272 		.ascii	"current\000"
 2666      656E7400 
 2667              	.LASF110:
 2668 02d0 2F686F6D 		.ascii	"/home/alex/Embebidos Proyecto/ChibiOS_17.6.1/demos/"
 2668      652F616C 
 2668      65782F45 
 2668      6D626562 
 2668      69646F73 
 2669 0303 53544D33 		.ascii	"STM32/RT-STM32F100-DISCOVERY\000"
 2669      322F5254 
 2669      2D53544D 
 2669      33324631 
 2669      30302D44 
 2670              	.LASF18:
 2671 0320 74726566 		.ascii	"trefs_t\000"
 2671      735F7400 
 2672              	.LASF33:
 2673 0328 72656673 		.ascii	"refs\000"
 2673      00
 2674              	.LASF52:
 2675 032d 76697274 		.ascii	"virtual_timer_t\000"
ARM GAS  /tmp/cca0jqD2.s 			page 75


 2675      75616C5F 
 2675      74696D65 
 2675      725F7400 
 2676              	.LASF108:
 2677 033d 474E5520 		.ascii	"GNU C 4.8.1 -mcpu=cortex-m3 -mno-thumb-interwork -m"
 2677      4320342E 
 2677      382E3120 
 2677      2D6D6370 
 2677      753D636F 
 2678 0370 7468756D 		.ascii	"thumb -ggdb -O2 -fomit-frame-pointer -falign-functi"
 2678      62202D67 
 2678      67646220 
 2678      2D4F3220 
 2678      2D666F6D 
 2679 03a3 6F6E733D 		.ascii	"ons=16 -ffunction-sections -fdata-sections -fno-com"
 2679      3136202D 
 2679      6666756E 
 2679      6374696F 
 2679      6E2D7365 
 2680 03d6 6D6F6E20 		.ascii	"mon -flto\000"
 2680      2D666C74 
 2680      6F00
 2681              	.LASF19:
 2682 03e0 74707269 		.ascii	"tprio_t\000"
 2682      6F5F7400 
 2683              	.LASF60:
 2684 03e8 63685F73 		.ascii	"ch_system_debug\000"
 2684      79737465 
 2684      6D5F6465 
 2684      62756700 
 2685              	.LASF88:
 2686 03f8 5F426F6F 		.ascii	"_Bool\000"
 2686      6C00
 2687              	.LASF8:
 2688 03fe 696E7433 		.ascii	"int32_t\000"
 2688      325F7400 
 2689              	.LASF4:
 2690 0406 756E7369 		.ascii	"unsigned char\000"
 2690      676E6564 
 2690      20636861 
 2690      7200
 2691              	.LASF91:
 2692 0414 65786563 		.ascii	"execute\000"
 2692      75746500 
 2693              	.LASF5:
 2694 041c 73686F72 		.ascii	"short int\000"
 2694      7420696E 
 2694      7400
 2695              	.LASF58:
 2696 0426 6C617374 		.ascii	"lasttime\000"
 2696      74696D65 
 2696      00
 2697              	.LASF102:
 2698 042f 74687265 		.ascii	"threads\000"
 2698      61647300 
 2699              	.LASF81:
 2700 0437 65776D61 		.ascii	"ewmask\000"
ARM GAS  /tmp/cca0jqD2.s 			page 76


 2700      736B00
 2701              	.LASF63:
 2702 043e 63685F73 		.ascii	"ch_system\000"
 2702      79737465 
 2702      6D00
 2703              	.LASF53:
 2704 0448 63685F76 		.ascii	"ch_virtual_timer\000"
 2704      69727475 
 2704      616C5F74 
 2704      696D6572 
 2704      00
 2705              	.LASF103:
 2706 0459 63684D73 		.ascii	"chMsgRelease\000"
 2706      6752656C 
 2706      65617365 
 2706      00
 2707              	.LASF82:
 2708 0466 63685F73 		.ascii	"ch_semaphore\000"
 2708      656D6170 
 2708      686F7265 
 2708      00
 2709              	.LASF10:
 2710 0473 75696E74 		.ascii	"uint32_t\000"
 2710      33325F74 
 2710      00
 2711              	.LASF80:
 2712 047c 77746D74 		.ascii	"wtmtxp\000"
 2712      787000
 2713              	.LASF43:
 2714 0483 63685F74 		.ascii	"ch_threads_list\000"
 2714      68726561 
 2714      64735F6C 
 2714      69737400 
 2715              	.LASF84:
 2716 0493 6F776E65 		.ascii	"owner\000"
 2716      7200
 2717              	.LASF11:
 2718 0499 6C6F6E67 		.ascii	"long unsigned int\000"
 2718      20756E73 
 2718      69676E65 
 2718      6420696E 
 2718      7400
 2719              	.LASF30:
 2720 04ab 77616261 		.ascii	"wabase\000"
 2720      736500
 2721              	.LASF85:
 2722 04b2 63686172 		.ascii	"char\000"
 2722      00
 2723              	.LASF28:
 2724 04b7 6F6C6465 		.ascii	"older\000"
 2724      7200
 2725              	.LASF24:
 2726 04bd 74687265 		.ascii	"thread_t\000"
 2726      61645F74 
 2726      00
 2727              	.LASF23:
 2728 04c6 73797374 		.ascii	"systime_t\000"
ARM GAS  /tmp/cca0jqD2.s 			page 77


 2728      696D655F 
 2728      7400
 2729              	.LASF51:
 2730 04d0 76746675 		.ascii	"vtfunc_t\000"
 2730      6E635F74 
 2730      00
 2731              	.LASF61:
 2732 04d9 70616E69 		.ascii	"panic_msg\000"
 2732      635F6D73 
 2732      6700
 2733              	.LASF95:
 2734 04e3 5F5F6675 		.ascii	"__func__.5699\000"
 2734      6E635F5F 
 2734      2E353639 
 2734      3900
 2735              	.LASF72:
 2736 04f1 6F666673 		.ascii	"offset\000"
 2736      657400
 2737              	.LASF15:
 2738 04f8 7274636E 		.ascii	"rtcnt_t\000"
 2738      745F7400 
 2739              	.LASF27:
 2740 0500 6E657765 		.ascii	"newer\000"
 2740      7200
 2741              	.LASF112:
 2742 0506 63684D73 		.ascii	"chMsgWait\000"
 2742      67576169 
 2742      7400
 2743              	.LASF109:
 2744 0510 2E2E2F2E 		.ascii	"../../../test/rt/source/test/test_sequence_007.c\000"
 2744      2E2F2E2E 
 2744      2F746573 
 2744      742F7274 
 2744      2F736F75 
 2745              	.LASF45:
 2746 0541 74687265 		.ascii	"threads_queue_t\000"
 2746      6164735F 
 2746      71756575 
 2746      655F7400 
 2747              	.LASF83:
 2748 0551 63685F6D 		.ascii	"ch_mutex\000"
 2748      75746578 
 2748      00
 2749              	.LASF64:
 2750 055a 726C6973 		.ascii	"rlist\000"
 2750      7400
 2751              	.LASF93:
 2752 0560 63685468 		.ascii	"chThdGetSelfX\000"
 2752      64476574 
 2752      53656C66 
 2752      5800
 2753              	.LASF3:
 2754 056e 75696E74 		.ascii	"uint8_t\000"
 2754      385F7400 
 2755              	.LASF32:
 2756 0576 666C6167 		.ascii	"flags\000"
 2756      7300
ARM GAS  /tmp/cca0jqD2.s 			page 78


 2757              	.LASF101:
 2758 057c 74657374 		.ascii	"test_sequence_007\000"
 2758      5F736571 
 2758      75656E63 
 2758      655F3030 
 2758      3700
 2759              	.LASF76:
 2760 058e 77746F62 		.ascii	"wtobjp\000"
 2760      6A7000
 2761              	.LASF41:
 2762 0595 74687265 		.ascii	"threads_list_t\000"
 2762      6164735F 
 2762      6C697374 
 2762      5F7400
 2763              	.LASF96:
 2764 05a4 74657374 		.ascii	"test_007_001_execute\000"
 2764      5F303037 
 2764      5F303031 
 2764      5F657865 
 2764      63757465 
 2765              	.LASF37:
 2766 05b9 6D74786C 		.ascii	"mtxlist\000"
 2766      69737400 
 2767              		.comm	__gnu_lto_v1,1,1
 2768              		.ident	"GCC: (Sourcery CodeBench Lite 2013.11-24) 4.8.1"
ARM GAS  /tmp/cca0jqD2.s 			page 79


DEFINED SYMBOLS
                            *ABS*:00000000 test_sequence_007.c
     /tmp/cca0jqD2.s:414    .text.test_007_001_execute:00000000 $t
     /tmp/cca0jqD2.s:419    .text.test_007_001_execute:00000000 test_007_001_execute
     /tmp/cca0jqD2.s:530    .text.msg_thread1:00000000 msg_thread1
     /tmp/cca0jqD2.s:589    .rodata.str1.4:00000000 .LC0
     /tmp/cca0jqD2.s:592    .rodata.str1.4:00000008 .LC1
     /tmp/cca0jqD2.s:525    .text.msg_thread1:00000000 $t
     /tmp/cca0jqD2.s:584    .rodata.test_sequence_007:00000000 test_sequence_007
     /tmp/cca0jqD2.s:572    .rodata.test_007_001:00000000 $d
     /tmp/cca0jqD2.s:575    .rodata.test_007_001:00000000 test_007_001
     /tmp/cca0jqD2.s:581    .rodata.test_sequence_007:00000000 $d
     /tmp/cca0jqD2.s:588    .rodata.str1.4:00000000 $d
                            *COM*:00000001 __gnu_lto_v1
                     .debug_frame:00000010 $d

UNDEFINED SYMBOLS
ch
wa
test_step
chThdCreateStatic
threads
chMsgWait
chMsgRelease
test_emit_token
test_wait_threads
_test_assert_sequence
chMsgSend
