ARM GAS  /tmp/ccznN900.s 			page 1


   1              		.syntax unified
   2              		.cpu cortex-m3
   3              		.fpu softvfp
   4              		.eabi_attribute 20, 1
   5              		.eabi_attribute 21, 1
   6              		.eabi_attribute 23, 3
   7              		.eabi_attribute 24, 1
   8              		.eabi_attribute 25, 1
   9              		.eabi_attribute 26, 1
  10              		.eabi_attribute 30, 2
  11              		.eabi_attribute 34, 1
  12              		.eabi_attribute 18, 4
  13              		.thumb
  14              		.file	"test_root.c"
  15              		.text
  16              	.Ltext0:
  17              		.section	.gnu.lto_.jmpfuncs.a61bb71b7b8582ef,"",%progbits
  18 0000 789C6362 		.ascii	"x\234cb`b\300\006>\001q+\020\2630002U3\374j\230\321"
  18      6062C006 
  18      3E01712B 
  18      10B33030 
  18      30325533 
  19 0018 2090C9C8 		.ascii	" \220\311\310 \307\3008\267a\206C&##X\025\222\024\223"
  19      20C7C038 
  19      B7618643 
  19      26232358 
  19      15921493 
  20 002c 1C833844 		.ascii	"\034\2038D\212\031]\212E\216A\033\"\305\212E\227\031"
  20      8A195D8A 
  20      458E411B 
  20      22C58A45 
  20      9719
  21 003e 0E5D6C72 		.ascii	"\016]lr\014^\020)v,\272\202q\333\225\216\333\256\"\024"
  21      0C5E1029 
  21      762CBA82 
  21      71DB958E 
  21      DBAE2214 
  22 0052 5D40C8C0 		.ascii	"]@\310\300\014\"X\200\312\"\0303\0319@\276\022uL)K\314"
  22      0C225880 
  22      CA221833 
  22      193940BE 
  22      12754C29 
  23 0068 4B4E4D51 		.ascii	"KNMQ\310N-\312K\315Q\310\315OIe\020\326\322\322R\010"
  23      C84E2DCA 
  23      4BCD51C8 
  23      CD4F4965 
  23      10D6D2D2 
  24 007e C82F2A51 		.ascii	"\310/*Q\360\314K\313\267R\000\002\006.g ?\265B\327\327"
  24      F0CC4BCB 
  24      B7520002 
  24      062E6720 
  24      3FB542D7 
  25 0093 18220DE4 		.ascii	"\030\"\015\344\246*\204%\026e&\346\225X)0p8\006\371"
  25      A62A8425 
  25      166526E6 
  25      95582930 
  25      703806F9 
ARM GAS  /tmp/ccznN900.s 			page 2


  26 00a7 9699EBFA 		.ascii	"\226\231\353\372B$\035\213\22232KR\223KJ\213R\201\222"
  26      42241D8B 
  26      9233324B 
  26      52934B4A 
  26      8B528192 
  27 00bb 5CEECECE 		.ascii	"\\\356\316\316\012&z\026z\2060\275\271\005\2319\251"
  27      0A267A16 
  27      7A8630BD 
  27      B9059939 
  27      A9
  28 00cc 45609315 		.ascii	"E`\223\025\030\000\355\375Xi"
  28      1800EDFD 
  28      5869
  29              		.text
  30              		.section	.gnu.lto_.inline.a61bb71b7b8582ef,"",%progbits
  31 0000 789C6362 		.ascii	"x\234cb`b\300\006\246Ai\026\006\006\341[\014\214`Ul"
  31      6062C006 
  31      A6416916 
  31      0606E15B 
  31      0C8C6055 
  32 0015 0BE4C18A 		.ascii	"\013\344\301\212\231\270\031@\"D\223\214\014\334'@\034"
  32      99B81940 
  32      2244938C 
  32      0CDC2740 
  32      1C
  33 0026 9E179F99 		.ascii	"\236\027\237\231\221\014\001JL\360cf\3409\003\222\343"
  33      910C014A 
  33      4CF06366 
  33      E0390392 
  33      E3
  34 0037 5BB38A05 		.ascii	"[\263\212\005]\216\205\201C\000(\305\366A\017\315j\006"
  34      5D8E8581 
  34      430028C5 
  34      F6410FCD 
  34      6A06
  35 0049 0080DD0D 		.ascii	"\000\200\335\015M"
  35      4D
  36              		.text
  37              		.section	.gnu.lto_.pureconst.a61bb71b7b8582ef,"",%progbits
  38 0000 789C6362 		.ascii	"x\234cb`b\340d\200\000\026\006\011F\011f\011\026+\000"
  38      6062E064 
  38      80001606 
  38      09460966 
  38      09162B00 
  39 0014 02DE009C 		.ascii	"\002\336\000\234"
  40              		.text
  41              		.section	.gnu.lto_test_print_port_info.a61bb71b7b8582ef,"",%progbits
  42 0000 789C6362 		.ascii	"x\234cb`b@\007\222@\\\000\024\336\000\244\031\231\031"
  42      60624007 
  42      92405C00 
  42      14DE00A4 
  42      199919
  43 0013 1899269C 		.ascii	"\030\231&\234c`h\344`bd\0041\030\030\031\352\231\030"
  43      636068E4 
  43      60626404 
  43      31181819 
  43      EA9918
ARM GAS  /tmp/ccznN900.s 			page 3


  44 0026 EB2319C1 		.ascii	"\353#\031\301j\3273\035x\360\377\377\272\177\307\226"
  44      6AD7331D 
  44      78F0FFFF 
  44      BA7FC796 
  45 0036 FC619CCB 		.ascii	"\374a\234\313\304\005\024aehih\230\240\300\300\220\014"
  45      C4051461 
  45      65686968 
  45      98A0C0C0 
  45      900C
  46 0048 56110224 		.ascii	"V\021\002$A\332B\031\231@4\363y\206\226\007\247\026"
  46      41DA4219 
  46      994034F3 
  46      79869607 
  46      A716
  47 005a B327322E 		.ascii	"\263'2.dd\005JW3\374j\350h\020\310d\004*\207\230\010"
  47      6464054A 
  47      5733FC6A 
  47      E86810C8 
  47      64042A87 
  48 0070 1299D1D0 		.ascii	"\022\231\321\320`\233\311\310(\307\2403\267a\206C&P"
  48      609BC9C8 
  48      28C7A033 
  48      B7618643 
  48      2650
  49 0082 2B547D26 		.ascii	"+T}&\320=\014 #N?\306j\004\023\262\021\201\231\214,"
  49      D03D0C20 
  49      234E3FC6 
  49      6A0413B2 
  49      1181998C 
  50 0097 720C0E10 		.ascii	"r\014\016\020#X1\2148K\264+\274q\271\342\034q\256`\223"
  50      2358318C 
  50      384BB42B 
  50      BC71B9E2 
  50      1C71AE60 
  51 00ac 63888718 		.ascii	"c\210\207\030\301\216a\304\015\242]\221\201\313\025"
  51      C18E61C4 
  51      0DA25D91 
  51      81CB15
  52 00bb 37890E8B 		.ascii	"7\211\016\213\032\\aq\207hW\2643\342r\306]\342\234\301"
  52      1A5C6171 
  52      876857B4 
  52      33E272C6 
  52      5DE29CC1 
  53 00cf 21C7301B 		.ascii	"!\3070\033j\006'\212\031\027\031\032\037\334W\206\031"
  53      6A06278A 
  53      1917191A 
  53      1FDC5786 
  53      19
  54 00e0 01012140 		.ascii	"\001\001!@'\000S\015\310\014M==}\010*I-.\321/*\321/"
  54      2700530D 
  54      C80C4D3D 
  54      3D7D082A 
  54      492D2ED1 
  55 00f8 CE2F2D4A 		.ascii	"\316/-JN\205pAD|Q~~\211^2\203\260\226\226\226\202s~"
  55      4E857041 
  55      447C517E 
  55      7E895E32 
ARM GAS  /tmp/ccznN900.s 			page 4


  55      83B09696 
  56 0110 6E41664E 		.ascii	"nAfNj\221\225\002\0100p\271;;+\230\350Y\350\031B\244"
  56      6A919502 
  56      083070B9 
  56      3B3B2B98 
  56      E859E819 
  57 0126 1D8B9233 		.ascii	"\035\213\22232KR\223KJ\213R\255\024\0308\034\203|\313"
  57      324B5293 
  57      4B4A8B52 
  57      AD141838 
  57      1C837CCB 
  58 013a CC757D61 		.ascii	"\314u}az\213R\025\302\022\2132\023\363J\200\222\\@~"
  58      7A8B5215 
  58      C2128B32 
  58      13F34A80 
  58      925C407E 
  59 014e 496A85AE 		.ascii	"Ij\205\256\2571D:\000\310U\360\314K\313\007\233\315"
  59      AF31443A 
  59      00C855F0 
  59      CC4BCB07 
  59      9BCD
  60 0160 20EA9852 		.ascii	" \352\230R\226\230\227\234\232\242\220\235Z\224\227"
  60      9698979C 
  60      9AA2909D 
  60      5A9497
  61 016f 9AA3909B 		.ascii	"\232\243\220\233\237\222\312\000\00026\327)"
  61      9F92CA00 
  61      003236D7 
  61      29
  62              		.text
  63              		.section	.gnu.lto_test_terminate_threads.a61bb71b7b8582ef,"",%progbits
  64 0000 789C5D92 		.ascii	"x\234]\222\277k\024A\024\307\277\337\231\235\33551 "
  64      BF6B1441 
  64      14C7BFDF 
  64      999DDD35 
  64      3120
  65 0012 36B62190 		.ascii	"6\266!\220B\310\335a\343\377`\237\023\255BX\302\261"
  65      42C8DD61 
  65      E3FF609F 
  65      13AD4258 
  65      C2B1
  66 0024 851C5CCE 		.ascii	"\205\034\\\316*Efs'\244\021\202Xh4\220 \011\026\202"
  66      2A456673 
  66      27A41182 
  66      58683490 
  66      20091682 
  67 0038 7F804DAE 		.ascii	"\177\200M\256\220\344\212\030R\012\026\253\205\215\376"
  67      90E48A18 
  67      520A16AB 
  67      858DFE
  68 0047 01211C5C 		.ascii	"\001!\034\\\336\354\354\336E\207\335y\363f\336\373\274"
  68      DEECECDE 
  68      4587DD79 
  68      F366DEFB 
  68      BC
  69 0058 1F330A0A 		.ascii	"\0373\012\012\377\217\307\362\217\010\324D2\006\325"
  69      FF8FC7F2 
ARM GAS  /tmp/ccznN900.s 			page 5


  69      8F08D444 
  69      3206D5
  70 0067 CE37208B 		.ascii	"\3167 \213\025C\277\320*8y\010;c\206\367`o\0074~\333"
  70      1543BFD0 
  70      2A387908 
  70      3B6386F7 
  70      606F0734 
  71 007d F8F3411C 		.ascii	"\370\363A\034*\375r\0001\210zsb\020\221n\037\304\246"
  71      2AFD7200 
  71      31887A73 
  71      6210916E 
  71      1FC4A6
  72 0090 D2810923 		.ascii	"\322\201\011#n>\245\213\303\005\034X\373*\177q\364\223"
  72      6E3EA58B 
  72      C3051C58 
  72      FB2A7F71 
  72      F493
  73 00a2 6FED717F 		.ascii	"o\355q\177\337\216\306c2\245\344\264D$\304\023Q8_\010"
  73      DF8EC663 
  73      32A5E4B4 
  73      4424C413 
  73      51385F08 
  74 00b6 15FC9BE4 		.ascii	"\025\374\233\344gu\234\217\307\243\213O\277\366x7&V"
  74      67759C8F 
  74      C7A38B4F 
  74      BFF67837 
  74      2656
  75 00c8 79203C83 		.ascii	"y <\203\224:*\025\031\006}kw\346+=)\342.\313,\2315\251"
  75      943A2A15 
  75      19067D6B 
  75      77E62B3D 
  75      29E22ECB 
  76 00e0 44E821B6 		.ascii	"D\350!\266\362\335\257\341*?\320\224\216.\336$P\223"
  76      F2DDAFE1 
  76      2A3FD094 
  76      8E2EDE24 
  76      5093
  77 00f2 1A528E3E 		.ascii	"\032R\216>\303\326\217\313\243\201\362\206-\232\032"
  77      C3D68FCB 
  77      A381F286 
  77      2D9A1A
  78 0101 9624D83B 		.ascii	"\226$\330;\354f\326\336I\031l\340\312n\273\225yVx;\212"
  78      EC66D6DE 
  78      49196CE0 
  78      CA6EBB95 
  78      7956783B 
  79 0116 29102D4E 		.ascii	")\020-Nq\247\350\377\315\036L \316H\337\254\253\311"
  79      71A7E8FF 
  79      CD1E4C20 
  79      CE48DFAC 
  79      ABC9
  80 0128 005F6AFA 		.ascii	"\000_j\372\034\375\374\375\341\254\267\003&\3540)Y\342"
  80      1CFDFCFD 
  80      E1ACB703 
  80      26EC3029 
  80      59E2
  81 013a 9B32AA7C 		.ascii	"\2332\252|L\231bo\273\367\347\365\243\212\036I\340\242"
ARM GAS  /tmp/ccznN900.s 			page 6


  81      4C99626F 
  81      BBF7E7F5 
  81      A38A1E49 
  81      E0A2
  82 014c 16E73284 		.ascii	"\026\3472\204\272Yck\352\034B\356\307\365!\306\344\220"
  82      BA59636B 
  82      EA1C42EE 
  82      C7F521C6 
  82      E490
  83 015e 45A6BFB3 		.ascii	"E\246\277\263\250by\320\364\022\276\203e\233\324G-0"
  83      A86279D0 
  83      F412BE83 
  83      659BD447 
  83      2D30
  84 0170 F3E69663 		.ascii	"\363\346\226cE\256\245\027\310\362\275\305*w?\226\005"
  84      45AEA517 
  84      C8F2BDC5 
  84      2A773F96 
  84      05
  85 0181 D99B738F 		.ascii	"\331\233s\217\355~\275\336\360_wm\275\333\350t\033\353"
  85      ED7EBDDE 
  85      F05F776D 
  85      BDDBE874 
  85      1BEB
  86 0193 EDE79D64 		.ascii	"\355\347\235d\315\253nZ\351\264\333\335z\002\246\327"
  86      CDAB6E5A 
  86      E9B4DBDD 
  86      7A02A6D7 
  87 01a3 62768594 		.ascii	"bv\205\224"
  88              		.text
  89              		.section	.gnu.lto_test_wait_threads.a61bb71b7b8582ef,"",%progbits
  90 0000 789C9552 		.ascii	"x\234\225R\277k\024A\024\376\276\231\235\335M0 6\266"
  90      BF6B1441 
  90      14FEBE99 
  90      9DDD4D30 
  90      2036B6
  91 0013 41B01072 		.ascii	"A\260\020rw\330\330\371\007\010\226\271`\252\020\226"
  91      77D8D8F9 
  91      070896B9 
  91      60AA1096 
  92 0023 10B69083 		.ascii	"\020\266\220\203\313\245J\221\331\334\011i\204 \010"
  92      CBA54A91 
  92      D9DC0969 
  92      842008
  93 0032 519B8434 		.ascii	"Q\233\2044b\022S*\261\311\025\242W\250\244\020\024,"
  93      6212532A 
  93      B1C915A2 
  93      57A8A410 
  93      142C
  94 0044 364552F9 		.ascii	"6ER\371\007\210\010\347\233\235\335Kb\347cwf\336\257"
  94      078808E7 
  94      9B9DDD4B 
  94      62E76377 
  94      66DEAF
  95 0057 EF7DEFCD 		.ascii	"\357}\357\315((\374+3\362\337\027sMv\306\240\332\370"
  95      2828FC2B 
  95      33F2DF17 
ARM GAS  /tmp/ccznN900.s 			page 7


  95      734D76C6 
  95      A0DAF8
  96 006a 0C64B162 		.ascii	"\014d\261b\350\017Z\005\037\356\300\216\233\301u\330"
  96      E80F5A05 
  96      1FEEC08E 
  96      9BC175D8 
  97 007a 2B018D37 		.ascii	"+\001\2157\033\357\357\307\241\322\217\373\220\200\250"
  97      1BEFEFC7 
  97      A1D28FFB 
  97      9080A8
  98 0089 3B210111 		.ascii	";!\001\021\351\354 V\225\016L\030qu\226\256\016o`\333"
  98      E9EC2056 
  98      950E4C18 
  98      717596AE 
  98      0E6F60DB 
  99 009d DA27F9E9 		.ascii	"\332'\371\351\253\023>\263G\275-\373g8$S\012\247)\""
  99      AB133EB3 
  99      47BD2DFB 
  99      67382453 
  99      0AA72922 
 100 00b1 211E88C2 		.ascii	"!\036\210\302\311bS\301e\222\007\352(\037\016\367\276"
 100      C96253C1 
 100      659207EA 
 100      281F0EF7 
 100      BE
 101 00c2 FE3A39E4 		.ascii	"\376:9\344\2651b\236\333\202g\220R\307\245\"b\320\263"
 101      B531629E 
 101      DB826790 
 101      52C7A522 
 101      62D0B3
 102 00d5 7663B2D2 		.ascii	"vc\262\322\223\242\356\264\254\302\254I%\233\036`-\337"
 102      93A2EEB4 
 102      ACC2AC49 
 102      259B1E60 
 102      2DDF
 103 00e7 7F1FCE73 		.ascii	"\177\037\316s\207\246Lt\365F\205\232\324\220v\364'\254"
 103      87A64C74 
 103      F546859A 
 103      D49076F4 
 103      27AC
 104 00f9 FDF8B6DB 		.ascii	"\375\370\266\333W>p\221\246\206))\366\002\3173k\257"
 104      573E7091 
 104      A6862929 
 104      F602CF33 
 104      6BAF
 105 010b A60C56F0 		.ascii	"\246\014V\360\333\256\273\223yXd;\024S@,\362\034\356"
 105      DBAEBB93 
 105      7958643B 
 105      1453402C 
 105      F21CEE
 106 011e 237A3FB3 		.ascii	"#z?\263\333#\020\027\244/\366\325d\200w5\375\005\275"
 106      DB231017 
 106      A42FF6D5 
 106      64807735 
 106      FD05BD
 107 0131 FCE0D1B8 		.ascii	"\374\340\321\270\217\003F\330aRbIn\312\010\020Zo7_\037"
 107      8F0346D8 
ARM GAS  /tmp/ccznN900.s 			page 8


 107      61526249 
 107      6ECA0810 
 107      5A6F375F 
 108 0146 97B46AD8 		.ascii	"\227\264j\330\263\"w\377\233\330%\036Mq\373\226\273"
 108      B32277FF 
 108      9BD8251E 
 108      4D71FB96 
 108      BB
 109 0157 EBDD374F 		.ascii	"\353\3357O\357Ulc\211/f\343\262\006P\027g&\336*9\204"
 109      EF556C63 
 109      892F66E3 
 109      B2065017 
 109      6726DE2A 
 110 016d DCB79BAB 		.ascii	"\334\267\233\253X*'\213\316\317\262\250\302\362@\347"
 110      582A278B 
 110      CECFB2A8 
 110      C2F240E7 
 111 017d 97FA1D2C 		.ascii	"\227\372\035,\307\256^j\0013\233c\016+rWt\214,?\274"
 111      C7AE5E6A 
 111      01339B63 
 111      0E2B7257 
 111      748C2C3F 
 112 0192 59CDC2CB 		.ascii	"Y\315\302\313\264@v'\334\343\275U\2577\374\327YX\352"
 112      B4407627 
 112      DCE3BD55 
 112      AF37FCD7 
 112      5958EA
 113 01a5 34DA9DC6 		.ascii	"4\332\235\306Rk\271\235,x\325-s\355V\253SO\300\364/"
 113      526BB99D 
 113      2C78D52D 
 113      73ED56AB 
 113      534FC0F4 
 114 01ba 44D69701 		.ascii	"D\326\227\001"
 115              		.text
 116              		.section	.gnu.lto_test_wait_tick.a61bb71b7b8582ef,"",%progbits
 117 0000 789C8D53 		.ascii	"x\234\215SOH\024a\024\177of\326]5\303c\377X\027!(\252"
 117      4F481461 
 117      147F6F66 
 117      D65D35C3 
 117      63FF5817 
 118 0017 9DD443D7 		.ascii	"\235\324C\327\302.\202{q\015\254\3132\216\303\356\300"
 118      C22E827B 
 118      710DACCB 
 118      328EC3EE 
 118      C0
 119 0028 8E2333E3 		.ascii	"\216#3\343\242tpV\367\020\005!\013Q$R\226\011k\241T"
 119      A2747056 
 119      F7100521 
 119      0B512452 
 119      96096BA1 
 120 003d 0405125B 		.ascii	"\004\005\022['=\270b7\365\262\027\021\205\302\350\322"
 120      273DB862 
 120      37F5B217 
 120      1185C2E8 
 120      D2
 121 004e 1F707BDF 		.ascii	"\037p{\337\214\215\353f\3410\3377\3377\357}\277\367"
 121      8C8DEB66 
ARM GAS  /tmp/ccznN900.s 			page 9


 121      E130DF37 
 121      DF37EF7D 
 121      BFF7
 122 0060 FBBDDF0C 		.ascii	"\373\275\337\014\007\034T^\307iH<@\027\002 \017\310"
 122      071C545E 
 122      C769483C 
 122      40170220 
 122      0FC8
 123 0072 8D1600D2 		.ascii	"\215\026\000\322\001\016\221-\000a\210\303\241\353\350"
 123      010E912D 
 123      006188C3 
 123      A1EBE8
 124 0081 E4CE72F9 		.ascii	"\344\316r\371b\2514\263s{r\016_p\001\001T\004\037M,"
 124      62A934B3 
 124      737B720E 
 124      5F700101 
 124      54041F4D 
 125 0096 EA838C6D 		.ascii	"\352\203\214m\217\206\000d'\267\223f\006p\0159\366\344"
 125      8F860064 
 125      27B79366 
 125      06700D39 
 125      F6E4
 126 00a8 9720535C 		.ascii	"\227 S\\x\346\227p\002}\024\276\011?\355[v\275\212\234"
 126      78E69770 
 126      027D14BE 
 126      093FED5B 
 126      76BD8A9C 
 127 00bc 8C2E7617 		.ascii	"\214.v\027\022\016\022\030qY\200\341\000@#L\330v\266"
 127      120E1218 
 127      715980E1 
 127      0040234C 
 127      D876B6
 128 00cf F82EB7F8 		.ascii	"\370.\267\370\001\263#\366\274\235\311\227J\330\240"
 128      01B323F6 
 128      BC9DC997 
 128      4AD8A0
 129 00de A2C0C10D 		.ascii	"\242\300\301\015du\330\031_\310yT\011\373e\261w\002"
 129      6475D819 
 129      5FC87954 
 129      09FB65B1 
 129      7702
 130 00f0 B181020C 		.ascii	"\261\201\002\014\177\235\037\231:\341\361s\027\371o"
 130      7F9D1F99 
 130      3AE1F173 
 130      17F96F
 131 00ff 9FC6F833 		.ascii	"\237\306\3703\022>\305F\217|\376\371\275\357\265\247"
 131      123EC546 
 131      8F7CFEF9 
 131      BDEFB5A7 
 132 010f BC5DEEFE 		.ascii	"\274]\356\376\373:O\227K&\377c\365\3561\373qz\324\336"
 132      FB3A4F97 
 132      4B26FF63 
 132      F5EE31FB 
 132      717AD4DE 
 133 0123 212A4498 		.ascii	"!*D\230\203e\334\243R\357R\371\253\311\273\200w\326"
 133      8365DCA3 
 133      52EF52F9 
ARM GAS  /tmp/ccznN900.s 			page 10


 133      ABC9BB80 
 133      77D6
 134 0135 9BA9D74E 		.ascii	"\233\251\327N\007dt\222dR+\243@\2035\205\232\215\260"
 134      07647492 
 134      64522BA3 
 134      40833585 
 134      9A8DB0
 135 0148 42AF28C6 		.ascii	"B\257(\306\273V\005a\013\307\355\007\227U\364\357S\265"
 135      BB560561 
 135      0BC7ED07 
 135      9755F4EF 
 135      53B5
 136 015a 17FFBC1B 		.ascii	"\027\377\274\033\017\270\245\026\341\343\352\334\257"
 136      0FB8A516 
 136      E1E3EADC 
 136      AF
 137 0167 CD5C162B 		.ascii	"\315\\\026+\005oL\255\361|\231\270qO\234]zs\222\021"
 137      056F4CAD 
 137      F17C99B8 
 137      714F9C5D 
 137      7A739211 
 138 017b CB39C4AA 		.ascii	"\3139\304\252h\370i8\200q\024\316\301\264\235I\027\327"
 138      68F86938 
 138      807114CE 
 138      C1B49D49 
 138      17D7
 139 018d 960A5914 		.ascii	"\226\012Y\024T\254\036\203\207\244\237\254\253aljm\272"
 139      54AC1E83 
 139      87A49FAC 
 139      AB616C6A 
 139      6DBA
 140 019f 048758AD 		.ascii	"\004\207X\255C\240\233\331)\341kW\321\"\014\177\031"
 140      43A09BD9 
 140      29E16B57 
 140      D1220C7F 
 140      19
 141 01b0 392AE12B 		.ascii	"9*\341+\332\306\321Gp\216\273\333[\353\263k\350V\224"
 141      DAC6D147 
 141      708EBBDB 
 141      5BEBB36B 
 141      E85694
 142 01c3 70DAF1A0 		.ascii	"p\332\361\240\322\366\315B\245\355\022NR\333\016\341"
 142      D2F6CD42 
 142      A5ED124E 
 142      52DB0EE1 
 143 01d3 3BFCCFF7 		.ascii	";\374\317\367\255q\346\373\333\375\276?\252\013\226"
 143      AD71E6FB 
 143      DBFDBE3F 
 143      AA0B96
 144 01e2 7DC25E8F 		.ascii	"}\302^\217\346\353\366\372R\355\032Vs\200Y\022\316\320"
 144      E6EBF6FA 
 144      52ED1A56 
 144      73805912 
 144      CED0
 145 01f4 C22BFDC7 		.ascii	"\302+\375\307\034\011_b\320\245\265\014\351\355'+G\\"
 145      1C095F62 
 145      D0A5B50C 
ARM GAS  /tmp/ccznN900.s 			page 11


 145      E9ED272B 
 145      475C
 146 0206 F3E32E00 		.ascii	"\363\343.\000\373I\220\375\034,\371l8,\272\267\245\230"
 146      FB4990FD 
 146      1C2CF96C 
 146      382CBAB7 
 146      A598
 147 0218 966858A2 		.ascii	"\226hX\242\251\367\033\262\342n\331\0243t\335\012\313"
 147      A9F71BB2 
 147      E26ED914 
 147      3374DD0A 
 147      CB
 148 0229 70C1CBD4 		.ascii	"p\301\313\324MQ\3265M\357\025\373t\3032\305+\035\221"
 148      4D51D635 
 148      4DEF15FB 
 148      74C332C5 
 148      2B1D91
 149 023c D6C88028 		.ascii	"\326\310\200('d\335Pb\251KZ8\001\276\224\224\354W\232"
 149      2764DD50 
 149      62A94B5A 
 149      3801BE94 
 149      94EC579A 
 150 0250 0E38A30C 		.ascii	"\0168\243\014Xbk$\332\026\025\325^9\331\337\243\210"
 150      58626B24 
 150      DA1615D5 
 150      5E39D9DF 
 150      A388
 151 0262 B266AA66 		.ascii	"\262f\252f,.\313t\256\241\374\004\261\361r\022\346\240"
 151      2C2ECB74 
 151      AEA1FC04 
 151      B1F17212 
 151      E6A0
 152 0274 49F1E03F 		.ascii	"I\361\340?\343)\213\302~\312\262TM\251\217D;B\335\222"
 152      E3298BC2 
 152      7ECAB254 
 152      4DA98F44 
 152      3B42DD92 
 153 0288 A9F419EA 		.ascii	"\251\364\031\352\371\320\351\213\300\031\340\327\024"
 153      F9D0E98B 
 153      C019E0D7 
 153      14
 154 0295 4D3706A1 		.ascii	"M7\006\241\245\034\"!%wUD;#-\315b{\373U\261\263-\222"
 154      A51C2221 
 154      25775544 
 154      3B232DCD 
 154      627BFB55 
 155 02ad 6A629118 		.ascii	"jb\221\030\251O&{\010W<\244xV\333\240\374\337\347\001"
 155      A94F267B 
 155      08573CA4 
 155      7856DBA0 
 155      FCDFE701 
 156 02c1 4241     		.ascii	"BA"
 157              		.text
 158              		.section	.gnu.lto_.symbol_nodes.a61bb71b7b8582ef,"",%progbits
 159 0000 789C4DCD 		.ascii	"x\234M\315\271R\002A\020\200\341\376gv\226K\324D\216"
 159      B9520241 
 159      1080E1FE 
ARM GAS  /tmp/ccznN900.s 			page 12


 159      6776964B 
 159      D4448E
 160 0013 E7F2819A 		.ascii	"\347\362\201\232*\022C\237\300\304\304\367 7\367\340"
 160      2A12439F 
 160      C0C4C4F7 
 160      2037F7E0 
 161 0023 58164401 		.ascii	"X\026D\001\317\200\220r\233\235b\231\344\253\277\272"
 161      CF809072 
 161      9B9D6299 
 161      E4ABBFBA 
 162 0033 ABC78993 		.ascii	"\253\307\211\223k\244|\356\031\025\271}\024Q\275\273"
 162      6BA47CEE 
 162      1915B97D 
 162      1451BDBB 
 163 0043 C14D50AA 		.ascii	"\301MP\252\014\257HPqS\324\235,\315P\177\2624\206b)"
 163      0CAF4850 
 163      7153D49D 
 163      2CCD507F 
 163      B2348662 
 164 0058 BCE08C27 		.ascii	"\274\340\214'\274\221\221H\301\234`\344\244\306\202"
 164      BC919148 
 164      C19C60E4 
 164      A4C682
 165 0067 9AB1A46E 		.ascii	"\232\261\244n\274\3210V4\215wZ\306\007g\306\232\266"
 165      BCD13056 
 165      348D775A 
 165      C60767C6 
 165      9AB6
 166 0079 B1E1DCD8 		.ascii	"\261\341\334\330ra|rY\3007\232\224\337\017\006\360\205"
 166      72617C72 
 166      59C0379A 
 166      94DF0F06 
 166      F085
 167 008b 86AA7ED0 		.ascii	"\206\252~\320\264\252_\264V\325\037Z?\226\227\216\014"
 167      B4AA5FB4 
 167      56D51F5A 
 167      3F96978E 
 167      0C
 168 009c 67FBC22B 		.ascii	"g\373\302+\271?\330\221Q\354<\3660\213\363,\316c\347"
 168      B93FD891 
 168      51EC3CF6 
 168      308BF32C 
 168      CE63E7
 169 00af 265DC91F 		.ascii	"&]\311\037v\251\367\275\322\244\177\270'\377y\343_M"
 169      76A9F7BD 
 169      D2A47FB8 
 169      27FF79E3 
 169      5F4D
 170              		.text
 171              		.section	.gnu.lto_.refs.a61bb71b7b8582ef,"",%progbits
 172 0000 789C35C1 		.ascii	"x\2345\301\307\021\2000\014\0000[\\\350\201P6a\377\335"
 172      C7118030 
 172      0C00305B 
 172      5CE88150 
 172      3661FFDD 
 173 0014 78704842 		.ascii	"xpHB<\361\311\014\272\220J\321\377\353`4\231-V\325f"
 173      3CF1C90C 
ARM GAS  /tmp/ccznN900.s 			page 13


 173      BA904AD1 
 173      FFEB6034 
 173      992D56D5 
 174 0029 D71C4E97 		.ascii	"\327\034N\227;^\"\266\001\\"
 174      3B5E22B6 
 174      015C
 175              		.text
 176              		.section	.gnu.lto_.decls.a61bb71b7b8582ef,"",%progbits
 177 0000 789CAD9B 		.ascii	"x\234\255\233\013p\324F\232\200\325\322\330\343\301"
 177      0B70D446 
 177      9A80D5D2 
 177      D8E3C1
 178 000f E69DE448 		.ascii	"\346\235\344Hm\022\314^r\273I\035\330\006BH\325\335"
 178      6D12CC5E 
 178      72BB491D 
 178      D8064248 
 178      D5DD
 179 0021 023114A1 		.ascii	"\0021\024\241*\354Q6\331K\325\326\355\254\030\013<\207"
 179      2AEC5136 
 179      D94BD5D6 
 179      EDAC180B 
 179      3C87
 180 0033 3DE39B91 		.ascii	"=\343\233\2211\324^U\204\241 \313c16$\004\2101\257\360"
 180      31D45E55 
 180      84A120CB 
 180      63313624 
 180      048831AF 
 181 0048 0C18CC33 		.ascii	"\014\030\3143\200\231\3600^C\300\274\011^`\022\2073"
 181      8099F030 
 181      5E43C0BC 
 181      095E6012 
 181      8733
 182 005a 24B92C81 		.ascii	"$\271,\201\220\004L\230\373\273%\215\036\323\232\221"
 182      90044C98 
 182      FBBB258D 
 182      1ED39A91 
 183 006a E0547423 		.ascii	"\340Tt#\311\335\337\377\367\337\177w\377jiX\206e\236"
 183      C9DDDFFF 
 183      F7DF7F77 
 183      FF6A6958 
 183      86659E
 184 007d 61192606 		.ascii	"a\031&\006\307\336a\014\363z\027\206Ic\030\3467\220"
 184      C7DE610C 
 184      F37A1786 
 184      496318E6 
 184      3790
 185 008f 3C905642 		.ascii	"<\220VBZ\005i\035\244\365\2206B\332\004\351#H[ \325"
 185      5A05691D 
 185      A4F59036 
 185      42DA04E9 
 185      23485B20 
 186 00a4 33F281CB 		.ascii	"3\362\201\313\356\206\264\017R#\244O \035\205t\034\322"
 186      EE86B40F 
 186      5223A44F 
 186      201D8574 
 186      1CD2
 187 00b6 A7902A10 		.ascii	"\247\220*\020\303\374\011RO8\177\033\376\237\001i>\244"
ARM GAS  /tmp/ccznN900.s 			page 14


 187      C3FC0952 
 187      4F387F1B 
 187      FE9F0169 
 187      3EA4
 188 00c8 A5907642 		.ascii	"\245\220vB\332\003i\037\244FH\237@:\002\351\030\244"
 188      DA03691F 
 188      A446489F 
 188      403A02E9 
 188      18A4
 189 00da 16489F42 		.ascii	"\026H\237Bj\205t\026\322\005H\237!\306p`\271\2406\323"
 189      6A857416 
 189      D205489F 
 189      21C67060 
 189      B9A036D3 
 190 00ee 86343D9B 		.ascii	"\2064=\233(\272\252m\301\007\247\324;\256\350i>p;2\030"
 190      28BAAA6D 
 190      C107A7D4 
 190      3BAEE869 
 190      3E703B32 
 191 0103 D916DD20 		.ascii	"\331\026\335 eAj\205$\201\214\277A\272\002\351\244R"
 191      65416A85 
 191      24818CBF 
 191      41BA02E9 
 191      A452
 192 0115 9655CAE3 		.ascii	"\226U\312\343v\"\245}\372\2431\005\353*\244\251Hc5*"
 192      7622A57D 
 192      FAA33105 
 192      EB2AA4A9 
 192      4863352A 
 193 0129 F6A2B13E 		.ascii	"\366\242\261>Q\352\273\025\333_\203\277\3777\244\016"
 193      51EABB15 
 193      DB5F83BF 
 193      FF37A40E 
 194 0139 1D3B0AD7 		.ascii	"\035;\012\327_@\372\022\322uH\377\300\312\254\007\220"
 194      5F40FA12 
 194      D27548FF 
 194      C0CAAC07 
 194      90
 195 014a 652A0CDC 		.ascii	"e*\014\334\027}\340\376/ =\007\251\037\244\227 \365"
 195      177DE0FE 
 195      2F203D07 
 195      A91FA497 
 195      20F5
 196 015c 87940B69 		.ascii	"\207\224\013i\020\244!l\242]2\2319\222T)\325\315\222"
 196      10A4216C 
 196      A25D3299 
 196      39925429 
 196      D5CD92
 197 016f 5E6FEED6 		.ascii	"^o\356\326\223\251\222\340\310^\322\315\303\274\203"
 197      93A992E0 
 197      C85ED2CD 
 197      C3BC83
 198 017e 6F47D74A 		.ascii	"oG\327J}\3720\314[\210Gp+\203\234dy\210\360\027\230"
 198      7DFA30CC 
 198      5B884770 
 198      2B839C64 
 198      7988F017 
ARM GAS  /tmp/ccznN900.s 			page 15


 199 0193 355014CA 		.ascii	"5P\024\312\263<Z\215<\320P\026%\342\361!\377\035\037"
 199      B33C5A8D 
 199      3CD05016 
 199      25E2F121 
 199      FF1D1F
 200 01a6 B8BA7CAE 		.ascii	"\270\272|\256\236\305P\234\276\036\251\370'\225j\253"
 200      9EC5509C 
 200      BE1EA9F8 
 200      27956AAB 
 201 01b6 504F7246 		.ascii	"POrF\224\221\024\035I\011\245J\266Z\303\245\324\370"
 201      9491141D 
 201      4909A54A 
 201      B65AC3A5 
 201      D4F8
 202 01c8 502728CB 		.ascii	"P'(\313\243\235<\241\250bUo%\312La\020Y]\245\376\222"
 202      A39D3CA1 
 202      A862556F 
 202      25CA4C61 
 202      10595DA5 
 203 01de B8AABD15 		.ascii	"\270\252\275\025\300z\307\252n\260P\265W\012U\3279S"
 203      C07AC7AA 
 203      6EB050B5 
 203      570A55D7 
 203      3953
 204 01f0 759C5ABF 		.ascii	"u\234Z\277\213R\177\223cM7[h\352I\241\351\306\344\232"
 204      8B527F93 
 204      634D375B 
 204      68EA49A1 
 204      E9C6E49A 
 205 0204 D60D37A9 		.ascii	"\326\0157\251:\\\005d(\200-\216U\335j\241\252;\205\252"
 205      3A5C0564 
 205      28802D8E 
 205      55DD6AA1 
 205      AA3B85AA 
 206 0218 1F69AA2A 		.ascii	"\037i\252*\236/\315\222~\275\276[\274F\017\265\006\036"
 206      9E2FCD92 
 206      7EBDBE5B 
 206      BC460FB5 
 206      061E
 207 022a 42C4F5AB 		.ascii	"B\304\365\253\242[\227=)\271xTO\234\377\237\021\363"
 207      A25B973D 
 207      29B97854 
 207      4F9CFF9F 
 207      11F3
 208 023c 12B3411E 		.ascii	"\022\263A\036\021\207~\2210\006\234p;\367\036\346$)"
 208      11877E91 
 208      30069C70 
 208      3BF71EE6 
 208      2429
 209 024e 83473B08 		.ascii	"\203G;\010y9B\240a\003zI\001\361\210\363\350\301\344"
 209      793942A0 
 209      61037A49 
 209      01F188F3 
 209      E8C1E4
 210 0261 5A2D8069 		.ascii	"Z-\200i\234G;\211\3058\306Y\341\276L\255T\027\215.;"
 210      9C473B89 
 210      C538C659 
ARM GAS  /tmp/ccznN900.s 			page 16


 210      E1BE4CAD 
 210      54178D2E 
 211 0276 7E8D7F5F 		.ascii	"~\215\177_\212\314\224b\261\267\231\247\230\305J\007"
 211      8ACC9462 
 211      B1B799A7 
 211      98C54A07 
 212 0286 4848E4D1 		.ascii	"HH\344\321o\236\2644\344\036\364\224r\366\246\"\230"
 212      6F9EB434 
 212      E41EF494 
 212      72F6A622 
 212      98
 213 0297 654E991A 		.ascii	"eN\231\032\3000\377\304\254\305<i\275\304\021\032.\277"
 213      C030FFC4 
 213      ACC53C69 
 213      BDC4111A 
 213      2EBF
 214 02a9 1BF5352A 		.ascii	"\033\3655*\272\027\031\246+Y\257HmKV\325\364h,\326W"
 214      BA1719A6 
 214      2B59AF48 
 214      6D4B56D5 
 214      F4682CD6 
 215 02be 96C5C2A4 		.ascii	"\226\305\302\244h\207\276\317L\337O\245\2373\323;m\321"
 215      6887BECF 
 215      4CDF4FA5 
 215      9F33D33B 
 215      6DD1
 216 02d0 1BCDF483 		.ascii	"\033\315\364\203Tz\254e\376\323R]e$\026\033f6i=\262"
 216      547AAC65 
 216      FED3525D 
 216      6524161B 
 216      6636693D 
 217 02e5 76EA4314 		.ascii	"v\352C\024\233\316g\251zUJ\365\353\2454\031\207+|\002"
 217      9BCE67A9 
 217      7A554AF5 
 217      EBA53419 
 217      872B7C02 
 218 02f9 8AD13C4D 		.ascii	"\212\321<M\341\035NT3Z\025\275w\346\333J\264pF]\263"
 218      E11D4E54 
 218      335A15BD 
 218      77E6DB4A 
 218      B470465D 
 219 030e 742B16EB 		.ascii	"t+\026\353\356\240\363\233\024E9Y\206a\320\307\027\224"
 219      EEA0F39B 
 219      14453959 
 219      8661D0C7 
 219      1794
 220 0320 489F259A 		.ascii	"H\237%\232\373\033V\024\036\255A/\330]-\022\2047kCX"
 220      FB1B5614 
 220      1EAD412F 
 220      D85D2D12 
 220      84376B43 
 221 0335 3314B1D5 		.ascii	"3\024\261\325\336\004[\311\205Zh\255\217\3549>OB\252"
 221      DE045BC9 
 221      855A68AD 
 221      8FEC393E 
 221      4F42AA
 222 0348 13341127 		.ascii	"\0234\021'h\262\000\234\240\232\357\314\273G\\\357K"
ARM GAS  /tmp/ccznN900.s 			page 17


 222      68B2009C 
 222      A09AEFCC 
 222      BB475CEF 
 222      4B
 223 0359 879C8E9C 		.ascii	"\207\234\216\234\223I\214\327\213YH\346\366f\315ru."
 223      93498CD7 
 223      8B5948E6 
 223      F666CD72 
 223      752E
 224 036b 15309289 		.ascii	"\0250\222\211\317\034\177_\361,\236\221N\243^\000\271"
 224      CF1C7F5F 
 224      F12C9E91 
 224      4EA35E00 
 224      B9
 225 037c 6BD23A25 		.ascii	"k\322:%\204e\036\222*\347\240\272\\Q^\343\243\333\226"
 225      84651E92 
 225      2AE7A0BA 
 225      5C515EE3 
 225      A3DB96
 226 038f 5EA944D3 		.ascii	"^\251D\323\241\005\362\337\030\2121\224\243\037S\007"
 226      A105F2DF 
 226      188A3194 
 226      A31F5307 
 227 039f 15223FB6 		.ascii	"\025\"?\266,GR\335!D\021i\230\344\025\265\027|\325\354"
 227      2C4752DD 
 227      21441169 
 227      98E415B5 
 227      177CD5EC 
 228 03b3 2213DE25 		.ascii	"\"\023\336%\242\370\006\216\252x\335p+\014t1\251\322"
 228      A2F8068E 
 228      AA78DD70 
 228      2B0C7431 
 228      A9D2
 229 03c5 96A0F8E5 		.ascii	"\226\240\370\345S\252\342m6\024\257\214\234\236\363"
 229      53AAE26D 
 229      3614AF8C 
 229      9C9EF3
 230 03d4 C1D35871 		.ascii	"\301\323Xq\036\265\202;\261LK\234K\353\266\370*\243"
 230      1EB5823B 
 230      B14C4B9C 
 230      4BEBB6F8 
 230      2AA3
 231 03e6 7A6B378F 		.ascii	"zk7\217\211w\006\346\023^\205\235r\014\313\246\251\252"
 231      897706E6 
 231      135E859D 
 231      720CCBA6 
 231      A9AA
 232 03f8 7A9FD65A 		.ascii	"z\237\326Z\036]!\003\347*\352\007y\024\362\370\3012"
 232      1E5D2103 
 232      E72AEA07 
 232      7914F2F8 
 232      C132
 233 040a E738B54F 		.ascii	"\3478\265Oi\246K\335\204{-\313\211I\224\001,;$}\030"
 233      69A64BDD 
 233      847B2DCB 
 233      89499401 
 233      2C3B247D 
ARM GAS  /tmp/ccznN900.s 			page 18


 234 041f 2ADD79B7 		.ascii	"*\335y\267\366\310i4\203X\375K\262\202\325\270\214\035"
 234      F6C86934 
 234      8358FD4B 
 234      B282D5B8 
 234      8C1D
 235 0431 6A1FD5B9 		.ascii	"j\037\325\271r~\016\361\214\016\002Z\3462/\205n\323"
 235      727E0EF1 
 235      8C0E025A 
 235      E6322F85 
 235      6ED3
 236 0443 52E836AE 		.ascii	"R\3506\256nn\217v\202\237\210\2723N\213\263\314\032"
 236      6E6E8F76 
 236      829F88BA 
 236      334E8BB3 
 236      CC1A
 237 0455 97C980B4 		.ascii	"\227\311\200\264n\313\2602 v\302\253\325\250f\206\324"
 237      6ECBB032 
 237      2076C2AB 
 237      D5A86686 
 237      D4
 238 0466 9CAB3A72 		.ascii	"\234\253:r\272U\253\301\367\211\260o\314\216|\245\275"
 238      BA55ABC1 
 238      F789B06F 
 238      CC8E7CA5 
 238      BD
 239 0477 F9C52592 		.ascii	"\371\305%\222\324C\376Sj?\336\331\362\036\351\264\224"
 239      D443FE53 
 239      6A3FDED9 
 239      F21EE9B4 
 239      94
 240 0488 B308AB8A 		.ascii	"\263\010\253\212\177\236\210\217\022\361\337\231\305"
 240      7F9E888F 
 240      12F1DF99 
 240      C5
 241 0495 EFED68FE 		.ascii	"\357\355h\376\275,\376;[\342\367^\\\224(\336r\366S\372"
 241      BD2CFE3B 
 241      5BE2F75E 
 241      5C9428DE 
 241      72F653FA 
 242 04a9 FA4AFB8D 		.ascii	"\372J\373\215gV\020!w\311pY\232f\356\354a\231zY\344"
 242      67561021 
 242      77C97059 
 242      9A66EEEC 
 242      61997A59 
 243 04be 5A578065 		.ascii	"ZW\200eV\247\251\332?\322h\205f\336\370\217\015\333"
 243      56A7A9DA 
 243      3FD26885 
 243      66DEF88F 
 243      0DDB
 244 04d0 25E9CFE9 		.ascii	"%\351\317\351\252\016\037:&f\033\014\261\377\"\031\377"
 244      AA0E1F3A 
 244      26661B0C 
 244      B1FF2219 
 244      FF
 245 04e1 326C831D 		.ascii	"2l\203\035\230\245#UF\032\365\260\315\216aF\315Z\365"
 245      98A52355 
 245      461AF5B0 
ARM GAS  /tmp/ccznN900.s 			page 19


 245      CD8E6146 
 245      CD5AF5
 246 04f4 B0AD7660 		.ascii	"\260\255v`=\2545;\243\207mw\0143jvN\017\333i\007\326"
 246      3DAC353B 
 246      A3876D77 
 246      0C336A76 
 246      4E0FDB69 
 247 050a C75AB30B 		.ascii	"\307Z\263\013z\330^\3070\243f\227\364\260\003v`\331"
 247      7AD85EC7 
 247      30A36697 
 247      F4B00376 
 247      60D9
 248 051c 14CDE287 		.ascii	"\024\315\342\207U$pK\213dX&\222\246N\010\016}\232\321"
 248      5524704B 
 248      8B645826 
 248      92A64E08 
 248      0E7D9AD1 
 249 0530 1887D39C 		.ascii	"\030\207\323\234\316`\206v\303\014vm\225<\203\251K\331"
 249      CE608676 
 249      C30C766D 
 249      953C83A9 
 249      4BD9
 250 0542 313BC424 		.ascii	"1;\304$\016Su\\\267.~\352\030f\354\226Z\031\326L`g\355"
 250      0E53755C 
 250      B72E7EEA 
 250      1866EC96 
 250      5A19D64C 
 251 0559 C092384C 		.ascii	"\300\2228L+\206\321\"\327\310,\351\0354}\3333I#\031"
 251      2B86D122 
 251      D7C82CE9 
 251      1D347DDB 
 251      33492319 
 252 056d 98C39EDD 		.ascii	"\230\303\236\335H\346\260\032\026/X\227\322\250+\237"
 252      48E6B01A 
 252      162F5897 
 252      D2A82B9F 
 253 057d 2D56E7E7 		.ascii	"-V\347\347\013\376\205\254}\357\022T{\302t\3501\255"
 253      0BFE85AC 
 253      7DEF1254 
 253      7BC274E8 
 253      31AD
 254 058f 7D1EE362 		.ascii	"}\036\343b\346\361h'1\3650n\321\330\256c\345\252\325"
 254      E6F16827 
 254      31F5306E 
 254      D1D8AE63 
 254      E5AAD5
 255 05a2 ACCE55BF 		.ascii	"\254\316U\277qlz\263\233\375P\215\356TJKru\273OV\017"
 255      716C7AB3 
 255      9BFD508D 
 255      EE544A4B 
 255      7275BB4F 
 256 05b8 0B6AAC71 		.ascii	"\013j\254q\265\361_\211\221\226\021#\335\241\333\333"
 256      B5F15F89 
 256      91961123 
 256      DDA1DBDB 
 257 05c8 06A8F3E6 		.ascii	"\006\250\363\346}\226\200j\011\350A\202\265\221\311"
 257      7D96806A 
ARM GAS  /tmp/ccznN900.s 			page 20


 257      09E84182 
 257      B591C9
 258 05d7 DAC868B9 		.ascii	"\332\310h\271\370s\212\362\230\342\244,\313\314L7\231"
 258      F8738AF2 
 258      98E2A42C 
 258      CBCC4C37 
 258      99
 259 05e8 CEA06292 		.ascii	"\316\240b\222\311$n\272\007\316MW\253\230n5i\361\234"
 259      C9246EBA 
 259      07CE4D57 
 259      AB986E35 
 259      69F19C
 260 05fb 74738BB1 		.ascii	"ts\213\261%\2345\243\332q32\214\315X\032{\204f\034\224"
 260      259C35A3 
 260      DA713332 
 260      8CCD581A 
 260      7B84661C 
 261 0610 9BB19E34 		.ascii	"\233\261\2364c\311\377C3\352\0347\243\207\256\031\344"
 261      63C9FF43 
 261      33EA1C37 
 261      A387AE19 
 261      E4
 262 0621 B163913C 		.ascii	"\261c\221<_\366f\252\223G|d\363\211\355m\010\267\"\347"
 262      5FF666AA 
 262      93477C64 
 262      F389ED6D 
 262      08B722E7 
 263 0635 4FA26CF9 		.ascii	"O\242l\371v\352G\255;'u\341\271d+<\277\032\017\317\353"
 263      76EA47AD 
 263      3B2775E1 
 263      B9642B3C 
 263      BF1A0FCF 
 264 064a 89C9D6A6 		.ascii	"\211\311\326\246S\006\215-T\347\317\363\372\023\333"
 264      53068D2D 
 264      54E7CFF3 
 264      FA13DB
 265 0659 3710D0A6 		.ascii	"7\020\320\246\004\333\247\233L\237n4=\\bI?\221Y\346"
 265      04DBA79B 
 265      4C9F6E34 
 265      3D5C6249 
 265      3F9159E6 
 266 066d 6DE50EBE 		.ascii	"m\345\016\276p3\217\\\217e\032\210\032\330|\217\022"
 266      70338F5C 
 266      8F651A88 
 266      1AD87C8F 
 266      12
 267 067e 06E2C7DD 		.ascii	"\006\342\307\335/k\324\345N\266\320\307\217E\254\214"
 267      2F6BD4E5 
 267      4EB6D0C7 
 267      8F45AC8C 
 268 068e AC58A03E 		.ascii	"\254X\240>V\016\303k\324\341\307\304\355?e^\243L\201"
 268      560EC36B 
 268      D4E1C7C4 
 268      ED3F655E 
 268      A34C81
 269 06a1 F6698B39 		.ascii	"\366i\2139X}\336n\217\312s\335\001\226<\344&t[+2E\332"
 269      587DDE6E 
ARM GAS  /tmp/ccznN900.s 			page 21


 269      8FCA73DD 
 269      01963CE4 
 269      26745B2B 
 270 06b8 F886AE88 		.ascii	"\370\206\256\210\225'\357\327/\007W\036\267\033.\337"
 270      9527EFD7 
 270      2F07571E 
 270      B71B2EDF 
 271 06c8 357543FB 		.ascii	"5uC\373c\332\355\236\322\015\251\236\212\376\250\262"
 271      63DAED9E 
 271      D20DA99E 
 271      8AFEA8B2 
 272 06d8 B24843BE 		.ascii	"\262HC\276&b\217\262\246\207\242\357~\214\316B\225d"
 272      26628FB2 
 272      A687A2EF 
 272      7E8CCE42 
 272      9564
 273 06ea 1CE1BFA5 		.ascii	"\034\341\277\245\036\252m\327=Ru\226\274\313\301\243"
 273      1EAA6DD7 
 273      3D527596 
 273      BCCBC1A3 
 274 06fa 2F10AB50 		.ascii	"/\020\253Pi1@J\363D\256\012\315\271N\006}\223:\350["
 274      6931404A 
 274      F344AE0A 
 274      CDB94E06 
 274      7D933AE8 
 275 070f E479D26D 		.ascii	"\344y\322m\356\364\006\363<\351h\320\325\272\221\261"
 275      EEF406F3 
 275      3CE968D0 
 275      D5BA91B1 
 276 071f 39761F6E 		.ascii	"9v\037n\342\207\225S\035\321;\325*\367c\271\0008U\323"
 276      E2879553 
 276      1DD13BD5 
 276      2AF763B9 
 276      003855D3 
 277 0733 1AD9A952 		.ascii	"\032\331\251R9\201\024\177\307\323\203H\336@$\2376{"
 277      3981147F 
 277      C7D38348 
 277      DE40249F 
 277      367B
 278 0745 C1F9CEE6 		.ascii	"\301\371\316\346\331\312\026\323i[^p\227\342\005\247"
 278      D9CA16D3 
 278      695B5E70 
 278      97E205A7 
 279 0755 1FD10BC0 		.ascii	"\037\321\013\300\245o\376\025\021\234\034J\237\211+"
 279      A56FFE15 
 279      119C1C4A 
 279      9F892B
 280 0764 E9B01714 		.ascii	"\351\260\027\024\334\003\301\251ad\377\212|v\035/Y\237"
 280      DC03C1A9 
 280      6164FF8A 
 280      7C761D2F 
 280      599F
 281 0776 B178FFEE 		.ascii	"\261x\377\356R\202k\311\226\321\271\226fF\036\235e\361"
 281      52826BC9 
 281      96D1B996 
 281      66461E9D 
 281      65F1
ARM GAS  /tmp/ccznN900.s 			page 22


 282 0788 DED53916 		.ascii	"\336\3259\026\357]\235'\371EV\267\203e\345\026\227X"
 282      EF5D9D27 
 282      F94556B7 
 282      8365E516 
 282      9758
 283 079a DD7EEF35 		.ascii	"\335~\3575\263\031\355>\341\244\024\323\252\367\276"
 283      B319ED3E 
 283      E1A414D3 
 283      AAF7BE
 284 07a9 E8637A5F 		.ascii	"\350cz_\375\345\223.\374R\205s\260\231v\365\250:p\257"
 284      FDE5932E 
 284      FC528573 
 284      B09976F5 
 284      A83A70AF 
 285 07bd 9281DB91 		.ascii	"\222\201\333\221`\335\016shjgW\353\316\2436%~\260"
 285      60DD0E73 
 285      686A6757 
 285      EBCEA336 
 285      257EB0
 286 07d0 CC7DB78D 		.ascii	"\314}\267\215\200?\233b\365\370B{a\221\315\2351\365"
 286      803F9B62 
 286      F5F8427B 
 286      6191CD9D 
 286      31F5
 287 07e2 95DBFF44 		.ascii	"\225\333\377D\344\235\342/\211\247=0\331\302\306\006"
 287      E49DE22F 
 287      89A73D30 
 287      D9C2C606 
 288 07f2 DBDC0C5C 		.ascii	"\333\334\014\\\245\303<\214\267-=\241\356\024w\330\030"
 288      A5C33C8C 
 288      B72D3DA1 
 288      EE1477D8 
 288      18
 289 0803 C6959106 		.ascii	"\306\225\221\006\303N\261\352\201\035\311=0\251=\015"
 289      C34EB1EA 
 289      811DC93D 
 289      30A93D0D 
 290 0813 5DD8A11B 		.ascii	"]\330\241\033 7\311\000\371J?(XfY\206\015\333\377\332"
 290      2037C900 
 290      F94A3F28 
 290      58665986 
 290      0DDBFFDA 
 291 0827 CA15611A 		.ascii	"\312\025a\032:#o\321\253\233\356\253\315<\332Dd\340"
 291      3A236FD1 
 291      AB9BEEAB 
 291      CD3CDA44 
 291      64E0
 292 0839 E9FB129E 		.ascii	"\351\373\022\236\350\317\222\207p\331G7\333Q.\327\032"
 292      E8CF9287 
 292      70D94737 
 292      DB512ED7 
 292      1A
 293 084a B6A2266E 		.ascii	"\266\242&n\\\022\241\354\264\303\033j\325\330\312\310"
 293      5C12A1EC 
 293      B4C31B6A 
 293      D5D8CAC8 
 294 085a EEB3CB15 		.ascii	"\356\263\313\025\236\274!}\3001\317\250\337\371\032"
ARM GAS  /tmp/ccznN900.s 			page 23


 294      9EBC217D 
 294      C031CFA8 
 294      DFF91A
 295 0869 433CD764 		.ascii	"C<\327d\0077\334v\337k\357_xt\201l\354_$\033\373\355"
 295      0737DC76 
 295      DF6BEF5F 
 295      7874816C 
 295      EC5F241B 
 296 087f 24FF9AE4 		.ascii	"$\377\232\344s\311D9\237\344\013H\276\220\344KI\276"
 296      73C94439 
 296      9FE40B48 
 296      BE90E44B 
 296      49BE
 297 0891 8AE4EB48 		.ascii	"\212\344\353H\276\231\344\355$\377\206\344\337\222\374"
 297      BE99E4ED 
 297      24FF86E4 
 297      DF92FC
 298 08a0 16C96F93 		.ascii	"\026\311o\223\374{;\023\256)\0064\275d;\221A\177G\366"
 298      FC7B3B13 
 298      AE290634 
 298      BD643B91 
 298      417F47F6 
 299 08b4 034B7B47 		.ascii	"\003K{Gv\366\302\303\032\353W\2148\332\263\322\342'"
 299      76F6C2C3 
 299      1AEB578C 
 299      38DAB3D2 
 299      E227
 300 08c6 D6F09A4C 		.ascii	"\326\360\232LU\313\240K\233\205.\367i\272D\032\252\347"
 300      55CBA04B 
 300      9B852EF7 
 300      69BA441A 
 300      AAE7
 301 08d8 3D2DADA4 		.ascii	"=-\255\244\276\225M\362\272\356\201Y\217z\362Xi\320"
 301      BE954DF2 
 301      BAEE8159 
 301      8F7AF258 
 301      69D0
 302 08ea E3BA851E 		.ascii	"\343\272\205\036\017\215z\374\222Y)E[\243\313\216?\330"
 302      0F8D7AFC 
 302      92592945 
 302      5BA3CB8E 
 302      3FD8
 303 08fc 8660FE6A 		.ascii	"\206`\376j\206\321\011\021V_\365\203\016\034\320\343"
 303      86D10911 
 303      565FF583 
 303      0E1CD0E3 
 304 090c 462A9AD4 		.ascii	"F*\232\324\305\227\337'\024\234\3049\375Lb:G\377L\302"
 304      C597DF27 
 304      149CC439 
 304      FD4C623A 
 304      47FF4CC2 
 305 0920 1557FD56 		.ascii	"\025W\375V\\uK\261\225\034\253oA}$\362\363\261E0\247"
 305      5C754BB1 
 305      951CAB6F 
 305      417D24F2 
 305      F3B14530 
 306 0935 4048FC10 		.ascii	"@H\374\020\364\327\324\217\007\024\221do\001\0227\364"
ARM GAS  /tmp/ccznN900.s 			page 24


 306      F4D7D48F 
 306      07149164 
 306      6F011237 
 306      F4
 307 0946 2D24EBED 		.ascii	"-$\353\3552,\211Yf)f\321\232k\276d\231\237R7s\266\322"
 307      322C8959 
 307      662966D1 
 307      9A6BBE64 
 307      999F5237 
 308 095d CCC14C83 		.ascii	"\314\301L\203\364Nd\034\217f\0027>\214\377\304\334\227"
 308      F44E641C 
 308      8F660237 
 308      3E8CFFC4 
 308      DC97
 309 096f C0EAE596 		.ascii	"\300\352\345\226\237\342\324j\276\034\231\250\262od"
 309      9FE2D46A 
 309      BE1C99A8 
 309      B26F64
 310 097e 29F0B98E 		.ascii	")\360\271\216\273n\236E\327ud1\006\253%T\234\303\305"
 310      BB6E9E45 
 310      D7756431 
 310      06AB2554 
 310      9CC3C5
 311 0991 0319D9E1 		.ascii	"\003\031\331\341\"\237\315\336\212\252\352\346\301\352"
 311      229FCDDE 
 311      8AAAEAE6 
 311      C1EA
 312 099f 47DE7563 		.ascii	"G\336uc]X\246\323l\021\203\326\304\333Yf\266\007\251"
 312      5D58A6D3 
 312      6C1183D6 
 312      C4DB5966 
 312      B607A9
 313 09b2 8E8FFF96 		.ascii	"\216\217\377\226\026\337\307!\222\376\302\351\335[\301"
 313      16DFC721 
 313      92FEC2E9 
 313      DD5BC1
 314 09c1 20662473 		.ascii	" f$s\030L\025\211\315\376\025\3517\325r\262f0\227q\277"
 314      184C1589 
 314      CDFE15E9 
 314      37D572B2 
 314      66309771 
 315 09d6 D4B5AB99 		.ascii	"\324\265\253\231\325\325e\325\272\013\347\330\251[\225"
 315      D5D565D5 
 315      BA0BE7D8 
 315      A95B95
 316 09e5 A6ABCBA9 		.ascii	"\246\253\313\251ukl\325\275\344\326\325u\251u\027\333"
 316      756B6CD5 
 316      BDE4D6D5 
 316      75A97517 
 316      DB
 317 09f6 AA5BD745 		.ascii	"\252[\327E3o]$r\367\177!\320\227\310\004G\031\013\206"
 317      336F5D24 
 317      72F77F21 
 317      D097C804 
 317      47190B86 
 318 0a0a A7F68816 		.ascii	"\247\366\210\026i\303\372\202R\004\333\321{\325G\363"
 318      69C3FA82 
ARM GAS  /tmp/ccznN900.s 			page 25


 318      5204DBD1 
 318      7BD547F3 
 319 0a1a 200A4A19 		.ascii	" \012J\031\233\363h\005\367\002\355\275\277\261\030"
 319      9BF36805 
 319      F702EDBD 
 319      BFB118
 320 0a29 F9008E33 		.ascii	"\371\000\2163\006D\221N![\276\233:\024\372\371\347f"
 320      0644914E 
 320      215BBE9B 
 320      3A14FAF9 
 320      E766
 321 0a3b F919A499 		.ascii	"\371\031\244\231L\305U,\253\000\037)H\216\304n\022\234"
 321      4CC5552C 
 321      AB001F29 
 321      488EC46E 
 321      129C
 322 0a4d 694B037F 		.ascii	"iK\003\177\216c\345\332k9\323\213\300\005\036\344P\205"
 322      8E63E5DA 
 322      6B39D38B 
 322      C0051EE4 
 322      5085
 323 0a5f 6C830A55 		.ascii	"l\203\012UM$\230\301\\\226Yl\007\226\344\231\252Z\017"
 323      4D2498C1 
 323      5C96596C 
 323      0796E499 
 323      AA5A0F
 324 0a72 AB750CCB 		.ascii	"\253u\014\3136\031]\215\014Vq\344[\031\016\257\337k"
 324      36195D8D 
 324      0C5671E4 
 324      5B190EAF 
 324      DF6B
 325 0a84 48BE8EE4 		.ascii	"H\276\216\344\0338C\234\370\241\307\374\270 w\252\216"
 325      1B38439C 
 325      F8A1C7FC 
 325      B82077AA 
 325      8E
 326 0a95 A7F53D93 		.ascii	"\247\365=\223\232H\357\003Sg\325Z\264\217|M\310\031"
 326      9A48EF03 
 326      5367D55A 
 326      B48F7C4D 
 326      C819
 327 0aa7 F6962C91 		.ascii	"\366\226,\221<Z\256\225T\347\"\316\030\234\361h\231"
 327      3C5AAE95 
 327      54E722CE 
 327      189CF168 
 327      99
 328 0ab8 E309F423 		.ascii	"\343\011\364#\213\011\264k\334d\333<\346)0A\354\026"
 328      8B09B46B 
 328      DC64DB3C 
 328      E6293041 
 328      EC16
 329 0aca 98E29E63 		.ascii	"\230\342\236c\366{>\220\344\276\222\027\207('+dX\035"
 329      F67B3E90 
 329      E4BE9217 
 329      8728272B 
 329      64581D
 330 0add 9648B0B2 		.ascii	"\226H\260\262\037\340\250\013\004V\365\003\235=\364"
ARM GAS  /tmp/ccznN900.s 			page 26


 330      1FE0A80B 
 330      0456F503 
 330      9D3DF4
 331 0aec F7F576E2 		.ascii	"\367\365v\342\321\016\245\235\211\207U;\267\033\347"
 331      D10EA59D 
 331      8987553B 
 331      B71BE7
 332 0afb FB5B55D1 		.ascii	"\373[U\321}[\376Z\203\026Iuj\200\001m$S~\314c\016Sx"
 332      7D5BFE5A 
 332      83164975 
 332      6A80016D 
 332      24537ECC 
 333 0b13 B48B3E87 		.ascii	"\264\213>\207\253\015\232\333\310\311\022\024\364\331"
 333      AB0D9ADB 
 333      C8C91214 
 333      F4D9
 334 0b21 ED74F4E1 		.ascii	"\355t\364\341.\211\350\27544\253\331\312\204n\333EG"
 334      2E89E8BD 
 334      3434ABD9 
 334      CA846EDB 
 334      4547
 335 0b33 CFCE4C44 		.ascii	"\317\316LD\357\247\2419M\353\203F\364\235\217\351\350"
 335      EFA7A139 
 335      4DEB8346 
 335      F49D8FE9 
 335      E8
 336 0b44 E314F441 		.ascii	"\343\024\364A\032\332\245\241\217\344\031\320\235\215"
 336      1ADAA5A1 
 336      8FE419D0 
 336      9D8D
 337 0b52 74F482AC 		.ascii	"t\364\202\254D\364!\032:M3\310Q#\272\246\235\216>KA"
 337      44F4211A 
 337      3A4D33C8 
 337      5123BAA6 
 337      9D8E3E4B 
 338 0b67 1FA5A1D3 		.ascii	"\037\245\241\3235\255\217\031\321\313:\350\350\367\272"
 338      35AD8F19 
 338      D1CB3AE8 
 338      E8F7BA
 339 0b76 26A29B69 		.ascii	"&\242\233ih\267\246\365\011#\272\341k:\272\215\202>"
 339      68B7A6F5 
 339      0923BAE1 
 339      6B3ABA8D 
 339      823E
 340 0b88 4E436768 		.ascii	"NCghZ\2374\242\367\375\235\216^\321-\021}\222\206\366"
 340      5A9F34A2 
 340      F7FD9D8E 
 340      5ED12D11 
 340      7D9286F6 
 341 0b9c 685A9F32 		.ascii	"hZ\2372\242\317\336\241\243\333)\350\3234t\027M\353"
 341      A2CFDEA1 
 341      A3DB29E8 
 341      D3347417 
 341      4DEB
 342 0bae F34674DB 		.ascii	"\363Ft\333\217t\364\272\356\211\350s4t\246\246\365\005"
 342      8F74F4BA 
 342      EE89E873 
ARM GAS  /tmp/ccznN900.s 			page 27


 342      3474A6A6 
 342      F505
 343 0bc0 23FA4E27 		.ascii	"#\372N'\035\3755\005}\221\206\316\322\320\027M~\035"
 343      1DFD3505 
 343      7D9186CE 
 343      D2D0174D 
 343      7E1D
 344 0bd2 A3A3B7F6 		.ascii	"\243\243\267\366HD_\246\241\273\222\023uj7\255\033M"
 344      48445FA6 
 344      A1BB9213 
 344      756A37AD 
 344      1B4D
 345 0be4 4916F936 		.ascii	"I\026\3716\216\3765\271\374\374cU\353o\226\265N&\221"
 345      8EFE35B9 
 345      FCFC6355 
 345      EB6F96B5 
 345      4E2691
 346 0bf7 75C5B216 		.ascii	"u\305\262\026~\374\264\252u\325\262\326\203$\265\256"
 346      7EFCB4AA 
 346      75D5B2D6 
 346      8324B5AE 
 347 0c07 69B5AC3E 		.ascii	"i\265\254>\2147}\272\313\243\250\343U\357s\213U\017"
 347      8C377DBA 
 347      CBA3A8E3 
 347      55EF738B 
 347      550F
 348 0c19 19459B7F 		.ascii	"\031E\233\177=0T-\347V8_8\226\334n!9]\221LH3\222n\205"
 348      3D30542D 
 348      E756385F 
 348      3896DC6E 
 348      21395D91 
 349 0c33 F2E806D9 		.ascii	"\362\350\006\331\006I\275\257I\213u\323U\324\037\231"
 349      0649BDAF 
 349      498B75D3 
 349      55D41F99 
 350 0c43 78045DF3 		.ascii	"x\004]\363\341\355\200\274\251z\235\303\273_\337\233"
 350      E1ED80BC 
 350      A97A9DC3 
 350      BB5FDF9B 
 351 0c53 DC372587 		.ascii	"\3347%\207(e\216\231k\332\262\360\347\2677RG\3153gD"
 351      28658E99 
 351      6BDAB2F0 
 351      E7B73752 
 351      47CD3367 
 352 0c68 16B7C5F7 		.ascii	"\026\267\305\367\2448\334\263RO\2440\037!l\006\336\273"
 352      A438DCB3 
 352      524FA430 
 352      1F216C06 
 352      DEBB
 353 0c7a 6D24CC94 		.ascii	"m$\314\224a3\035\303\262\015\260%z\330;v`V\0010\300"
 353      61331DC3 
 353      B20DB025 
 353      7AD83B76 
 353      60560130 
 354 0c8f 96EA61F3 		.ascii	"\226\352a\363\035\303\214\232-\327\303\252\355\300\254"
 354      1DC38C9A 
 354      2DD7C3AA 
ARM GAS  /tmp/ccznN900.s 			page 28


 354      EDC0AC
 355 0c9e 3E430258 		.ascii	">C\002X\255\036\266\3301\314\250Y\275\036\366\276\035"
 355      AD1EB6D8 
 355      31CCA859 
 355      BD1EF6BE 
 355      1D
 356 0caf 98D56748 		.ascii	"\230\325gH\000\333\256\207\255p\0143j\266C\017[k\007"
 356      00DBAE87 
 356      AD700C33 
 356      6AB6430F 
 356      5B6B07
 357 0cc2 966DADD9 		.ascii	"\226m\255\331.=l\243c\230Q\263=z\330\026;0\253-m\200"
 357      2E3D6CA3 
 357      639851B3 
 357      3D7AD816 
 357      3B30AB2D 
 358 0cd8 7DAC876D 		.ascii	"}\254\207mw\0143j\266_\017\333e\007\226k\245\331\364"
 358      770C336A 
 358      B65F0FDB 
 358      6507966B 
 358      A5D9F4
 359 0ceb 48E3EFAB 		.ascii	"H\343\357\253x}l\217\251\352\264bz\024\327\027\353@"
 359      787D6C8F 
 359      A9EAB462 
 359      7A14D717 
 359      EB40
 360 0cfd 96C57834 		.ascii	"\226\305x4\313\345t&\236\355\242\317\304\372_\010i\245"
 360      CBE57426 
 360      9EEDA2CF 
 360      C4FA5F08 
 360      69A5
 361 0d0f F0670FE6 		.ascii	"\360g\017\346f\033\265\240\265\333h\304V\275\021\033"
 361      661BB5A0 
 361      B5DB68C4 
 361      56BD111B 
 362 0d1f ED1871B8 		.ascii	"\355\030q\2705\354\214\036v\330\016\354uk_9\247\207"
 362      35EC8C1E 
 362      76D80EEC 
 362      756B5F39 
 362      A787
 363 0d31 1D730C33 		.ascii	"\035s\0143jvA\017;a\0076\316Z\263Kz\330)\3070\275f\323"
 363      6A76410F 
 363      3B610736 
 363      CE5AB34B 
 363      7AD829C7 
 364 0d49 239735C7 		.ascii	"#\2275\307\303?\2370x\336p\343lk(\326\221\344Wy\213"
 364      C33F9F30 
 364      78DE70E3 
 364      6C6B28D6 
 364      91E45779 
 365 0d5e 5DEABEEA 		.ascii	"]\352\276\352\347\306}\325\317\265}\325\363f\275\015"
 365      E7C67DD5 
 365      CFB57DD5 
 365      F366BD0D 
 366 0d6e 14E5F42D 		.ascii	"\024\345\364-\212\021h\207~\245\345\321M\262\357\361"
 366      8A116887 
 366      7EA5E5D1 
ARM GAS  /tmp/ccznN900.s 			page 29


 366      4DB2EFF1 
 367 0d7e 15D999F8 		.ascii	"\025\331\231\370\206\344\337\222\374\026\311o\223\374"
 367      86E4DF92 
 367      FC16C96F 
 367      93FC
 368 0d8c 7B92FF40 		.ascii	"{\222\377@\362\237H~\237\344\017H\376\220\344\222\013"
 368      F29F487E 
 368      9FE40F48 
 368      FE90E492 
 368      0B
 369 0d9d E795249F 		.ascii	"\347\225$\237I\362?\223|.\311\347\223|\001\311\027\222"
 369      49F23F93 
 369      7C2EC9E7 
 369      937C01C9 
 369      1792
 370 0daf BCC6A5DB 		.ascii	"\274\306\245\333\0051\305w\327\223\354w\274\347\212"
 370      0531C577 
 370      D793EC77 
 370      BCE78A
 371 0dbe C777F885 		.ascii	"\307w\370\205C\344V\364\373-\227'\253?\255\353'\377"
 371      43E456F4 
 371      FB2D9727 
 371      AB3FADEB 
 371      27FF
 372 0dd0 BC8B65EE 		.ascii	"\274\213e\356\3654\007\320\324\037t-q%\375A\327\373"
 372      F53407D0 
 372      D41F742D 
 372      7125FD41 
 372      D7FB
 373 0de2 AE84371C 		.ascii	"\256\2047\034 p\367\366\333\177\330\214\277k\227\036"
 373      2070F7F6 
 373      DB7FD88C 
 373      BF6B971E 
 374 0df2 C6DE9E3E 		.ascii	"\306\336\236>\023\251?n\333\324\213*S2\376\270m\231"
 374      13A93F6E 
 374      DBD48B2A 
 374      5332FEB8 
 374      6D99
 375 0e04 CBF4E3B6 		.ascii	"\313\364\343\266\345T!{:Z\227\242\2053$\371\225N]\206"
 375      E554217B 
 375      3A5A97A2 
 375      853324F9 
 375      954E5D86 
 376 0e18 2A64A72D 		.ascii	"*d\247-!\265f!+\250Bb\015\267_\277\247\265\244\237\375"
 376      21B56621 
 376      2BA84262 
 376      0DB75FBF 
 376      A7B5A49F 
 377 0e2d F735AB5C 		.ascii	"\3675\253\\\246\3675\035\211\357k\2763\250\252\354u"
 377      A6F7351D 
 377      89EF6BBE 
 377      33A8AAEC 
 377      75
 378 0e3e C77A2931 		.ascii	"\307z)1\362\363\314jI\252\226N7eU!\365\007)\363{\223"
 378      F2F3CC6A 
 378      49AA964E 
 378      37655521 
ARM GAS  /tmp/ccznN900.s 			page 30


 378      F50729F3 
 379 0e54 ED3CAD53 		.ascii	"\355<\255SLq\253\362j^i\361\235\351\343\372\304[\274"
 379      4C71ABF2 
 379      6A5E69F1 
 379      9DE9E3FA 
 379      C45BBC
 380 0e67 D2DCE235 		.ascii	"\322\334\3425\324\026\337\335r\310\277\327\320w\262"
 380      D416DFDD 
 380      72C8BFD7 
 380      D077B2
 381 0e76 BFD4F4B6 		.ascii	"\277\324\364\266\345/\033\223\373\313&\252\314\345\373"
 381      E52F1B93 
 381      FBCB26AA 
 381      CCE5FB
 382 0e85 5A9E4D70 		.ascii	"Z\236Mp\320\013\366\004~\224\\\340\026\252\300\035\007"
 382      D00BF604 
 382      7E945CE0 
 382      16AAC01D 
 382      07
 383 0e96 2FBF9820 		.ascii	"/\277\230 \260\366\011[\002\353\223\013\334f1\"\316"
 383      B0F6095B 
 383      02EB930B 
 383      DC663122 
 383      CE
 384 0ea7 14D346C4 		.ascii	"\024\323F\3046\272L\223\2636\230\273n\207\325\210\370"
 384      36BA4C93 
 384      B33698BB 
 384      6E87D588 
 384      F8
 385 0eb8 8036220E 		.ascii	"\2006\"\016\330\022\262\313,d\267Q\010\343\362\025\363"
 385      D812B2CB 
 385      2C64B751 
 385      08E3F215 
 385      F3
 386 0ec9 A1E7070C 		.ascii	"\241\347\007\014\310\221\377\005\3039!1\307\037\360"
 386      C891FF05 
 386      C3392131 
 386      C71FF0
 387 0ed8 95941709 		.ascii	"\225\224\027\0119\276\342\360\264\2608\255L\010\017"
 387      39BEE2F0 
 387      B4B038AD 
 387      4C080F
 388 0ee7 28663CF8 		.ascii	"(f<\370\334_*x\305\364\321\277}3;\237\371CNq\260T\310"
 388      DC5F2A78 
 388      C5F4D1BF 
 388      7D333B9F 
 388      F9434E71 
 389 0efe E14B84A9 		.ascii	"\341K\204\2519c\205\200\030\014\215\016\361e\305~_8"
 389      39638580 
 389      180C8D0E 
 389      F165C57E 
 389      5F38
 390 0f10 A730581E 		.ascii	"\2470X\036\362\011\241i\336\374`\221\360\232\020\360"
 390      F209A169 
 390      DEFC6091 
 390      F09A10F0 
 391 0f20 157BDFF0 		.ascii	"\025{\337\360\213\202wb0\344\035Q0\326;j\304kcr\370"
ARM GAS  /tmp/ccznN900.s 			page 31


 391      8B827762 
 391      30E41D51 
 391      30D63B6A 
 391      C46B6372 
 392 0f35 5069FF40 		.ascii	"Pi\377@0 \364\027\370\011\376\270\314\260X\344\017\210"
 392      3020F417 
 392      F809FEB8 
 392      CCB058E4 
 392      0F88
 393 0f47 202FA31C 		.ascii	" /\243\034\376\317\033\342\025_\214k'\012a\021\353\027"
 393      FECF1BE2 
 393      155F8C6B 
 393      270A6111 
 393      EB17
 394 0f59 2678F912 		.ascii	"&x\371\022g\336P0(\016\3601O\220\213\262\020T\364\226"
 394      67DE5030 
 394      280EF031 
 394      4F908BB2 
 394      1054F496 
 395 0f6d 0543A2D7 		.ascii	"\005C\242\327\037\230\030|\212\334\024\205P\251?\300"
 395      1F98187C 
 395      8ADC1485 
 395      50A93FC0 
 396 0f7d 830E6271 		.ascii	"\203\016bqH\340\213\302=\311\355\012\336/\252w\272\351"
 396      48E08BC2 
 396      3DC9ED0A 
 396      DE2FAA77 
 396      BAE9
 397 0f8f EEF87D93 		.ascii	"\356\370}\223\2371\212-\361O\000{x\3619(\227"
 397      9F318A2D 
 397      F14F007B 
 397      78F13928 
 397      97
 398 0fa0 A5492A09 		.ascii	"\245I*\011t\321.\376\321\322\222\212\020\3340\371\324"
 398      74D12EFE 
 398      D1D2928A 
 398      10DC30F9 
 398      D4
 399 0fb1 2B7A308F 		.ascii	"+z0\217\234g[w\200\257\270\010\352tW\252{\377\253\\"
 399      9C675B77 
 399      80AFB808 
 399      EA7457AA 
 399      7BFFAB5C 
 400 0fc5 288736F4 		.ascii	"(\2076\364\210WUn\271\002\302T\321U\026\022\246\244"
 400      8857556E 
 400      B902C254 
 400      D1551612 
 400      A6A4
 401 0fd7 91EBA17A 		.ascii	"\221\353\241z\242/XZ\032\014\344`\223\204s\300\376\371"
 401      A22F585A 
 401      1A0CE460 
 401      938473C0 
 401      FEF9
 402 0fe9 63A7E27B 		.ascii	"c\247\342{e\376\022!\024\316\031\235\237\217\365S\272"
 402      65FE1221 
 402      14CE199D 
 402      9F8FF553 
ARM GAS  /tmp/ccznN900.s 			page 32


 402      BA
 403 0ffa D92D4243 		.ascii	"\331-BC\202^"
 403      825E
 404 1000 91987FD0 		.ascii	"\221\230\177\320@/\206\372\203Y\304\234\276`@\0041/"
 404      402F86FA 
 404      8359C49C 
 404      BE604004 
 404      312F
 405 1012 A66417FB 		.ascii	"\246d\027\373\202!\001`\231J/\210>qj\177{\265\274S^"
 405      82210160 
 405      994A2F88 
 405      3E716A7F 
 405      7BB5BC53 
 406 1027 29C5460A 		.ascii	")\305F\012\011\223\300A\274\"\033\032\314\206^fCC\330"
 406      0993C041 
 406      BC221B1A 
 406      CC865E66 
 406      4343D8
 407 103a D02B6C68 		.ascii	"\320+lh(\033z\225\013\345\345B\312cKBl\270\214\003t"
 407      281B7A95 
 407      0BE5E542 
 407      CA634B42 
 407      6CB88C03 
 408 104f 5A40A810 		.ascii	"Z@\250\020Bi\301\222\"!\344\012\360\245B\227\2608\231"
 408      4269C192 
 408      2221E40A 
 408      F0A54297 
 408      B03899
 409 1062 2FF14F0A 		.ascii	"/\361O\012(\355\0302\030\274\266\202\237\300\207\205"
 409      28ED1832 
 409      18BCB682 
 409      9FC08785 
 410 1072 0C312C12 		.ascii	"\0141,\0227p\343?\014\365\212i\344\332-\226\202\253"
 410      3770E33F 
 410      0CF58A69 
 410      E4DA2D96 
 410      82AB
 411 1084 C2D5C412 		.ascii	"\302\325\304\022~R\330-\206\204\211ah;\376/\2554<\011"
 411      7E52D82D 
 411      86848961 
 411      683BFE2F 
 411      AD343C09 
 412 1098 8A2BE648 		.ascii	"\212+\346H\017\025M\203\033\031\302T\277\350\203*\351"
 412      0F154D83 
 412      1B19C254 
 412      BFE8832A 
 412      E9
 413 10a9 156270C2 		.ascii	"\025bp\302\177\226\365R:\025*\010!px\214\252\020\305"
 413      7F96F552 
 413      3A152A08 
 413      2170788C 
 413      AA10C5
 414 10bc 50993B0C 		.ascii	"P\231;\014C\003*dA\217\205\205R\030 \320\310\276\326"
 414      43032A64 
 414      418F8585 
 414      521820D0 
 414      C8BED6
ARM GAS  /tmp/ccznN900.s 			page 33


 415 10cf FD2DE0D6 		.ascii	"\375-\340\326\247\371\300\203E\016r\300\303\255\262"
 415      A7F9C083 
 415      450E72C0 
 415      C3ADB2
 416 10de 0CA85D5A 		.ascii	"\014\250]Z\016\306\267\256Y*N\3055\203\025\001!\344"
 416      0EC6B7AE 
 416      592A4EC5 
 416      35831501 
 416      21E4
 417 10f0 2665719B 		.ascii	"&eq\233E\270]\226)L\301J\360\341\311pK\250\300'\250"
 417      45B85D96 
 417      294CC14A 
 417      F0E1C970 
 417      4BA8C027 
 418 1105 BC9BEA3F 		.ascii	"\274\233\352?%~<>\272\353<\012\337q\343\201\340\017"
 418      257E3C3E 
 418      BAEB3C0A 
 418      DF71E381 
 418      E00F
 419 1117 4CCA00DD 		.ascii	"L\312\000\335\211Ge\010eB\000\306\346$7 q\011\350\""
 419      89476508 
 419      654200C6 
 419      E6243720 
 419      7109E822 
 420 112b BE043B47 		.ascii	"\276\004;GZiY0X\322\315W<\276\270h\274:\316<\344\362"
 420      5A695930 
 420      58D2CD57 
 420      3CBEB868 
 420      BC3ACE3C 
 421 1141 DF01D285 		.ascii	"\337\001\322\205\234\025\226\010B\231[\221\300V\360"
 421      9C159608 
 421      42995B91 
 421      C056F0
 422 1150 9964D04C 		.ascii	"\231d\320L(\237\010\366r\223\276\022\212\322\302\202"
 422      289F08F6 
 422      7293BE12 
 422      8AD2C282 
 423 1160 585E9621 		.ascii	"X^\226!\012|\250\010\332\341\026\246\012>h\010\031_"
 423      0A7CA808 
 423      DAE116A6 
 423      0A3E6808 
 423      195F
 424 1172 3EE83BAF 		.ascii	">\350;\257(\017\265p9L&=\006\024\361\"?@\273\221\227"
 424      280FB570 
 424      394C263D 
 424      0614F122 
 424      3F40BB91 
 425 1187 7A9E080B 		.ascii	"z\236\010\013\320\024\3349\271\271y`\254\236\0117\235"
 425      D014DC39 
 425      B9B97960 
 425      AC9E0937 
 425      9D
 426 1198 3106D218 		.ascii	"1\006\322\030\003\2351\006\321\030\203\2341\006\323"
 426      039D3106 
 426      D118839C 
 426      3106D3
 427 11a7 18839D31 		.ascii	"\030\203\2351^\2461^v\306\030Bc\014q\306x\205\306x\305"
ARM GAS  /tmp/ccznN900.s 			page 34


 427      5EA6315E 
 427      76C61842 
 427      630C71C6 
 427      7885C678 
 428 11bc 1963288D 		.ascii	"\031c(\2151\324\031\343U\032\343UG\214\274\\\012#/\327"
 428      31D419E3 
 428      551AE355 
 428      478CBC5C 
 428      0A232FD7 
 429 11d0 1983E6A7 		.ascii	"\031\203\346\247y\316\3744\217\346\247y\316\3744\217"
 429      79CEFC34 
 429      8FE6A779 
 429      CEFC348F 
 430 11e0 E6A77983 		.ascii	"\346\247y\203\006\352\247\243b\276D\231\321\013\307"
 430      06EAA7A3 
 430      62BE4499 
 430      D10BC7
 431 11ef 8F1D3430 		.ascii	"\217\03540\347\2157F\346\214\0373vJ\036,\352\245x\356"
 431      E78D3746 
 431      E68C1F33 
 431      764A1E2C 
 431      EAA578EE 
 432 1203 F4E3B92D 		.ascii	"\364\343\271-3~\0013\\~A\036\244\201\256\302\261\371"
 432      337E0133 
 432      5C7E411E 
 432      A481AEC2 
 432      B1F9
 433 1215 05AE9163 		.ascii	"\005\256\221cF\025\260\205\005\334\250\321\005i\371"
 433      4615B085 
 433      05DCA8D1 
 433      0569F9
 434 1224 F9630BF2 		.ascii	"\371c\013\362H>\320\225\237?\252\200\313\377\355xn\\"
 434      483ED095 
 434      9F3FAA80 
 434      CBFFED78 
 434      6E5C
 435 1236 613E37A2 		.ascii	"a>7\242\240\200+\310\207k\250\360\332\310\361\005\334"
 435      A0802BC8 
 435      876BA8F0 
 435      DAC8F105 
 435      DC
 436 1247 485C73EC 		.ascii	"H\\s\354\210\002\366\337\344Z\203\240\374[\005\317Y"
 436      8802F6DF 
 436      E45A83A0 
 436      FC5B05CF 
 436      59
 437 1258 CE9353F0 		.ascii	"\316\223S\360\372\335\323W\374\273\361\243\005\261\020"
 437      FADDD357 
 437      FCBBF1A3 
 437      05B110
 438 1267 621AA174 		.ascii	"b\032\241t<\2045I\246\344i$\374\361\025C\3417\202\276"
 438      3C843549 
 438      A6E46924 
 438      FCF11543 
 438      E13782BE 
 439 127b C91EB2A8 		.ascii	"\311\036\262\250\225\300Y\236\276\216\262\244\301\372"
 439      95C0599E 
ARM GAS  /tmp/ccznN900.s 			page 35


 439      BE8EB2A4 
 439      C1FA
 440 1289 98933FB6 		.ascii	"\230\223?\266pL\241F(\015\373\303\336I>\037P\272z\301"
 440      704CA146 
 440      280DFBC3 
 440      DE493E1F 
 440      50BA7AC1 
 441 129d 7CA2F7B5 		.ascii	"|\242\367\265\021\205\243\306\025\214\351\312\227T\360"
 441      1185A3C6 
 441      158CE9CA 
 441      9754F0
 442 12ac D3C2B040 		.ascii	"\323\302\260@\226\370\003B\332\024\276\244\\\350\225"
 442      96F80342 
 442      DA14BEA4 
 442      5CE895
 443 12bb A0D95B39 		.ascii	"\240\331[96WN\034\235\205@Ho\242 \271\362N\022\344\263"
 443      36574E1C 
 443      9D854048 
 443      6FA220B9 
 443      F24E12E4 
 444 12d0 41F63A0A 		.ascii	"A\366:\012\376\342\205..)\301AG/\371\2140|\301rX\373"
 444      FEE2852E 
 444      2E29C141 
 444      472FF98C 
 444      307CC172 
 445 12e6 4399C40A 		.ascii	"C\231\304\012o\006p\353\345\305\275\234\234\377\037"
 445      6F0670EB 
 445      E5C5BD9C 
 445      9CFF1F
 446 12f5 813CDFA1 		.ascii	"\201<\337\241"
 447              		.text
 448              		.section	.gnu.lto_.symtab.a61bb71b7b8582ef,"",%progbits
 449 0000 74657374 		.ascii	"test_print_port_info\000\000\000\000\000\000\000\000"
 449      5F707269 
 449      6E745F70 
 449      6F72745F 
 449      696E666F 
 450 001c 00000000 		.ascii	"\000\000\000\000\267\000\000\000test_terminate_thre"
 450      B7000000 
 450      74657374 
 450      5F746572 
 450      6D696E61 
 451 0037 61647300 		.ascii	"ads\000\000\000\000\000\000\000\000\000\000\000\000"
 451      00000000 
 451      00000000 
 451      000000
 452 0046 BB000000 		.ascii	"\273\000\000\000threads\000\000\000\000\000\000\000"
 452      74687265 
 452      61647300 
 452      00000000 
 452      0000
 453 0058 00000000 		.ascii	"\000\000\000\000\000\177\001\000\000test_wait_threa"
 453      007F0100 
 453      00746573 
 453      745F7761 
 453      69745F74 
 454 0070 64730000 		.ascii	"ds\000\000\000\000\000\000\000\000\000\000\000\000\276"
ARM GAS  /tmp/ccznN900.s 			page 36


 454      00000000 
 454      00000000 
 454      0000BE
 455 007f 00000074 		.ascii	"\000\000\000test_wait_tick\000\000\000\000\000\000\000"
 455      6573745F 
 455      77616974 
 455      5F746963 
 455      6B000000 
 456 0097 00000000 		.ascii	"\000\000\000\000\000\301\000\000\000wa\000\000\000\000"
 456      00C10000 
 456      00776100 
 456      000000
 457 00a6 00000000 		.ascii	"\000\000\000\000\000\000\000\000\203\001\000\000tes"
 457      00000000 
 457      83010000 
 457      746573
 458 00b5 745F6275 		.ascii	"t_buffer\000\000\000\000\000\000\000\000\000\000\000"
 458      66666572 
 458      00000000 
 458      00000000 
 458      000000
 459 00c8 008D0100 		.ascii	"\000\215\001\000\000test_suite\000\000\000\000\000\000"
 459      00746573 
 459      745F7375 
 459      69746500 
 459      00000000 
 460 00dd 00000000 		.ascii	"\000\000\000\000\000\000\232\001\000\000test_sequen"
 460      00009A01 
 460      00007465 
 460      73745F73 
 460      65717565 
 461 00f2 63655F30 		.ascii	"ce_001\000\000\002\000\000\000\000\000\000\000\000\000"
 461      30310000 
 461      02000000 
 461      00000000 
 461      0000
 462 0104 B5010000 		.ascii	"\265\001\000\000test_sequence_002\000\000\002\000\000"
 462      74657374 
 462      5F736571 
 462      75656E63 
 462      655F3030 
 463 011e 00000000 		.ascii	"\000\000\000\000\000\000\000\270\001\000\000test_se"
 463      000000B8 
 463      01000074 
 463      6573745F 
 463      7365
 464 0130 7175656E 		.ascii	"quence_003\000\000\002\000\000\000\000\000\000\000\000"
 464      63655F30 
 464      30330000 
 464      02000000 
 464      00000000 
 465 0145 00BB0100 		.ascii	"\000\273\001\000\000test_sequence_004\000\000\002\000"
 465      00746573 
 465      745F7365 
 465      7175656E 
 465      63655F30 
 466 015f 00000000 		.ascii	"\000\000\000\000\000\000\000\000\276\001\000\000tes"
ARM GAS  /tmp/ccznN900.s 			page 37


 466      00000000 
 466      BE010000 
 466      746573
 467 016e 745F7365 		.ascii	"t_sequence_005\000\000\002\000\000\000\000\000\000\000"
 467      7175656E 
 467      63655F30 
 467      30350000 
 467      02000000 
 468 0186 0000C101 		.ascii	"\000\000\301\001\000\000test_sequence_006\000\000\002"
 468      00007465 
 468      73745F73 
 468      65717565 
 468      6E63655F 
 469 01a0 00000000 		.ascii	"\000\000\000\000\000\000\000\000\000\304\001\000\000"
 469      00000000 
 469      00C40100 
 469      00
 470 01ad 74657374 		.ascii	"test_sequence_007\000\000\002\000\000\000\000\000\000"
 470      5F736571 
 470      75656E63 
 470      655F3030 
 470      37000002 
 471 01c7 000000C7 		.ascii	"\000\000\000\307\001\000\000test_sequence_008\000\000"
 471      01000074 
 471      6573745F 
 471      73657175 
 471      656E6365 
 472 01e1 02000000 		.ascii	"\002\000\000\000\000\000\000\000\000\000\312\001\000"
 472      00000000 
 472      0000CA01 
 472      00
 473 01ee 00746573 		.ascii	"\000test_sequence_009\000\000\002\000\000\000\000\000"
 473      745F7365 
 473      7175656E 
 473      63655F30 
 473      30390000 
 474 0208 00000000 		.ascii	"\000\000\000\000\315\001\000\000test_sequence_010\000"
 474      CD010000 
 474      74657374 
 474      5F736571 
 474      75656E63 
 475 0222 00020000 		.ascii	"\000\002\000\000\000\000\000\000\000\000\000\320\001"
 475      00000000 
 475      000000D0 
 475      01
 476 022f 00007465 		.ascii	"\000\000test_sequence_011\000\000\002\000\000\000\000"
 476      73745F73 
 476      65717565 
 476      6E63655F 
 476      30313100 
 477 0249 00000000 		.ascii	"\000\000\000\000\000\323\001\000\000test_sequence_0"
 477      00D30100 
 477      00746573 
 477      745F7365 
 477      7175656E 
 478 0261 31320000 		.ascii	"12\000\000\002\000\000\000\000\000\000\000\000\000\326"
 478      02000000 
ARM GAS  /tmp/ccznN900.s 			page 38


 478      00000000 
 478      0000D6
 479 0270 01000074 		.ascii	"\001\000\000test_sequence_013\000\000\002\000\000\000"
 479      6573745F 
 479      73657175 
 479      656E6365 
 479      5F303133 
 480 028a 00000000 		.ascii	"\000\000\000\000\000\000\331\001\000\000test_printl"
 480      0000D901 
 480      00007465 
 480      73745F70 
 480      72696E74 
 481 029f 6E000002 		.ascii	"n\000\000\002\000\000\000\000\000\000\000\000\000\305"
 481      00000000 
 481      00000000 
 481      00C5
 482 02ad 00000074 		.ascii	"\000\000\000test_print\000\000\002\000\000\000\000\000"
 482      6573745F 
 482      7072696E 
 482      74000002 
 482      00000000 
 483 02c2 00000000 		.ascii	"\000\000\000\000\313\000\000\000chThdTerminate\000\000"
 483      CB000000 
 483      63685468 
 483      64546572 
 483      6D696E61 
 484 02da 02000000 		.ascii	"\002\000\000\000\000\000\000\000\000\000\315\000\000"
 484      00000000 
 484      0000CD00 
 484      00
 485 02e7 00636854 		.ascii	"\000chThdWait\000\000\002\000\000\000\000\000\000\000"
 485      68645761 
 485      69740000 
 485      02000000 
 485      00000000 
 486 02fb 00007701 		.ascii	"\000\000w\001\000\000chThdSleep\000\000\002\000\000"
 486      00006368 
 486      54686453 
 486      6C656570 
 486      00000200 
 487 0310 00000000 		.ascii	"\000\000\000\000\000\000\000{\001\000\000"
 487      0000007B 
 487      010000
 488              		.text
 489              		.section	.gnu.lto_.opts,"",%progbits
 490 0000 272D6D63 		.ascii	"'-mcpu=cortex-m3' '-mno-thumb-interwork' '-mthumb' "
 490      70753D63 
 490      6F727465 
 490      782D6D33 
 490      2720272D 
 491 0033 272D6767 		.ascii	"'-ggdb' '-O2' '-fomit-frame-pointer' '-falign-funct"
 491      64622720 
 491      272D4F32 
 491      2720272D 
 491      666F6D69 
 492 0066 696F6E73 		.ascii	"ions=16' '-ffunction-sections' '-fdata-sections' '-"
 492      3D313627 
ARM GAS  /tmp/ccznN900.s 			page 39


 492      20272D66 
 492      66756E63 
 492      74696F6E 
 493 0099 666E6F2D 		.ascii	"fno-common' '-flto'\000"
 493      636F6D6D 
 493      6F6E2720 
 493      272D666C 
 493      746F2700 
 494              		.text
 495              		.cfi_sections	.debug_frame
 496              		.section	.text.test_print_port_info,"ax",%progbits
 497              		.align	2
 498              		.p2align 4,,15
 499              		.global	test_print_port_info
 500              		.thumb
 501              		.thumb_func
 502              		.type	test_print_port_info, %function
 503              	test_print_port_info:
 504              	.LFB217:
 505              		.file 1 "../../../test/rt/source/test/test_root.c"
 506              		.loc 1 95 0
 507              		.cfi_startproc
 508              		@ args = 0, pretend = 0, frame = 0
 509              		@ frame_needed = 0, uses_anonymous_args = 0
 510              		.loc 1 98 0
 511 0000 40F20000 		movw	r0, #:lower16:.LC0
 512              		.loc 1 95 0
 513 0004 08B5     		push	{r3, lr}
 514              		.cfi_def_cfa_offset 8
 515              		.cfi_offset 3, -8
 516              		.cfi_offset 14, -4
 517              		.loc 1 98 0
 518 0006 C0F20000 		movt	r0, #:upper16:.LC0
 519 000a FFF7FEFF 		bl	test_print
 520              	.LVL0:
 521              		.loc 1 99 0
 522 000e 40F20000 		movw	r0, #:lower16:.LC1
 523 0012 C0F20000 		movt	r0, #:upper16:.LC1
 524 0016 FFF7FEFF 		bl	test_println
 525              	.LVL1:
 526              		.loc 1 101 0
 527 001a 40F20000 		movw	r0, #:lower16:.LC2
 528 001e C0F20000 		movt	r0, #:upper16:.LC2
 529 0022 FFF7FEFF 		bl	test_print
 530              	.LVL2:
 531              		.loc 1 102 0
 532 0026 40F20000 		movw	r0, #:lower16:.LC3
 533 002a C0F20000 		movt	r0, #:upper16:.LC3
 534 002e FFF7FEFF 		bl	test_println
 535              	.LVL3:
 536              		.loc 1 104 0
 537 0032 40F20000 		movw	r0, #:lower16:.LC4
 538 0036 C0F20000 		movt	r0, #:upper16:.LC4
 539 003a FFF7FEFF 		bl	test_print
 540              	.LVL4:
 541              		.loc 1 105 0
 542 003e 40F20000 		movw	r0, #:lower16:.LC5
ARM GAS  /tmp/ccznN900.s 			page 40


 543 0042 C0F20000 		movt	r0, #:upper16:.LC5
 544 0046 FFF7FEFF 		bl	test_println
 545              	.LVL5:
 546              		.loc 1 108 0
 547 004a 40F20000 		movw	r0, #:lower16:.LC6
 548 004e C0F20000 		movt	r0, #:upper16:.LC6
 549 0052 FFF7FEFF 		bl	test_print
 550              	.LVL6:
 551              		.loc 1 111 0
 552 0056 BDE80840 		pop	{r3, lr}
 553              		.loc 1 109 0
 554 005a 40F20000 		movw	r0, #:lower16:.LC7
 555 005e C0F20000 		movt	r0, #:upper16:.LC7
 556 0062 FFF7FEBF 		b	test_println
 557              	.LVL7:
 558              		.cfi_endproc
 559              	.LFE217:
 560              		.size	test_print_port_info, .-test_print_port_info
 561 0066 00BFAFF3 		.section	.text.test_terminate_threads,"ax",%progbits
 561      0080AFF3 
 561      0080
 562              		.align	2
 563              		.p2align 4,,15
 564              		.global	test_terminate_threads
 565              		.thumb
 566              		.thumb_func
 567              		.type	test_terminate_threads, %function
 568              	test_terminate_threads:
 569              	.LFB218:
 570              		.loc 1 135 0
 571              		.cfi_startproc
 572              		@ args = 0, pretend = 0, frame = 0
 573              		@ frame_needed = 0, uses_anonymous_args = 0
 574              	.LVL8:
 575 0000 38B5     		push	{r3, r4, r5, lr}
 576              		.cfi_def_cfa_offset 16
 577              		.cfi_offset 3, -16
 578              		.cfi_offset 4, -12
 579              		.cfi_offset 5, -8
 580              		.cfi_offset 14, -4
 581 0002 064C     		ldr	r4, .L10
 582 0004 04F11405 		add	r5, r4, #20
 583              	.LVL9:
 584              	.L5:
 585              		.loc 1 139 0
 586 0008 54F8043F 		ldr	r3, [r4, #4]!
 587              		.loc 1 140 0
 588 000c 1846     		mov	r0, r3
 589              		.loc 1 139 0
 590 000e 0BB1     		cbz	r3, .L3
 591              		.loc 1 140 0
 592 0010 FFF7FEFF 		bl	chThdTerminate
 593              	.LVL10:
 594              	.L3:
 595              		.loc 1 138 0
 596 0014 AC42     		cmp	r4, r5
 597 0016 F7D1     		bne	.L5
ARM GAS  /tmp/ccznN900.s 			page 41


 598              		.loc 1 141 0
 599 0018 38BD     		pop	{r3, r4, r5, pc}
 600              	.L11:
 601 001a 00BF     		.align	2
 602              	.L10:
 603 001c FCFFFFFF 		.word	.LANCHOR0-4
 604              		.cfi_endproc
 605              	.LFE218:
 606              		.size	test_terminate_threads, .-test_terminate_threads
 607              		.section	.text.test_wait_threads,"ax",%progbits
 608              		.align	2
 609              		.p2align 4,,15
 610              		.global	test_wait_threads
 611              		.thumb
 612              		.thumb_func
 613              		.type	test_wait_threads, %function
 614              	test_wait_threads:
 615              	.LFB219:
 616              		.loc 1 146 0
 617              		.cfi_startproc
 618              		@ args = 0, pretend = 0, frame = 0
 619              		@ frame_needed = 0, uses_anonymous_args = 0
 620              	.LVL11:
 621 0000 70B5     		push	{r4, r5, r6, lr}
 622              		.cfi_def_cfa_offset 16
 623              		.cfi_offset 4, -16
 624              		.cfi_offset 5, -12
 625              		.cfi_offset 6, -8
 626              		.cfi_offset 14, -4
 627 0002 40F20004 		movw	r4, #:lower16:.LANCHOR0
 628 0006 C0F20004 		movt	r4, #:upper16:.LANCHOR0
 629 000a 04F11405 		add	r5, r4, #20
 630              		.loc 1 152 0
 631 000e 0026     		movs	r6, #0
 632              	.LVL12:
 633              	.L15:
 634              		.loc 1 150 0
 635 0010 54F8043B 		ldr	r3, [r4], #4
 636              		.loc 1 151 0
 637 0014 1846     		mov	r0, r3
 638              		.loc 1 150 0
 639 0016 1BB1     		cbz	r3, .L13
 640              		.loc 1 151 0
 641 0018 FFF7FEFF 		bl	chThdWait
 642              	.LVL13:
 643              		.loc 1 152 0
 644 001c 44F8046C 		str	r6, [r4, #-4]
 645              	.L13:
 646              		.loc 1 149 0
 647 0020 AC42     		cmp	r4, r5
 648 0022 F5D1     		bne	.L15
 649              		.loc 1 154 0
 650 0024 70BD     		pop	{r4, r5, r6, pc}
 651              		.cfi_endproc
 652              	.LFE219:
 653              		.size	test_wait_threads, .-test_wait_threads
 654 0026 00BFAFF3 		.section	.text.test_wait_tick,"ax",%progbits
ARM GAS  /tmp/ccznN900.s 			page 42


 654      0080AFF3 
 654      0080
 655              		.align	2
 656              		.p2align 4,,15
 657              		.global	test_wait_tick
 658              		.thumb
 659              		.thumb_func
 660              		.type	test_wait_tick, %function
 661              	test_wait_tick:
 662              	.LFB220:
 663              		.loc 1 159 0
 664              		.cfi_startproc
 665              		@ args = 0, pretend = 0, frame = 0
 666              		@ frame_needed = 0, uses_anonymous_args = 0
 667 0000 08B5     		push	{r3, lr}
 668              		.cfi_def_cfa_offset 8
 669              		.cfi_offset 3, -8
 670              		.cfi_offset 14, -4
 671              		.loc 1 161 0
 672 0002 0120     		movs	r0, #1
 673 0004 FFF7FEFF 		bl	chThdSleep
 674              	.LVL14:
 675              	.LBB50:
 676              	.LBB51:
 677              	.LBB52:
 678              	.LBB53:
 679              	.LBB54:
 680              	.LBB55:
 681              		.file 2 "../../../os/common/ext/CMSIS/include/cmsis_gcc.h"
 682              		.loc 2 264 0
 683 0008 2023     		movs	r3, #32
 684              	@ 264 "../../../os/common/ext/CMSIS/include/cmsis_gcc.h" 1
 685 000a 83F31188 		MSR basepri, r3
 686              	@ 0 "" 2
 687              		.thumb
 688              	.LBE55:
 689              	.LBE54:
 690              	.LBE53:
 691              	.LBE52:
 692              	.LBB56:
 693              	.LBB57:
 694              	.LBB58:
 695              	.LBB59:
 696              		.file 3 "../../../os/hal/ports/STM32/LLD/TIMv1/hal_st_lld.h"
 697              		.loc 3 141 0
 698 000e 4FF08043 		mov	r3, #1073741824
 699 0012 586A     		ldr	r0, [r3, #36]
 700              	.LVL15:
 701              	.LBE59:
 702              	.LBE58:
 703              	.LBE57:
 704              	.LBE56:
 705              	.LBB60:
 706              	.LBB61:
 707              	.LBB62:
 708              	.LBB63:
 709              	.LBB64:
ARM GAS  /tmp/ccznN900.s 			page 43


 710              		.loc 2 264 0
 711 0014 0023     		movs	r3, #0
 712              	@ 264 "../../../os/common/ext/CMSIS/include/cmsis_gcc.h" 1
 713 0016 83F31188 		MSR basepri, r3
 714              	@ 0 "" 2
 715              		.thumb
 716              	.LBE64:
 717              	.LBE63:
 718              	.LBE62:
 719              	.LBE61:
 720              	.LBE60:
 721              	.LBE51:
 722              	.LBE50:
 723              		.loc 1 163 0
 724 001a 80B2     		uxth	r0, r0
 725 001c 08BD     		pop	{r3, pc}
 726              		.cfi_endproc
 727              	.LFE220:
 728              		.size	test_wait_tick, .-test_wait_tick
 729              		.global	wa
 730              		.global	threads
 731              		.global	test_buffer
 732              		.global	test_suite
 733 001e 00BF     		.section	.bss.test_buffer,"aw",%nobits
 734              		.align	3
 735              		.type	test_buffer, %object
 736              		.size	test_buffer, 1640
 737              	test_buffer:
 738 0000 00000000 		.space	1640
 738      00000000 
 738      00000000 
 738      00000000 
 738      00000000 
 739              		.section	.data.test_suite,"aw",%progbits
 740              		.align	2
 741              		.type	test_suite, %object
 742              		.size	test_suite, 56
 743              	test_suite:
 744 0000 00000000 		.word	test_sequence_001
 745 0004 00000000 		.word	test_sequence_002
 746 0008 00000000 		.word	test_sequence_003
 747 000c 00000000 		.word	test_sequence_004
 748 0010 00000000 		.word	test_sequence_005
 749 0014 00000000 		.word	test_sequence_006
 750 0018 00000000 		.word	test_sequence_007
 751 001c 00000000 		.word	test_sequence_008
 752 0020 00000000 		.word	test_sequence_009
 753 0024 00000000 		.word	test_sequence_010
 754 0028 00000000 		.word	test_sequence_011
 755 002c 00000000 		.word	test_sequence_012
 756 0030 00000000 		.word	test_sequence_013
 757 0034 00000000 		.word	0
 758              		.section	.rodata.wa,"a",%progbits
 759              		.align	2
 760              		.type	wa, %object
 761              		.size	wa, 20
 762              	wa:
ARM GAS  /tmp/ccznN900.s 			page 44


 763 0000 00000000 		.word	test_buffer
 764 0004 48010000 		.word	test_buffer+328
 765 0008 90020000 		.word	test_buffer+656
 766 000c D8030000 		.word	test_buffer+984
 767 0010 20050000 		.word	test_buffer+1312
 768              		.section	.rodata.str1.4,"aMS",%progbits,1
 769              		.align	2
 770              	.LC0:
 771 0000 2A2A2A20 		.ascii	"*** Compiler:     \000"
 771      436F6D70 
 771      696C6572 
 771      3A202020 
 771      202000
 772 0013 00       		.space	1
 773              	.LC1:
 774 0014 47434320 		.ascii	"GCC 4.8.1\000"
 774      342E382E 
 774      3100
 775 001e 0000     		.space	2
 776              	.LC2:
 777 0020 2A2A2A20 		.ascii	"*** Architecture: \000"
 777      41726368 
 777      69746563 
 777      74757265 
 777      3A2000
 778 0033 00       		.space	1
 779              	.LC3:
 780 0034 41524D76 		.ascii	"ARMv7-M\000"
 780      372D4D00 
 781              	.LC4:
 782 003c 2A2A2A20 		.ascii	"*** Core Variant: \000"
 782      436F7265 
 782      20566172 
 782      69616E74 
 782      3A2000
 783 004f 00       		.space	1
 784              	.LC5:
 785 0050 436F7274 		.ascii	"Cortex-M3\000"
 785      65782D4D 
 785      3300
 786 005a 0000     		.space	2
 787              	.LC6:
 788 005c 2A2A2A20 		.ascii	"*** Port Info:    \000"
 788      506F7274 
 788      20496E66 
 788      6F3A2020 
 788      202000
 789 006f 00       		.space	1
 790              	.LC7:
 791 0070 41647661 		.ascii	"Advanced kernel mode\000"
 791      6E636564 
 791      206B6572 
 791      6E656C20 
 791      6D6F6465 
 792 0085 000000   		.section	.bss.threads,"aw",%nobits
 793              		.align	2
 794              		.set	.LANCHOR0,. + 0
ARM GAS  /tmp/ccznN900.s 			page 45


 795              		.type	threads, %object
 796              		.size	threads, 20
 797              	threads:
 798 0000 00000000 		.space	20
 798      00000000 
 798      00000000 
 798      00000000 
 798      00000000 
 799              		.text
 800              	.Letext0:
 801              		.file 4 "/home/alex/MentorGraphics/Sourcery_CodeBench_Lite_for_ARM_EABI/lib/gcc/arm-none-eabi/4.8.
 802              		.file 5 "/home/alex/MentorGraphics/Sourcery_CodeBench_Lite_for_ARM_EABI/arm-none-eabi/include/stdi
 803              		.file 6 "../../../os/common/ports/ARMCMx/compilers/GCC/chtypes.h"
 804              		.file 7 "../../../os/rt/include/chsystypes.h"
 805              		.file 8 "../../../os/rt/include/chschd.h"
 806              		.file 9 "../../../os/common/ports/ARMCMx/chcore.h"
 807              		.file 10 "../../../os/common/ports/ARMCMx/chcore_v7m.h"
 808              		.file 11 "../../../os/hal/ports/STM32/LLD/TIMv1/stm32_tim.h"
 809              		.file 12 "../../../os/rt/include/chtm.h"
 810              		.file 13 "../../../os/rt/include/chsem.h"
 811              		.file 14 "../../../os/rt/include/chmtx.h"
 812              		.file 15 "../../../test/lib/ch_test.h"
 813              		.file 16 "../../../os/common/ports/ARMCMx/chcore_timer.h"
 814              		.file 17 "../../../os/rt/include/chsys.h"
 815              		.file 18 "../../../os/rt/include/chvt.h"
 816              		.file 19 "../../../os/common/ext/CMSIS/include/core_cm3.h"
 817              		.file 20 "../../../test/rt/source/test/test_sequence_001.h"
 818              		.file 21 "../../../test/rt/source/test/test_sequence_002.h"
 819              		.file 22 "../../../test/rt/source/test/test_sequence_003.h"
 820              		.file 23 "../../../test/rt/source/test/test_sequence_004.h"
 821              		.file 24 "../../../test/rt/source/test/test_sequence_005.h"
 822              		.file 25 "../../../test/rt/source/test/test_sequence_006.h"
 823              		.file 26 "../../../test/rt/source/test/test_sequence_007.h"
 824              		.file 27 "../../../test/rt/source/test/test_sequence_008.h"
 825              		.file 28 "../../../test/rt/source/test/test_sequence_009.h"
 826              		.file 29 "../../../test/rt/source/test/test_sequence_010.h"
 827              		.file 30 "../../../test/rt/source/test/test_sequence_011.h"
 828              		.file 31 "../../../test/rt/source/test/test_sequence_012.h"
 829              		.file 32 "../../../test/rt/source/test/test_sequence_013.h"
 830              		.file 33 "../../../os/rt/include/chthreads.h"
 831              		.section	.debug_info,"",%progbits
 832              	.Ldebug_info0:
 833 0000 320C0000 		.4byte	0xc32
 834 0004 0400     		.2byte	0x4
 835 0006 00000000 		.4byte	.Ldebug_abbrev0
 836 000a 04       		.byte	0x4
 837 000b 01       		.uleb128 0x1
 838 000c 51050000 		.4byte	.LASF135
 839 0010 01       		.byte	0x1
 840 0011 33060000 		.4byte	.LASF136
 841 0015 31030000 		.4byte	.LASF137
 842 0019 00000000 		.4byte	.Ldebug_ranges0+0
 843 001d 00000000 		.4byte	0
 844 0021 00000000 		.4byte	.Ldebug_line0
 845 0025 02       		.uleb128 0x2
 846 0026 04       		.byte	0x4
 847 0027 05       		.byte	0x5
ARM GAS  /tmp/ccznN900.s 			page 46


 848 0028 696E7400 		.ascii	"int\000"
 849 002c 03       		.uleb128 0x3
 850 002d 12000000 		.4byte	.LASF2
 851 0031 04       		.byte	0x4
 852 0032 D4       		.byte	0xd4
 853 0033 37000000 		.4byte	0x37
 854 0037 04       		.uleb128 0x4
 855 0038 04       		.byte	0x4
 856 0039 07       		.byte	0x7
 857 003a DE010000 		.4byte	.LASF0
 858 003e 04       		.uleb128 0x4
 859 003f 01       		.byte	0x1
 860 0040 06       		.byte	0x6
 861 0041 29010000 		.4byte	.LASF1
 862 0045 03       		.uleb128 0x3
 863 0046 25060000 		.4byte	.LASF3
 864 004a 05       		.byte	0x5
 865 004b 2A       		.byte	0x2a
 866 004c 50000000 		.4byte	0x50
 867 0050 04       		.uleb128 0x4
 868 0051 01       		.byte	0x1
 869 0052 08       		.byte	0x8
 870 0053 DB030000 		.4byte	.LASF4
 871 0057 04       		.uleb128 0x4
 872 0058 02       		.byte	0x2
 873 0059 05       		.byte	0x5
 874 005a F1030000 		.4byte	.LASF5
 875 005e 03       		.uleb128 0x3
 876 005f 8E010000 		.4byte	.LASF6
 877 0063 05       		.byte	0x5
 878 0064 36       		.byte	0x36
 879 0065 69000000 		.4byte	0x69
 880 0069 04       		.uleb128 0x4
 881 006a 02       		.byte	0x2
 882 006b 07       		.byte	0x7
 883 006c FD040000 		.4byte	.LASF7
 884 0070 03       		.uleb128 0x3
 885 0071 D3030000 		.4byte	.LASF8
 886 0075 05       		.byte	0x5
 887 0076 4F       		.byte	0x4f
 888 0077 7B000000 		.4byte	0x7b
 889 007b 04       		.uleb128 0x4
 890 007c 04       		.byte	0x4
 891 007d 05       		.byte	0x5
 892 007e 64010000 		.4byte	.LASF9
 893 0082 03       		.uleb128 0x3
 894 0083 68040000 		.4byte	.LASF10
 895 0087 05       		.byte	0x5
 896 0088 50       		.byte	0x50
 897 0089 8D000000 		.4byte	0x8d
 898 008d 04       		.uleb128 0x4
 899 008e 04       		.byte	0x4
 900 008f 07       		.byte	0x7
 901 0090 8E040000 		.4byte	.LASF11
 902 0094 04       		.uleb128 0x4
 903 0095 08       		.byte	0x8
 904 0096 05       		.byte	0x5
ARM GAS  /tmp/ccznN900.s 			page 47


 905 0097 80010000 		.4byte	.LASF12
 906 009b 03       		.uleb128 0x3
 907 009c D3020000 		.4byte	.LASF13
 908 00a0 05       		.byte	0x5
 909 00a1 78       		.byte	0x78
 910 00a2 A6000000 		.4byte	0xa6
 911 00a6 04       		.uleb128 0x4
 912 00a7 08       		.byte	0x8
 913 00a8 07       		.byte	0x7
 914 00a9 AB000000 		.4byte	.LASF14
 915 00ad 03       		.uleb128 0x3
 916 00ae 24050000 		.4byte	.LASF15
 917 00b2 06       		.byte	0x6
 918 00b3 39       		.byte	0x39
 919 00b4 82000000 		.4byte	0x82
 920 00b8 03       		.uleb128 0x3
 921 00b9 02070000 		.4byte	.LASF16
 922 00bd 06       		.byte	0x6
 923 00be 3C       		.byte	0x3c
 924 00bf 45000000 		.4byte	0x45
 925 00c3 03       		.uleb128 0x3
 926 00c4 6D010000 		.4byte	.LASF17
 927 00c8 06       		.byte	0x6
 928 00c9 3D       		.byte	0x3d
 929 00ca 45000000 		.4byte	0x45
 930 00ce 03       		.uleb128 0x3
 931 00cf 81030000 		.4byte	.LASF18
 932 00d3 06       		.byte	0x6
 933 00d4 3E       		.byte	0x3e
 934 00d5 45000000 		.4byte	0x45
 935 00d9 03       		.uleb128 0x3
 936 00da B5030000 		.4byte	.LASF19
 937 00de 06       		.byte	0x6
 938 00df 40       		.byte	0x40
 939 00e0 82000000 		.4byte	0x82
 940 00e4 03       		.uleb128 0x3
 941 00e5 21020000 		.4byte	.LASF20
 942 00e9 06       		.byte	0x6
 943 00ea 41       		.byte	0x41
 944 00eb 70000000 		.4byte	0x70
 945 00ef 03       		.uleb128 0x3
 946 00f0 5E020000 		.4byte	.LASF21
 947 00f4 06       		.byte	0x6
 948 00f5 43       		.byte	0x43
 949 00f6 82000000 		.4byte	0x82
 950 00fa 03       		.uleb128 0x3
 951 00fb C5010000 		.4byte	.LASF22
 952 00ff 06       		.byte	0x6
 953 0100 45       		.byte	0x45
 954 0101 70000000 		.4byte	0x70
 955 0105 03       		.uleb128 0x3
 956 0106 CB040000 		.4byte	.LASF23
 957 010a 07       		.byte	0x7
 958 010b 35       		.byte	0x35
 959 010c 5E000000 		.4byte	0x5e
 960 0110 03       		.uleb128 0x3
 961 0111 B7040000 		.4byte	.LASF24
ARM GAS  /tmp/ccznN900.s 			page 48


 962 0115 07       		.byte	0x7
 963 0116 3F       		.byte	0x3f
 964 0117 1B010000 		.4byte	0x11b
 965 011b 05       		.uleb128 0x5
 966 011c 17020000 		.4byte	.LASF42
 967 0120 44       		.byte	0x44
 968 0121 08       		.byte	0x8
 969 0122 9A       		.byte	0x9a
 970 0123 F9010000 		.4byte	0x1f9
 971 0127 06       		.uleb128 0x6
 972 0128 06020000 		.4byte	.LASF25
 973 012c 08       		.byte	0x8
 974 012d 9B       		.byte	0x9b
 975 012e 2E020000 		.4byte	0x22e
 976 0132 00       		.byte	0
 977 0133 06       		.uleb128 0x6
 978 0134 24030000 		.4byte	.LASF26
 979 0138 08       		.byte	0x8
 980 0139 9C       		.byte	0x9c
 981 013a D9000000 		.4byte	0xd9
 982 013e 08       		.byte	0x8
 983 013f 07       		.uleb128 0x7
 984 0140 63747800 		.ascii	"ctx\000"
 985 0144 08       		.byte	0x8
 986 0145 9D       		.byte	0x9d
 987 0146 4B040000 		.4byte	0x44b
 988 014a 0C       		.byte	0xc
 989 014b 06       		.uleb128 0x6
 990 014c 2C050000 		.4byte	.LASF27
 991 0150 08       		.byte	0x8
 992 0151 9F       		.byte	0x9f
 993 0152 04020000 		.4byte	0x204
 994 0156 10       		.byte	0x10
 995 0157 06       		.uleb128 0x6
 996 0158 AC040000 		.4byte	.LASF28
 997 015c 08       		.byte	0x8
 998 015d A0       		.byte	0xa0
 999 015e 04020000 		.4byte	0x204
 1000 0162 14       		.byte	0x14
 1001 0163 06       		.uleb128 0x6
 1002 0164 01020000 		.4byte	.LASF29
 1003 0168 08       		.byte	0x8
 1004 0169 A7       		.byte	0xa7
 1005 016a F2060000 		.4byte	0x6f2
 1006 016e 18       		.byte	0x18
 1007 016f 06       		.uleb128 0x6
 1008 0170 A0040000 		.4byte	.LASF30
 1009 0174 08       		.byte	0x8
 1010 0175 B0       		.byte	0xb0
 1011 0176 04070000 		.4byte	0x704
 1012 017a 1C       		.byte	0x1c
 1013 017b 06       		.uleb128 0x6
 1014 017c 5E010000 		.4byte	.LASF31
 1015 0180 08       		.byte	0x8
 1016 0181 B5       		.byte	0xb5
 1017 0182 C3000000 		.4byte	0xc3
 1018 0186 20       		.byte	0x20
ARM GAS  /tmp/ccznN900.s 			page 49


 1019 0187 06       		.uleb128 0x6
 1020 0188 2D060000 		.4byte	.LASF32
 1021 018c 08       		.byte	0x8
 1022 018d B9       		.byte	0xb9
 1023 018e B8000000 		.4byte	0xb8
 1024 0192 21       		.byte	0x21
 1025 0193 06       		.uleb128 0x6
 1026 0194 A0030000 		.4byte	.LASF33
 1027 0198 08       		.byte	0x8
 1028 0199 BE       		.byte	0xbe
 1029 019a CE000000 		.4byte	0xce
 1030 019e 22       		.byte	0x22
 1031 019f 08       		.uleb128 0x8
 1032 01a0 7500     		.ascii	"u\000"
 1033 01a2 08       		.byte	0x8
 1034 01a3 0F01     		.2byte	0x10f
 1035 01a5 27060000 		.4byte	0x627
 1036 01a9 24       		.byte	0x24
 1037 01aa 09       		.uleb128 0x9
 1038 01ab AF010000 		.4byte	.LASF34
 1039 01af 08       		.byte	0x8
 1040 01b0 1401     		.2byte	0x114
 1041 01b2 0A020000 		.4byte	0x20a
 1042 01b6 28       		.byte	0x28
 1043 01b7 09       		.uleb128 0x9
 1044 01b8 55010000 		.4byte	.LASF35
 1045 01bc 08       		.byte	0x8
 1046 01bd 1A01     		.2byte	0x11a
 1047 01bf 2E020000 		.4byte	0x22e
 1048 01c3 2C       		.byte	0x2c
 1049 01c4 09       		.uleb128 0x9
 1050 01c5 27020000 		.4byte	.LASF36
 1051 01c9 08       		.byte	0x8
 1052 01ca 2001     		.2byte	0x120
 1053 01cc EF000000 		.4byte	0xef
 1054 01d0 34       		.byte	0x34
 1055 01d1 09       		.uleb128 0x9
 1056 01d2 16070000 		.4byte	.LASF37
 1057 01d6 08       		.byte	0x8
 1058 01d7 2701     		.2byte	0x127
 1059 01d9 EC060000 		.4byte	0x6ec
 1060 01dd 38       		.byte	0x38
 1061 01de 09       		.uleb128 0x9
 1062 01df 8B020000 		.4byte	.LASF38
 1063 01e3 08       		.byte	0x8
 1064 01e4 2B01     		.2byte	0x12b
 1065 01e6 D9000000 		.4byte	0xd9
 1066 01ea 3C       		.byte	0x3c
 1067 01eb 09       		.uleb128 0x9
 1068 01ec 0C020000 		.4byte	.LASF39
 1069 01f0 08       		.byte	0x8
 1070 01f1 3201     		.2byte	0x132
 1071 01f3 E1020000 		.4byte	0x2e1
 1072 01f7 40       		.byte	0x40
 1073 01f8 00       		.byte	0
 1074 01f9 03       		.uleb128 0x3
 1075 01fa 9D020000 		.4byte	.LASF40
ARM GAS  /tmp/ccznN900.s 			page 50


 1076 01fe 07       		.byte	0x7
 1077 01ff 44       		.byte	0x44
 1078 0200 04020000 		.4byte	0x204
 1079 0204 0A       		.uleb128 0xa
 1080 0205 04       		.byte	0x4
 1081 0206 10010000 		.4byte	0x110
 1082 020a 03       		.uleb128 0x3
 1083 020b F3060000 		.4byte	.LASF41
 1084 020f 07       		.byte	0x7
 1085 0210 49       		.byte	0x49
 1086 0211 15020000 		.4byte	0x215
 1087 0215 05       		.uleb128 0x5
 1088 0216 78040000 		.4byte	.LASF43
 1089 021a 04       		.byte	0x4
 1090 021b 08       		.byte	0x8
 1091 021c 88       		.byte	0x88
 1092 021d 2E020000 		.4byte	0x22e
 1093 0221 06       		.uleb128 0x6
 1094 0222 19000000 		.4byte	.LASF44
 1095 0226 08       		.byte	0x8
 1096 0227 89       		.byte	0x89
 1097 0228 04020000 		.4byte	0x204
 1098 022c 00       		.byte	0
 1099 022d 00       		.byte	0
 1100 022e 03       		.uleb128 0x3
 1101 022f F4050000 		.4byte	.LASF45
 1102 0233 07       		.byte	0x7
 1103 0234 50       		.byte	0x50
 1104 0235 39020000 		.4byte	0x239
 1105 0239 05       		.uleb128 0x5
 1106 023a 06010000 		.4byte	.LASF46
 1107 023e 08       		.byte	0x8
 1108 023f 08       		.byte	0x8
 1109 0240 8F       		.byte	0x8f
 1110 0241 5E020000 		.4byte	0x25e
 1111 0245 06       		.uleb128 0x6
 1112 0246 19000000 		.4byte	.LASF44
 1113 024a 08       		.byte	0x8
 1114 024b 90       		.byte	0x90
 1115 024c 04020000 		.4byte	0x204
 1116 0250 00       		.byte	0
 1117 0251 06       		.uleb128 0x6
 1118 0252 73000000 		.4byte	.LASF47
 1119 0256 08       		.byte	0x8
 1120 0257 91       		.byte	0x91
 1121 0258 04020000 		.4byte	0x204
 1122 025c 04       		.byte	0x4
 1123 025d 00       		.byte	0
 1124 025e 03       		.uleb128 0x3
 1125 025f 00000000 		.4byte	.LASF48
 1126 0263 07       		.byte	0x7
 1127 0264 57       		.byte	0x57
 1128 0265 69020000 		.4byte	0x269
 1129 0269 0B       		.uleb128 0xb
 1130 026a 50020000 		.4byte	.LASF49
 1131 026e 1C       		.byte	0x1c
 1132 026f 08       		.byte	0x8
ARM GAS  /tmp/ccznN900.s 			page 51


 1133 0270 6A01     		.2byte	0x16a
 1134 0272 C5020000 		.4byte	0x2c5
 1135 0276 09       		.uleb128 0x9
 1136 0277 06020000 		.4byte	.LASF25
 1137 027b 08       		.byte	0x8
 1138 027c 6B01     		.2byte	0x16b
 1139 027e 2E020000 		.4byte	0x22e
 1140 0282 00       		.byte	0
 1141 0283 09       		.uleb128 0x9
 1142 0284 24030000 		.4byte	.LASF26
 1143 0288 08       		.byte	0x8
 1144 0289 6C01     		.2byte	0x16c
 1145 028b D9000000 		.4byte	0xd9
 1146 028f 08       		.byte	0x8
 1147 0290 08       		.uleb128 0x8
 1148 0291 63747800 		.ascii	"ctx\000"
 1149 0295 08       		.byte	0x8
 1150 0296 6E01     		.2byte	0x16e
 1151 0298 4B040000 		.4byte	0x44b
 1152 029c 0C       		.byte	0xc
 1153 029d 09       		.uleb128 0x9
 1154 029e 2C050000 		.4byte	.LASF27
 1155 02a2 08       		.byte	0x8
 1156 02a3 7101     		.2byte	0x171
 1157 02a5 04020000 		.4byte	0x204
 1158 02a9 10       		.byte	0x10
 1159 02aa 09       		.uleb128 0x9
 1160 02ab AC040000 		.4byte	.LASF28
 1161 02af 08       		.byte	0x8
 1162 02b0 7201     		.2byte	0x172
 1163 02b2 04020000 		.4byte	0x204
 1164 02b6 14       		.byte	0x14
 1165 02b7 09       		.uleb128 0x9
 1166 02b8 29030000 		.4byte	.LASF50
 1167 02bc 08       		.byte	0x8
 1168 02bd 7501     		.2byte	0x175
 1169 02bf 04020000 		.4byte	0x204
 1170 02c3 18       		.byte	0x18
 1171 02c4 00       		.byte	0
 1172 02c5 03       		.uleb128 0x3
 1173 02c6 D5040000 		.4byte	.LASF51
 1174 02ca 07       		.byte	0x7
 1175 02cb 5C       		.byte	0x5c
 1176 02cc D0020000 		.4byte	0x2d0
 1177 02d0 0A       		.uleb128 0xa
 1178 02d1 04       		.byte	0x4
 1179 02d2 D6020000 		.4byte	0x2d6
 1180 02d6 0C       		.uleb128 0xc
 1181 02d7 E1020000 		.4byte	0x2e1
 1182 02db 0D       		.uleb128 0xd
 1183 02dc E1020000 		.4byte	0x2e1
 1184 02e0 00       		.byte	0
 1185 02e1 0E       		.uleb128 0xe
 1186 02e2 04       		.byte	0x4
 1187 02e3 03       		.uleb128 0x3
 1188 02e4 A5030000 		.4byte	.LASF52
 1189 02e8 07       		.byte	0x7
ARM GAS  /tmp/ccznN900.s 			page 52


 1190 02e9 61       		.byte	0x61
 1191 02ea EE020000 		.4byte	0x2ee
 1192 02ee 0B       		.uleb128 0xb
 1193 02ef 27040000 		.4byte	.LASF53
 1194 02f3 14       		.byte	0x14
 1195 02f4 08       		.byte	0x8
 1196 02f5 4501     		.2byte	0x145
 1197 02f7 3D030000 		.4byte	0x33d
 1198 02fb 09       		.uleb128 0x9
 1199 02fc 19000000 		.4byte	.LASF44
 1200 0300 08       		.byte	0x8
 1201 0301 4601     		.2byte	0x146
 1202 0303 0A070000 		.4byte	0x70a
 1203 0307 00       		.byte	0
 1204 0308 09       		.uleb128 0x9
 1205 0309 73000000 		.4byte	.LASF47
 1206 030d 08       		.byte	0x8
 1207 030e 4701     		.2byte	0x147
 1208 0310 0A070000 		.4byte	0x70a
 1209 0314 04       		.byte	0x4
 1210 0315 09       		.uleb128 0x9
 1211 0316 1E000000 		.4byte	.LASF54
 1212 031a 08       		.byte	0x8
 1213 031b 4801     		.2byte	0x148
 1214 031d 05010000 		.4byte	0x105
 1215 0321 08       		.byte	0x8
 1216 0322 09       		.uleb128 0x9
 1217 0323 76010000 		.4byte	.LASF55
 1218 0327 08       		.byte	0x8
 1219 0328 4901     		.2byte	0x149
 1220 032a C5020000 		.4byte	0x2c5
 1221 032e 0C       		.byte	0xc
 1222 032f 08       		.uleb128 0x8
 1223 0330 70617200 		.ascii	"par\000"
 1224 0334 08       		.byte	0x8
 1225 0335 4B01     		.2byte	0x14b
 1226 0337 E1020000 		.4byte	0x2e1
 1227 033b 10       		.byte	0x10
 1228 033c 00       		.byte	0
 1229 033d 03       		.uleb128 0x3
 1230 033e DE000000 		.4byte	.LASF56
 1231 0342 07       		.byte	0x7
 1232 0343 66       		.byte	0x66
 1233 0344 48030000 		.4byte	0x348
 1234 0348 0B       		.uleb128 0xb
 1235 0349 B0020000 		.4byte	.LASF57
 1236 034d 0C       		.byte	0xc
 1237 034e 08       		.byte	0x8
 1238 034f 5501     		.2byte	0x155
 1239 0351 8A030000 		.4byte	0x38a
 1240 0355 09       		.uleb128 0x9
 1241 0356 19000000 		.4byte	.LASF44
 1242 035a 08       		.byte	0x8
 1243 035b 5601     		.2byte	0x156
 1244 035d 0A070000 		.4byte	0x70a
 1245 0361 00       		.byte	0
 1246 0362 09       		.uleb128 0x9
ARM GAS  /tmp/ccznN900.s 			page 53


 1247 0363 73000000 		.4byte	.LASF47
 1248 0367 08       		.byte	0x8
 1249 0368 5801     		.2byte	0x158
 1250 036a 0A070000 		.4byte	0x70a
 1251 036e 04       		.byte	0x4
 1252 036f 09       		.uleb128 0x9
 1253 0370 1E000000 		.4byte	.LASF54
 1254 0374 08       		.byte	0x8
 1255 0375 5A01     		.2byte	0x15a
 1256 0377 05010000 		.4byte	0x105
 1257 037b 08       		.byte	0x8
 1258 037c 09       		.uleb128 0x9
 1259 037d FB030000 		.4byte	.LASF58
 1260 0381 08       		.byte	0x8
 1261 0382 6201     		.2byte	0x162
 1262 0384 05010000 		.4byte	0x105
 1263 0388 0A       		.byte	0xa
 1264 0389 00       		.byte	0
 1265 038a 03       		.uleb128 0x3
 1266 038b 84000000 		.4byte	.LASF59
 1267 038f 07       		.byte	0x7
 1268 0390 6B       		.byte	0x6b
 1269 0391 95030000 		.4byte	0x395
 1270 0395 0B       		.uleb128 0xb
 1271 0396 BD030000 		.4byte	.LASF60
 1272 039a 04       		.byte	0x4
 1273 039b 08       		.byte	0x8
 1274 039c 7C01     		.2byte	0x17c
 1275 039e B0030000 		.4byte	0x3b0
 1276 03a2 09       		.uleb128 0x9
 1277 03a3 EC040000 		.4byte	.LASF61
 1278 03a7 08       		.byte	0x8
 1279 03a8 8401     		.2byte	0x184
 1280 03aa 10070000 		.4byte	0x710
 1281 03ae 00       		.byte	0
 1282 03af 00       		.byte	0
 1283 03b0 03       		.uleb128 0x3
 1284 03b1 30020000 		.4byte	.LASF62
 1285 03b5 07       		.byte	0x7
 1286 03b6 70       		.byte	0x70
 1287 03b7 BB030000 		.4byte	0x3bb
 1288 03bb 0B       		.uleb128 0xb
 1289 03bc 13040000 		.4byte	.LASF63
 1290 03c0 74       		.byte	0x74
 1291 03c1 08       		.byte	0x8
 1292 03c2 9C01     		.2byte	0x19c
 1293 03c4 09040000 		.4byte	0x409
 1294 03c8 09       		.uleb128 0x9
 1295 03c9 1F060000 		.4byte	.LASF64
 1296 03cd 08       		.byte	0x8
 1297 03ce A001     		.2byte	0x1a0
 1298 03d0 5E020000 		.4byte	0x25e
 1299 03d4 00       		.byte	0
 1300 03d5 09       		.uleb128 0x9
 1301 03d6 42010000 		.4byte	.LASF65
 1302 03da 08       		.byte	0x8
 1303 03db A401     		.2byte	0x1a4
ARM GAS  /tmp/ccznN900.s 			page 54


 1304 03dd 3D030000 		.4byte	0x33d
 1305 03e1 1C       		.byte	0x1c
 1306 03e2 08       		.uleb128 0x8
 1307 03e3 64626700 		.ascii	"dbg\000"
 1308 03e7 08       		.byte	0x8
 1309 03e8 A801     		.2byte	0x1a8
 1310 03ea 8A030000 		.4byte	0x38a
 1311 03ee 28       		.byte	0x28
 1312 03ef 09       		.uleb128 0x9
 1313 03f0 CB000000 		.4byte	.LASF66
 1314 03f4 08       		.byte	0x8
 1315 03f5 AC01     		.2byte	0x1ac
 1316 03f7 10010000 		.4byte	0x110
 1317 03fb 2C       		.byte	0x2c
 1318 03fc 08       		.uleb128 0x8
 1319 03fd 746D00   		.ascii	"tm\000"
 1320 0400 08       		.byte	0x8
 1321 0401 B101     		.2byte	0x1b1
 1322 0403 1C060000 		.4byte	0x61c
 1323 0407 70       		.byte	0x70
 1324 0408 00       		.byte	0
 1325 0409 04       		.uleb128 0x4
 1326 040a 04       		.byte	0x4
 1327 040b 07       		.byte	0x7
 1328 040c 94020000 		.4byte	.LASF67
 1329 0410 0F       		.uleb128 0xf
 1330 0411 82000000 		.4byte	0x82
 1331 0415 10       		.uleb128 0x10
 1332 0416 82000000 		.4byte	0x82
 1333 041a 25040000 		.4byte	0x425
 1334 041e 11       		.uleb128 0x11
 1335 041f 09040000 		.4byte	0x409
 1336 0423 01       		.byte	0x1
 1337 0424 00       		.byte	0
 1338 0425 10       		.uleb128 0x10
 1339 0426 82000000 		.4byte	0x82
 1340 042a 35040000 		.4byte	0x435
 1341 042e 11       		.uleb128 0x11
 1342 042f 09040000 		.4byte	0x409
 1343 0433 03       		.byte	0x3
 1344 0434 00       		.byte	0
 1345 0435 03       		.uleb128 0x3
 1346 0436 A6010000 		.4byte	.LASF68
 1347 043a 09       		.byte	0x9
 1348 043b 65       		.byte	0x65
 1349 043c E1020000 		.4byte	0x2e1
 1350 0440 03       		.uleb128 0x3
 1351 0441 6A020000 		.4byte	.LASF69
 1352 0445 09       		.byte	0x9
 1353 0446 6D       		.byte	0x6d
 1354 0447 9B000000 		.4byte	0x9b
 1355 044b 05       		.uleb128 0x5
 1356 044c EE020000 		.4byte	.LASF70
 1357 0450 04       		.byte	0x4
 1358 0451 09       		.byte	0x9
 1359 0452 89       		.byte	0x89
 1360 0453 63040000 		.4byte	0x463
ARM GAS  /tmp/ccznN900.s 			page 55


 1361 0457 07       		.uleb128 0x7
 1362 0458 737000   		.ascii	"sp\000"
 1363 045b 09       		.byte	0x9
 1364 045c 8A       		.byte	0x8a
 1365 045d DF040000 		.4byte	0x4df
 1366 0461 00       		.byte	0
 1367 0462 00       		.byte	0
 1368 0463 0B       		.uleb128 0xb
 1369 0464 78000000 		.4byte	.LASF71
 1370 0468 24       		.byte	0x24
 1371 0469 0A       		.byte	0xa
 1372 046a 5901     		.2byte	0x159
 1373 046c DF040000 		.4byte	0x4df
 1374 0470 08       		.uleb128 0x8
 1375 0471 723400   		.ascii	"r4\000"
 1376 0474 0A       		.byte	0xa
 1377 0475 6C01     		.2byte	0x16c
 1378 0477 35040000 		.4byte	0x435
 1379 047b 00       		.byte	0
 1380 047c 08       		.uleb128 0x8
 1381 047d 723500   		.ascii	"r5\000"
 1382 0480 0A       		.byte	0xa
 1383 0481 6D01     		.2byte	0x16d
 1384 0483 35040000 		.4byte	0x435
 1385 0487 04       		.byte	0x4
 1386 0488 08       		.uleb128 0x8
 1387 0489 723600   		.ascii	"r6\000"
 1388 048c 0A       		.byte	0xa
 1389 048d 6E01     		.2byte	0x16e
 1390 048f 35040000 		.4byte	0x435
 1391 0493 08       		.byte	0x8
 1392 0494 08       		.uleb128 0x8
 1393 0495 723700   		.ascii	"r7\000"
 1394 0498 0A       		.byte	0xa
 1395 0499 6F01     		.2byte	0x16f
 1396 049b 35040000 		.4byte	0x435
 1397 049f 0C       		.byte	0xc
 1398 04a0 08       		.uleb128 0x8
 1399 04a1 723800   		.ascii	"r8\000"
 1400 04a4 0A       		.byte	0xa
 1401 04a5 7001     		.2byte	0x170
 1402 04a7 35040000 		.4byte	0x435
 1403 04ab 10       		.byte	0x10
 1404 04ac 08       		.uleb128 0x8
 1405 04ad 723900   		.ascii	"r9\000"
 1406 04b0 0A       		.byte	0xa
 1407 04b1 7101     		.2byte	0x171
 1408 04b3 35040000 		.4byte	0x435
 1409 04b7 14       		.byte	0x14
 1410 04b8 08       		.uleb128 0x8
 1411 04b9 72313000 		.ascii	"r10\000"
 1412 04bd 0A       		.byte	0xa
 1413 04be 7201     		.2byte	0x172
 1414 04c0 35040000 		.4byte	0x435
 1415 04c4 18       		.byte	0x18
 1416 04c5 08       		.uleb128 0x8
 1417 04c6 72313100 		.ascii	"r11\000"
ARM GAS  /tmp/ccznN900.s 			page 56


 1418 04ca 0A       		.byte	0xa
 1419 04cb 7301     		.2byte	0x173
 1420 04cd 35040000 		.4byte	0x435
 1421 04d1 1C       		.byte	0x1c
 1422 04d2 08       		.uleb128 0x8
 1423 04d3 6C7200   		.ascii	"lr\000"
 1424 04d6 0A       		.byte	0xa
 1425 04d7 7401     		.2byte	0x174
 1426 04d9 35040000 		.4byte	0x435
 1427 04dd 20       		.byte	0x20
 1428 04de 00       		.byte	0
 1429 04df 0A       		.uleb128 0xa
 1430 04e0 04       		.byte	0x4
 1431 04e1 63040000 		.4byte	0x463
 1432 04e5 12       		.uleb128 0x12
 1433 04e6 60       		.byte	0x60
 1434 04e7 0B       		.byte	0xb
 1435 04e8 A101     		.2byte	0x1a1
 1436 04ea F1050000 		.4byte	0x5f1
 1437 04ee 08       		.uleb128 0x8
 1438 04ef 43523100 		.ascii	"CR1\000"
 1439 04f3 0B       		.byte	0xb
 1440 04f4 A201     		.2byte	0x1a2
 1441 04f6 10040000 		.4byte	0x410
 1442 04fa 00       		.byte	0
 1443 04fb 08       		.uleb128 0x8
 1444 04fc 43523200 		.ascii	"CR2\000"
 1445 0500 0B       		.byte	0xb
 1446 0501 A301     		.2byte	0x1a3
 1447 0503 10040000 		.4byte	0x410
 1448 0507 04       		.byte	0x4
 1449 0508 09       		.uleb128 0x9
 1450 0509 12020000 		.4byte	.LASF72
 1451 050d 0B       		.byte	0xb
 1452 050e A401     		.2byte	0x1a4
 1453 0510 10040000 		.4byte	0x410
 1454 0514 08       		.byte	0x8
 1455 0515 09       		.uleb128 0x9
 1456 0516 0D000000 		.4byte	.LASF73
 1457 051a 0B       		.byte	0xb
 1458 051b A501     		.2byte	0x1a5
 1459 051d 10040000 		.4byte	0x410
 1460 0521 0C       		.byte	0xc
 1461 0522 08       		.uleb128 0x8
 1462 0523 535200   		.ascii	"SR\000"
 1463 0526 0B       		.byte	0xb
 1464 0527 A601     		.2byte	0x1a6
 1465 0529 10040000 		.4byte	0x410
 1466 052d 10       		.byte	0x10
 1467 052e 08       		.uleb128 0x8
 1468 052f 45475200 		.ascii	"EGR\000"
 1469 0533 0B       		.byte	0xb
 1470 0534 A701     		.2byte	0x1a7
 1471 0536 10040000 		.4byte	0x410
 1472 053a 14       		.byte	0x14
 1473 053b 09       		.uleb128 0x9
 1474 053c 17010000 		.4byte	.LASF74
ARM GAS  /tmp/ccznN900.s 			page 57


 1475 0540 0B       		.byte	0xb
 1476 0541 A801     		.2byte	0x1a8
 1477 0543 10040000 		.4byte	0x410
 1478 0547 18       		.byte	0x18
 1479 0548 09       		.uleb128 0x9
 1480 0549 1D010000 		.4byte	.LASF75
 1481 054d 0B       		.byte	0xb
 1482 054e A901     		.2byte	0x1a9
 1483 0550 10040000 		.4byte	0x410
 1484 0554 1C       		.byte	0x1c
 1485 0555 09       		.uleb128 0x9
 1486 0556 7B010000 		.4byte	.LASF76
 1487 055a 0B       		.byte	0xb
 1488 055b AA01     		.2byte	0x1aa
 1489 055d 10040000 		.4byte	0x410
 1490 0561 20       		.byte	0x20
 1491 0562 08       		.uleb128 0x8
 1492 0563 434E5400 		.ascii	"CNT\000"
 1493 0567 0B       		.byte	0xb
 1494 0568 AB01     		.2byte	0x1ab
 1495 056a 10040000 		.4byte	0x410
 1496 056e 24       		.byte	0x24
 1497 056f 08       		.uleb128 0x8
 1498 0570 50534300 		.ascii	"PSC\000"
 1499 0574 0B       		.byte	0xb
 1500 0575 AC01     		.2byte	0x1ac
 1501 0577 10040000 		.4byte	0x410
 1502 057b 28       		.byte	0x28
 1503 057c 08       		.uleb128 0x8
 1504 057d 41525200 		.ascii	"ARR\000"
 1505 0581 0B       		.byte	0xb
 1506 0582 AD01     		.2byte	0x1ad
 1507 0584 10040000 		.4byte	0x410
 1508 0588 2C       		.byte	0x2c
 1509 0589 08       		.uleb128 0x8
 1510 058a 52435200 		.ascii	"RCR\000"
 1511 058e 0B       		.byte	0xb
 1512 058f AE01     		.2byte	0x1ae
 1513 0591 10040000 		.4byte	0x410
 1514 0595 30       		.byte	0x30
 1515 0596 08       		.uleb128 0x8
 1516 0597 43435200 		.ascii	"CCR\000"
 1517 059b 0B       		.byte	0xb
 1518 059c AF01     		.2byte	0x1af
 1519 059e F1050000 		.4byte	0x5f1
 1520 05a2 34       		.byte	0x34
 1521 05a3 09       		.uleb128 0x9
 1522 05a4 01010000 		.4byte	.LASF77
 1523 05a8 0B       		.byte	0xb
 1524 05a9 B001     		.2byte	0x1b0
 1525 05ab 10040000 		.4byte	0x410
 1526 05af 44       		.byte	0x44
 1527 05b0 08       		.uleb128 0x8
 1528 05b1 44435200 		.ascii	"DCR\000"
 1529 05b5 0B       		.byte	0xb
 1530 05b6 B101     		.2byte	0x1b1
 1531 05b8 10040000 		.4byte	0x410
ARM GAS  /tmp/ccznN900.s 			page 58


 1532 05bc 48       		.byte	0x48
 1533 05bd 09       		.uleb128 0x9
 1534 05be B2040000 		.4byte	.LASF78
 1535 05c2 0B       		.byte	0xb
 1536 05c3 B201     		.2byte	0x1b2
 1537 05c5 10040000 		.4byte	0x410
 1538 05c9 4C       		.byte	0x4c
 1539 05ca 08       		.uleb128 0x8
 1540 05cb 4F5200   		.ascii	"OR\000"
 1541 05ce 0B       		.byte	0xb
 1542 05cf B301     		.2byte	0x1b3
 1543 05d1 10040000 		.4byte	0x410
 1544 05d5 50       		.byte	0x50
 1545 05d6 09       		.uleb128 0x9
 1546 05d7 23010000 		.4byte	.LASF79
 1547 05db 0B       		.byte	0xb
 1548 05dc B401     		.2byte	0x1b4
 1549 05de 10040000 		.4byte	0x410
 1550 05e2 54       		.byte	0x54
 1551 05e3 09       		.uleb128 0x9
 1552 05e4 45040000 		.4byte	.LASF80
 1553 05e8 0B       		.byte	0xb
 1554 05e9 B501     		.2byte	0x1b5
 1555 05eb F6050000 		.4byte	0x5f6
 1556 05ef 58       		.byte	0x58
 1557 05f0 00       		.byte	0
 1558 05f1 0F       		.uleb128 0xf
 1559 05f2 25040000 		.4byte	0x425
 1560 05f6 0F       		.uleb128 0xf
 1561 05f7 15040000 		.4byte	0x415
 1562 05fb 13       		.uleb128 0x13
 1563 05fc 3C020000 		.4byte	.LASF81
 1564 0600 0B       		.byte	0xb
 1565 0601 B601     		.2byte	0x1b6
 1566 0603 E5040000 		.4byte	0x4e5
 1567 0607 14       		.uleb128 0x14
 1568 0608 04       		.byte	0x4
 1569 0609 0C       		.byte	0xc
 1570 060a 38       		.byte	0x38
 1571 060b 1C060000 		.4byte	0x61c
 1572 060f 06       		.uleb128 0x6
 1573 0610 F6040000 		.4byte	.LASF82
 1574 0614 0C       		.byte	0xc
 1575 0615 3C       		.byte	0x3c
 1576 0616 AD000000 		.4byte	0xad
 1577 061a 00       		.byte	0
 1578 061b 00       		.byte	0
 1579 061c 03       		.uleb128 0x3
 1580 061d FB020000 		.4byte	.LASF83
 1581 0621 0C       		.byte	0xc
 1582 0622 3D       		.byte	0x3d
 1583 0623 07060000 		.4byte	0x607
 1584 0627 15       		.uleb128 0x15
 1585 0628 04       		.byte	0x4
 1586 0629 08       		.byte	0x8
 1587 062a D2       		.byte	0xd2
 1588 062b 8A060000 		.4byte	0x68a
ARM GAS  /tmp/ccznN900.s 			page 59


 1589 062f 16       		.uleb128 0x16
 1590 0630 24000000 		.4byte	.LASF84
 1591 0634 08       		.byte	0x8
 1592 0635 D9       		.byte	0xd9
 1593 0636 E4000000 		.4byte	0xe4
 1594 063a 16       		.uleb128 0x16
 1595 063b C2000000 		.4byte	.LASF85
 1596 063f 08       		.byte	0x8
 1597 0640 E0       		.byte	0xe0
 1598 0641 E4000000 		.4byte	0xe4
 1599 0645 16       		.uleb128 0x16
 1600 0646 EC060000 		.4byte	.LASF86
 1601 064a 08       		.byte	0x8
 1602 064b E7       		.byte	0xe7
 1603 064c E1020000 		.4byte	0x2e1
 1604 0650 16       		.uleb128 0x16
 1605 0651 F2010000 		.4byte	.LASF87
 1606 0655 08       		.byte	0x8
 1607 0656 EE       		.byte	0xee
 1608 0657 8A060000 		.4byte	0x68a
 1609 065b 16       		.uleb128 0x16
 1610 065c D6000000 		.4byte	.LASF88
 1611 0660 08       		.byte	0x8
 1612 0661 F3       		.byte	0xf3
 1613 0662 E4000000 		.4byte	0xe4
 1614 0666 16       		.uleb128 0x16
 1615 0667 EB010000 		.4byte	.LASF89
 1616 066b 08       		.byte	0x8
 1617 066c FC       		.byte	0xfc
 1618 066d B5060000 		.4byte	0x6b5
 1619 0671 17       		.uleb128 0x17
 1620 0672 71040000 		.4byte	.LASF90
 1621 0676 08       		.byte	0x8
 1622 0677 0501     		.2byte	0x105
 1623 0679 EC060000 		.4byte	0x6ec
 1624 067d 17       		.uleb128 0x17
 1625 067e 0C040000 		.4byte	.LASF91
 1626 0682 08       		.byte	0x8
 1627 0683 0D01     		.2byte	0x10d
 1628 0685 EF000000 		.4byte	0xef
 1629 0689 00       		.byte	0
 1630 068a 0A       		.uleb128 0xa
 1631 068b 04       		.byte	0x4
 1632 068c F9010000 		.4byte	0x1f9
 1633 0690 05       		.uleb128 0x5
 1634 0691 38040000 		.4byte	.LASF92
 1635 0695 0C       		.byte	0xc
 1636 0696 0D       		.byte	0xd
 1637 0697 34       		.byte	0x34
 1638 0698 B5060000 		.4byte	0x6b5
 1639 069c 06       		.uleb128 0x6
 1640 069d 06020000 		.4byte	.LASF25
 1641 06a1 0D       		.byte	0xd
 1642 06a2 35       		.byte	0x35
 1643 06a3 2E020000 		.4byte	0x22e
 1644 06a7 00       		.byte	0
 1645 06a8 07       		.uleb128 0x7
ARM GAS  /tmp/ccznN900.s 			page 60


 1646 06a9 636E7400 		.ascii	"cnt\000"
 1647 06ad 0D       		.byte	0xd
 1648 06ae 37       		.byte	0x37
 1649 06af FA000000 		.4byte	0xfa
 1650 06b3 08       		.byte	0x8
 1651 06b4 00       		.byte	0
 1652 06b5 0A       		.uleb128 0xa
 1653 06b6 04       		.byte	0x4
 1654 06b7 90060000 		.4byte	0x690
 1655 06bb 05       		.uleb128 0x5
 1656 06bc 04060000 		.4byte	.LASF93
 1657 06c0 10       		.byte	0x10
 1658 06c1 0E       		.byte	0xe
 1659 06c2 39       		.byte	0x39
 1660 06c3 EC060000 		.4byte	0x6ec
 1661 06c7 06       		.uleb128 0x6
 1662 06c8 06020000 		.4byte	.LASF25
 1663 06cc 0E       		.byte	0xe
 1664 06cd 3A       		.byte	0x3a
 1665 06ce 2E020000 		.4byte	0x22e
 1666 06d2 00       		.byte	0
 1667 06d3 06       		.uleb128 0x6
 1668 06d4 88040000 		.4byte	.LASF94
 1669 06d8 0E       		.byte	0xe
 1670 06d9 3C       		.byte	0x3c
 1671 06da 04020000 		.4byte	0x204
 1672 06de 08       		.byte	0x8
 1673 06df 06       		.uleb128 0x6
 1674 06e0 19000000 		.4byte	.LASF44
 1675 06e4 0E       		.byte	0xe
 1676 06e5 3E       		.byte	0x3e
 1677 06e6 20070000 		.4byte	0x720
 1678 06ea 0C       		.byte	0xc
 1679 06eb 00       		.byte	0
 1680 06ec 0A       		.uleb128 0xa
 1681 06ed 04       		.byte	0x4
 1682 06ee BB060000 		.4byte	0x6bb
 1683 06f2 0A       		.uleb128 0xa
 1684 06f3 04       		.byte	0x4
 1685 06f4 F8060000 		.4byte	0x6f8
 1686 06f8 18       		.uleb128 0x18
 1687 06f9 FD060000 		.4byte	0x6fd
 1688 06fd 04       		.uleb128 0x4
 1689 06fe 01       		.byte	0x1
 1690 06ff 08       		.byte	0x8
 1691 0700 A7040000 		.4byte	.LASF95
 1692 0704 0A       		.uleb128 0xa
 1693 0705 04       		.byte	0x4
 1694 0706 40040000 		.4byte	0x440
 1695 070a 0A       		.uleb128 0xa
 1696 070b 04       		.byte	0x4
 1697 070c E3020000 		.4byte	0x2e3
 1698 0710 0F       		.uleb128 0xf
 1699 0711 F2060000 		.4byte	0x6f2
 1700 0715 03       		.uleb128 0x3
 1701 0716 B7010000 		.4byte	.LASF96
 1702 071a 0E       		.byte	0xe
ARM GAS  /tmp/ccznN900.s 			page 61


 1703 071b 34       		.byte	0x34
 1704 071c BB060000 		.4byte	0x6bb
 1705 0720 0A       		.uleb128 0xa
 1706 0721 04       		.byte	0x4
 1707 0722 15070000 		.4byte	0x715
 1708 0726 04       		.uleb128 0x4
 1709 0727 01       		.byte	0x1
 1710 0728 02       		.byte	0x2
 1711 0729 CD030000 		.4byte	.LASF97
 1712 072d 0A       		.uleb128 0xa
 1713 072e 04       		.byte	0x4
 1714 072f 33070000 		.4byte	0x733
 1715 0733 19       		.uleb128 0x19
 1716 0734 14       		.uleb128 0x14
 1717 0735 10       		.byte	0x10
 1718 0736 0F       		.byte	0xf
 1719 0737 3D       		.byte	0x3d
 1720 0738 6D070000 		.4byte	0x76d
 1721 073c 06       		.uleb128 0x6
 1722 073d 01020000 		.4byte	.LASF29
 1723 0741 0F       		.byte	0xf
 1724 0742 3E       		.byte	0x3e
 1725 0743 F2060000 		.4byte	0x6f2
 1726 0747 00       		.byte	0
 1727 0748 06       		.uleb128 0x6
 1728 0749 0C030000 		.4byte	.LASF98
 1729 074d 0F       		.byte	0xf
 1730 074e 3F       		.byte	0x3f
 1731 074f 2D070000 		.4byte	0x72d
 1732 0753 04       		.byte	0x4
 1733 0754 06       		.uleb128 0x6
 1734 0755 F8010000 		.4byte	.LASF99
 1735 0759 0F       		.byte	0xf
 1736 075a 40       		.byte	0x40
 1737 075b 2D070000 		.4byte	0x72d
 1738 075f 08       		.byte	0x8
 1739 0760 06       		.uleb128 0x6
 1740 0761 E9030000 		.4byte	.LASF100
 1741 0765 0F       		.byte	0xf
 1742 0766 41       		.byte	0x41
 1743 0767 2D070000 		.4byte	0x72d
 1744 076b 0C       		.byte	0xc
 1745 076c 00       		.byte	0
 1746 076d 03       		.uleb128 0x3
 1747 076e 75020000 		.4byte	.LASF101
 1748 0772 0F       		.byte	0xf
 1749 0773 42       		.byte	0x42
 1750 0774 34070000 		.4byte	0x734
 1751 0778 1A       		.uleb128 0x1a
 1752 0779 DE040000 		.4byte	.LASF108
 1753 077d 02       		.byte	0x2
 1754 077e 0601     		.2byte	0x106
 1755 0780 03       		.byte	0x3
 1756 0781 92070000 		.4byte	0x792
 1757 0785 1B       		.uleb128 0x1b
 1758 0786 BF010000 		.4byte	.LASF138
 1759 078a 02       		.byte	0x2
ARM GAS  /tmp/ccznN900.s 			page 62


 1760 078b 0601     		.2byte	0x106
 1761 078d 82000000 		.4byte	0x82
 1762 0791 00       		.byte	0
 1763 0792 1C       		.uleb128 0x1c
 1764 0793 55040000 		.4byte	.LASF104
 1765 0797 03       		.byte	0x3
 1766 0798 8B       		.byte	0x8b
 1767 0799 05010000 		.4byte	0x105
 1768 079d 03       		.byte	0x3
 1769 079e 1D       		.uleb128 0x1d
 1770 079f 93000000 		.4byte	.LASF102
 1771 07a3 0A       		.byte	0xa
 1772 07a4 5202     		.2byte	0x252
 1773 07a6 03       		.byte	0x3
 1774 07a7 1D       		.uleb128 0x1d
 1775 07a8 49010000 		.4byte	.LASF103
 1776 07ac 0A       		.byte	0xa
 1777 07ad 6A02     		.2byte	0x26a
 1778 07af 03       		.byte	0x3
 1779 07b0 1C       		.uleb128 0x1c
 1780 07b1 10050000 		.4byte	.LASF105
 1781 07b5 10       		.byte	0x10
 1782 07b6 69       		.byte	0x69
 1783 07b7 05010000 		.4byte	0x105
 1784 07bb 03       		.byte	0x3
 1785 07bc 1D       		.uleb128 0x1d
 1786 07bd 1D040000 		.4byte	.LASF106
 1787 07c1 11       		.byte	0x11
 1788 07c2 7601     		.2byte	0x176
 1789 07c4 03       		.byte	0x3
 1790 07c5 1E       		.uleb128 0x1e
 1791 07c6 CB010000 		.4byte	.LASF107
 1792 07ca 12       		.byte	0x12
 1793 07cb 8801     		.2byte	0x188
 1794 07cd 05010000 		.4byte	0x105
 1795 07d1 03       		.byte	0x3
 1796 07d2 1A       		.uleb128 0x1a
 1797 07d3 0A070000 		.4byte	.LASF109
 1798 07d7 11       		.byte	0x11
 1799 07d8 8201     		.2byte	0x182
 1800 07da 03       		.byte	0x3
 1801 07db ED070000 		.4byte	0x7ed
 1802 07df 1F       		.uleb128 0x1f
 1803 07e0 9D000000 		.4byte	.LASF110
 1804 07e4 FD070000 		.4byte	0x7fd
 1805 07e8 0A070000 		.4byte	.LASF109
 1806 07ec 00       		.byte	0
 1807 07ed 10       		.uleb128 0x10
 1808 07ee FD060000 		.4byte	0x6fd
 1809 07f2 FD070000 		.4byte	0x7fd
 1810 07f6 11       		.uleb128 0x11
 1811 07f7 09040000 		.4byte	0x409
 1812 07fb 0B       		.byte	0xb
 1813 07fc 00       		.byte	0
 1814 07fd 18       		.uleb128 0x18
 1815 07fe ED070000 		.4byte	0x7ed
 1816 0802 20       		.uleb128 0x20
ARM GAS  /tmp/ccznN900.s 			page 63


 1817 0803 12030000 		.4byte	.LASF139
 1818 0807 12       		.byte	0x12
 1819 0808 9B01     		.2byte	0x19b
 1820 080a 05010000 		.4byte	0x105
 1821 080e 03       		.byte	0x3
 1822 080f 20080000 		.4byte	0x820
 1823 0813 21       		.uleb128 0x21
 1824 0814 48020000 		.4byte	.LASF111
 1825 0818 12       		.byte	0x12
 1826 0819 9C01     		.2byte	0x19c
 1827 081b 05010000 		.4byte	0x105
 1828 081f 00       		.byte	0
 1829 0820 22       		.uleb128 0x22
 1830 0821 32050000 		.4byte	.LASF112
 1831 0825 01       		.byte	0x1
 1832 0826 5F       		.byte	0x5f
 1833 0827 00000000 		.4byte	.LFB217
 1834 082b 66000000 		.4byte	.LFE217-.LFB217
 1835 082f 01       		.uleb128 0x1
 1836 0830 9C       		.byte	0x9c
 1837 0831 EA080000 		.4byte	0x8ea
 1838 0835 23       		.uleb128 0x23
 1839 0836 0E000000 		.4byte	.LVL0
 1840 083a DE0B0000 		.4byte	0xbde
 1841 083e 4C080000 		.4byte	0x84c
 1842 0842 24       		.uleb128 0x24
 1843 0843 01       		.uleb128 0x1
 1844 0844 50       		.byte	0x50
 1845 0845 05       		.uleb128 0x5
 1846 0846 03       		.byte	0x3
 1847 0847 00000000 		.4byte	.LC0
 1848 084b 00       		.byte	0
 1849 084c 23       		.uleb128 0x23
 1850 084d 1A000000 		.4byte	.LVL1
 1851 0851 EF0B0000 		.4byte	0xbef
 1852 0855 63080000 		.4byte	0x863
 1853 0859 24       		.uleb128 0x24
 1854 085a 01       		.uleb128 0x1
 1855 085b 50       		.byte	0x50
 1856 085c 05       		.uleb128 0x5
 1857 085d 03       		.byte	0x3
 1858 085e 14000000 		.4byte	.LC1
 1859 0862 00       		.byte	0
 1860 0863 23       		.uleb128 0x23
 1861 0864 26000000 		.4byte	.LVL2
 1862 0868 DE0B0000 		.4byte	0xbde
 1863 086c 7A080000 		.4byte	0x87a
 1864 0870 24       		.uleb128 0x24
 1865 0871 01       		.uleb128 0x1
 1866 0872 50       		.byte	0x50
 1867 0873 05       		.uleb128 0x5
 1868 0874 03       		.byte	0x3
 1869 0875 20000000 		.4byte	.LC2
 1870 0879 00       		.byte	0
 1871 087a 23       		.uleb128 0x23
 1872 087b 32000000 		.4byte	.LVL3
 1873 087f EF0B0000 		.4byte	0xbef
ARM GAS  /tmp/ccznN900.s 			page 64


 1874 0883 91080000 		.4byte	0x891
 1875 0887 24       		.uleb128 0x24
 1876 0888 01       		.uleb128 0x1
 1877 0889 50       		.byte	0x50
 1878 088a 05       		.uleb128 0x5
 1879 088b 03       		.byte	0x3
 1880 088c 34000000 		.4byte	.LC3
 1881 0890 00       		.byte	0
 1882 0891 23       		.uleb128 0x23
 1883 0892 3E000000 		.4byte	.LVL4
 1884 0896 DE0B0000 		.4byte	0xbde
 1885 089a A8080000 		.4byte	0x8a8
 1886 089e 24       		.uleb128 0x24
 1887 089f 01       		.uleb128 0x1
 1888 08a0 50       		.byte	0x50
 1889 08a1 05       		.uleb128 0x5
 1890 08a2 03       		.byte	0x3
 1891 08a3 3C000000 		.4byte	.LC4
 1892 08a7 00       		.byte	0
 1893 08a8 23       		.uleb128 0x23
 1894 08a9 4A000000 		.4byte	.LVL5
 1895 08ad EF0B0000 		.4byte	0xbef
 1896 08b1 BF080000 		.4byte	0x8bf
 1897 08b5 24       		.uleb128 0x24
 1898 08b6 01       		.uleb128 0x1
 1899 08b7 50       		.byte	0x50
 1900 08b8 05       		.uleb128 0x5
 1901 08b9 03       		.byte	0x3
 1902 08ba 50000000 		.4byte	.LC5
 1903 08be 00       		.byte	0
 1904 08bf 23       		.uleb128 0x23
 1905 08c0 56000000 		.4byte	.LVL6
 1906 08c4 DE0B0000 		.4byte	0xbde
 1907 08c8 D6080000 		.4byte	0x8d6
 1908 08cc 24       		.uleb128 0x24
 1909 08cd 01       		.uleb128 0x1
 1910 08ce 50       		.byte	0x50
 1911 08cf 05       		.uleb128 0x5
 1912 08d0 03       		.byte	0x3
 1913 08d1 5C000000 		.4byte	.LC6
 1914 08d5 00       		.byte	0
 1915 08d6 25       		.uleb128 0x25
 1916 08d7 66000000 		.4byte	.LVL7
 1917 08db EF0B0000 		.4byte	0xbef
 1918 08df 24       		.uleb128 0x24
 1919 08e0 01       		.uleb128 0x1
 1920 08e1 50       		.byte	0x50
 1921 08e2 05       		.uleb128 0x5
 1922 08e3 03       		.byte	0x3
 1923 08e4 70000000 		.4byte	.LC7
 1924 08e8 00       		.byte	0
 1925 08e9 00       		.byte	0
 1926 08ea 22       		.uleb128 0x22
 1927 08eb 89030000 		.4byte	.LASF113
 1928 08ef 01       		.byte	0x1
 1929 08f0 87       		.byte	0x87
 1930 08f1 00000000 		.4byte	.LFB218
ARM GAS  /tmp/ccznN900.s 			page 65


 1931 08f5 20000000 		.4byte	.LFE218-.LFB218
 1932 08f9 01       		.uleb128 0x1
 1933 08fa 9C       		.byte	0x9c
 1934 08fb 16090000 		.4byte	0x916
 1935 08ff 26       		.uleb128 0x26
 1936 0900 6900     		.ascii	"i\000"
 1937 0902 01       		.byte	0x1
 1938 0903 88       		.byte	0x88
 1939 0904 37000000 		.4byte	0x37
 1940 0908 00000000 		.4byte	.LLST0
 1941 090c 27       		.uleb128 0x27
 1942 090d 14000000 		.4byte	.LVL10
 1943 0911 000C0000 		.4byte	0xc00
 1944 0915 00       		.byte	0
 1945 0916 22       		.uleb128 0x22
 1946 0917 DC020000 		.4byte	.LASF114
 1947 091b 01       		.byte	0x1
 1948 091c 92       		.byte	0x92
 1949 091d 00000000 		.4byte	.LFB219
 1950 0921 26000000 		.4byte	.LFE219-.LFB219
 1951 0925 01       		.uleb128 0x1
 1952 0926 9C       		.byte	0x9c
 1953 0927 42090000 		.4byte	0x942
 1954 092b 26       		.uleb128 0x26
 1955 092c 6900     		.ascii	"i\000"
 1956 092e 01       		.byte	0x1
 1957 092f 93       		.byte	0x93
 1958 0930 37000000 		.4byte	0x37
 1959 0934 14000000 		.4byte	.LLST1
 1960 0938 27       		.uleb128 0x27
 1961 0939 1C000000 		.4byte	.LVL13
 1962 093d 120C0000 		.4byte	0xc12
 1963 0941 00       		.byte	0
 1964 0942 28       		.uleb128 0x28
 1965 0943 1E070000 		.4byte	.LASF140
 1966 0947 01       		.byte	0x1
 1967 0948 9F       		.byte	0x9f
 1968 0949 05010000 		.4byte	0x105
 1969 094d 00000000 		.4byte	.LFB220
 1970 0951 1E000000 		.4byte	.LFE220-.LFB220
 1971 0955 01       		.uleb128 0x1
 1972 0956 9C       		.byte	0x9c
 1973 0957 480A0000 		.4byte	0xa48
 1974 095b 29       		.uleb128 0x29
 1975 095c 02080000 		.4byte	0x802
 1976 0960 08000000 		.4byte	.LBB50
 1977 0964 12000000 		.4byte	.LBE50-.LBB50
 1978 0968 01       		.byte	0x1
 1979 0969 A2       		.byte	0xa2
 1980 096a 380A0000 		.4byte	0xa38
 1981 096e 2A       		.uleb128 0x2a
 1982 096f 08000000 		.4byte	.LBB51
 1983 0973 12000000 		.4byte	.LBE51-.LBB51
 1984 0977 2B       		.uleb128 0x2b
 1985 0978 13080000 		.4byte	0x813
 1986 097c 2C       		.uleb128 0x2c
 1987 097d BC070000 		.4byte	0x7bc
ARM GAS  /tmp/ccznN900.s 			page 66


 1988 0981 08000000 		.4byte	.LBB52
 1989 0985 06000000 		.4byte	.LBE52-.LBB52
 1990 0989 12       		.byte	0x12
 1991 098a 9E01     		.2byte	0x19e
 1992 098c B9090000 		.4byte	0x9b9
 1993 0990 2D       		.uleb128 0x2d
 1994 0991 9E070000 		.4byte	0x79e
 1995 0995 08000000 		.4byte	.LBB53
 1996 0999 06000000 		.4byte	.LBE53-.LBB53
 1997 099d 11       		.byte	0x11
 1998 099e 7801     		.2byte	0x178
 1999 09a0 2D       		.uleb128 0x2d
 2000 09a1 78070000 		.4byte	0x778
 2001 09a5 08000000 		.4byte	.LBB54
 2002 09a9 06000000 		.4byte	.LBE54-.LBB54
 2003 09ad 0A       		.byte	0xa
 2004 09ae 5A02     		.2byte	0x25a
 2005 09b0 2E       		.uleb128 0x2e
 2006 09b1 85070000 		.4byte	0x785
 2007 09b5 20       		.byte	0x20
 2008 09b6 00       		.byte	0
 2009 09b7 00       		.byte	0
 2010 09b8 00       		.byte	0
 2011 09b9 2C       		.uleb128 0x2c
 2012 09ba C5070000 		.4byte	0x7c5
 2013 09be 0E000000 		.4byte	.LBB56
 2014 09c2 06000000 		.4byte	.LBE56-.LBB56
 2015 09c6 12       		.byte	0x12
 2016 09c7 9F01     		.2byte	0x19f
 2017 09c9 EE090000 		.4byte	0x9ee
 2018 09cd 2D       		.uleb128 0x2d
 2019 09ce B0070000 		.4byte	0x7b0
 2020 09d2 0E000000 		.4byte	.LBB57
 2021 09d6 06000000 		.4byte	.LBE57-.LBB57
 2022 09da 12       		.byte	0x12
 2023 09db 8D01     		.2byte	0x18d
 2024 09dd 2F       		.uleb128 0x2f
 2025 09de 92070000 		.4byte	0x792
 2026 09e2 0E000000 		.4byte	.LBB58
 2027 09e6 06000000 		.4byte	.LBE58-.LBB58
 2028 09ea 10       		.byte	0x10
 2029 09eb 6B       		.byte	0x6b
 2030 09ec 00       		.byte	0
 2031 09ed 00       		.byte	0
 2032 09ee 2D       		.uleb128 0x2d
 2033 09ef D2070000 		.4byte	0x7d2
 2034 09f3 14000000 		.4byte	.LBB60
 2035 09f7 06000000 		.4byte	.LBE60-.LBB60
 2036 09fb 12       		.byte	0x12
 2037 09fc A001     		.2byte	0x1a0
 2038 09fe 2A       		.uleb128 0x2a
 2039 09ff 14000000 		.4byte	.LBB61
 2040 0a03 06000000 		.4byte	.LBE61-.LBB61
 2041 0a07 2B       		.uleb128 0x2b
 2042 0a08 DF070000 		.4byte	0x7df
 2043 0a0c 2D       		.uleb128 0x2d
 2044 0a0d A7070000 		.4byte	0x7a7
ARM GAS  /tmp/ccznN900.s 			page 67


 2045 0a11 14000000 		.4byte	.LBB62
 2046 0a15 06000000 		.4byte	.LBE62-.LBB62
 2047 0a19 11       		.byte	0x11
 2048 0a1a 8F01     		.2byte	0x18f
 2049 0a1c 2D       		.uleb128 0x2d
 2050 0a1d 78070000 		.4byte	0x778
 2051 0a21 14000000 		.4byte	.LBB63
 2052 0a25 06000000 		.4byte	.LBE63-.LBB63
 2053 0a29 0A       		.byte	0xa
 2054 0a2a 6D02     		.2byte	0x26d
 2055 0a2c 2E       		.uleb128 0x2e
 2056 0a2d 85070000 		.4byte	0x785
 2057 0a31 00       		.byte	0
 2058 0a32 00       		.byte	0
 2059 0a33 00       		.byte	0
 2060 0a34 00       		.byte	0
 2061 0a35 00       		.byte	0
 2062 0a36 00       		.byte	0
 2063 0a37 00       		.byte	0
 2064 0a38 30       		.uleb128 0x30
 2065 0a39 08000000 		.4byte	.LVL14
 2066 0a3d 270C0000 		.4byte	0xc27
 2067 0a41 24       		.uleb128 0x24
 2068 0a42 01       		.uleb128 0x1
 2069 0a43 50       		.byte	0x50
 2070 0a44 01       		.uleb128 0x1
 2071 0a45 31       		.byte	0x31
 2072 0a46 00       		.byte	0
 2073 0a47 00       		.byte	0
 2074 0a48 31       		.uleb128 0x31
 2075 0a49 F4000000 		.4byte	.LASF115
 2076 0a4d 13       		.byte	0x13
 2077 0a4e 9606     		.2byte	0x696
 2078 0a50 540A0000 		.4byte	0xa54
 2079 0a54 0F       		.uleb128 0xf
 2080 0a55 70000000 		.4byte	0x70
 2081 0a59 32       		.uleb128 0x32
 2082 0a5a 636800   		.ascii	"ch\000"
 2083 0a5d 08       		.byte	0x8
 2084 0a5e D201     		.2byte	0x1d2
 2085 0a60 B0030000 		.4byte	0x3b0
 2086 0a64 10       		.uleb128 0x10
 2087 0a65 6F0A0000 		.4byte	0xa6f
 2088 0a69 6F0A0000 		.4byte	0xa6f
 2089 0a6d 33       		.uleb128 0x33
 2090 0a6e 00       		.byte	0
 2091 0a6f 0A       		.uleb128 0xa
 2092 0a70 04       		.byte	0x4
 2093 0a71 750A0000 		.4byte	0xa75
 2094 0a75 18       		.uleb128 0x18
 2095 0a76 6D070000 		.4byte	0x76d
 2096 0a7a 34       		.uleb128 0x34
 2097 0a7b 0D060000 		.4byte	.LASF116
 2098 0a7f 14       		.byte	0x14
 2099 0a80 19       		.byte	0x19
 2100 0a81 850A0000 		.4byte	0xa85
 2101 0a85 18       		.uleb128 0x18
ARM GAS  /tmp/ccznN900.s 			page 68


 2102 0a86 640A0000 		.4byte	0xa64
 2103 0a8a 34       		.uleb128 0x34
 2104 0a8b 5C060000 		.4byte	.LASF117
 2105 0a8f 15       		.byte	0x15
 2106 0a90 19       		.byte	0x19
 2107 0a91 950A0000 		.4byte	0xa95
 2108 0a95 18       		.uleb128 0x18
 2109 0a96 640A0000 		.4byte	0xa64
 2110 0a9a 34       		.uleb128 0x34
 2111 0a9b 6E060000 		.4byte	.LASF118
 2112 0a9f 16       		.byte	0x16
 2113 0aa0 19       		.byte	0x19
 2114 0aa1 A50A0000 		.4byte	0xaa5
 2115 0aa5 18       		.uleb128 0x18
 2116 0aa6 640A0000 		.4byte	0xa64
 2117 0aaa 34       		.uleb128 0x34
 2118 0aab 80060000 		.4byte	.LASF119
 2119 0aaf 17       		.byte	0x17
 2120 0ab0 19       		.byte	0x19
 2121 0ab1 B50A0000 		.4byte	0xab5
 2122 0ab5 18       		.uleb128 0x18
 2123 0ab6 640A0000 		.4byte	0xa64
 2124 0aba 34       		.uleb128 0x34
 2125 0abb 92060000 		.4byte	.LASF120
 2126 0abf 18       		.byte	0x18
 2127 0ac0 19       		.byte	0x19
 2128 0ac1 C50A0000 		.4byte	0xac5
 2129 0ac5 18       		.uleb128 0x18
 2130 0ac6 640A0000 		.4byte	0xa64
 2131 0aca 34       		.uleb128 0x34
 2132 0acb A4060000 		.4byte	.LASF121
 2133 0acf 19       		.byte	0x19
 2134 0ad0 19       		.byte	0x19
 2135 0ad1 D50A0000 		.4byte	0xad5
 2136 0ad5 18       		.uleb128 0x18
 2137 0ad6 640A0000 		.4byte	0xa64
 2138 0ada 34       		.uleb128 0x34
 2139 0adb B6060000 		.4byte	.LASF122
 2140 0adf 1A       		.byte	0x1a
 2141 0ae0 19       		.byte	0x19
 2142 0ae1 E50A0000 		.4byte	0xae5
 2143 0ae5 18       		.uleb128 0x18
 2144 0ae6 640A0000 		.4byte	0xa64
 2145 0aea 34       		.uleb128 0x34
 2146 0aeb C8060000 		.4byte	.LASF123
 2147 0aef 1B       		.byte	0x1b
 2148 0af0 19       		.byte	0x19
 2149 0af1 F50A0000 		.4byte	0xaf5
 2150 0af5 18       		.uleb128 0x18
 2151 0af6 640A0000 		.4byte	0xa64
 2152 0afa 34       		.uleb128 0x34
 2153 0afb DA060000 		.4byte	.LASF124
 2154 0aff 1C       		.byte	0x1c
 2155 0b00 19       		.byte	0x19
 2156 0b01 050B0000 		.4byte	0xb05
 2157 0b05 18       		.uleb128 0x18
 2158 0b06 640A0000 		.4byte	0xa64
ARM GAS  /tmp/ccznN900.s 			page 69


 2159 0b0a 34       		.uleb128 0x34
 2160 0b0b 2B000000 		.4byte	.LASF125
 2161 0b0f 1D       		.byte	0x1d
 2162 0b10 19       		.byte	0x19
 2163 0b11 150B0000 		.4byte	0xb15
 2164 0b15 18       		.uleb128 0x18
 2165 0b16 640A0000 		.4byte	0xa64
 2166 0b1a 34       		.uleb128 0x34
 2167 0b1b 3D000000 		.4byte	.LASF126
 2168 0b1f 1E       		.byte	0x1e
 2169 0b20 19       		.byte	0x19
 2170 0b21 250B0000 		.4byte	0xb25
 2171 0b25 18       		.uleb128 0x18
 2172 0b26 640A0000 		.4byte	0xa64
 2173 0b2a 34       		.uleb128 0x34
 2174 0b2b 4F000000 		.4byte	.LASF127
 2175 0b2f 1F       		.byte	0x1f
 2176 0b30 19       		.byte	0x19
 2177 0b31 350B0000 		.4byte	0xb35
 2178 0b35 18       		.uleb128 0x18
 2179 0b36 640A0000 		.4byte	0xa64
 2180 0b3a 34       		.uleb128 0x34
 2181 0b3b 61000000 		.4byte	.LASF128
 2182 0b3f 20       		.byte	0x20
 2183 0b40 19       		.byte	0x19
 2184 0b41 450B0000 		.4byte	0xb45
 2185 0b45 18       		.uleb128 0x18
 2186 0b46 640A0000 		.4byte	0xa64
 2187 0b4a 10       		.uleb128 0x10
 2188 0b4b 5A0B0000 		.4byte	0xb5a
 2189 0b4f 5A0B0000 		.4byte	0xb5a
 2190 0b53 11       		.uleb128 0x11
 2191 0b54 09040000 		.4byte	0x409
 2192 0b58 0D       		.byte	0xd
 2193 0b59 00       		.byte	0
 2194 0b5a 0A       		.uleb128 0xa
 2195 0b5b 04       		.byte	0x4
 2196 0b5c 600B0000 		.4byte	0xb60
 2197 0b60 18       		.uleb128 0x18
 2198 0b61 6F0A0000 		.4byte	0xa6f
 2199 0b65 35       		.uleb128 0x35
 2200 0b66 C0040000 		.4byte	.LASF129
 2201 0b6a 01       		.byte	0x1
 2202 0b6b 3A       		.byte	0x3a
 2203 0b6c 4A0B0000 		.4byte	0xb4a
 2204 0b70 05       		.uleb128 0x5
 2205 0b71 03       		.byte	0x3
 2206 0b72 00000000 		.4byte	test_suite
 2207 0b76 10       		.uleb128 0x10
 2208 0b77 45000000 		.4byte	0x45
 2209 0b7b 870B0000 		.4byte	0xb87
 2210 0b7f 36       		.uleb128 0x36
 2211 0b80 09040000 		.4byte	0x409
 2212 0b84 6706     		.2byte	0x667
 2213 0b86 00       		.byte	0
 2214 0b87 35       		.uleb128 0x35
 2215 0b88 C7020000 		.4byte	.LASF130
ARM GAS  /tmp/ccznN900.s 			page 70


 2216 0b8c 01       		.byte	0x1
 2217 0b8d 74       		.byte	0x74
 2218 0b8e 760B0000 		.4byte	0xb76
 2219 0b92 05       		.uleb128 0x5
 2220 0b93 03       		.byte	0x3
 2221 0b94 00000000 		.4byte	test_buffer
 2222 0b98 10       		.uleb128 0x10
 2223 0b99 04020000 		.4byte	0x204
 2224 0b9d A80B0000 		.4byte	0xba8
 2225 0ba1 11       		.uleb128 0x11
 2226 0ba2 09040000 		.4byte	0x409
 2227 0ba6 04       		.byte	0x4
 2228 0ba7 00       		.byte	0
 2229 0ba8 35       		.uleb128 0x35
 2230 0ba9 04040000 		.4byte	.LASF131
 2231 0bad 01       		.byte	0x1
 2232 0bae 79       		.byte	0x79
 2233 0baf 980B0000 		.4byte	0xb98
 2234 0bb3 05       		.uleb128 0x5
 2235 0bb4 03       		.byte	0x3
 2236 0bb5 00000000 		.4byte	threads
 2237 0bb9 10       		.uleb128 0x10
 2238 0bba E1020000 		.4byte	0x2e1
 2239 0bbe C90B0000 		.4byte	0xbc9
 2240 0bc2 11       		.uleb128 0x11
 2241 0bc3 09040000 		.4byte	0x409
 2242 0bc7 04       		.byte	0x4
 2243 0bc8 00       		.byte	0
 2244 0bc9 37       		.uleb128 0x37
 2245 0bca 776100   		.ascii	"wa\000"
 2246 0bcd 01       		.byte	0x1
 2247 0bce 7E       		.byte	0x7e
 2248 0bcf D90B0000 		.4byte	0xbd9
 2249 0bd3 05       		.uleb128 0x5
 2250 0bd4 03       		.byte	0x3
 2251 0bd5 00000000 		.4byte	wa
 2252 0bd9 18       		.uleb128 0x18
 2253 0bda B90B0000 		.4byte	0xbb9
 2254 0bde 38       		.uleb128 0x38
 2255 0bdf 80020000 		.4byte	.LASF132
 2256 0be3 0F       		.byte	0xf
 2257 0be4 AC       		.byte	0xac
 2258 0be5 EF0B0000 		.4byte	0xbef
 2259 0be9 0D       		.uleb128 0xd
 2260 0bea F2060000 		.4byte	0x6f2
 2261 0bee 00       		.byte	0
 2262 0bef 38       		.uleb128 0x38
 2263 0bf0 35010000 		.4byte	.LASF133
 2264 0bf4 0F       		.byte	0xf
 2265 0bf5 AD       		.byte	0xad
 2266 0bf6 000C0000 		.4byte	0xc00
 2267 0bfa 0D       		.uleb128 0xd
 2268 0bfb F2060000 		.4byte	0x6f2
 2269 0bff 00       		.byte	0
 2270 0c00 39       		.uleb128 0x39
 2271 0c01 97010000 		.4byte	.LASF134
 2272 0c05 21       		.byte	0x21
ARM GAS  /tmp/ccznN900.s 			page 71


 2273 0c06 0001     		.2byte	0x100
 2274 0c08 120C0000 		.4byte	0xc12
 2275 0c0c 0D       		.uleb128 0xd
 2276 0c0d 04020000 		.4byte	0x204
 2277 0c11 00       		.byte	0
 2278 0c12 3A       		.uleb128 0x3a
 2279 0c13 47050000 		.4byte	.LASF141
 2280 0c17 21       		.byte	0x21
 2281 0c18 FD       		.byte	0xfd
 2282 0c19 E4000000 		.4byte	0xe4
 2283 0c1d 270C0000 		.4byte	0xc27
 2284 0c21 0D       		.uleb128 0xd
 2285 0c22 04020000 		.4byte	0x204
 2286 0c26 00       		.byte	0
 2287 0c27 3B       		.uleb128 0x3b
 2288 0c28 4A040000 		.4byte	.LASF142
 2289 0c2c 21       		.byte	0x21
 2290 0c2d 0901     		.2byte	0x109
 2291 0c2f 0D       		.uleb128 0xd
 2292 0c30 05010000 		.4byte	0x105
 2293 0c34 00       		.byte	0
 2294 0c35 00       		.byte	0
 2295              		.section	.debug_abbrev,"",%progbits
 2296              	.Ldebug_abbrev0:
 2297 0000 01       		.uleb128 0x1
 2298 0001 11       		.uleb128 0x11
 2299 0002 01       		.byte	0x1
 2300 0003 25       		.uleb128 0x25
 2301 0004 0E       		.uleb128 0xe
 2302 0005 13       		.uleb128 0x13
 2303 0006 0B       		.uleb128 0xb
 2304 0007 03       		.uleb128 0x3
 2305 0008 0E       		.uleb128 0xe
 2306 0009 1B       		.uleb128 0x1b
 2307 000a 0E       		.uleb128 0xe
 2308 000b 55       		.uleb128 0x55
 2309 000c 17       		.uleb128 0x17
 2310 000d 11       		.uleb128 0x11
 2311 000e 01       		.uleb128 0x1
 2312 000f 10       		.uleb128 0x10
 2313 0010 17       		.uleb128 0x17
 2314 0011 00       		.byte	0
 2315 0012 00       		.byte	0
 2316 0013 02       		.uleb128 0x2
 2317 0014 24       		.uleb128 0x24
 2318 0015 00       		.byte	0
 2319 0016 0B       		.uleb128 0xb
 2320 0017 0B       		.uleb128 0xb
 2321 0018 3E       		.uleb128 0x3e
 2322 0019 0B       		.uleb128 0xb
 2323 001a 03       		.uleb128 0x3
 2324 001b 08       		.uleb128 0x8
 2325 001c 00       		.byte	0
 2326 001d 00       		.byte	0
 2327 001e 03       		.uleb128 0x3
 2328 001f 16       		.uleb128 0x16
 2329 0020 00       		.byte	0
ARM GAS  /tmp/ccznN900.s 			page 72


 2330 0021 03       		.uleb128 0x3
 2331 0022 0E       		.uleb128 0xe
 2332 0023 3A       		.uleb128 0x3a
 2333 0024 0B       		.uleb128 0xb
 2334 0025 3B       		.uleb128 0x3b
 2335 0026 0B       		.uleb128 0xb
 2336 0027 49       		.uleb128 0x49
 2337 0028 13       		.uleb128 0x13
 2338 0029 00       		.byte	0
 2339 002a 00       		.byte	0
 2340 002b 04       		.uleb128 0x4
 2341 002c 24       		.uleb128 0x24
 2342 002d 00       		.byte	0
 2343 002e 0B       		.uleb128 0xb
 2344 002f 0B       		.uleb128 0xb
 2345 0030 3E       		.uleb128 0x3e
 2346 0031 0B       		.uleb128 0xb
 2347 0032 03       		.uleb128 0x3
 2348 0033 0E       		.uleb128 0xe
 2349 0034 00       		.byte	0
 2350 0035 00       		.byte	0
 2351 0036 05       		.uleb128 0x5
 2352 0037 13       		.uleb128 0x13
 2353 0038 01       		.byte	0x1
 2354 0039 03       		.uleb128 0x3
 2355 003a 0E       		.uleb128 0xe
 2356 003b 0B       		.uleb128 0xb
 2357 003c 0B       		.uleb128 0xb
 2358 003d 3A       		.uleb128 0x3a
 2359 003e 0B       		.uleb128 0xb
 2360 003f 3B       		.uleb128 0x3b
 2361 0040 0B       		.uleb128 0xb
 2362 0041 01       		.uleb128 0x1
 2363 0042 13       		.uleb128 0x13
 2364 0043 00       		.byte	0
 2365 0044 00       		.byte	0
 2366 0045 06       		.uleb128 0x6
 2367 0046 0D       		.uleb128 0xd
 2368 0047 00       		.byte	0
 2369 0048 03       		.uleb128 0x3
 2370 0049 0E       		.uleb128 0xe
 2371 004a 3A       		.uleb128 0x3a
 2372 004b 0B       		.uleb128 0xb
 2373 004c 3B       		.uleb128 0x3b
 2374 004d 0B       		.uleb128 0xb
 2375 004e 49       		.uleb128 0x49
 2376 004f 13       		.uleb128 0x13
 2377 0050 38       		.uleb128 0x38
 2378 0051 0B       		.uleb128 0xb
 2379 0052 00       		.byte	0
 2380 0053 00       		.byte	0
 2381 0054 07       		.uleb128 0x7
 2382 0055 0D       		.uleb128 0xd
 2383 0056 00       		.byte	0
 2384 0057 03       		.uleb128 0x3
 2385 0058 08       		.uleb128 0x8
 2386 0059 3A       		.uleb128 0x3a
ARM GAS  /tmp/ccznN900.s 			page 73


 2387 005a 0B       		.uleb128 0xb
 2388 005b 3B       		.uleb128 0x3b
 2389 005c 0B       		.uleb128 0xb
 2390 005d 49       		.uleb128 0x49
 2391 005e 13       		.uleb128 0x13
 2392 005f 38       		.uleb128 0x38
 2393 0060 0B       		.uleb128 0xb
 2394 0061 00       		.byte	0
 2395 0062 00       		.byte	0
 2396 0063 08       		.uleb128 0x8
 2397 0064 0D       		.uleb128 0xd
 2398 0065 00       		.byte	0
 2399 0066 03       		.uleb128 0x3
 2400 0067 08       		.uleb128 0x8
 2401 0068 3A       		.uleb128 0x3a
 2402 0069 0B       		.uleb128 0xb
 2403 006a 3B       		.uleb128 0x3b
 2404 006b 05       		.uleb128 0x5
 2405 006c 49       		.uleb128 0x49
 2406 006d 13       		.uleb128 0x13
 2407 006e 38       		.uleb128 0x38
 2408 006f 0B       		.uleb128 0xb
 2409 0070 00       		.byte	0
 2410 0071 00       		.byte	0
 2411 0072 09       		.uleb128 0x9
 2412 0073 0D       		.uleb128 0xd
 2413 0074 00       		.byte	0
 2414 0075 03       		.uleb128 0x3
 2415 0076 0E       		.uleb128 0xe
 2416 0077 3A       		.uleb128 0x3a
 2417 0078 0B       		.uleb128 0xb
 2418 0079 3B       		.uleb128 0x3b
 2419 007a 05       		.uleb128 0x5
 2420 007b 49       		.uleb128 0x49
 2421 007c 13       		.uleb128 0x13
 2422 007d 38       		.uleb128 0x38
 2423 007e 0B       		.uleb128 0xb
 2424 007f 00       		.byte	0
 2425 0080 00       		.byte	0
 2426 0081 0A       		.uleb128 0xa
 2427 0082 0F       		.uleb128 0xf
 2428 0083 00       		.byte	0
 2429 0084 0B       		.uleb128 0xb
 2430 0085 0B       		.uleb128 0xb
 2431 0086 49       		.uleb128 0x49
 2432 0087 13       		.uleb128 0x13
 2433 0088 00       		.byte	0
 2434 0089 00       		.byte	0
 2435 008a 0B       		.uleb128 0xb
 2436 008b 13       		.uleb128 0x13
 2437 008c 01       		.byte	0x1
 2438 008d 03       		.uleb128 0x3
 2439 008e 0E       		.uleb128 0xe
 2440 008f 0B       		.uleb128 0xb
 2441 0090 0B       		.uleb128 0xb
 2442 0091 3A       		.uleb128 0x3a
 2443 0092 0B       		.uleb128 0xb
ARM GAS  /tmp/ccznN900.s 			page 74


 2444 0093 3B       		.uleb128 0x3b
 2445 0094 05       		.uleb128 0x5
 2446 0095 01       		.uleb128 0x1
 2447 0096 13       		.uleb128 0x13
 2448 0097 00       		.byte	0
 2449 0098 00       		.byte	0
 2450 0099 0C       		.uleb128 0xc
 2451 009a 15       		.uleb128 0x15
 2452 009b 01       		.byte	0x1
 2453 009c 27       		.uleb128 0x27
 2454 009d 19       		.uleb128 0x19
 2455 009e 01       		.uleb128 0x1
 2456 009f 13       		.uleb128 0x13
 2457 00a0 00       		.byte	0
 2458 00a1 00       		.byte	0
 2459 00a2 0D       		.uleb128 0xd
 2460 00a3 05       		.uleb128 0x5
 2461 00a4 00       		.byte	0
 2462 00a5 49       		.uleb128 0x49
 2463 00a6 13       		.uleb128 0x13
 2464 00a7 00       		.byte	0
 2465 00a8 00       		.byte	0
 2466 00a9 0E       		.uleb128 0xe
 2467 00aa 0F       		.uleb128 0xf
 2468 00ab 00       		.byte	0
 2469 00ac 0B       		.uleb128 0xb
 2470 00ad 0B       		.uleb128 0xb
 2471 00ae 00       		.byte	0
 2472 00af 00       		.byte	0
 2473 00b0 0F       		.uleb128 0xf
 2474 00b1 35       		.uleb128 0x35
 2475 00b2 00       		.byte	0
 2476 00b3 49       		.uleb128 0x49
 2477 00b4 13       		.uleb128 0x13
 2478 00b5 00       		.byte	0
 2479 00b6 00       		.byte	0
 2480 00b7 10       		.uleb128 0x10
 2481 00b8 01       		.uleb128 0x1
 2482 00b9 01       		.byte	0x1
 2483 00ba 49       		.uleb128 0x49
 2484 00bb 13       		.uleb128 0x13
 2485 00bc 01       		.uleb128 0x1
 2486 00bd 13       		.uleb128 0x13
 2487 00be 00       		.byte	0
 2488 00bf 00       		.byte	0
 2489 00c0 11       		.uleb128 0x11
 2490 00c1 21       		.uleb128 0x21
 2491 00c2 00       		.byte	0
 2492 00c3 49       		.uleb128 0x49
 2493 00c4 13       		.uleb128 0x13
 2494 00c5 2F       		.uleb128 0x2f
 2495 00c6 0B       		.uleb128 0xb
 2496 00c7 00       		.byte	0
 2497 00c8 00       		.byte	0
 2498 00c9 12       		.uleb128 0x12
 2499 00ca 13       		.uleb128 0x13
 2500 00cb 01       		.byte	0x1
ARM GAS  /tmp/ccznN900.s 			page 75


 2501 00cc 0B       		.uleb128 0xb
 2502 00cd 0B       		.uleb128 0xb
 2503 00ce 3A       		.uleb128 0x3a
 2504 00cf 0B       		.uleb128 0xb
 2505 00d0 3B       		.uleb128 0x3b
 2506 00d1 05       		.uleb128 0x5
 2507 00d2 01       		.uleb128 0x1
 2508 00d3 13       		.uleb128 0x13
 2509 00d4 00       		.byte	0
 2510 00d5 00       		.byte	0
 2511 00d6 13       		.uleb128 0x13
 2512 00d7 16       		.uleb128 0x16
 2513 00d8 00       		.byte	0
 2514 00d9 03       		.uleb128 0x3
 2515 00da 0E       		.uleb128 0xe
 2516 00db 3A       		.uleb128 0x3a
 2517 00dc 0B       		.uleb128 0xb
 2518 00dd 3B       		.uleb128 0x3b
 2519 00de 05       		.uleb128 0x5
 2520 00df 49       		.uleb128 0x49
 2521 00e0 13       		.uleb128 0x13
 2522 00e1 00       		.byte	0
 2523 00e2 00       		.byte	0
 2524 00e3 14       		.uleb128 0x14
 2525 00e4 13       		.uleb128 0x13
 2526 00e5 01       		.byte	0x1
 2527 00e6 0B       		.uleb128 0xb
 2528 00e7 0B       		.uleb128 0xb
 2529 00e8 3A       		.uleb128 0x3a
 2530 00e9 0B       		.uleb128 0xb
 2531 00ea 3B       		.uleb128 0x3b
 2532 00eb 0B       		.uleb128 0xb
 2533 00ec 01       		.uleb128 0x1
 2534 00ed 13       		.uleb128 0x13
 2535 00ee 00       		.byte	0
 2536 00ef 00       		.byte	0
 2537 00f0 15       		.uleb128 0x15
 2538 00f1 17       		.uleb128 0x17
 2539 00f2 01       		.byte	0x1
 2540 00f3 0B       		.uleb128 0xb
 2541 00f4 0B       		.uleb128 0xb
 2542 00f5 3A       		.uleb128 0x3a
 2543 00f6 0B       		.uleb128 0xb
 2544 00f7 3B       		.uleb128 0x3b
 2545 00f8 0B       		.uleb128 0xb
 2546 00f9 01       		.uleb128 0x1
 2547 00fa 13       		.uleb128 0x13
 2548 00fb 00       		.byte	0
 2549 00fc 00       		.byte	0
 2550 00fd 16       		.uleb128 0x16
 2551 00fe 0D       		.uleb128 0xd
 2552 00ff 00       		.byte	0
 2553 0100 03       		.uleb128 0x3
 2554 0101 0E       		.uleb128 0xe
 2555 0102 3A       		.uleb128 0x3a
 2556 0103 0B       		.uleb128 0xb
 2557 0104 3B       		.uleb128 0x3b
ARM GAS  /tmp/ccznN900.s 			page 76


 2558 0105 0B       		.uleb128 0xb
 2559 0106 49       		.uleb128 0x49
 2560 0107 13       		.uleb128 0x13
 2561 0108 00       		.byte	0
 2562 0109 00       		.byte	0
 2563 010a 17       		.uleb128 0x17
 2564 010b 0D       		.uleb128 0xd
 2565 010c 00       		.byte	0
 2566 010d 03       		.uleb128 0x3
 2567 010e 0E       		.uleb128 0xe
 2568 010f 3A       		.uleb128 0x3a
 2569 0110 0B       		.uleb128 0xb
 2570 0111 3B       		.uleb128 0x3b
 2571 0112 05       		.uleb128 0x5
 2572 0113 49       		.uleb128 0x49
 2573 0114 13       		.uleb128 0x13
 2574 0115 00       		.byte	0
 2575 0116 00       		.byte	0
 2576 0117 18       		.uleb128 0x18
 2577 0118 26       		.uleb128 0x26
 2578 0119 00       		.byte	0
 2579 011a 49       		.uleb128 0x49
 2580 011b 13       		.uleb128 0x13
 2581 011c 00       		.byte	0
 2582 011d 00       		.byte	0
 2583 011e 19       		.uleb128 0x19
 2584 011f 15       		.uleb128 0x15
 2585 0120 00       		.byte	0
 2586 0121 27       		.uleb128 0x27
 2587 0122 19       		.uleb128 0x19
 2588 0123 00       		.byte	0
 2589 0124 00       		.byte	0
 2590 0125 1A       		.uleb128 0x1a
 2591 0126 2E       		.uleb128 0x2e
 2592 0127 01       		.byte	0x1
 2593 0128 03       		.uleb128 0x3
 2594 0129 0E       		.uleb128 0xe
 2595 012a 3A       		.uleb128 0x3a
 2596 012b 0B       		.uleb128 0xb
 2597 012c 3B       		.uleb128 0x3b
 2598 012d 05       		.uleb128 0x5
 2599 012e 27       		.uleb128 0x27
 2600 012f 19       		.uleb128 0x19
 2601 0130 20       		.uleb128 0x20
 2602 0131 0B       		.uleb128 0xb
 2603 0132 01       		.uleb128 0x1
 2604 0133 13       		.uleb128 0x13
 2605 0134 00       		.byte	0
 2606 0135 00       		.byte	0
 2607 0136 1B       		.uleb128 0x1b
 2608 0137 05       		.uleb128 0x5
 2609 0138 00       		.byte	0
 2610 0139 03       		.uleb128 0x3
 2611 013a 0E       		.uleb128 0xe
 2612 013b 3A       		.uleb128 0x3a
 2613 013c 0B       		.uleb128 0xb
 2614 013d 3B       		.uleb128 0x3b
ARM GAS  /tmp/ccznN900.s 			page 77


 2615 013e 05       		.uleb128 0x5
 2616 013f 49       		.uleb128 0x49
 2617 0140 13       		.uleb128 0x13
 2618 0141 00       		.byte	0
 2619 0142 00       		.byte	0
 2620 0143 1C       		.uleb128 0x1c
 2621 0144 2E       		.uleb128 0x2e
 2622 0145 00       		.byte	0
 2623 0146 03       		.uleb128 0x3
 2624 0147 0E       		.uleb128 0xe
 2625 0148 3A       		.uleb128 0x3a
 2626 0149 0B       		.uleb128 0xb
 2627 014a 3B       		.uleb128 0x3b
 2628 014b 0B       		.uleb128 0xb
 2629 014c 27       		.uleb128 0x27
 2630 014d 19       		.uleb128 0x19
 2631 014e 49       		.uleb128 0x49
 2632 014f 13       		.uleb128 0x13
 2633 0150 20       		.uleb128 0x20
 2634 0151 0B       		.uleb128 0xb
 2635 0152 00       		.byte	0
 2636 0153 00       		.byte	0
 2637 0154 1D       		.uleb128 0x1d
 2638 0155 2E       		.uleb128 0x2e
 2639 0156 00       		.byte	0
 2640 0157 03       		.uleb128 0x3
 2641 0158 0E       		.uleb128 0xe
 2642 0159 3A       		.uleb128 0x3a
 2643 015a 0B       		.uleb128 0xb
 2644 015b 3B       		.uleb128 0x3b
 2645 015c 05       		.uleb128 0x5
 2646 015d 27       		.uleb128 0x27
 2647 015e 19       		.uleb128 0x19
 2648 015f 20       		.uleb128 0x20
 2649 0160 0B       		.uleb128 0xb
 2650 0161 00       		.byte	0
 2651 0162 00       		.byte	0
 2652 0163 1E       		.uleb128 0x1e
 2653 0164 2E       		.uleb128 0x2e
 2654 0165 00       		.byte	0
 2655 0166 03       		.uleb128 0x3
 2656 0167 0E       		.uleb128 0xe
 2657 0168 3A       		.uleb128 0x3a
 2658 0169 0B       		.uleb128 0xb
 2659 016a 3B       		.uleb128 0x3b
 2660 016b 05       		.uleb128 0x5
 2661 016c 27       		.uleb128 0x27
 2662 016d 19       		.uleb128 0x19
 2663 016e 49       		.uleb128 0x49
 2664 016f 13       		.uleb128 0x13
 2665 0170 20       		.uleb128 0x20
 2666 0171 0B       		.uleb128 0xb
 2667 0172 00       		.byte	0
 2668 0173 00       		.byte	0
 2669 0174 1F       		.uleb128 0x1f
 2670 0175 34       		.uleb128 0x34
 2671 0176 00       		.byte	0
ARM GAS  /tmp/ccznN900.s 			page 78


 2672 0177 03       		.uleb128 0x3
 2673 0178 0E       		.uleb128 0xe
 2674 0179 49       		.uleb128 0x49
 2675 017a 13       		.uleb128 0x13
 2676 017b 34       		.uleb128 0x34
 2677 017c 19       		.uleb128 0x19
 2678 017d 1C       		.uleb128 0x1c
 2679 017e 0E       		.uleb128 0xe
 2680 017f 00       		.byte	0
 2681 0180 00       		.byte	0
 2682 0181 20       		.uleb128 0x20
 2683 0182 2E       		.uleb128 0x2e
 2684 0183 01       		.byte	0x1
 2685 0184 03       		.uleb128 0x3
 2686 0185 0E       		.uleb128 0xe
 2687 0186 3A       		.uleb128 0x3a
 2688 0187 0B       		.uleb128 0xb
 2689 0188 3B       		.uleb128 0x3b
 2690 0189 05       		.uleb128 0x5
 2691 018a 27       		.uleb128 0x27
 2692 018b 19       		.uleb128 0x19
 2693 018c 49       		.uleb128 0x49
 2694 018d 13       		.uleb128 0x13
 2695 018e 20       		.uleb128 0x20
 2696 018f 0B       		.uleb128 0xb
 2697 0190 01       		.uleb128 0x1
 2698 0191 13       		.uleb128 0x13
 2699 0192 00       		.byte	0
 2700 0193 00       		.byte	0
 2701 0194 21       		.uleb128 0x21
 2702 0195 34       		.uleb128 0x34
 2703 0196 00       		.byte	0
 2704 0197 03       		.uleb128 0x3
 2705 0198 0E       		.uleb128 0xe
 2706 0199 3A       		.uleb128 0x3a
 2707 019a 0B       		.uleb128 0xb
 2708 019b 3B       		.uleb128 0x3b
 2709 019c 05       		.uleb128 0x5
 2710 019d 49       		.uleb128 0x49
 2711 019e 13       		.uleb128 0x13
 2712 019f 00       		.byte	0
 2713 01a0 00       		.byte	0
 2714 01a1 22       		.uleb128 0x22
 2715 01a2 2E       		.uleb128 0x2e
 2716 01a3 01       		.byte	0x1
 2717 01a4 3F       		.uleb128 0x3f
 2718 01a5 19       		.uleb128 0x19
 2719 01a6 03       		.uleb128 0x3
 2720 01a7 0E       		.uleb128 0xe
 2721 01a8 3A       		.uleb128 0x3a
 2722 01a9 0B       		.uleb128 0xb
 2723 01aa 3B       		.uleb128 0x3b
 2724 01ab 0B       		.uleb128 0xb
 2725 01ac 27       		.uleb128 0x27
 2726 01ad 19       		.uleb128 0x19
 2727 01ae 11       		.uleb128 0x11
 2728 01af 01       		.uleb128 0x1
ARM GAS  /tmp/ccznN900.s 			page 79


 2729 01b0 12       		.uleb128 0x12
 2730 01b1 06       		.uleb128 0x6
 2731 01b2 40       		.uleb128 0x40
 2732 01b3 18       		.uleb128 0x18
 2733 01b4 9742     		.uleb128 0x2117
 2734 01b6 19       		.uleb128 0x19
 2735 01b7 01       		.uleb128 0x1
 2736 01b8 13       		.uleb128 0x13
 2737 01b9 00       		.byte	0
 2738 01ba 00       		.byte	0
 2739 01bb 23       		.uleb128 0x23
 2740 01bc 898201   		.uleb128 0x4109
 2741 01bf 01       		.byte	0x1
 2742 01c0 11       		.uleb128 0x11
 2743 01c1 01       		.uleb128 0x1
 2744 01c2 31       		.uleb128 0x31
 2745 01c3 13       		.uleb128 0x13
 2746 01c4 01       		.uleb128 0x1
 2747 01c5 13       		.uleb128 0x13
 2748 01c6 00       		.byte	0
 2749 01c7 00       		.byte	0
 2750 01c8 24       		.uleb128 0x24
 2751 01c9 8A8201   		.uleb128 0x410a
 2752 01cc 00       		.byte	0
 2753 01cd 02       		.uleb128 0x2
 2754 01ce 18       		.uleb128 0x18
 2755 01cf 9142     		.uleb128 0x2111
 2756 01d1 18       		.uleb128 0x18
 2757 01d2 00       		.byte	0
 2758 01d3 00       		.byte	0
 2759 01d4 25       		.uleb128 0x25
 2760 01d5 898201   		.uleb128 0x4109
 2761 01d8 01       		.byte	0x1
 2762 01d9 11       		.uleb128 0x11
 2763 01da 01       		.uleb128 0x1
 2764 01db 9542     		.uleb128 0x2115
 2765 01dd 19       		.uleb128 0x19
 2766 01de 31       		.uleb128 0x31
 2767 01df 13       		.uleb128 0x13
 2768 01e0 00       		.byte	0
 2769 01e1 00       		.byte	0
 2770 01e2 26       		.uleb128 0x26
 2771 01e3 34       		.uleb128 0x34
 2772 01e4 00       		.byte	0
 2773 01e5 03       		.uleb128 0x3
 2774 01e6 08       		.uleb128 0x8
 2775 01e7 3A       		.uleb128 0x3a
 2776 01e8 0B       		.uleb128 0xb
 2777 01e9 3B       		.uleb128 0x3b
 2778 01ea 0B       		.uleb128 0xb
 2779 01eb 49       		.uleb128 0x49
 2780 01ec 13       		.uleb128 0x13
 2781 01ed 02       		.uleb128 0x2
 2782 01ee 17       		.uleb128 0x17
 2783 01ef 00       		.byte	0
 2784 01f0 00       		.byte	0
 2785 01f1 27       		.uleb128 0x27
ARM GAS  /tmp/ccznN900.s 			page 80


 2786 01f2 898201   		.uleb128 0x4109
 2787 01f5 00       		.byte	0
 2788 01f6 11       		.uleb128 0x11
 2789 01f7 01       		.uleb128 0x1
 2790 01f8 31       		.uleb128 0x31
 2791 01f9 13       		.uleb128 0x13
 2792 01fa 00       		.byte	0
 2793 01fb 00       		.byte	0
 2794 01fc 28       		.uleb128 0x28
 2795 01fd 2E       		.uleb128 0x2e
 2796 01fe 01       		.byte	0x1
 2797 01ff 3F       		.uleb128 0x3f
 2798 0200 19       		.uleb128 0x19
 2799 0201 03       		.uleb128 0x3
 2800 0202 0E       		.uleb128 0xe
 2801 0203 3A       		.uleb128 0x3a
 2802 0204 0B       		.uleb128 0xb
 2803 0205 3B       		.uleb128 0x3b
 2804 0206 0B       		.uleb128 0xb
 2805 0207 27       		.uleb128 0x27
 2806 0208 19       		.uleb128 0x19
 2807 0209 49       		.uleb128 0x49
 2808 020a 13       		.uleb128 0x13
 2809 020b 11       		.uleb128 0x11
 2810 020c 01       		.uleb128 0x1
 2811 020d 12       		.uleb128 0x12
 2812 020e 06       		.uleb128 0x6
 2813 020f 40       		.uleb128 0x40
 2814 0210 18       		.uleb128 0x18
 2815 0211 9742     		.uleb128 0x2117
 2816 0213 19       		.uleb128 0x19
 2817 0214 01       		.uleb128 0x1
 2818 0215 13       		.uleb128 0x13
 2819 0216 00       		.byte	0
 2820 0217 00       		.byte	0
 2821 0218 29       		.uleb128 0x29
 2822 0219 1D       		.uleb128 0x1d
 2823 021a 01       		.byte	0x1
 2824 021b 31       		.uleb128 0x31
 2825 021c 13       		.uleb128 0x13
 2826 021d 11       		.uleb128 0x11
 2827 021e 01       		.uleb128 0x1
 2828 021f 12       		.uleb128 0x12
 2829 0220 06       		.uleb128 0x6
 2830 0221 58       		.uleb128 0x58
 2831 0222 0B       		.uleb128 0xb
 2832 0223 59       		.uleb128 0x59
 2833 0224 0B       		.uleb128 0xb
 2834 0225 01       		.uleb128 0x1
 2835 0226 13       		.uleb128 0x13
 2836 0227 00       		.byte	0
 2837 0228 00       		.byte	0
 2838 0229 2A       		.uleb128 0x2a
 2839 022a 0B       		.uleb128 0xb
 2840 022b 01       		.byte	0x1
 2841 022c 11       		.uleb128 0x11
 2842 022d 01       		.uleb128 0x1
ARM GAS  /tmp/ccznN900.s 			page 81


 2843 022e 12       		.uleb128 0x12
 2844 022f 06       		.uleb128 0x6
 2845 0230 00       		.byte	0
 2846 0231 00       		.byte	0
 2847 0232 2B       		.uleb128 0x2b
 2848 0233 34       		.uleb128 0x34
 2849 0234 00       		.byte	0
 2850 0235 31       		.uleb128 0x31
 2851 0236 13       		.uleb128 0x13
 2852 0237 00       		.byte	0
 2853 0238 00       		.byte	0
 2854 0239 2C       		.uleb128 0x2c
 2855 023a 1D       		.uleb128 0x1d
 2856 023b 01       		.byte	0x1
 2857 023c 31       		.uleb128 0x31
 2858 023d 13       		.uleb128 0x13
 2859 023e 11       		.uleb128 0x11
 2860 023f 01       		.uleb128 0x1
 2861 0240 12       		.uleb128 0x12
 2862 0241 06       		.uleb128 0x6
 2863 0242 58       		.uleb128 0x58
 2864 0243 0B       		.uleb128 0xb
 2865 0244 59       		.uleb128 0x59
 2866 0245 05       		.uleb128 0x5
 2867 0246 01       		.uleb128 0x1
 2868 0247 13       		.uleb128 0x13
 2869 0248 00       		.byte	0
 2870 0249 00       		.byte	0
 2871 024a 2D       		.uleb128 0x2d
 2872 024b 1D       		.uleb128 0x1d
 2873 024c 01       		.byte	0x1
 2874 024d 31       		.uleb128 0x31
 2875 024e 13       		.uleb128 0x13
 2876 024f 11       		.uleb128 0x11
 2877 0250 01       		.uleb128 0x1
 2878 0251 12       		.uleb128 0x12
 2879 0252 06       		.uleb128 0x6
 2880 0253 58       		.uleb128 0x58
 2881 0254 0B       		.uleb128 0xb
 2882 0255 59       		.uleb128 0x59
 2883 0256 05       		.uleb128 0x5
 2884 0257 00       		.byte	0
 2885 0258 00       		.byte	0
 2886 0259 2E       		.uleb128 0x2e
 2887 025a 05       		.uleb128 0x5
 2888 025b 00       		.byte	0
 2889 025c 31       		.uleb128 0x31
 2890 025d 13       		.uleb128 0x13
 2891 025e 1C       		.uleb128 0x1c
 2892 025f 0B       		.uleb128 0xb
 2893 0260 00       		.byte	0
 2894 0261 00       		.byte	0
 2895 0262 2F       		.uleb128 0x2f
 2896 0263 1D       		.uleb128 0x1d
 2897 0264 00       		.byte	0
 2898 0265 31       		.uleb128 0x31
 2899 0266 13       		.uleb128 0x13
ARM GAS  /tmp/ccznN900.s 			page 82


 2900 0267 11       		.uleb128 0x11
 2901 0268 01       		.uleb128 0x1
 2902 0269 12       		.uleb128 0x12
 2903 026a 06       		.uleb128 0x6
 2904 026b 58       		.uleb128 0x58
 2905 026c 0B       		.uleb128 0xb
 2906 026d 59       		.uleb128 0x59
 2907 026e 0B       		.uleb128 0xb
 2908 026f 00       		.byte	0
 2909 0270 00       		.byte	0
 2910 0271 30       		.uleb128 0x30
 2911 0272 898201   		.uleb128 0x4109
 2912 0275 01       		.byte	0x1
 2913 0276 11       		.uleb128 0x11
 2914 0277 01       		.uleb128 0x1
 2915 0278 31       		.uleb128 0x31
 2916 0279 13       		.uleb128 0x13
 2917 027a 00       		.byte	0
 2918 027b 00       		.byte	0
 2919 027c 31       		.uleb128 0x31
 2920 027d 34       		.uleb128 0x34
 2921 027e 00       		.byte	0
 2922 027f 03       		.uleb128 0x3
 2923 0280 0E       		.uleb128 0xe
 2924 0281 3A       		.uleb128 0x3a
 2925 0282 0B       		.uleb128 0xb
 2926 0283 3B       		.uleb128 0x3b
 2927 0284 05       		.uleb128 0x5
 2928 0285 49       		.uleb128 0x49
 2929 0286 13       		.uleb128 0x13
 2930 0287 3F       		.uleb128 0x3f
 2931 0288 19       		.uleb128 0x19
 2932 0289 3C       		.uleb128 0x3c
 2933 028a 19       		.uleb128 0x19
 2934 028b 00       		.byte	0
 2935 028c 00       		.byte	0
 2936 028d 32       		.uleb128 0x32
 2937 028e 34       		.uleb128 0x34
 2938 028f 00       		.byte	0
 2939 0290 03       		.uleb128 0x3
 2940 0291 08       		.uleb128 0x8
 2941 0292 3A       		.uleb128 0x3a
 2942 0293 0B       		.uleb128 0xb
 2943 0294 3B       		.uleb128 0x3b
 2944 0295 05       		.uleb128 0x5
 2945 0296 49       		.uleb128 0x49
 2946 0297 13       		.uleb128 0x13
 2947 0298 3F       		.uleb128 0x3f
 2948 0299 19       		.uleb128 0x19
 2949 029a 3C       		.uleb128 0x3c
 2950 029b 19       		.uleb128 0x19
 2951 029c 00       		.byte	0
 2952 029d 00       		.byte	0
 2953 029e 33       		.uleb128 0x33
 2954 029f 21       		.uleb128 0x21
 2955 02a0 00       		.byte	0
 2956 02a1 00       		.byte	0
ARM GAS  /tmp/ccznN900.s 			page 83


 2957 02a2 00       		.byte	0
 2958 02a3 34       		.uleb128 0x34
 2959 02a4 34       		.uleb128 0x34
 2960 02a5 00       		.byte	0
 2961 02a6 03       		.uleb128 0x3
 2962 02a7 0E       		.uleb128 0xe
 2963 02a8 3A       		.uleb128 0x3a
 2964 02a9 0B       		.uleb128 0xb
 2965 02aa 3B       		.uleb128 0x3b
 2966 02ab 0B       		.uleb128 0xb
 2967 02ac 49       		.uleb128 0x49
 2968 02ad 13       		.uleb128 0x13
 2969 02ae 3F       		.uleb128 0x3f
 2970 02af 19       		.uleb128 0x19
 2971 02b0 3C       		.uleb128 0x3c
 2972 02b1 19       		.uleb128 0x19
 2973 02b2 00       		.byte	0
 2974 02b3 00       		.byte	0
 2975 02b4 35       		.uleb128 0x35
 2976 02b5 34       		.uleb128 0x34
 2977 02b6 00       		.byte	0
 2978 02b7 03       		.uleb128 0x3
 2979 02b8 0E       		.uleb128 0xe
 2980 02b9 3A       		.uleb128 0x3a
 2981 02ba 0B       		.uleb128 0xb
 2982 02bb 3B       		.uleb128 0x3b
 2983 02bc 0B       		.uleb128 0xb
 2984 02bd 49       		.uleb128 0x49
 2985 02be 13       		.uleb128 0x13
 2986 02bf 3F       		.uleb128 0x3f
 2987 02c0 19       		.uleb128 0x19
 2988 02c1 02       		.uleb128 0x2
 2989 02c2 18       		.uleb128 0x18
 2990 02c3 00       		.byte	0
 2991 02c4 00       		.byte	0
 2992 02c5 36       		.uleb128 0x36
 2993 02c6 21       		.uleb128 0x21
 2994 02c7 00       		.byte	0
 2995 02c8 49       		.uleb128 0x49
 2996 02c9 13       		.uleb128 0x13
 2997 02ca 2F       		.uleb128 0x2f
 2998 02cb 05       		.uleb128 0x5
 2999 02cc 00       		.byte	0
 3000 02cd 00       		.byte	0
 3001 02ce 37       		.uleb128 0x37
 3002 02cf 34       		.uleb128 0x34
 3003 02d0 00       		.byte	0
 3004 02d1 03       		.uleb128 0x3
 3005 02d2 08       		.uleb128 0x8
 3006 02d3 3A       		.uleb128 0x3a
 3007 02d4 0B       		.uleb128 0xb
 3008 02d5 3B       		.uleb128 0x3b
 3009 02d6 0B       		.uleb128 0xb
 3010 02d7 49       		.uleb128 0x49
 3011 02d8 13       		.uleb128 0x13
 3012 02d9 3F       		.uleb128 0x3f
 3013 02da 19       		.uleb128 0x19
ARM GAS  /tmp/ccznN900.s 			page 84


 3014 02db 02       		.uleb128 0x2
 3015 02dc 18       		.uleb128 0x18
 3016 02dd 00       		.byte	0
 3017 02de 00       		.byte	0
 3018 02df 38       		.uleb128 0x38
 3019 02e0 2E       		.uleb128 0x2e
 3020 02e1 01       		.byte	0x1
 3021 02e2 3F       		.uleb128 0x3f
 3022 02e3 19       		.uleb128 0x19
 3023 02e4 03       		.uleb128 0x3
 3024 02e5 0E       		.uleb128 0xe
 3025 02e6 3A       		.uleb128 0x3a
 3026 02e7 0B       		.uleb128 0xb
 3027 02e8 3B       		.uleb128 0x3b
 3028 02e9 0B       		.uleb128 0xb
 3029 02ea 27       		.uleb128 0x27
 3030 02eb 19       		.uleb128 0x19
 3031 02ec 3C       		.uleb128 0x3c
 3032 02ed 19       		.uleb128 0x19
 3033 02ee 01       		.uleb128 0x1
 3034 02ef 13       		.uleb128 0x13
 3035 02f0 00       		.byte	0
 3036 02f1 00       		.byte	0
 3037 02f2 39       		.uleb128 0x39
 3038 02f3 2E       		.uleb128 0x2e
 3039 02f4 01       		.byte	0x1
 3040 02f5 3F       		.uleb128 0x3f
 3041 02f6 19       		.uleb128 0x19
 3042 02f7 03       		.uleb128 0x3
 3043 02f8 0E       		.uleb128 0xe
 3044 02f9 3A       		.uleb128 0x3a
 3045 02fa 0B       		.uleb128 0xb
 3046 02fb 3B       		.uleb128 0x3b
 3047 02fc 05       		.uleb128 0x5
 3048 02fd 27       		.uleb128 0x27
 3049 02fe 19       		.uleb128 0x19
 3050 02ff 3C       		.uleb128 0x3c
 3051 0300 19       		.uleb128 0x19
 3052 0301 01       		.uleb128 0x1
 3053 0302 13       		.uleb128 0x13
 3054 0303 00       		.byte	0
 3055 0304 00       		.byte	0
 3056 0305 3A       		.uleb128 0x3a
 3057 0306 2E       		.uleb128 0x2e
 3058 0307 01       		.byte	0x1
 3059 0308 3F       		.uleb128 0x3f
 3060 0309 19       		.uleb128 0x19
 3061 030a 03       		.uleb128 0x3
 3062 030b 0E       		.uleb128 0xe
 3063 030c 3A       		.uleb128 0x3a
 3064 030d 0B       		.uleb128 0xb
 3065 030e 3B       		.uleb128 0x3b
 3066 030f 0B       		.uleb128 0xb
 3067 0310 27       		.uleb128 0x27
 3068 0311 19       		.uleb128 0x19
 3069 0312 49       		.uleb128 0x49
 3070 0313 13       		.uleb128 0x13
ARM GAS  /tmp/ccznN900.s 			page 85


 3071 0314 3C       		.uleb128 0x3c
 3072 0315 19       		.uleb128 0x19
 3073 0316 01       		.uleb128 0x1
 3074 0317 13       		.uleb128 0x13
 3075 0318 00       		.byte	0
 3076 0319 00       		.byte	0
 3077 031a 3B       		.uleb128 0x3b
 3078 031b 2E       		.uleb128 0x2e
 3079 031c 01       		.byte	0x1
 3080 031d 3F       		.uleb128 0x3f
 3081 031e 19       		.uleb128 0x19
 3082 031f 03       		.uleb128 0x3
 3083 0320 0E       		.uleb128 0xe
 3084 0321 3A       		.uleb128 0x3a
 3085 0322 0B       		.uleb128 0xb
 3086 0323 3B       		.uleb128 0x3b
 3087 0324 05       		.uleb128 0x5
 3088 0325 27       		.uleb128 0x27
 3089 0326 19       		.uleb128 0x19
 3090 0327 3C       		.uleb128 0x3c
 3091 0328 19       		.uleb128 0x19
 3092 0329 00       		.byte	0
 3093 032a 00       		.byte	0
 3094 032b 00       		.byte	0
 3095              		.section	.debug_loc,"",%progbits
 3096              	.Ldebug_loc0:
 3097              	.LLST0:
 3098 0000 00000000 		.4byte	.LVL8
 3099 0004 08000000 		.4byte	.LVL9
 3100 0008 0200     		.2byte	0x2
 3101 000a 30       		.byte	0x30
 3102 000b 9F       		.byte	0x9f
 3103 000c 00000000 		.4byte	0
 3104 0010 00000000 		.4byte	0
 3105              	.LLST1:
 3106 0014 00000000 		.4byte	.LVL11
 3107 0018 10000000 		.4byte	.LVL12
 3108 001c 0200     		.2byte	0x2
 3109 001e 30       		.byte	0x30
 3110 001f 9F       		.byte	0x9f
 3111 0020 00000000 		.4byte	0
 3112 0024 00000000 		.4byte	0
 3113              		.section	.debug_aranges,"",%progbits
 3114 0000 34000000 		.4byte	0x34
 3115 0004 0200     		.2byte	0x2
 3116 0006 00000000 		.4byte	.Ldebug_info0
 3117 000a 04       		.byte	0x4
 3118 000b 00       		.byte	0
 3119 000c 0000     		.2byte	0
 3120 000e 0000     		.2byte	0
 3121 0010 00000000 		.4byte	.LFB217
 3122 0014 66000000 		.4byte	.LFE217-.LFB217
 3123 0018 00000000 		.4byte	.LFB218
 3124 001c 20000000 		.4byte	.LFE218-.LFB218
 3125 0020 00000000 		.4byte	.LFB219
 3126 0024 26000000 		.4byte	.LFE219-.LFB219
 3127 0028 00000000 		.4byte	.LFB220
ARM GAS  /tmp/ccznN900.s 			page 86


 3128 002c 1E000000 		.4byte	.LFE220-.LFB220
 3129 0030 00000000 		.4byte	0
 3130 0034 00000000 		.4byte	0
 3131              		.section	.debug_ranges,"",%progbits
 3132              	.Ldebug_ranges0:
 3133 0000 00000000 		.4byte	.LFB217
 3134 0004 66000000 		.4byte	.LFE217
 3135 0008 00000000 		.4byte	.LFB218
 3136 000c 20000000 		.4byte	.LFE218
 3137 0010 00000000 		.4byte	.LFB219
 3138 0014 26000000 		.4byte	.LFE219
 3139 0018 00000000 		.4byte	.LFB220
 3140 001c 1E000000 		.4byte	.LFE220
 3141 0020 00000000 		.4byte	0
 3142 0024 00000000 		.4byte	0
 3143              		.section	.debug_line,"",%progbits
 3144              	.Ldebug_line0:
 3145 0000 58040000 		.section	.debug_str,"MS",%progbits,1
 3145      0200E003 
 3145      00000201 
 3145      FB0E0D00 
 3145      01010101 
 3146              	.LASF48:
 3147 0000 72656164 		.ascii	"ready_list_t\000"
 3147      795F6C69 
 3147      73745F74 
 3147      00
 3148              	.LASF73:
 3149 000d 44494552 		.ascii	"DIER\000"
 3149      00
 3150              	.LASF2:
 3151 0012 73697A65 		.ascii	"size_t\000"
 3151      5F7400
 3152              	.LASF44:
 3153 0019 6E657874 		.ascii	"next\000"
 3153      00
 3154              	.LASF54:
 3155 001e 64656C74 		.ascii	"delta\000"
 3155      6100
 3156              	.LASF84:
 3157 0024 7264796D 		.ascii	"rdymsg\000"
 3157      736700
 3158              	.LASF125:
 3159 002b 74657374 		.ascii	"test_sequence_010\000"
 3159      5F736571 
 3159      75656E63 
 3159      655F3031 
 3159      3000
 3160              	.LASF126:
 3161 003d 74657374 		.ascii	"test_sequence_011\000"
 3161      5F736571 
 3161      75656E63 
 3161      655F3031 
 3161      3100
 3162              	.LASF127:
 3163 004f 74657374 		.ascii	"test_sequence_012\000"
 3163      5F736571 
ARM GAS  /tmp/ccznN900.s 			page 87


 3163      75656E63 
 3163      655F3031 
 3163      3200
 3164              	.LASF128:
 3165 0061 74657374 		.ascii	"test_sequence_013\000"
 3165      5F736571 
 3165      75656E63 
 3165      655F3031 
 3165      3300
 3166              	.LASF47:
 3167 0073 70726576 		.ascii	"prev\000"
 3167      00
 3168              	.LASF71:
 3169 0078 706F7274 		.ascii	"port_intctx\000"
 3169      5F696E74 
 3169      63747800 
 3170              	.LASF59:
 3171 0084 73797374 		.ascii	"system_debug_t\000"
 3171      656D5F64 
 3171      65627567 
 3171      5F7400
 3172              	.LASF102:
 3173 0093 706F7274 		.ascii	"port_lock\000"
 3173      5F6C6F63 
 3173      6B00
 3174              	.LASF110:
 3175 009d 5F5F6675 		.ascii	"__func__.5200\000"
 3175      6E635F5F 
 3175      2E353230 
 3175      3000
 3176              	.LASF14:
 3177 00ab 6C6F6E67 		.ascii	"long long unsigned int\000"
 3177      206C6F6E 
 3177      6720756E 
 3177      7369676E 
 3177      65642069 
 3178              	.LASF85:
 3179 00c2 65786974 		.ascii	"exitcode\000"
 3179      636F6465 
 3179      00
 3180              	.LASF66:
 3181 00cb 6D61696E 		.ascii	"mainthread\000"
 3181      74687265 
 3181      616400
 3182              	.LASF88:
 3183 00d6 73656E74 		.ascii	"sentmsg\000"
 3183      6D736700 
 3184              	.LASF56:
 3185 00de 76697274 		.ascii	"virtual_timers_list_t\000"
 3185      75616C5F 
 3185      74696D65 
 3185      72735F6C 
 3185      6973745F 
 3186              	.LASF115:
 3187 00f4 49544D5F 		.ascii	"ITM_RxBuffer\000"
 3187      52784275 
 3187      66666572 
ARM GAS  /tmp/ccznN900.s 			page 88


 3187      00
 3188              	.LASF77:
 3189 0101 42445452 		.ascii	"BDTR\000"
 3189      00
 3190              	.LASF46:
 3191 0106 63685F74 		.ascii	"ch_threads_queue\000"
 3191      68726561 
 3191      64735F71 
 3191      75657565 
 3191      00
 3192              	.LASF74:
 3193 0117 43434D52 		.ascii	"CCMR1\000"
 3193      3100
 3194              	.LASF75:
 3195 011d 43434D52 		.ascii	"CCMR2\000"
 3195      3200
 3196              	.LASF79:
 3197 0123 43434D52 		.ascii	"CCMR3\000"
 3197      3300
 3198              	.LASF1:
 3199 0129 7369676E 		.ascii	"signed char\000"
 3199      65642063 
 3199      68617200 
 3200              	.LASF133:
 3201 0135 74657374 		.ascii	"test_println\000"
 3201      5F707269 
 3201      6E746C6E 
 3201      00
 3202              	.LASF65:
 3203 0142 76746C69 		.ascii	"vtlist\000"
 3203      737400
 3204              	.LASF103:
 3205 0149 706F7274 		.ascii	"port_unlock\000"
 3205      5F756E6C 
 3205      6F636B00 
 3206              	.LASF35:
 3207 0155 6D736771 		.ascii	"msgqueue\000"
 3207      75657565 
 3207      00
 3208              	.LASF31:
 3209 015e 73746174 		.ascii	"state\000"
 3209      6500
 3210              	.LASF9:
 3211 0164 6C6F6E67 		.ascii	"long int\000"
 3211      20696E74 
 3211      00
 3212              	.LASF17:
 3213 016d 74737461 		.ascii	"tstate_t\000"
 3213      74655F74 
 3213      00
 3214              	.LASF55:
 3215 0176 66756E63 		.ascii	"func\000"
 3215      00
 3216              	.LASF76:
 3217 017b 43434552 		.ascii	"CCER\000"
 3217      00
 3218              	.LASF12:
ARM GAS  /tmp/ccznN900.s 			page 89


 3219 0180 6C6F6E67 		.ascii	"long long int\000"
 3219      206C6F6E 
 3219      6720696E 
 3219      7400
 3220              	.LASF6:
 3221 018e 75696E74 		.ascii	"uint16_t\000"
 3221      31365F74 
 3221      00
 3222              	.LASF134:
 3223 0197 63685468 		.ascii	"chThdTerminate\000"
 3223      64546572 
 3223      6D696E61 
 3223      746500
 3224              	.LASF68:
 3225 01a6 72656761 		.ascii	"regarm_t\000"
 3225      726D5F74 
 3225      00
 3226              	.LASF34:
 3227 01af 77616974 		.ascii	"waiting\000"
 3227      696E6700 
 3228              	.LASF96:
 3229 01b7 6D757465 		.ascii	"mutex_t\000"
 3229      785F7400 
 3230              	.LASF138:
 3231 01bf 76616C75 		.ascii	"value\000"
 3231      6500
 3232              	.LASF22:
 3233 01c5 636E745F 		.ascii	"cnt_t\000"
 3233      7400
 3234              	.LASF107:
 3235 01cb 63685654 		.ascii	"chVTGetSystemTimeX\000"
 3235      47657453 
 3235      79737465 
 3235      6D54696D 
 3235      655800
 3236              	.LASF0:
 3237 01de 756E7369 		.ascii	"unsigned int\000"
 3237      676E6564 
 3237      20696E74 
 3237      00
 3238              	.LASF89:
 3239 01eb 77747365 		.ascii	"wtsemp\000"
 3239      6D7000
 3240              	.LASF87:
 3241 01f2 77747472 		.ascii	"wttrp\000"
 3241      7000
 3242              	.LASF99:
 3243 01f8 74656172 		.ascii	"teardown\000"
 3243      646F776E 
 3243      00
 3244              	.LASF29:
 3245 0201 6E616D65 		.ascii	"name\000"
 3245      00
 3246              	.LASF25:
 3247 0206 71756575 		.ascii	"queue\000"
 3247      6500
 3248              	.LASF39:
ARM GAS  /tmp/ccznN900.s 			page 90


 3249 020c 6D706F6F 		.ascii	"mpool\000"
 3249      6C00
 3250              	.LASF72:
 3251 0212 534D4352 		.ascii	"SMCR\000"
 3251      00
 3252              	.LASF42:
 3253 0217 63685F74 		.ascii	"ch_thread\000"
 3253      68726561 
 3253      6400
 3254              	.LASF20:
 3255 0221 6D73675F 		.ascii	"msg_t\000"
 3255      7400
 3256              	.LASF36:
 3257 0227 6570656E 		.ascii	"epending\000"
 3257      64696E67 
 3257      00
 3258              	.LASF62:
 3259 0230 63685F73 		.ascii	"ch_system_t\000"
 3259      79737465 
 3259      6D5F7400 
 3260              	.LASF81:
 3261 023c 73746D33 		.ascii	"stm32_tim_t\000"
 3261      325F7469 
 3261      6D5F7400 
 3262              	.LASF111:
 3263 0248 73797374 		.ascii	"systime\000"
 3263      696D6500 
 3264              	.LASF49:
 3265 0250 63685F72 		.ascii	"ch_ready_list\000"
 3265      65616479 
 3265      5F6C6973 
 3265      7400
 3266              	.LASF21:
 3267 025e 6576656E 		.ascii	"eventmask_t\000"
 3267      746D6173 
 3267      6B5F7400 
 3268              	.LASF69:
 3269 026a 73746B61 		.ascii	"stkalign_t\000"
 3269      6C69676E 
 3269      5F7400
 3270              	.LASF101:
 3271 0275 74657374 		.ascii	"testcase_t\000"
 3271      63617365 
 3271      5F7400
 3272              	.LASF132:
 3273 0280 74657374 		.ascii	"test_print\000"
 3273      5F707269 
 3273      6E7400
 3274              	.LASF38:
 3275 028b 7265616C 		.ascii	"realprio\000"
 3275      7072696F 
 3275      00
 3276              	.LASF67:
 3277 0294 73697A65 		.ascii	"sizetype\000"
 3277      74797065 
 3277      00
 3278              	.LASF40:
ARM GAS  /tmp/ccznN900.s 			page 91


 3279 029d 74687265 		.ascii	"thread_reference_t\000"
 3279      61645F72 
 3279      65666572 
 3279      656E6365 
 3279      5F7400
 3280              	.LASF57:
 3281 02b0 63685F76 		.ascii	"ch_virtual_timers_list\000"
 3281      69727475 
 3281      616C5F74 
 3281      696D6572 
 3281      735F6C69 
 3282              	.LASF130:
 3283 02c7 74657374 		.ascii	"test_buffer\000"
 3283      5F627566 
 3283      66657200 
 3284              	.LASF13:
 3285 02d3 75696E74 		.ascii	"uint64_t\000"
 3285      36345F74 
 3285      00
 3286              	.LASF114:
 3287 02dc 74657374 		.ascii	"test_wait_threads\000"
 3287      5F776169 
 3287      745F7468 
 3287      72656164 
 3287      7300
 3288              	.LASF70:
 3289 02ee 706F7274 		.ascii	"port_context\000"
 3289      5F636F6E 
 3289      74657874 
 3289      00
 3290              	.LASF83:
 3291 02fb 746D5F63 		.ascii	"tm_calibration_t\000"
 3291      616C6962 
 3291      72617469 
 3291      6F6E5F74 
 3291      00
 3292              	.LASF98:
 3293 030c 73657475 		.ascii	"setup\000"
 3293      7000
 3294              	.LASF139:
 3295 0312 63685654 		.ascii	"chVTGetSystemTime\000"
 3295      47657453 
 3295      79737465 
 3295      6D54696D 
 3295      6500
 3296              	.LASF26:
 3297 0324 7072696F 		.ascii	"prio\000"
 3297      00
 3298              	.LASF50:
 3299 0329 63757272 		.ascii	"current\000"
 3299      656E7400 
 3300              	.LASF137:
 3301 0331 2F686F6D 		.ascii	"/home/alex/Embebidos Proyecto/ChibiOS_17.6.1/demos/"
 3301      652F616C 
 3301      65782F45 
 3301      6D626562 
 3301      69646F73 
ARM GAS  /tmp/ccznN900.s 			page 92


 3302 0364 53544D33 		.ascii	"STM32/RT-STM32F100-DISCOVERY\000"
 3302      322F5254 
 3302      2D53544D 
 3302      33324631 
 3302      30302D44 
 3303              	.LASF18:
 3304 0381 74726566 		.ascii	"trefs_t\000"
 3304      735F7400 
 3305              	.LASF113:
 3306 0389 74657374 		.ascii	"test_terminate_threads\000"
 3306      5F746572 
 3306      6D696E61 
 3306      74655F74 
 3306      68726561 
 3307              	.LASF33:
 3308 03a0 72656673 		.ascii	"refs\000"
 3308      00
 3309              	.LASF52:
 3310 03a5 76697274 		.ascii	"virtual_timer_t\000"
 3310      75616C5F 
 3310      74696D65 
 3310      725F7400 
 3311              	.LASF19:
 3312 03b5 74707269 		.ascii	"tprio_t\000"
 3312      6F5F7400 
 3313              	.LASF60:
 3314 03bd 63685F73 		.ascii	"ch_system_debug\000"
 3314      79737465 
 3314      6D5F6465 
 3314      62756700 
 3315              	.LASF97:
 3316 03cd 5F426F6F 		.ascii	"_Bool\000"
 3316      6C00
 3317              	.LASF8:
 3318 03d3 696E7433 		.ascii	"int32_t\000"
 3318      325F7400 
 3319              	.LASF4:
 3320 03db 756E7369 		.ascii	"unsigned char\000"
 3320      676E6564 
 3320      20636861 
 3320      7200
 3321              	.LASF100:
 3322 03e9 65786563 		.ascii	"execute\000"
 3322      75746500 
 3323              	.LASF5:
 3324 03f1 73686F72 		.ascii	"short int\000"
 3324      7420696E 
 3324      7400
 3325              	.LASF58:
 3326 03fb 6C617374 		.ascii	"lasttime\000"
 3326      74696D65 
 3326      00
 3327              	.LASF131:
 3328 0404 74687265 		.ascii	"threads\000"
 3328      61647300 
 3329              	.LASF91:
 3330 040c 65776D61 		.ascii	"ewmask\000"
ARM GAS  /tmp/ccznN900.s 			page 93


 3330      736B00
 3331              	.LASF63:
 3332 0413 63685F73 		.ascii	"ch_system\000"
 3332      79737465 
 3332      6D00
 3333              	.LASF106:
 3334 041d 63685379 		.ascii	"chSysLock\000"
 3334      734C6F63 
 3334      6B00
 3335              	.LASF53:
 3336 0427 63685F76 		.ascii	"ch_virtual_timer\000"
 3336      69727475 
 3336      616C5F74 
 3336      696D6572 
 3336      00
 3337              	.LASF92:
 3338 0438 63685F73 		.ascii	"ch_semaphore\000"
 3338      656D6170 
 3338      686F7265 
 3338      00
 3339              	.LASF80:
 3340 0445 43435852 		.ascii	"CCXR\000"
 3340      00
 3341              	.LASF142:
 3342 044a 63685468 		.ascii	"chThdSleep\000"
 3342      64536C65 
 3342      657000
 3343              	.LASF104:
 3344 0455 73745F6C 		.ascii	"st_lld_get_counter\000"
 3344      6C645F67 
 3344      65745F63 
 3344      6F756E74 
 3344      657200
 3345              	.LASF10:
 3346 0468 75696E74 		.ascii	"uint32_t\000"
 3346      33325F74 
 3346      00
 3347              	.LASF90:
 3348 0471 77746D74 		.ascii	"wtmtxp\000"
 3348      787000
 3349              	.LASF43:
 3350 0478 63685F74 		.ascii	"ch_threads_list\000"
 3350      68726561 
 3350      64735F6C 
 3350      69737400 
 3351              	.LASF94:
 3352 0488 6F776E65 		.ascii	"owner\000"
 3352      7200
 3353              	.LASF11:
 3354 048e 6C6F6E67 		.ascii	"long unsigned int\000"
 3354      20756E73 
 3354      69676E65 
 3354      6420696E 
 3354      7400
 3355              	.LASF30:
 3356 04a0 77616261 		.ascii	"wabase\000"
 3356      736500
ARM GAS  /tmp/ccznN900.s 			page 94


 3357              	.LASF95:
 3358 04a7 63686172 		.ascii	"char\000"
 3358      00
 3359              	.LASF28:
 3360 04ac 6F6C6465 		.ascii	"older\000"
 3360      7200
 3361              	.LASF78:
 3362 04b2 444D4152 		.ascii	"DMAR\000"
 3362      00
 3363              	.LASF24:
 3364 04b7 74687265 		.ascii	"thread_t\000"
 3364      61645F74 
 3364      00
 3365              	.LASF129:
 3366 04c0 74657374 		.ascii	"test_suite\000"
 3366      5F737569 
 3366      746500
 3367              	.LASF23:
 3368 04cb 73797374 		.ascii	"systime_t\000"
 3368      696D655F 
 3368      7400
 3369              	.LASF51:
 3370 04d5 76746675 		.ascii	"vtfunc_t\000"
 3370      6E635F74 
 3370      00
 3371              	.LASF108:
 3372 04de 5F5F7365 		.ascii	"__set_BASEPRI\000"
 3372      745F4241 
 3372      53455052 
 3372      4900
 3373              	.LASF61:
 3374 04ec 70616E69 		.ascii	"panic_msg\000"
 3374      635F6D73 
 3374      6700
 3375              	.LASF82:
 3376 04f6 6F666673 		.ascii	"offset\000"
 3376      657400
 3377              	.LASF7:
 3378 04fd 73686F72 		.ascii	"short unsigned int\000"
 3378      7420756E 
 3378      7369676E 
 3378      65642069 
 3378      6E7400
 3379              	.LASF105:
 3380 0510 706F7274 		.ascii	"port_timer_get_time\000"
 3380      5F74696D 
 3380      65725F67 
 3380      65745F74 
 3380      696D6500 
 3381              	.LASF15:
 3382 0524 7274636E 		.ascii	"rtcnt_t\000"
 3382      745F7400 
 3383              	.LASF27:
 3384 052c 6E657765 		.ascii	"newer\000"
 3384      7200
 3385              	.LASF112:
 3386 0532 74657374 		.ascii	"test_print_port_info\000"
ARM GAS  /tmp/ccznN900.s 			page 95


 3386      5F707269 
 3386      6E745F70 
 3386      6F72745F 
 3386      696E666F 
 3387              	.LASF141:
 3388 0547 63685468 		.ascii	"chThdWait\000"
 3388      64576169 
 3388      7400
 3389              	.LASF135:
 3390 0551 474E5520 		.ascii	"GNU C 4.8.1 -mcpu=cortex-m3 -mno-thumb-interwork -m"
 3390      4320342E 
 3390      382E3120 
 3390      2D6D6370 
 3390      753D636F 
 3391 0584 7468756D 		.ascii	"thumb -ggdb -O2 -fomit-frame-pointer -falign-functi"
 3391      62202D67 
 3391      67646220 
 3391      2D4F3220 
 3391      2D666F6D 
 3392 05b7 6F6E733D 		.ascii	"ons=16 -ffunction-sections -fdata-sections -fno-com"
 3392      3136202D 
 3392      6666756E 
 3392      6374696F 
 3392      6E2D7365 
 3393 05ea 6D6F6E20 		.ascii	"mon -flto\000"
 3393      2D666C74 
 3393      6F00
 3394              	.LASF45:
 3395 05f4 74687265 		.ascii	"threads_queue_t\000"
 3395      6164735F 
 3395      71756575 
 3395      655F7400 
 3396              	.LASF93:
 3397 0604 63685F6D 		.ascii	"ch_mutex\000"
 3397      75746578 
 3397      00
 3398              	.LASF116:
 3399 060d 74657374 		.ascii	"test_sequence_001\000"
 3399      5F736571 
 3399      75656E63 
 3399      655F3030 
 3399      3100
 3400              	.LASF64:
 3401 061f 726C6973 		.ascii	"rlist\000"
 3401      7400
 3402              	.LASF3:
 3403 0625 75696E74 		.ascii	"uint8_t\000"
 3403      385F7400 
 3404              	.LASF32:
 3405 062d 666C6167 		.ascii	"flags\000"
 3405      7300
 3406              	.LASF136:
 3407 0633 2E2E2F2E 		.ascii	"../../../test/rt/source/test/test_root.c\000"
 3407      2E2F2E2E 
 3407      2F746573 
 3407      742F7274 
 3407      2F736F75 
ARM GAS  /tmp/ccznN900.s 			page 96


 3408              	.LASF117:
 3409 065c 74657374 		.ascii	"test_sequence_002\000"
 3409      5F736571 
 3409      75656E63 
 3409      655F3030 
 3409      3200
 3410              	.LASF118:
 3411 066e 74657374 		.ascii	"test_sequence_003\000"
 3411      5F736571 
 3411      75656E63 
 3411      655F3030 
 3411      3300
 3412              	.LASF119:
 3413 0680 74657374 		.ascii	"test_sequence_004\000"
 3413      5F736571 
 3413      75656E63 
 3413      655F3030 
 3413      3400
 3414              	.LASF120:
 3415 0692 74657374 		.ascii	"test_sequence_005\000"
 3415      5F736571 
 3415      75656E63 
 3415      655F3030 
 3415      3500
 3416              	.LASF121:
 3417 06a4 74657374 		.ascii	"test_sequence_006\000"
 3417      5F736571 
 3417      75656E63 
 3417      655F3030 
 3417      3600
 3418              	.LASF122:
 3419 06b6 74657374 		.ascii	"test_sequence_007\000"
 3419      5F736571 
 3419      75656E63 
 3419      655F3030 
 3419      3700
 3420              	.LASF123:
 3421 06c8 74657374 		.ascii	"test_sequence_008\000"
 3421      5F736571 
 3421      75656E63 
 3421      655F3030 
 3421      3800
 3422              	.LASF124:
 3423 06da 74657374 		.ascii	"test_sequence_009\000"
 3423      5F736571 
 3423      75656E63 
 3423      655F3030 
 3423      3900
 3424              	.LASF86:
 3425 06ec 77746F62 		.ascii	"wtobjp\000"
 3425      6A7000
 3426              	.LASF41:
 3427 06f3 74687265 		.ascii	"threads_list_t\000"
 3427      6164735F 
 3427      6C697374 
 3427      5F7400
 3428              	.LASF16:
ARM GAS  /tmp/ccznN900.s 			page 97


 3429 0702 746D6F64 		.ascii	"tmode_t\000"
 3429      655F7400 
 3430              	.LASF109:
 3431 070a 63685379 		.ascii	"chSysUnlock\000"
 3431      73556E6C 
 3431      6F636B00 
 3432              	.LASF37:
 3433 0716 6D74786C 		.ascii	"mtxlist\000"
 3433      69737400 
 3434              	.LASF140:
 3435 071e 74657374 		.ascii	"test_wait_tick\000"
 3435      5F776169 
 3435      745F7469 
 3435      636B00
 3436              		.comm	__gnu_lto_v1,1,1
 3437              		.ident	"GCC: (Sourcery CodeBench Lite 2013.11-24) 4.8.1"
ARM GAS  /tmp/ccznN900.s 			page 98


DEFINED SYMBOLS
                            *ABS*:00000000 test_root.c
     /tmp/ccznN900.s:497    .text.test_print_port_info:00000000 $t
     /tmp/ccznN900.s:503    .text.test_print_port_info:00000000 test_print_port_info
     /tmp/ccznN900.s:770    .rodata.str1.4:00000000 .LC0
     /tmp/ccznN900.s:773    .rodata.str1.4:00000014 .LC1
     /tmp/ccznN900.s:776    .rodata.str1.4:00000020 .LC2
     /tmp/ccznN900.s:779    .rodata.str1.4:00000034 .LC3
     /tmp/ccznN900.s:781    .rodata.str1.4:0000003c .LC4
     /tmp/ccznN900.s:784    .rodata.str1.4:00000050 .LC5
     /tmp/ccznN900.s:787    .rodata.str1.4:0000005c .LC6
     /tmp/ccznN900.s:790    .rodata.str1.4:00000070 .LC7
     /tmp/ccznN900.s:562    .text.test_terminate_threads:00000000 $t
     /tmp/ccznN900.s:568    .text.test_terminate_threads:00000000 test_terminate_threads
     /tmp/ccznN900.s:603    .text.test_terminate_threads:0000001c $d
     /tmp/ccznN900.s:608    .text.test_wait_threads:00000000 $t
     /tmp/ccznN900.s:614    .text.test_wait_threads:00000000 test_wait_threads
     /tmp/ccznN900.s:794    .bss.threads:00000000 .LANCHOR0
     /tmp/ccznN900.s:655    .text.test_wait_tick:00000000 $t
     /tmp/ccznN900.s:661    .text.test_wait_tick:00000000 test_wait_tick
     /tmp/ccznN900.s:762    .rodata.wa:00000000 wa
     /tmp/ccznN900.s:797    .bss.threads:00000000 threads
     /tmp/ccznN900.s:737    .bss.test_buffer:00000000 test_buffer
     /tmp/ccznN900.s:743    .data.test_suite:00000000 test_suite
     /tmp/ccznN900.s:734    .bss.test_buffer:00000000 $d
     /tmp/ccznN900.s:740    .data.test_suite:00000000 $d
     /tmp/ccznN900.s:759    .rodata.wa:00000000 $d
     /tmp/ccznN900.s:769    .rodata.str1.4:00000000 $d
     /tmp/ccznN900.s:793    .bss.threads:00000000 $d
                            *COM*:00000001 __gnu_lto_v1
                     .debug_frame:00000010 $d

UNDEFINED SYMBOLS
test_print
test_println
chThdTerminate
chThdWait
chThdSleep
test_sequence_001
test_sequence_002
test_sequence_003
test_sequence_004
test_sequence_005
test_sequence_006
test_sequence_007
test_sequence_008
test_sequence_009
test_sequence_010
test_sequence_011
test_sequence_012
test_sequence_013
