ARM GAS  /tmp/ccQUTNDp.s 			page 1


   1              		.syntax unified
   2              		.cpu cortex-m3
   3              		.fpu softvfp
   4              		.eabi_attribute 20, 1
   5              		.eabi_attribute 21, 1
   6              		.eabi_attribute 23, 3
   7              		.eabi_attribute 24, 1
   8              		.eabi_attribute 25, 1
   9              		.eabi_attribute 26, 1
  10              		.eabi_attribute 30, 2
  11              		.eabi_attribute 34, 1
  12              		.eabi_attribute 18, 4
  13              		.thumb
  14              		.file	"test_sequence_010.c"
  15              		.text
  16              	.Ltext0:
  17              		.section	.gnu.lto_.jmpfuncs.9d0686ebbd798dd2,"",%progbits
  18 0000 789CB591 		.ascii	"x\234\265\2211\016\202@\020E\377,((\032\265\264\220"
  18      310E8240 
  18      1045FF2C 
  18      28281AB5 
  18      B490
  19 0012 7009AD3D 		.ascii	"p\011\255=\206\275n\261\211+dE\023cC\351\021l\274\237"
  19      86BD6EB1 
  19      892B6445 
  19      136343E9 
  19      116CBC9F 
  20 0026 67B01216 		.ascii	"g\260\022\026EC\026\320Di\030\346}f\347\377e`0=S\013"
  20      454316D0 
  20      446918E6 
  20      7D66E7FF 
  20      6560303D 
  21 003c 98A5EF0E 		.ascii	"\230\245\357\016@\231\204\035qK\316\311P\020|\320%9"
  21      4099841D 
  21      714BCEC9 
  21      50107CD0 
  21      2539
  22 004e CF059156 		.ascii	"\317\005\221V2\215N\031b\362\321Z\220 \353\352\000v"
  22      328D4E19 
  22      62F2D15A 
  22      9020EBEA 
  22      0076
  23 0060 25B66DA0 		.ascii	"%\266m\240UK\333\260^\264%\363\343\012\252\213v\332"
  23      554BDBB0 
  23      5EB425F3 
  23      E30AAA8B 
  23      76DA
  24 0072 714D436A 		.ascii	"qMCj\326\312\212w?\216\217Q\356\307\375\356\307r\020"
  24      D6CA8A77 
  24      3F8E8F51 
  24      EEC7FDEE 
  24      C77210
  25 0085 DD06FE97 		.ascii	"\335\006\376\227\215,\003+:\035I\254Pw\323\320\274\367"
  25      8D2C032B 
  25      3A1D49AC 
  25      5077D3D0 
  25      BCF7
ARM GAS  /tmp/ccQUTNDp.s 			page 2


  26 0097 59CF48D3 		.ascii	"Y\317H\323\0336\344\\\267P\223\276\354\274\366\036\013"
  26      1B36E45C 
  26      B75093BE 
  26      ECBCF61E 
  26      0B
  27 00a8 E42DE9A3 		.ascii	"\344-\351\243\351=\037\223|z_\353{\015\247\377\300\235"
  27      E93D1F93 
  27      7C7A5FEB 
  27      7B0DA7FF 
  27      C09D
  28 00ba C94075CA 		.ascii	"\311@u\312\030\254\3056\0166a\034p\031\305\007x\372"
  28      18ACC536 
  28      0E36611C 
  28      7019C507 
  28      78FA
  29 00cc 3BAFC791 		.ascii	";\257\307\221\012\367b\305U\240x\274S\033\276\012$\227"
  29      0AF762C5 
  29      55A078BC 
  29      531BBE0A 
  29      2497
  30 00de A13AE00E 		.ascii	"\241:\340\016K~\256\035"
  30      4B7EAE1D 
  31              		.text
  32              		.section	.gnu.lto_.inline.9d0686ebbd798dd2,"",%progbits
  33 0000 789C7D8F 		.ascii	"x\234}\217;\016\3020\020Dgm\307@p\240EH(\222E\317Mr"
  33      3B0EC230 
  33      1044676D 
  33      C74070A0 
  33      45482892 
  34 0018 2A2A1A22 		.ascii	"**\032\":\032\224:\005\327\240\347\030\234\002\257c"
  34      3A1A943A 
  34      05D7A0E7 
  34      189C02AF 
  34      63
  35 0029 3BB1F8B8 		.ascii	";\261\370\270Yiw\346\315X@\340\333;\3210\027\200\024"
  35      596977E6 
  35      CD5840E0 
  35      DB3BD130 
  35      178014
  36 003c E445BAAB 		.ascii	"\344E\272\253\275\226`vn\243\272:\255\244\001D\333@"
  36      BD966076 
  36      6EA3BA3A 
  36      ADA40144 
  36      DB40
  37 004e 5560A982 		.ascii	"U`\251\202^\345\036/\000\212_\007\215\331:?0J\2729\207"
  37      5EE51E2F 
  37      008A5F07 
  37      8DD93A3F 
  37      304ABA39 
  38 0063 7D903B6D 		.ascii	"}\220;m\357/5q\261\270mT\345M~\214\361\261M\211\375"
  38      EF2F3571 
  38      B1B86D54 
  38      E54D7E8C 
  38      F1B14D89 
  39 0078 8DAD9B63 		.ascii	"\215\255\233c/\307\366e\200O\373&\177\300\015\321K\034"
  39      2FC7F665 
  39      804FFB26 
ARM GAS  /tmp/ccQUTNDp.s 			page 3


  39      7FC00DD1 
  39      4B1C
  40 008a 9EECB797 		.ascii	"\236\354\267\227s\361\021\315\223\222\223#)\303\312"
  40      73F111CD 
  40      93929323 
  40      29C3CA
  41 0099 F0394A75 		.ascii	"\3609Ju\014\354\365\177\235H\211L\012Lf\341\015\371"
  41      0CECF57F 
  41      9D48894C 
  41      0A4C66E1 
  41      0DF9
  42 00ab B71E99   		.ascii	"\267\036\231"
  43              		.text
  44              		.section	.gnu.lto_.pureconst.9d0686ebbd798dd2,"",%progbits
  45 0000 789C6362 		.ascii	"x\234cb`b\020f\200\000N\006\006F\011\026\011V\0116\011"
  45      60621066 
  45      80004E06 
  45      06460916 
  45      09560936 
  46 0015 0E092E09 		.ascii	"\016\011.\011n\011\036\011\000\012\303\001\032"
  46      6E091E09 
  46      000AC301 
  46      1A
  47              		.text
  48              		.section	.gnu.lto_null_provider.9d0686ebbd798dd2,"",%progbits
  49 0000 789C6362 		.ascii	"x\234cb`b@\007\222@\034\005\304\306@\314\310\314\300"
  49      60624007 
  49      92401C05 
  49      C4C640CC 
  49      C8CCC0
  50 0013 C834E11C 		.ascii	"\3104\341\034\003C#\007\023##\210\301\300\310P\317\304"
  50      03432307 
  50      13232388 
  50      C1C0C850 
  50      CFC4
  51 0025 581FC908 		.ascii	"X\037\311\010V\273\236\351\300\203\377\377\327\375z"
  51      56BB9EE9 
  51      C083FFFF 
  51      D7FD7A
  52 0034 FAB89B51 		.ascii	"\372\270\233Q\020d\024+CKC\303\004\005\006\206d\260"
  52      1064142B 
  52      434B43C3 
  52      04050686 
  52      64B0
  53 0046 82102009 		.ascii	"\202\020 \011\322\025\312\310\004\242\231/24>\350JN"
  53      D215CAC8 
  53      04A2992F 
  53      32343EE8 
  53      4A4E
  54 0058 645CC8C8 		.ascii	"d\\\310\310\312\020\301\230\311\010\2674\204\221\021"
  54      CA10C198 
  54      C908B734 
  54      849111
  55 0067 A4006484 		.ascii	"\244\000d\204\241\236\236>\004\225\244\026\227\350\027"
  55      A19E9E3E 
  55      0495A416 
  55      97E817
ARM GAS  /tmp/ccQUTNDp.s 			page 4


  56 0076 95E817E7 		.ascii	"\225\350\027\347\227\026%\247B\270 \"\2768\265\2604"
  56      971625A7 
  56      42B82022 
  56      BE38B5B0 
  56      34
  57 0087 352F3935 		.ascii	"5/95\336\300\320@/\231\001\000[\340*\335"
  57      DEC0D040 
  57      2F990100 
  57      5BE02ADD 
  58              		.text
  59              		.section	.gnu.lto_test_010_003_execute.9d0686ebbd798dd2,"",%progbits
  60 0000 789C5D50 		.ascii	"x\234]P=O\3030\020}\347\304$\300\000#0\240\374\202\244"
  60      3D4FC330 
  60      107DE7C4 
  60      24C00023 
  60      30A0FC82 
  61 0015 91F80148 		.ascii	"\221\370\001H\374\205\"\301T\241\310B\226H\013\215;"
  61      FC8522C1 
  61      54A1C842 
  61      96480B8D 
  61      3B
  62 0026 2086BA7C 		.ascii	" \206\272|H\214\025\023j\305\300\202\204\204`\355\310"
  62      488C1513 
  62      6AC5C082 
  62      848460ED 
  62      C8
  63 0037 CA502276 		.ascii	"\312P\"v\206\216\374\006\226b\347\243\003'\373\356\371"
  63      868EFC06 
  63      9662E7A3 
  63      0327FBEE 
  63      F9
  64 0048 EEBDF3D9 		.ascii	"\356\275\363\331\014\014\377m\323\354\230\200=\023\311"
  64      0C0CFF6D 
  64      D3EC9880 
  64      3D13C9
  65 0057 01B1E127 		.ascii	"\001\261\341'0\360\031\221\005 \364\031\365\017\251"
  65      30F01991 
  65      0520F419 
  65      F50FA9
  66 0066 E0BEB1F7 		.ascii	"\340\276\261\367\331|\376:\272{\371\246\017\346\271"
  66      D97CFE3A 
  66      BA7BF9A6 
  66      0FE6B9
  67 0075 90046E9C 		.ascii	"\220\004n\234\255r\\k=\014\200\244\3406\215\267\015"
  67      AD725C6B 
  67      3D0C80A4 
  67      E0368DB7 
  67      0D
  68 0086 F689D9E8 		.ascii	"\366\211\331\350Lq9\231<m\035\321#q\2141\032h\275.\211"
  68      4C713999 
  68      3C6D1DD1 
  68      23718C31 
  68      1A68BD2E 
  69 009b 5DE057DF 		.ascii	"]\340W\337Z\344\244\205\354\200\014D\215\230\315\345"
  69      5AE4A485 
  69      EC800C44 
  69      8D98CDE5 
ARM GAS  /tmp/ccQUTNDp.s 			page 5


  70 00ab B8998D9F 		.ascii	"\270\231\215\237\251T\036\223\273\220\270\011\225c\331"
  70      A9541E93 
  70      BB90B809 
  70      9563D9
  71 00ba 8C2F89A7 		.ascii	"\214/\211\247T\261\012\361\322\217gF\363\200)\256r\247"
  71      54B10AF1 
  71      D28F6746 
  71      F38029AE 
  71      72A7
  72 00cc 9673D3C1 		.ascii	"\226s\323\301V\013a\016^\011\260\350\352'T~\222\341"
  72      560B610E 
  72      5E09B0E8 
  72      EA27547E 
  72      92E1
  73 00de DAE486A4 		.ascii	"\332\344\206\244\345m\354<\350\373]I+\250\370\222V\201"
  73      E56DEC3C 
  73      E8FB5D49 
  73      2BA8F892 
  73      5681
  74 00f0 2FD4F755 		.ascii	"/\324\367U\3264\003\231\307Z}\034\206Q\271\224\310T"
  74      D6340399 
  74      C75A7D1C 
  74      8651B994 
  74      C854
  75 0102 D45551D6 		.ascii	"\324UQ\326\351u\023Q\036\255ke\342\254'\332\211h5\342"
  75      E9751351 
  75      1EAD6B65 
  75      E2AC27DA 
  75      896835E2 
  76 0116 469860ED 		.ascii	"F\230`\355Df*hwT \322Su\216?\0171[\374"
  76      44662A68 
  76      775420D2 
  76      53758E3F 
  76      0F315BFC 
  77              		.text
  78              		.section	.gnu.lto_test_010_003_setup.9d0686ebbd798dd2,"",%progbits
  79 0000 789C6362 		.ascii	"x\234cb`b@\007\222@<\025\210\215\201\230\221\231\201"
  79      60624007 
  79      92403C15 
  79      888D8198 
  79      919981
  80 0013 9169C239 		.ascii	"\221i\3029\006\206F\016&FF\020\203\201\221\241\236\211"
  80      0686460E 
  80      26464610 
  80      838191A1 
  80      9E89
  81 0025 B13E9211 		.ascii	"\261>\222\021\254v=\323\201\007\377\377\257\2334i\371"
  81      AC763DD3 
  81      8107FFFF 
  81      AF9B3469 
  81      F9
  82 0036 1EC6134C 		.ascii	"\036\306\023L\314@\021V\206\226\206\206\011\012\014"
  82      CC401156 
  82      86968686 
  82      090A0C
  83 0045 0CC96015 		.ascii	"\014\311`\025!@\022\244-\224\221\011D3\237gh}\320u\222"
  83      214012A4 
ARM GAS  /tmp/ccQUTNDp.s 			page 6


  83      2D949109 
  83      44339F67 
  83      687DD075 
  84 005a 2F917121 		.ascii	"/\221q!#+P\272\232\341WCG\203@&#P9\304D\220\010G&#c"
  84      232B50BA 
  84      9AE15743 
  84      47834026 
  84      235039C4 
  85 0075 2E230354 		.ascii	".#\003TQ\004c&#\023\013C&\320-\014\027\031\032\037t"
  85      51046326 
  85      23130B43 
  85      26D02D0C 
  85      17191A1F 
  86 008a 6BC27443 		.ascii	"k\302tC@\010P'\320h\220G\014\365\364\364!\250$\265\270"
  86      40085027 
  86      D0689047 
  86      0CF5F4F4 
  86      21A824B5 
  87 009f 44BFA844 		.ascii	"D\277\250D\2778\277\264(9\025\302\005\021\361\305\251"
  87      BF38BFB4 
  87      283915C2 
  87      0511F1C5 
  87      A9
  88 00b0 85A5A979 		.ascii	"\205\245\251y\311\251\361\006\206\006z\311\014\000\034"
  88      C9A9F106 
  88      86067AC9 
  88      0C001C
  89 00bf D5379F   		.ascii	"\3257\237"
  90              		.text
  91              		.section	.gnu.lto_test_010_002_setup.9d0686ebbd798dd2,"",%progbits
  92 0000 789C6362 		.ascii	"x\234cb`b@\007\222@<\025\210\215\201\230\221\231\201"
  92      60624007 
  92      92403C15 
  92      888D8198 
  92      919981
  93 0013 9169C239 		.ascii	"\221i\3029\006\206F\016&FF\020\203\201\221\241\236\211"
  93      0686460E 
  93      26464610 
  93      838191A1 
  93      9E89
  94 0025 B13E9211 		.ascii	"\261>\222\021\254v=\323\201\007\377\377\257\273\321"
  94      AC763DD3 
  94      8107FFFF 
  94      AFBBD1
  95 0034 BDFC0DE3 		.ascii	"\275\374\015\343:&f\240\010+CKC\303\004\005\006\206"
  95      3A2666A0 
  95      082B434B 
  95      43C30405 
  95      0686
  96 0046 64B08A10 		.ascii	"d\260\212\020 \011\322\026\312\310\004\242\231\3173"
  96      2009D216 
  96      CAC804A2 
  96      99CF33
  97 0055 B43E787B 		.ascii	"\264>x{\224/\221q!#+P\272\232\341WCG\203@&#P9\304D\220"
  97      942F9171 
  97      21232B50 
  97      BA9AE157 
ARM GAS  /tmp/ccQUTNDp.s 			page 7


  97      43478340 
  98 0070 08472623 		.ascii	"\010G&#c.#\003TQ\004c&#\023\013C&\320-\014\027\031\032"
  98      632E2303 
  98      54510463 
  98      2623130B 
  98      4326D02D 
  99 0088 1FBC5385 		.ascii	"\037\274S\205\351\206\200\020\240N\240\321 \217\030"
  99      E9868010 
  99      A04EA0D1 
  99      208F18
 100 0097 EAE9E943 		.ascii	"\352\351\351CPIjq\211~Q\211~q~iQr*\204\013\"\342\213"
 100      50496A71 
 100      897E5189 
 100      7E717E69 
 100      51722A84 
 101 00af 530B4B53 		.ascii	"S\013KS\363\222S\343\015\014\015\364\222\031\000\253"
 101      F39253E3 
 101      0D0C0DF4 
 101      921900AB 
 102 00bf 1F38B2   		.ascii	"\0378\262"
 103              		.text
 104              		.section	.gnu.lto_test_010_001_setup.9d0686ebbd798dd2,"",%progbits
 105 0000 789C6362 		.ascii	"x\234cb`b@\007\222@<\007\210\215\201\230\221\231\201"
 105      60624007 
 105      92403C07 
 105      888D8198 
 105      919981
 106 0013 9169C239 		.ascii	"\221i\3029\006\206F\016&FF\020\203\201\221\241\236\211"
 106      0686460E 
 106      26464610 
 106      838191A1 
 106      9E89
 107 0025 B13E9211 		.ascii	"\261>\222\021\254v=\323\201\007\377\377\257\373\321"
 107      AC763DD3 
 107      8107FFFF 
 107      AFFBD1
 108 0034 B6FC0DE3 		.ascii	"\266\374\015\343l&f\240\010+CKC\303\004\005\006\206"
 108      6C2666A0 
 108      082B434B 
 108      43C30405 
 108      0686
 109 0046 64B08A10 		.ascii	"d\260\212\020 \011\322\026\312\310\004\242\231\3173"
 109      2009D216 
 109      CAC804A2 
 109      99CF33
 110 0055 B43DD8FB 		.ascii	"\264=\330\373\230+\221q!#+P\272\232\341WCG\203@&#P9"
 110      982B9171 
 110      21232B50 
 110      BA9AE157 
 110      43478340 
 111 006d C4449008 		.ascii	"\304D\220\010G&#c.#\003TQ\004c&#\023\013\230\002Z\220"
 111      47262363 
 111      2E230354 
 111      51046326 
 111      23130B98 
 112 0084 C9C8C2C0 		.ascii	"\311\310\302\300p\221\241\361\301>e\230!\020\020\002"
 112      7091A1F1 
ARM GAS  /tmp/ccQUTNDp.s 			page 8


 112      C13E6598 
 112      21101002 
 113 0094 34006803 		.ascii	"4\000h\003\310?\206zz\372\020T\222Z\\\242_T\242_\234"
 113      C83F867A 
 113      7AFA1054 
 113      925A5CA2 
 113      5F54A25F 
 114 00a9 5F5A949C 		.ascii	"_Z\224\234\012\341\202\210\370\342\324\302\322\324\274"
 114      0AE18288 
 114      F8E2D4C2 
 114      D2D4BC
 115 00b8 E4D47803 		.ascii	"\344\324x\003C\003\275d\006\000\320\2649A"
 115      4303BD64 
 115      0600D0B4 
 115      3941
 116              		.text
 117              		.section	.gnu.lto_test_010_002_execute.part.0.9d0686ebbd798dd2,"",%progbits
 118 0000 789C9D54 		.ascii	"x\234\235TOHTA\030\377\276\231\367g\336{\332Z\035\252"
 118      4F485441 
 118      18FFBE99 
 118      F767DE7B 
 118      DA5A1DAA 
 119 0014 8B48F756 		.ascii	"\213H\367V\015\211N\022\235\272\006\012v\022y,\362\240"
 119      0D894E12 
 119      9DBA060A 
 119      7612792C 
 119      F2A0
 120 0026 D572D743 		.ascii	"\325r\327Cyp\326\335\310\243t\322DJ\":THt\021\212X="
 120      7970D6DD 
 120      C8A374D2 
 120      444A223A 
 120      54487411 
 121 003d 99E19F6E 		.ascii	"\231\341\237nu\333.\005\021\005u\023a\373f\346\275\267"
 121      75DB2E05 
 121      11057513 
 121      61FB66E6 
 121      BDB7
 122 004f EB8A810D 		.ascii	"\353\212\201\015\273\363\315|\377\3467\277\337\360\030"
 122      BBF3CD7C 
 122      FFE637BF 
 122      DFF018
 123 005e 30681D25 		.ascii	"0h\035%\372\277\264\000\256\223\3056\300`n\233\026\001"
 123      FABFB400 
 123      AE93C536 
 123      C0606E9B 
 123      1601
 124 0070 326D195A 		.ascii	"2m\031Z\312\226\0047\2135a1^\355\007\351\333\273\031"
 124      CA960437 
 124      8B356131 
 124      5EED07E9 
 124      DBBB19
 125 0083 906D360A 		.ascii	"\220m6\012\023w\230\277\316\311\355no\002\371]\343_"
 125      137798BF 
 125      CEC9ED6E 
 125      6F02F95D 
 125      E35F
 126 0095 1382393A 		.ascii	"\023\2029:\335\323\351\036\372&\335GT\013@\230\016\030"
ARM GAS  /tmp/ccQUTNDp.s 			page 9


 126      DDD3E91E 
 126      FA26DD47 
 126      540B4098 
 126      0E18
 127 00a7 B76CC715 		.ascii	"\267l\307\025\236\217\3237PA\302\363\260,\345\203\332"
 127      9E8FD337 
 127      5041C2F3 
 127      B02CE583 
 127      DA
 128 00b8 D3775F70 		.ascii	"\323w_pAV+\217\345~\275\216\030!\301\357C\010\021\206"
 128      41562B8F 
 128      E57EBD8E 
 128      1821C1EF 
 128      43081186 
 129 00cc 68835DDA 		.ascii	"h\203]\3320\353\340}V\230\254\325\353\013\177\2743\010"
 129      30EBE07D 
 129      5698ACD5 
 129      EB0B7FBC 
 129      3308
 130 00de 23B84CBD 		.ascii	"#\270L\275\030D\310y\274\261hc\3314\331\216\232\334"
 130      1844C879 
 130      BCB16863 
 130      D934D98E 
 130      9ADC
 131 00f0 D82D62EB 		.ascii	"\330-b\353\251\260\257\"\324\312\206\212\224s]&\002"
 131      A9B0AF22 
 131      D4CA868A 
 131      94735D26 
 131      02
 132 0101 EA5C1A03 		.ascii	"\352\\\032\0034\323]\0060 \303\007\221)\263\0053\253"
 132      34D35D06 
 132      3020C307 
 132      9129B305 
 132      33AB
 133 0113 ABDFCF8D 		.ascii	"\253\337\317\215\340\023*\\\204\207%);\010\356\024\354"
 133      E0132A5C 
 133      84872529 
 133      3B08EE14 
 133      EC
 134 0124 C959B572 		.ascii	"\311Y\265r\362\272V\341u Y\201B\376\036fj\317\357\273"
 134      F2BA56E1 
 134      75205981 
 134      42FE1E66 
 134      6ACFEFBB 
 135 0138 A6D29CA4 		.ascii	"\246\322\234\244c\311\030D\016\325~u\300^\371\365\322"
 135      63C91844 
 135      0ED57E75 
 135      C05EF9F5 
 135      D2
 136 0149 3593378A 		.ascii	"5\2237\212l\012\356\322\255.\300\013I\343\025U\270y"
 136      6C0AEED2 
 136      AD2EC00B 
 136      49E31555 
 136      B879
 137 015b C451C466 		.ascii	"\304Q\304f*v\340^\365\262\251\200\006\026\021\306Y\312"
 137      2A76E05E 
 137      F5B2A980 
ARM GAS  /tmp/ccQUTNDp.s 			page 10


 137      061611C6 
 137      59CA
 138 016d 2322F4F2 		.ascii	"#\"\364\362\310\342$\352\033\241\017\260\005\345\331"
 138      C8E224EA 
 138      1BA10FB0 
 138      05E5D9
 139 017c F2CAD250 		.ascii	"\362\312\322Pr\032\247\306\032\025j\304\254\031-E\023"
 139      721AA7C6 
 139      1A156AC4 
 139      AC192D45 
 139      13
 140 018d A41690A6 		.ascii	"\244\026\220\246\234n$ \015R\305\006T\276\226\202\244"
 140      9C6E2420 
 140      0D52C506 
 140      54BE9682 
 140      A4
 141 019e 9769C453 		.ascii	"\227i\304S\220\237\001\343\013\263\015:\207\363\331"
 141      909F01E3 
 141      0BB30D3A 
 141      87F3D9
 142 01ad 40F5B253 		.ascii	"@\365\262SZ\177\036\227V;\246\365\315?iu`\277\217\023"
 142      5A7F1E97 
 142      563BA6F5 
 142      CD3F6975 
 142      60BF8F13 
 143 01c1 43B5B7DF 		.ascii	"C\265\267\3370\301f\245\235\203\020\331\021$\251>m@"
 143      30C166A5 
 143      9D8310D9 
 143      1124A93E 
 143      6D40
 144 01d3 4FA45D13 		.ascii	"O\244]\023\365\211'\32565PA\313po'~'\355z\"\214\311"
 144      F58927D5 
 144      36355041 
 144      CB706F27 
 144      7E27ED7A 
 145 01ea A264E53C 		.ascii	"\242d\345<\033a\246\023.-\311\371+\021v@|@\204'5i?R"
 145      1B61A613 
 145      2E2DC9F9 
 145      2B117640 
 145      7C408427 
 146 0202 5C8E6A6B 		.ascii	"\\\216jk7K;\210.|\270\310\265P\277\032B\211Qt\217\026"
 146      374B3B88 
 146      2E7CB8C8 
 146      B550BF1A 
 146      42895174 
 147 0218 4A24B502 		.ascii	"J$\265\002\026\327[\205r[\205r\017\011\345\306\024\332"
 147      16D75B85 
 147      725B8572 
 147      0F09E5C6 
 147      14DA
 148 022a 4A28E11A 		.ascii	"J(\341\032\241<x\324\256\205\232\377}\\\241\034\363"
 148      A13C78D4 
 148      AE859AFF 
 148      7D5CA11C 
 148      F3
 149 023b 466B9BCF 		.ascii	"Fk\233\317\322\233z\377\241\300N\252\200O\015\016+\320"
 149      D29B7AFF 
ARM GAS  /tmp/ccQUTNDp.s 			page 11


 149      A1C04EAA 
 149      804F0D0E 
 149      2BD0
 150 024d F4F69B04 		.ascii	"\364\366\233\004\360c\001Nu\302U#\300\351\003\002\030"
 150      F063014E 
 150      75C25523 
 150      C0E90302 
 150      18
 151 025e A67CF50C 		.ascii	"\246|\365\014?\322\007\253A\375\000\275\351\335\214"
 151      3FD207AB 
 151      41FD00BD 
 151      E9DD8C
 152 026d C2D69BCD 		.ascii	"\302\326\233\315v\233_1W(vO\024\273\013\343\223\023"
 152      769B5F31 
 152      5728764F 
 152      14BB0BE3 
 152      9313
 153 027f 61CE6CD5 		.ascii	"a\316l\3254\\\310\335\236\314\215\205\271\341\236\336"
 153      345CC8DD 
 153      9ECC8D85 
 153      B9E19EDE 
 154 028f 9E6C0818 		.ascii	"\236l\010\030\0057\243B\261+\227\277U\274\003\031\275"
 154      0537A342 
 154      B12B97BF 
 154      55BC0319 
 154      BD
 155 02a0 1E1B4FF6 		.ascii	"\036\033O\366\177\001c?$\216"
 155      7F01633F 
 155      248E
 156              		.text
 157              		.section	.gnu.lto_test_010_002_execute.9d0686ebbd798dd2,"",%progbits
 158 0000 789C9D54 		.ascii	"x\234\235T\317k\023A\024~of7\231tc\023S\013\012R\212"
 158      CF6B1341 
 158      147E6F66 
 158      37997463 
 158      13530B0A 
 159 0016 7F40D282 		.ascii	"\177@\322\202x\021\212\370\037\010\015\324S)k\010\013"
 159      78118AF8 
 159      1F080DD4 
 159      53296B08 
 159      0B
 160 0027 A6D5263D 		.ascii	"\246\325&=\210\207N\232T{P)^\374U\301\"\342\321\243"
 160      88874E9A 
 160      547B5029 
 160      5EFC55C1 
 160      22E2D1A3 
 161 003b 398846F1 		.ascii	"9\210F\361\320\212\266\025<\324\223k\301z\361\017\020"
 161      D08AB615 
 161      3CD4936B 
 161      C17AF10F 
 161      10
 162 004c 11E27B3B 		.ascii	"\021\342{;\273\333V\323C\035\222\231y\337\274\367\315"
 162      BBDB56D3 
 162      431D9299 
 162      79DFBCF7 
 162      CD
 163 005d 37F34D22 		.ascii	"7\363M\"@\300\337\355\002}\217[\000\347h\304\024\240"
ARM GAS  /tmp/ccQUTNDp.s 			page 12


 163      40C0DFED 
 163      027D8F5B 
 163      00E768C4 
 163      14A0
 164 006f 585C03A8 		.ascii	"X\\\003\250+\201\266\231H\241\336H\320=\326\332;\000"
 164      2B81B699 
 164      48A1DE48 
 164      D03DD6DA 
 164      3B00
 165 0081 9DB60CFE 		.ascii	"\235\266\014\376Z\331B\266G\010Old\010N\010\365b\200"
 165      5AD942B6 
 165      47084F6C 
 165      64084E08 
 165      F56280
 166 0094 A2E4A702 		.ascii	"\242\344\247\002EIT\234\204\012\221G@\230\025\322\262"
 166      4549549C 
 166      840A9147 
 166      409815D2 
 166      B2
 167 00a5 134985B3 		.ascii	"\023I\205\263\347\221w\305\023\260\254\365m\377\311"
 167      E79177C5 
 167      13B0ACF5 
 167      6DFFC9
 168 00b4 CBAF784F 		.ascii	"\313\257xO\267\233\217\364\357N\007\321CRx\022\301E"
 168      B79B8FF4 
 168      EF4E07D1 
 168      43527812 
 168      C145
 169 00c6 18A30007 		.ascii	"\030\243\000\007\203AX{%?\023m\277\323\271\361\305\337"
 169      8341587B 
 169      253F136D 
 169      BFD3B9F1 
 169      C5DF
 170 00d8 7A8F7DFD 		.ascii	"z\217}\375\010\023\270L|\012<\224)\352,\207\273t\010"
 170      0813B84C 
 170      7C0A3C94 
 170      29EA2C87 
 170      BB7408
 171 00eb 6718CE32 		.ascii	"g\030\3162\222\343\216\312mhj\2758h\226\201\367\242"
 171      92E38ECA 
 171      6D686ABD 
 171      38689681 
 171      F7A2
 172 00fd 364A7D2B 		.ascii	"6J}+\007E\0244\310\0170\327j\275:6\201\217\321\206\007"
 172      07451434 
 172      C80F30D7 
 172      6ABD3A36 
 172      818FD186 
 173 0112 70BFAE75 		.ascii	"p\277\256u\226\264]\205_z\201gv%(bq6D3`l\035\256\371"
 173      96B45D85 
 173      5F7A8167 
 173      76252862 
 173      71364433 
 174 012b 9D6FBDA6 		.ascii	"\235o\275\246\022v*\022.\006%\001\242<LV\020\303$\223"
 174      12762A12 
 174      2E062501 
 174      A23C4C56 
ARM GAS  /tmp/ccQUTNDp.s 			page 13


 174      10C32493 
 175 013f A3EF1085 		.ascii	"\243\357\020\205\252\240\010QfLY$\271\007\200\345\374"
 175      AAA00851 
 175      664C5924 
 175      B90780E5 
 175      FC
 176 0150 DC3AA81C 		.ascii	"\334:\250\034\366z\025\346\374\233\327\223\246\322\234"
 176      F67A15E6 
 176      FC9BD793 
 176      A6D29C
 177 015f 38588B5A 		.ascii	"8X\213Z\021%\264G\344:\314\373\267\276\207\202\312\250"
 177      1125B447 
 177      E43ACCFB 
 177      B7BE8782 
 177      CAA8
 178 0171 6266C745 		.ascii	"bf\307E\261\217l\346I\003\011<\304\002\033\2332\252"
 178      B18F6CE6 
 178      4903093C 
 178      C4021B9B 
 178      32AA
 179 0183 4E11012F 		.ascii	"N\021\001/J\010\356\303\216p'f\355u\315\"'3x\324\303"
 179      4A08EEC3 
 179      8E702766 
 179      ED75CD22 
 179      273378D4 
 180 0198 CC009C7A 		.ascii	"\314\000\234z\250\357\236\3610\013\341\006\036\036\006"
 180      A8EF9EF1 
 180      300BE106 
 180      1E1E06
 181 01a7 5881E68F 		.ascii	"X\201\346\217X\227\303\264{\036C\221\302\315\323\344"
 181      5897C3B4 
 181      7B1E4391 
 181      C2CDD3E4 
 182 01b7 5763A1F1 		.ascii	"Wc\241\361|i,JL\227\021cKVA\354>\177\231U\233Z\033\350"
 182      7C692C4A 
 182      4C971163 
 182      4B5641EC 
 182      3E7F9955 
 183 01cf 794ABA23 		.ascii	"yJ\272#\005\361\"\006{n\327\235\210\313\020\311x\313"
 183      05F12206 
 183      7B6ED79D 
 183      88CB10C9 
 183      78CB
 184 01e1 CF80E115 		.ascii	"\317\200\341\025\212\025Id\326\202\303\\\011\330\310"
 184      8A154964 
 184      D682C35C 
 184      09D8C8
 185 01f0 04EF6673 		.ascii	"\004\357fs\373\240F\311\340\236\346\375\245\247\361"
 185      FBA046C9 
 185      E09EE6FD 
 185      A5A7F1
 186 01ff 4933FFE1 		.ascii	"I3\377\341\300z\354@\226\010\2729\220\353\346@6t 7\000"
 186      C07AEC40 
 186      9608BA39 
 186      90EBE640 
 186      36742037 
 187 0214 678D037D 		.ascii	"g\215\003}\373;\220\353\342@\022\336\246\350\0055\324"
ARM GAS  /tmp/ccQUTNDp.s 			page 14


 187      FB3B90EB 
 187      E24012DE 
 187      A6E80535 
 187      D4
 188 0225 3F8FFE88 		.ascii	"?\217\376\210\033\346z\330\037e+\376}}\244?\226\035"
 188      1BE67AD8 
 188      1F652BFE 
 188      7D7DA43F 
 188      961D
 189 0237 8A51BAF4 		.ascii	"\212Q\272\364V\216O9\234\317\027\314\247V\252\326\012"
 189      568E4F39 
 189      9CCF17CC 
 189      A756AAD6 
 189      0A
 190 0248 D3B54275 		.ascii	"\323\265Bujf\332-\231\220\273\361j\351\362Li\322-\215"
 190      6A66DA2D 
 190      9990BBF1 
 190      6AE9F24C 
 190      69D22D8D 
 191 025c 0F0D0FE5 		.ascii	"\017\015\017\345]@\317\271\350Uk\203\245\312\245\332"
 191      5D40CFB9 
 191      E8556B83 
 191      A5CAA5DA 
 192 026c 15C804F3 		.ascii	"\025\310\004\363\311\251(\376\003\265+\005\313"
 192      C9A928FE 
 192      03B52B05 
 192      CB
 193              		.text
 194              		.section	.gnu.lto_test_010_001_execute.part.1.9d0686ebbd798dd2,"",%progbits
 195 0000 789C9D94 		.ascii	"x\234\235\224\317O\023A\024\307\337\233\375\275\333"
 195      CF4F1341 
 195      14C7DF9B 
 195      FDBDDB
 196 000f 5AFC0D97 		.ascii	"Z\374\015\227\246\361\346A\012\206\030O\304\370'\030"
 196      A6F1E641 
 196      0A86184F 
 196      C4F82718 
 197 001f 48F044C8 		.ascii	"H\360D\310\262!\033-\305RL\220\003\013-\246\236@\243"
 197      B2211B2D 
 197      C5524C90 
 197      030B2DA6 
 197      9E40A3
 198 0032 094A1409 		.ascii	"\011J\024\011!&\306\304+z*\234P\303\017/\006o\275\250"
 198      2126C6C4 
 198      2B7A2A9C 
 198      50C30F2F 
 198      066FBDA8 
 199 0046 073D7952 		.ascii	"\007=yR$\251ovv\227\002\305\244N\332\231y3\363\336|"
 199      24A96F76 
 199      769702C5 
 199      A44EDA99 
 199      7933F3DE 
 200 005b DFE76587 		.ascii	"\337\347e\207\001\203\203m\206\376?\025\200\0334b\034"
 200      0183836D 
 200      86FE3F15 
 200      801B3462 
 200      1C
ARM GAS  /tmp/ccQUTNDp.s 			page 15


 201 006c 3036B341 		.ascii	"06\263A\223\0302\177d(\363qB\227\304dE\227\231T\356"
 201      9318327F 
 201      6428F371 
 201      4297C464 
 201      45979954 
 202 0081 04CF54B6 		.ascii	"\004\317T\266\022\340\305\024\324\305\276\312\254U\211"
 202      12E0C514 
 202      D4C5BECA 
 202      AC5589
 203 0090 96B58DF7 		.ascii	"\226\265\215\367@\353\232X_\321u\246\372\307\015\377"
 203      40EB9A58 
 203      5FD175A6 
 203      FAC70DFF 
 204 00a0 B8C1AC4F 		.ascii	"\270\301\254Oi\262\314\267I\262L\264\204\263\205\310"
 204      69B2CCB7 
 204      49B24CB4 
 204      84B385C8 
 205 00b0 2780301E 		.ascii	"'\2000\036c\222\254\250\232n\230\026\216_G\256\020\317"
 205      6392ACA8 
 205      9A6E9816 
 205      8E5F47AE 
 205      10CF
 206 00c2 C182E73D 		.ascii	"\301\202\347=\250,\375\254\340c\257\\|\356\355V\253"
 206      A82CFDAC 
 206      E063AF5C 
 206      7CEEED56 
 206      AB
 207 00d3 882E5236 		.ascii	"\210.R6\035\0106B\017\031\230\362\007&\357O\3575\363"
 207      1D083642 
 207      0F1998F2 
 207      0726EF4F 
 207      EF35F3
 208 00e6 2AD5EA9B 		.ascii	"*\325\352\233\227F\022\241\017\027(\026\003\027%)0d"
 208      974612A1 
 208      0F172816 
 208      03172529 
 208      3064
 209 00f8 3264853A 		.ascii	"2d\205:E\345\235\026,\353\301h\360m\223\357X\274\213"
 209      45E59D16 
 209      2CEBC168 
 209      F06D93EF 
 209      58BC8B
 210 010b 7133CE67 		.ascii	"q3\316g\024Y\201\242\347\315\244\304A\3402\250uQO\231"
 210      145981A2 
 210      E7CDA4C4 
 210      41E032A8 
 210      75514F99 
 211 011f 76618C06 		.ascii	"va\214\006\251\033\031\037\326ar\371\327\237\346>\\"
 211      A91B191F 
 211      D66172F9 
 211      D79FE63E 
 211      5C
 212 0130 24C73978 		.ascii	"$\3079x2\341yM\244~\014v\274\022\237\251\031\337\227"
 212      32E1794D 
 212      A47E0C76 
 212      BC129FA9 
 212      19DF97
ARM GAS  /tmp/ccQUTNDp.s 			page 16


 213 0143 CB57219C 		.ascii	"\313W!\234\001O\344\035LV~\0274\341)n\362\367\302\326"
 213      014FE41D 
 213      4C567E17 
 213      34E1296E 
 213      F2F7C2D6 
 214 0157 8D12943B 		.ascii	"\215\022\224;\371\005;\205\357\323\227\305\271\001d"
 214      F9053B85 
 214      EFD397C5 
 214      B90164
 215 0166 63708792 		.ascii	"cp\207\222\274\000\257<j\367\311C\313 \016 \326\222"
 215      BC00AF3C 
 215      6AF7C943 
 215      CB200E20 
 215      D692
 216 0178 D984A9F2 		.ascii	"\331\204\251\362y\341\001{Zt;8\305Wt\027\215\014\262"
 216      79E1017B 
 216      5A743B38 
 216      C5577417 
 216      8D0CB2
 217 018b E010C575 		.ascii	"\340\020\305u\321\004X\207B\251\360m\272'\274M\242\300"
 217      D1045887 
 217      42A9F06D 
 217      BA27BC4D 
 217      A2C0
 218 019d BE2AF415 		.ascii	"\276*\364\025\263Z\265\264\033*\225\201j,QF:D\233\344"
 218      B35AB5B4 
 218      1B2A9581 
 218      6A2C5146 
 218      3A449BE4 
 219 01b1 B106C5AF 		.ascii	"\261\006\305\257\023V\030K\004\222\"\221\237\001\203"
 219      1356184B 
 219      04922291 
 219      9F0183
 220 01c0 84D91ADD 		.ascii	"\204\331\032\335#I%\213\307RB\254\333\325F\261*\001"
 220      2349258B 
 220      C75242AC 
 220      DBD546B1 
 220      2A01
 221 01d2 D6D2D4BF 		.ascii	"\326\322\324\277\260\252\260\333!mB\261r\357\013\206"
 221      B0AAB0DB 
 221      216D42B1 
 221      72EF0B86 
 222 01e2 DAE428B2 		.ascii	"\332\344(\262e#;\002\222K\225\347\204\266\245\320M!"
 222      65233B02 
 222      924B95E7 
 222      84B6A5D0 
 222      4D21
 223 01f4 4F1E5D16 		.ascii	"O\036]\026\320\225p]\215\302\305\355\200\022\035\346"
 223      D095705D 
 223      8DC2C5ED 
 223      80121DE6 
 224 0204 8BCD2E1E 		.ascii	"\213\315.\036K\302\245\247\336\354\025\027\023\020E"
 224      4BC2A5A7 
 224      DEEC1517 
 224      131045
 225 0213 6EF269FD 		.ascii	"n\362i\375\210\004\251<\254R[\323n\324\340\303E\311"
 225      8804A93C 
ARM GAS  /tmp/ccQUTNDp.s 			page 17


 225      AC525BD3 
 225      6ED4E0C3 
 225      45C9
 226 0225 AFD0E2C3 		.ascii	"\257\320\342\303\250B\372\000jGWH\017}u\230[=X!\355"
 226      A842FA00 
 226      6A475748 
 226      0F7D7598 
 226      5B3D5821 
 227 023a 6085B443 		.ascii	"`\205\264C\025\322\002v\012\257\220\256\211\012\031"
 227      15D20276 
 227      0AAF90AE 
 227      890A19
 228 0249 301FF72B 		.ascii	"0\037\367+\264\274\330\322`\205T\237S\2612\275\024e"
 228      B4BCD8D2 
 228      6085549F 
 228      53B132BD 
 228      1465
 229 025b 6A34827E 		.ascii	"j4\202~3Bo\222g=\364V=\364f\200\376x\022\256\012\364"
 229      33426F92 
 229      673DF456 
 229      3DF46680 
 229      FE7812AE 
 230 0271 278E466F 		.ascii	"'\216Fo\325Ao\302#\305Oy\366E\243)k\276\276\273\225"
 230      D5416FC2 
 230      23C54F79 
 230      F645A329 
 230      6BBEBEBB 
 231 0286 674BD6A1 		.ascii	"gK\326\241/\362\244-\364\327\3118x'\202\215S6*\221\340"
 231      2FF2A42D 
 231      F4D7C938 
 231      7827828D 
 231      53362A91 
 232 029b D382E1FC 		.ascii	"\323\202\341\374\036\303\330\3771\214\223\347a\2065"
 232      1EC3D8FF 
 232      318C93E7 
 232      618635
 233 02aa FA6A10C6 		.ascii	"\372j\020\306\003\204g\222pM <\273\017\241\340d\361"
 233      03846792 
 233      704D203C 
 233      BB0FA1E0 
 233      64F1
 234 02bc 8FF7233D 		.ascii	"\217\367#=\373{\360\272\350%\330JpQ\355\255\255i\361"
 234      FB7BF0BA 
 234      E825D84A 
 234      7051EDAD 
 234      AD69F1
 235 02cf CB3BC3F9 		.ascii	"\313;\303\371t.\237\036\316\216\344lG\230\274\353\035"
 235      742E9F1E 
 235      CE8EE46C 
 235      4798BCEB 
 235      1D
 236 02e0 766E8D38 		.ascii	"vn\2158\203\266\323\333\326\336\326j\003\272\326Mw8"
 236      83B6D3DB 
 236      D6DED66A 
 236      03BAD64D 
 236      7738
 237 02f2 9F723243 		.ascii	"\237r2C\371QH\370\363\301lh\267\014\345\262\267\335"
ARM GAS  /tmp/ccQUTNDp.s 			page 18


 237      F95148F8 
 237      F3C16C68 
 237      B70CE5B2 
 237      B7DD
 238 0304 7E2797CA 		.ascii	"~'\227\3129\371\221\334\240\323\237\3128\231ln\024\376"
 238      39F991DC 
 238      A0D39FCA 
 238      38996C6E 
 238      14FE
 239 0316 0293E975 		.ascii	"\002\223\351uq"
 239      71
 240              		.text
 241              		.section	.gnu.lto_test_010_001_execute.9d0686ebbd798dd2,"",%progbits
 242 0000 789C9554 		.ascii	"x\234\225TAk\023A\024~of7;\351\246&\256\012=\205\340"
 242      416B1341 
 242      147E6F66 
 242      373BE9A6 
 242      26AE0A3D 
 243 0016 0F485A10 		.ascii	"\017HZ\020/B\021\377\201\320@=\225\262.a\301\264\332"
 243      2F4211FF 
 243      81D0403D 
 243      95B22E61 
 243      C1B4DA
 244 0029 A48878E8 		.ascii	"\244\210x\350\244\011\222\203H\361T\025\301R<x\362\032"
 244      A4099283 
 244      48F15415 
 244      C1523C78 
 244      F21A
 245 003b C143140F 		.ascii	"\301C\024\017\255`R\301C\004\205E\301\213\236,x(B|\263"
 245      AD6052C1 
 245      43048545 
 245      C18B9E2C 
 245      7828427C 
 246 0050 B3BBB59A 		.ascii	"\263\273\265\232\0362$3\363\276y\357\233o\276\231\204"
 246      1E322433 
 246      F3BE79EF 
 246      9B6FBE99 
 246      84
 247 0061 01837FDB 		.ascii	"\001\203\177\333U\372N\032\000\227i\3044 \333\350\001"
 247      55FA4E1A 
 247      009769C4 
 247      3420DBE8 
 247      01
 248 0072 34044353 		.ascii	"4\004CSO8\023\2579\310\011\243\367\026@f\014\215\277"
 248      4F3813AF 
 248      39C809A3 
 248      F7164066 
 248      0C8DBF
 249 0085 1226E3DD 		.ascii	"\022&\343\335Y\302S{Y\202SL\274\314Sd}(Qd\241PI(\020"
 249      59C2537B 
 249      5982534C 
 249      BCCC5364 
 249      7D285164 
 250 009e D508086B 		.ascii	"\325\010\010k\214\033f\312\022\270v\005\325\256x\026"
 250      8C1B66CA 
 250      12B87605 
 250      D5AE7816 
ARM GAS  /tmp/ccQUTNDp.s 			page 19


 251 00ae B6A4BC1F 		.ascii	"\266\244\274\037<\375\031\340\003\331m=\221\277\207"
 251      3CFD19E0 
 251      03D96D3D 
 251      91BF87
 252 00bd 43441F49 		.ascii	"CD\037I\3419\004\027a\236\002,\204\0033\216J~\316\272"
 252      E1390417 
 252      619E022C 
 252      8403338E 
 252      4A7ECEBA 
 253 00d1 C17078F7 		.ascii	"\301px\367E\360\345\031:g\020\026q\213\370\004\370\310"
 253      45F0E519 
 253      3A671016 
 253      718BF804 
 253      F8C8
 254 00e3 D3D419B6 		.ascii	"\323\324\031\266\3522\021\234UpN!\216\352\250\334\204"
 254      EA32119C 
 254      55704E21 
 254      8EEAA8DC 
 254      84
 255 00f4 96941B05 		.ascii	"\226\224\033\005\275\014j/js\324w\034(#\243\201\277"
 255      BD0C6A2F 
 255      6A73D477 
 255      1C2823A3 
 255      81BF
 256 0106 83F5CEE6 		.ascii	"\203\365\316\346\376\324\"n\243\011\217\340aC\312\034"
 256      FED4226E 
 256      A3098FE0 
 256      6143CA1C 
 257 0116 69BB0D07 		.ascii	"i\273\015\007\262\255ff5,R\342L\210g\240\260>\334\011"
 257      B2AD6666 
 257      352C52E2 
 257      4C8867A0 
 257      B03EDC09 
 258 012a 7A4D5B57 		.ascii	"zM[W\302aE\312\305\260$D\204\217V\0251J\3229\362\246"
 258      C26145CA 
 258      C5B02444 
 258      848F5615 
 258      314AD239 
 259 0140 8FA28A2C 		.ascii	"\217\242\212,\002\025a\332 \305\023\000J\315\340\327"
 259      021561DA 
 259      20C51300 
 259      4ACDE0D7 
 260 0150 B86AD455 		.ascii	"\270j\324U\357\302z\360\251i\351J}\340p-ne\344\320\235"
 260      EFC27AF0 
 260      A969E94A 
 260      7DE0702D 
 260      6E65E4D0 
 261 0165 E57D6805 		.ascii	"\345}h\005\237\277Fz*(\022f\333Ev\214j\0373JYs\300\343"
 261      9FBF467A 
 261      2A281266 
 261      DB45768C 
 261      6A1F334A 
 262 017d B234552A 		.ascii	"\2624U*v\016\241\017f\214\333\011\335\244\253\027U\262"
 262      760EA10F 
 262      668CDB09 
 262      DDA4AB17 
 262      55B2
ARM GAS  /tmp/ccQUTNDp.s 			page 20


 263 018f 02A77C3C 		.ascii	"\002\247|<\221\207\363\217\345\346E\037\263\2200\347"
 263      9187F38F 
 263      E5E6451F 
 263      B39030E7 
 264 019f 0076A0F5 		.ascii	"\000v\240\365#\021d+\332#\217\240L\341\340\002\335S"
 264      2311642B 
 264      DA238FA0 
 264      4CE1E002 
 264      DD53
 265 01b1 B3DDDCBF 		.ascii	"\263\335\334\2777\037'f*\210\311U\354\002\373\373\340"
 265      371F2766 
 265      2A88C955 
 265      EC02FBFB 
 265      E0
 266 01c2 152558D7 		.ascii	"\025%X\327\232@\317\222\2239\002\222E\014\367\374\326"
 266      9A40CF92 
 266      93390292 
 266      450CF7FC 
 266      D6
 267 01d3 B0632E4D 		.ascii	"\260c.M\304\223-?\002F\336\261\035NdF\333V\\)\330\313"
 267      C4932D3F 
 267      0246DEB1 
 267      1D4E6446 
 267      DB565C29 
 268 01e9 86EFA573 		.ascii	"\206\357\245s0\356\015\361\320\247V\360};9iv\034\353"
 268      30EE0DF1 
 268      D0A756F0 
 268      7D3B3969 
 268      761CEB
 269 01fc FB89F539 		.ascii	"\373\211\3659\252\034e\2753\312\372\\d\375\311<\\\322"
 269      AA1C65BD 
 269      33CAFA5C 
 269      64FDC93C 
 269      5CD2
 270 020e D63BC75B 		.ascii	"\326;\307[\357\214\260\336\2027iz3M\361\337+?\345F\271"
 270      EF8CB0DE 
 270      8237697A 
 270      334DF1DF 
 270      2B3FE546 
 271 0223 3E9E8EB3 		.ascii	">\236\216\263\205\372A\275\247\177\222C\2129r\273\343"
 271      85FA41BD 
 271      A77F9243 
 271      8A3972BB 
 271      E3
 272 0234 A8E3CD14 		.ascii	"\250\343\315\024\213%\375\251{\265zi\245^\252-\257\256"
 272      8B25FDA9 
 272      7BB57A69 
 272      A55EAA2D 
 272      AFAE
 273 0246 B89E0E55 		.ascii	"\270\236\016U\267P\363n\254zK\256\2670=3]t\001}\373"
 273      B750F36E 
 273      AC7A4BAE 
 273      B7303D33 
 273      5D74017D 
 274 025b 9A5FAB17 		.ascii	"\232_\253\027\274\352\365\372-\310\206\363\245\3458"
 274      BCEAF5FA 
 274      2DC886F3 
ARM GAS  /tmp/ccQUTNDp.s 			page 21


 274      A5E538
 275 026a FE03DA5A 		.ascii	"\376\003\332Z\004J"
 275      044A
 276              		.text
 277              		.section	.gnu.lto_.symbol_nodes.9d0686ebbd798dd2,"",%progbits
 278 0000 789C4D8E 		.ascii	"x\234M\216IJ\305@\020\206\353\357N'1\211C\342\364\\"
 278      494AC540 
 278      1086EBEF 
 278      4E273189 
 278      43E2F45C 
 279 0014 7806CFE4 		.ascii	"x\006\317\344\336;\324\203\200\323B<\200\202\230\243"
 279      DE3BD483 
 279      80D3423C 
 279      808298A3 
 280 0024 3C5050D4 		.ascii	"<PP\324\265\363\323\250\317y\002]\252=\004;\331||EU"
 280      B5F3D3A8 
 280      CF79025D 
 280      AA3D043B 
 280      D97C7C45 
 281 0039 7F112468 		.ascii	"\177\021$hN\220\373\304\031\230h\375\220\210yce^\334"
 281      4E90FBC4 
 281      199868FD 
 281      90887963 
 281      655EDC
 282 004c 80E1550D 		.ascii	"\200\341U\015 \211I\235\202\002\226\242\006\213\326"
 282      2089499D 
 282      820296A2 
 282      068BD6
 283 005b 6E1F2C5B 		.ascii	"n\037,[z\016\016Z\247'\200\271\371\000\253f\272\271"
 283      7A0E0E5A 
 283      A72780B9 
 283      F900AB66 
 283      BAB9
 284 006d 0C750C61 		.ascii	"\014u\014a\246W\340\260u\372\011\216\374\222\270\000"
 284      A657E0B0 
 284      75FA098E 
 284      FC92B800 
 285 007d C7AD97EE 		.ascii	"\307\255\227\356\020(\375\023\227P\372T]#4\270E\244"
 285      1028FD13 
 285      9750FA54 
 285      5D2334B8 
 285      45A4
 286 008f 8107F090 		.ascii	"\201\007\360\220[\355v\201{p\342\355\021\234z{\007g"
 286      5BED7681 
 286      7B70E2ED 
 286      119C7A7B 
 286      0767
 287 00a1 DE9EC1C3 		.ascii	"\336\236\301\303\336\236\300#\336\336\300\243\336^\301"
 287      DE9EC023 
 287      DEDEC0A3 
 287      DE5EC1
 288 00b0 63DE5EC0 		.ascii	"c\336^\300\371\277I\024T\365\1774s\252\015\203q*\015"
 288      F9BF4914 
 288      54F57F34 
 288      73AA0D83 
 288      712A0D
 289 00c3 55C370C2 		.ascii	"U\303p\3021\316\251\332?\232\225qA\365\236aN\345\322"
ARM GAS  /tmp/ccQUTNDp.s 			page 22


 289      31CEA9DA 
 289      3F9A9571 
 289      41F59E61 
 289      4EE5D2
 290 00d6 EF82F1DE 		.ascii	"\357\202\361\336\242\341$\325[\337\221L\246\334{IA\345"
 290      A2E124D5 
 290      5BDF914C 
 290      A6DC7B49 
 290      41E5
 291 00e8 D7209449 		.ascii	"\327 \224IN=K\335\331\325w\332k\313\230\266Ww:2\325"
 291      4E3D4BDD 
 291      D9D577DA 
 291      6BCB98B6 
 291      57773A32 
 292 00fd BE76A064 		.ascii	"\276v\240d\332\241\312R\367,\233\236\236\333^\332\364"
 292      DAA1CA52 
 292      F72C9B9E 
 292      9EDB5EDA 
 292      F4
 293 010e B4DB5E3A 		.ascii	"\264\333^:\355z\331\214\353e\035\327\313\232\236v\333"
 293      ED7AD98C 
 293      EB651DD7 
 293      CB9A9E76 
 293      DB
 294 011f CB9A5E96 		.ascii	"\313\232^\226\332\036\375\001h\310\256\""
 294      DA1EFD01 
 294      68C8AE22 
 295              		.text
 296              		.section	.gnu.lto_.refs.9d0686ebbd798dd2,"",%progbits
 297 0000 789C3D8B 		.ascii	"x\234=\213\007\016\300 \014\003\3031RF\307\177\373\371"
 297      070EC020 
 297      0C03C331 
 297      5246C77F 
 297      FBF9
 298 0012 5A209AE8 		.ascii	"Z \232\350,;\003\303^[E\010\020W\207$\262(\270\037\232"
 298      2C3B03C3 
 298      5E5B4508 
 298      10578724 
 298      B228B81F 
 299 0027 577916DE 		.ascii	"Wy\026\336\346]\335\271\367\271w\351\017\246\2771]\335"
 299      E65DDDB9 
 299      F7B977E9 
 299      0FA6BF31 
 299      5DDD
 300 0039 B3787271 		.ascii	"\263xrq\363H\013C.\323\224\022\301>\246\336\002k"
 300      F3480B43 
 300      2ED39412 
 300      C13EA6DE 
 300      026B
 301              		.text
 302              		.section	.gnu.lto_.decls.9d0686ebbd798dd2,"",%progbits
 303 0000 789CAD5B 		.ascii	"x\234\255[{t\324\326\231\277\222f<\036l\236IX8I\233"
 303      7B74D4D6 
 303      99BF9266 
 303      3C1E6C9E 
 303      49583849 
 304 0015 699AB429 		.ascii	"i\232\264)i\374H\262)mOK\022v7\351i\263\333\263\273"
ARM GAS  /tmp/ccQUTNDp.s 			page 23


 304      69FC48B2 
 304      296D4F4B 
 304      127637E9 
 304      69B3DBB3 
 305 002a 3DA77FED 		.ascii	"=\247\177\355T\031\013\333[{\306\325\310<\272g\027a"
 305      54190BDB 
 305      5B7BC6D5 
 305      C83CBA67 
 305      1761
 306 003c 28102080 		.ascii	"(\020 \200\015\246\316bj\236I\010$<\002\244\306\004"
 306      0DA6CE62 
 306      6A9E4908 
 306      243C02A4 
 306      C604
 307 004e C62D388E 		.ascii	"\306-8\216a\001\033\3143\0057IK\222&\024C\022 8x\277"
 307      61011BCC 
 307      33053749 
 307      4B922614 
 307      43122038 
 308 0064 FB9046BA 		.ascii	"\373\220F\272#i4\246:\\Y\272\272\337\357\373\276\337"
 308      236934A6 
 308      3A5C59BA 
 308      BADFEFFB 
 308      BEDF
 309 0076 F7DDAB7B 		.ascii	"\367\335\253{\257\006\021\211\250,\200\320 \034{\276"
 309      AF061189 
 309      A82C80D0 
 309      201C7BBE 
 310 0086 87D0CC10 		.ascii	"\207\320\314\020B\303\020B\337\2072\002\312\032(k\241"
 310      42C31042 
 310      DF873202 
 310      CA1A286B 
 310      A1
 311 0097 BC084582 		.ascii	"\274\010E\202\022\2042U@\250\032\3124(\323\241\374\022"
 311      12843255 
 311      40A81ACA 
 311      3428D3A1 
 311      FC12
 312 00a9 4A059424 		.ascii	"J\005\224$\224\377\206\362?P\3601\006\212\016\327\363"
 312      94FF86F2 
 312      3F50F031 
 312      068A0ED7 
 312      F3
 313 00ba A02C84B2 		.ascii	"\240,\204\262\030J=\224\345P\232\240\254\204\322\002"
 313      184A3D94 
 313      E5509AA0 
 313      AC84D202 
 314 00ca 652D9497 		.ascii	"e-\224\227\241\354\204\262\033J\012\312\001(\007\241"
 314      A1EC84B2 
 314      1B4A0ACA 
 314      012807A1 
 315 00da 1C85721C 		.ascii	"\034\205r\034J>`\235\201\277\027\240|\010\345#(\027"
 315      4A3E609D 
 315      81BF17A0 
 315      7C08E523 
 315      2817
 316 00ec A1044584 		.ascii	"\241\004E\204FA\271SD\266\003\353\305fLb\367\002\253"
ARM GAS  /tmp/ccQUTNDp.s 			page 24


 316      4641B953 
 316      44B603EB 
 316      C5664C62 
 316      F702AB
 317 00ff E30F6C5B 		.ascii	"\343\017l[!k\267^\240\376\335\007X_\023\323>o\202\372"
 317      216BB75E 
 317      A0FEDD07 
 317      585F13D3 
 317      3E6F82FA 
 318 0113 AF8B692E 		.ascii	"\257\213i.\3261\034\211\311\277\314|\300&`\273\316p"
 318      D6311C89 
 318      C9BFCC7C 
 318      C02660BB 
 318      CE70
 319 0125 7AB0EF40 		.ascii	"z\260\357@1\272\237ab\035\273X\033\221=\337\311\354"
 319      31BA9F61 
 319      621DBB58 
 319      1B913DDF 
 319      C9EC
 320 0137 E5651767 		.ascii	"\345e\027g\221]\354![\317\374\371\206Hc\206\257q\334"
 320      915DEC21 
 320      5BCFFCF9 
 320      86486386 
 320      AF71DC
 321 014a DA2CF2F5 		.ascii	"\332,\362\365\214s\\u\201\223\307q\272\235\351\304\271"
 321      8C735C75 
 321      8193C771 
 321      BA9DE9C4 
 321      B9
 322 015b 80799A20 		.ascii	"\200y\232 \246\271\302<u\301\365\003\314\266v\201\362"
 322      A6B9C23C 
 322      75C1F503 
 322      CCB67681 
 322      F2
 323 016c 66E5CCC8 		.ascii	"f\345\314\310\021\314\231\301\037>\002\014?e\341Ob\374"
 323      11CC99C1 
 323      1F3E020C 
 323      3F65E14F 
 323      62FC
 324 017e 7DE8C021 		.ascii	"}\350\300!\316\227\261\234-V;\276\311l0r\261\303\247"
 324      CE97B19C 
 324      2D563BBE 
 324      C96C3072 
 324      B1C3A7
 325 0191 2D0F427D 		.ascii	"-\017B}#\323\025dz\016XlZn\261\353\014\263\315z\340"
 325      23D31564 
 325      7A0E586C 
 325      5A6EB1EB 
 325      0CB3CD7A 
 326 01a6 1C1EE783 		.ascii	"\034\036\347\203\243\"\026\203CP\212\341\272\333\303"
 326      A3221683 
 326      43508AE1 
 326      BADBC3
 327 01b5 261CAF24 		.ascii	"&\034\257$\213\223\265?\3451}F\277X\313b\247s\334\361"
 327      8B93B53F 
 327      E5317D46 
 327      BF58CB62 
ARM GAS  /tmp/ccQUTNDp.s 			page 25


 327      A773DCF1 
 328 01c9 71C47DEC 		.ascii	"q\304}\354\016\017\356J\230m\006w\275>l,\205\372f\013"
 328      0E0FEE4A 
 328      986D0677 
 328      BD3E6C2C 
 328      85FA660B 
 329 01dd 6F2DAC9F 		.ascii	"o-\254\237\032v\255\264\330d\364Y\353Q\200\026\350z"
 329      1A76ADB4 
 329      D864F459 
 329      EB518016 
 329      E87A
 330 01ef 9DBE7AAE 		.ascii	"\235\276z\256\376T\347\210\321h\251\016G\244iD\030\315"
 330      FE54E788 
 330      D168A90E 
 330      47A46944 
 330      18CD
 331 0201 C7D57D1B 		.ascii	"\307\325}\033\364q\300\352O\005Y\200\252|rQ\030&Iz\037"
 331      F471C0EA 
 331      4F055980 
 331      AA7C7251 
 331      1826497A 
 332 0216 5A0F4DA1 		.ascii	"Z\017M\241\275(\013\353\2040$\261\350\320\255\361A\237"
 332      BD280BEB 
 332      843024B1 
 332      E8D0ADF1 
 332      419F
 333 0228 E3038BD3 		.ascii	"\343\003\213\323k\343jP0\321\247\033\350#\231\324Za"
 333      6BE36A50 
 333      30D1A71B 
 333      E82399D4 
 333      5A61
 334 023a 34B922B6 		.ascii	"4\271\"\266\350\314D\322\202ID\014\211\000\223x\301"
 334      E8CC44D2 
 334      8249440C 
 334      89009378 
 334      C1
 335 024b A2A7309C 		.ascii	"\242\2470\234\276\030\301,q\223[#\0248\3621\006\325"
 335      BE18C12C 
 335      71935B23 
 335      1438F231 
 335      06D5
 336 025d 133E3A47 		.ascii	"\023>:G\230\262\320O\230\3608\203\204\245}K>\034\247"
 336      98B2D04F 
 336      98F03883 
 336      84A57D4B 
 336      3E1CA7
 337 0270 0764E125 		.ascii	"\007d\341%a\014\320\360\250\200&\240\215\224\233\272"
 337      610CD0F0 
 337      A88026A0 
 337      8D949BBA 
 338 0280 AF3B7192 		.ascii	"\257;q\222\025\026\333\264\031\300da\2230\2011\235j"
 338      1516DBB4 
 338      19C06461 
 338      93308131 
 338      9D6A
 339 0292 ED28C44A 		.ascii	"\355(\304Jp=bO\034\216\257\240\325\270q[G\263\240\257"
 339      703D624F 
ARM GAS  /tmp/ccQUTNDp.s 			page 26


 339      1C8EAFA0 
 339      D5B8715B 
 339      47B3A0AF 
 340 02a6 FE9DE0A0 		.ascii	"\376\235\340\240\352g\206\246\302\264\003'\347\356\221"
 340      EA6786A6 
 340      C2B40327 
 340      E7EE91
 341 02b5 743D5F16 		.ascii	"t=_\026\266\020\027 \351\255\012\262\201\210h&\026\330"
 341      B6101720 
 341      E9AD0AB2 
 341      81886826 
 341      16D8
 342 02c7 CE5B7C7A 		.ascii	"\316[|z\215\020\241\325\331\015>\373\247\260\336P\350"
 342      8D10A1D5 
 342      D90D3EFB 
 342      A7B0DE50 
 342      E8
 343 02d8 A0E93143 		.ascii	"\240\3511CS~\332\334\326\005\307\353\2059\272\016\017"
 343      537EDADC 
 343      D605C7EB 
 343      8539BA0E 
 343      0F
 344 02e9 761183B7 		.ascii	"v\021\203\267\011\216\026\257~\314\015H\204A\022\213"
 344      098E16AF 
 344      7ECC0D48 
 344      8441128B 
 345 02f9 B47236F7 		.ascii	"\264r6\367\365\036>R'\314\"\320\255>\014\257Ku/X5\036"
 345      F51E3E52 
 345      27CC22D0 
 345      AD3E0CAF 
 345      4B752F58 
 346 030f 339D2D71 		.ascii	"3\235-qV\007\014\375\377\220v\344\267]\223pL\367\022"
 346      56070CFD 
 346      FF9076E4 
 346      B75D9370 
 346      4CF712
 347 0322 27AE383B 		.ascii	"'\2568;\341\016\"\242\001\"\322\236\341\304\342?\030"
 347      E10E22A2 
 347      0122D29E 
 347      E1C4E23F 
 347      18
 348 0333 4EB4FB62 		.ascii	"N\264\373b\377j\027M\027\203\317\271\242\201\353D\236"
 348      FF6A174D 
 348      1783CFB9 
 348      A281EB44 
 348      9E
 349 0344 D9BD1032 		.ascii	"\331\275\0202-\263\223r\255\253p\251\314\306\020\312"
 349      2DB39372 
 349      ADAB70A9 
 349      CCC610CA 
 350 0354 8873E733 		.ascii	"\210s\3473\342\331\260\277[\230M\354}\223\014%\007D"
 350      E2D9B0BF 
 350      5B984DEC 
 350      7D930C25 
 350      0744
 351 0366 3B15FEA1 		.ascii	";\025\376\241\332V\034\357\027\352\010T\027\201\332"
 351      DA561CEF 
ARM GAS  /tmp/ccQUTNDp.s 			page 27


 351      17EA0854 
 351      1781DA
 352 0375 2CD9A164 		.ascii	",\331\241d!\024F\226\203\334\033\0150^(\234\276\300"
 352      21144696 
 352      83DC1B0D 
 352      305E289C 
 352      BEC0
 353 0387 B3B19128 		.ascii	"\263\261\221(\327\346\"\332)q\374\331L\265P\351\310"
 353      D7E622DA 
 353      2971FCD9 
 353      4CB550E9 
 353      C8
 354 0398 1FCEC273 		.ascii	"\037\316\302s\015\302\262\331zg\211\221\311yn~\213h"
 354      0DC2B2D9 
 354      7A678991 
 354      C9796E7E 
 354      8B68
 355 03aa 37517684 		.ascii	"7Qv\204O\202\226s\207\214$8\342+\223wv\375\332_&\213"
 355      4F829673 
 355      878C2438 
 355      E22B9377 
 355      76FDDA5F 
 356 03c0 86FE7B89 		.ascii	"\206\376{\211\376~\242\3778\257\377\306\371\267\177"
 356      FE7EA2FF 
 356      38AFFFC6 
 356      F9B77F
 357 03cf C5F41FF7 		.ascii	"\305\364\037\367\245\277\365\344\362L\375\262\360\375"
 357      A5BFF5E4 
 357      F24CFDB2 
 357      F0FD
 358 03dd 3BBCE2DD 		.ascii	";\274\342\335r\356\317\375L\313)\220\024\321\246\000"
 358      72EECFFD 
 358      4CCB2990 
 358      14D1A600 
 359 03ed 1FEF4905 		.ascii	"\037\357I\005Ve\344\336\322@D;\002\206\375\036\301r"
 359      5665E4DE 
 359      D240443B 
 359      0286FD1E 
 359      C172
 360 03ff 4F7670F4 		.ascii	"Ovp\364b\243\320\200\203e\330\360z\316\210\021\033\023"
 360      62A3D080 
 360      8365D8F0 
 360      7ACE8811 
 360      1B13
 361 0411 7B4E42F7 		.ascii	"{NB\3671\300v\373\001s\315\245\272\324^+\330\0339\203"
 361      31C076FB 
 361      0173CDA5 
 361      BAD45E2B 
 361      D81B3983 
 362 0425 D92D3B6A 		.ascii	"\331-;j\005K\371\001\033\345nY\217\025\354\3679\203"
 362      054BF901 
 362      1BE56E59 
 362      8F15ECF7 
 362      3983
 363 0437 D92D3B6E 		.ascii	"\331-;n\005\353\360\0036\316\335\262\023V\260\256\234"
 363      05EBF003 
 363      36CEDDB2 
ARM GAS  /tmp/ccQUTNDp.s 			page 28


 363      1356B0AE 
 363      9C
 364 0448 C1EC969D 		.ascii	"\301\354\226\235\262\202\035\366\003\026q\260\314<\334"
 364      B2821DF6 
 364      031671B0 
 364      CC3CDC
 365 0457 2631C7D2 		.ascii	"&1\307\322\223\030\021u\007\2141!\307\234Fi\214\343"
 365      93181175 
 365      078C3121 
 365      C79C4669 
 365      8CE3
 366 0469 815C0731 		.ascii	"\201\\\0071\233\3370\210\235_K\0071Yx\2038\177\312\017"
 366      9BDF3088 
 366      9D5F4B07 
 366      31597883 
 366      387FCA0F 
 367 047d A247C22C 		.ascii	"\242G\302,=H\230\244`\347r\006\263\207\3457\030\314"
 367      3D4898A4 
 367      60E77206 
 367      B387E537 
 367      18CC
 368 048f 36D69893 		.ascii	"6\326\230\223\336\324\270\246\364pg\233\365\312\302"
 368      DED4B8A6 
 368      F470679B 
 368      F5CAC2
 369 049e 7AE13EBF 		.ascii	"z\341>\2773\332\214\020]\261\206\350=?\366{\344\350"
 369      33DA8C10 
 369      5DB186E8 
 369      3D3FF67B 
 369      E4E8
 370 04b0 5137FB53 		.ascii	"Q7\373Ss\365\371\302\254mwyN\241Z\316]\\\303\336\223"
 370      73F5F9C2 
 370      AC6D7779 
 370      4EA15ACE 
 370      5D5CC3DE 
 371 04c5 D7C87BF2 		.ascii	"\327\310{\362\203\200\343+\327\027X\333\212\201v\366"
 371      8380E32B 
 371      D71758DB 
 371      8A8176F6 
 372 04d5 FEBE41C0 		.ascii	"\376\276A\300>\311\030\204\303\334K7l\177\213\206\303"
 372      3EC91884 
 372      C3DC4B37 
 372      6C7F8B86 
 372      C3
 373 04e6 E98B41E3 		.ascii	"\351\213A\343\260\317\235}\313\270\261\177\325\312\376"
 373      B0CF9D7D 
 373      CBB8B17F 
 373      D5CAFE
 374 04f5 1739B3CF 		.ascii	"\0279\263\317'\367g\015\302\225:\275\251\304\262Tr\313"
 374      27F7670D 
 374      C2953ABD 
 374      A9C4B254 
 374      72CB
 375 0507 1A639AD3 		.ascii	"\032c\232\323\263\367{d\226\255\213\230\2449AG\306}"
 375      B3F77B64 
 375      96AD8B98 
 375      A4394147 
ARM GAS  /tmp/ccQUTNDp.s 			page 29


 375      C67D
 376 0519 00B5AD78 		.ascii	"\000\265\255x\245\230\000\315&@\317\005y\266\005\216"
 376      A59800CD 
 376      2640CF05 
 376      79B6058E 
 377 0529 6DC1CE9C 		.ascii	"m\301\316\234\231\260,_si+\242\306 G\235\315D\217!\314"
 377      99B02C5F 
 377      73692BA2 
 377      C620479D 
 377      CD448F21 
 378 053e A46E2077 		.ascii	"\244n w\352\032\030u\363\211\307+3<\306L\344\346\306"
 378      EA1A1875 
 378      F389C72B 
 378      333CC64C 
 378      E4E6C6
 379 0551 BA9CDDC8 		.ascii	"\272\234\335\310\267\273\261xp\010n\354\243n<G\334\330"
 379      B7BBB178 
 379      70086EEC 
 379      A36E3C47 
 379      DCD8
 380 0563 F8377063 		.ascii	"\3707pc[\316n\214\262\270A\026<\313\351(}\033j\360\236"
 380      5BCE6E8C 
 380      B2B84116 
 380      3CCBE928 
 380      7D1B6AF0 
 381 0578 6A627B1A 		.ascii	"jb{\032\304\333\354\213\274\336\303x\221\207\253\263"
 381      C4DBEC8B 
 381      BCDEC378 
 381      9187ABB3 
 382 0588 2F33AE1C 		.ascii	"/3\256\034n&3<\333\212\336{e\320c\256\014\032\011e\273"
 382      6E26333C 
 382      DB8ADE7B 
 382      65D063AE 
 382      0C1A0965 
 383 059d 9C3A8D2F 		.ascii	"\234:\215/\250\266\023G\272\331\210\327D\240\366d\260"
 383      A8B61347 
 383      BAD988D7 
 383      44A0F664 
 383      B0
 384 05ae 9FC7919F 		.ascii	"\237\307\221\237g'\037n\261\256kd\234\231\311j\360M"
 384      67271F6E 
 384      B1AE6B64 
 384      9C99C96A 
 384      F04D
 385 05c0 080D594E 		.ascii	"\010\015YND\373\211\031\230\300\241L?\361b\357\275e"
 385      44FB8919 
 385      98C0A14C 
 385      3FF162EF 
 385      BD65
 386 05d2 C66B9672 		.ascii	"\306k\226rt\360\226\020\353R-K\350\222\226L\225a\036"
 386      74F09610 
 386      EB522D4B 
 386      E892964C 
 386      95611E
 387 05e5 708B707B 		.ascii	"p\213p{\216\360/*n\206\277\327e\0246W\373\035\355,p"
 387      8EF02F2A 
 387      6E86BFD7 
ARM GAS  /tmp/ccQUTNDp.s 			page 30


 387      65143657 
 387      FB1DED2C 
 388 05fa 6B456CD0 		.ascii	"kEl\320\331\214\300\275!ps|\\ai\342\226\315kD\313+\341"
 388      D98CC0BD 
 388      2170737C 
 388      5C6169E2 
 388      96CD6B44 
 389 0611 E2AD06E2 		.ascii	"\342\255\006\342\360\247\\ >\271E\346\256/q\330[\240"
 389      F0A75C20 
 389      3EB945E6 
 389      AE2F71D8 
 389      5BA0
 390 0623 3B2A6E1E 		.ascii	";*n\036m\264z4p\213\372\377\267\207\217\234\303rP7\267"
 390      6DB47A34 
 390      708BFAFF 
 390      B7878F9C 
 390      C3725037 
 391 0638 AE4611A5 		.ascii	"\256F\021\245\263\363\260\322WDn9\330z\271s\036[\250"
 391      B3F3B0D2 
 391      57446E39 
 391      D87AB973 
 391      1E5BA8
 392 064b E167D907 		.ascii	"\341g\331\007\213O\311\216\020\335\221\220\205\003\202"
 392      8B4FC98E 
 392      10DD9190 
 392      850382
 393 065a C8509DE6 		.ascii	"\310P\235\346!>\250\374\340-\201\300\321\311\343f\323"
 393      213EA8FC 
 393      E02D81C0 
 393      D1C9E366 
 393      D3
 394 066b 48BF735B 		.ascii	"H\277s[;\334\200\322Y\222\03314\231S\247\377\204\207"
 394      3BDC80D2 
 394      59921B31 
 394      349953A7 
 394      FF8487
 395 067e CB9D22DE 		.ascii	"\313\235\"\336e\331\236\307\3471e\306\222\307i\032e"
 395      65D99EC7 
 395      E73165C6 
 395      92C7691A 
 395      65
 396 068f 618B8867 		.ascii	"a\213\210g\236[\305\257\300y\0339\277\006g\363p\313"
 396      9E5BC5AF 
 396      C0791B39 
 396      BF0667F3 
 396      70CB
 397 06a1 881DD68C 		.ascii	"\210\035\326\214\330\235\263\337\021.:nj6[\325\354\313"
 397      D89DB3DF 
 397      112E3A6E 
 397      6A365BD5 
 397      ECCB
 398 06b3 BBA5C4EB 		.ascii	"\273\245\304\353;~\370p\340y=5G\312a\017\251\347\200"
 398      3B7EF870 
 398      E0793D35 
 398      47CA610F 
 398      A9E780
 399 06c6 F1A66823 		.ascii	"\361\246h#\235\257#\203\335.~Z\344g+\247g\250\256\230"
ARM GAS  /tmp/ccQUTNDp.s 			page 31


 399      9DAF2383 
 399      DD2E7E5A 
 399      E4672BA7 
 399      67A8AE98 
 400 06da 87884EE7 		.ascii	"\207\210N\347\371\230lF\034X7\207\370\023\313}n\007"
 400      F9986C46 
 400      1C583787 
 400      F813CB7D 
 400      6E07
 401 06ec 196C741D 		.ascii	"\031lt\035\232\305vH\333I\256\235\345\330\360\261\257"
 401      9AC57648 
 401      DB49AE9D 
 401      E5D8F0B1 
 401      AF
 402 06fd F42111D9 		.ascii	"\364!\021\331\317w\344\336\305\346\276\322~\037\035"
 402      CF77E4DE 
 402      C5E6BED2 
 402      7E1F1D
 403 070c B92EF5DA 		.ascii	"\271.\365\332\002\343uBG\345\337\212\"\303\035*\243"
 403      02E37542 
 403      47E5DF8A 
 403      22C31D2A 
 403      A3
 404 071d B620EEB7 		.ascii	"\266 \356\267t\221\016\322E\336\264v\013\021}\356\207"
 404      74910ED2 
 404      45DEB476 
 404      0B117DEE 
 404      87
 405 072e FDFBDD92 		.ascii	"\375\373\335\222\021\006\242\036\373\346h]\310\307\346"
 405      1106A21E 
 405      FBE6685D 
 405      C8C7E6
 406 073d A80DCF1A 		.ascii	"\250\015\317\032MX\305\036#\253X\232\245\013y0'\343"
 406      4D58C51E 
 406      23AB589A 
 406      A50B7930 
 406      27E3
 407 074f 4ADCC15A 		.ascii	"J\334\301Z\226\031\344n&\357\306\345~\360&\2729[\227"
 407      9619E46E 
 407      26EFC6E5 
 407      7EF026BA 
 407      395B97
 408 0762 7AFD5833 		.ascii	"z\375X3\303\243;\261\3159\343\331\355\353]f\233Kl\360"
 408      C3A33BB1 
 408      CD39E3D9 
 408      EDEB5D66 
 408      9B4B6CF0 
 409 0776 03F798EF 		.ascii	"\003\367\230\357\330\247w\276e\341\367da\276_\300\003"
 409      D8A777BE 
 409      65E1F764 
 409      61BE5FC0 
 409      03
 410 0787 6307391F 		.ascii	"c\0079\037&\347\213\344|\211\234/\223\363g\344<H\316"
 410      26E78BE4 
 410      7C899C2F 
 410      93F367E4 
 410      3C48CE
ARM GAS  /tmp/ccQUTNDp.s 			page 32


 411 079a F3C840BA 		.ascii	"\363\310@\272\210\234\353\3119E\316o\221\363Ar\376?"
 411      889CEBC9 
 411      3945CE6F 
 411      91F34172 
 411      FE3F
 412 07ac 723E42CE 		.ascii	"r>B\316\335~\206\\n\366a\244|\353P\267\030S=]\226\215"
 412      DD7E865C 
 412      6EF661A4 
 412      7CEB50B7 
 412      18533D5D 
 413 07c2 8F4D2121 		.ascii	"\217M!!G\260\210\027\207\255\026\016\333\010"
 413      47B08817 
 413      87AD160E 
 413      DB08
 414 07d0 877B0833 		.ascii	"\207{\0103\307\254\236\032/\340\355\336Y\357\352\202"
 414      C7AC9E1A 
 414      2FE0EDDE 
 414      59EFEA82 
 415 07e0 DE77B2E3 		.ascii	"\336w\262\343\365o\247\207t\237\223\377\016cH?A:\313"
 415      F56FA787 
 415      749F93FF 
 415      0E63483F 
 415      413ACB
 416 07f3 D6103FA4 		.ascii	"\326\020?\2447\361\353\245\234\246\336\273B\002r\237"
 416      37F1EBA5 
 416      9CA6DEBB 
 416      4202729F 
 417 0803 4E79CC02 		.ascii	"Ny\314\002\234\231\334nar\007ar'a\262\327>\036\355&"
 417      9C99DC6E 
 417      61720761 
 417      722761B2 
 417      D73E1EED 
 418 0818 5A37A7B5 		.ascii	"Z7\247\265\376\314PU\350\213\311\277^\350\224fa&\375"
 418      FECC5055 
 418      E88BC9BF 
 418      5EE89466 
 418      6126FD
 419 082b 7DDC4BAD 		.ascii	"}\334K\255\352\300S\216\267\311k`o\310\3615\340\012"
 419      EAC0538E 
 419      B7C96B60 
 419      6FC8F135 
 419      E00A
 420 083d 81DD3ACF 		.ascii	"\201\335:\317\275\001R\365\364K\344y_\243\377\262\271"
 420      BD0152F5 
 420      F44BE479 
 420      5FA3FFB2 
 420      B9
 421 084e EEDFC7BC 		.ascii	"\356\337\307\274\336>\207\210\245\357\362\272\373\345"
 421      DE3E8788 
 421      A5EFF2BA 
 421      FBE5
 422 085c 08ADCDAE 		.ascii	"\010\255\315\256\371\2121\345{GL\277v\336\275\205\327"
 422      F98A31E5 
 422      7B474CBF 
 422      76DEBD85 
 422      D7
 423 086d 8E5B777F 		.ascii	"\216[w\177'=\3651\324\234\317]\015\263\272\261\303\262"
ARM GAS  /tmp/ccQUTNDp.s 			page 33


 423      273DF531 
 423      D49CCF5D 
 423      0DB3BAB1 
 423      C3B2
 424 087f 46F635F3 		.ascii	"F\3665\363\351\277\331\367\235-\272>J\026\336'\275\344"
 424      E9BFD9F7 
 424      9D2DBA3E 
 424      4A16DE27 
 424      BDE4
 425 0891 403EDF4B 		.ascii	"@>\337K\202\\'\011\332;I0\234\2760\347=\207\010J.~D"
 425      825C2709 
 425      DA3B4930 
 425      9CBE30E7 
 425      3D87084A 
 426 08a8 AC7EF42D 		.ascii	"\254~\364-y\267S\"\375\335\026\370\261\250\221u~]\320"
 426      79B75322 
 426      FDDD16F8 
 426      B1A89175 
 426      7E5DD0
 427 08bb C83BC18D 		.ascii	"\310;\301\215\324\213\342Xr%\221\237\307 \352\234yC"
 427      D48BE258 
 427      7225919F 
 427      C720EA9C 
 427      7943
 428 08cd 3D92859F 		.ascii	"=\222\205\237H\236\3211\030z\341\372\270\215\204\241"
 428      489ED131 
 428      187AE1FA 
 428      B88D84A1 
 429 08dd 8FC94B72 		.ascii	"\217\311Krn\330\316\020\267\276\302\252\335\314\272"
 429      6ED8CE10 
 429      B7BEC2AA 
 429      DDCCBA
 430 08ec 2216B824 		.ascii	"\"\026\270$^\3063\021-\013\373\340\320\377\370r\336"
 430      5EC63311 
 430      2D0BFBE0 
 430      D0FFF872 
 430      DE
 431 08fd 32D3E923 		.ascii	"2\323\351#3\235?\222w\322\005r\376\310>\3124\207}\214"
 431      339D3F92 
 431      77D20572 
 431      FEC83ECA 
 431      34877D8C 
 432 0911 329E337D 		.ascii	"2\2363}\233\356\315\226\261\355\0252\266\275J\306\266"
 432      9BEECD96 
 432      B1ED1532 
 432      B6BD4AC6 
 432      B6
 433 0922 B37EDE87 		.ascii	"\263~\336\207/\272\374\276\202\216JnR\237\211\316R\351"
 433      2FBAFCBE 
 433      828E4A6E 
 433      529F89CE 
 433      52E9
 434 0934 5FA9D01D 		.ascii	"_\251\320\035w&\377SC\276\200\311_\023s\375\375\310"
 434      7726FF53 
 434      43BE80C9 
 434      5F1373FD 
 434      FDC8
ARM GAS  /tmp/ccQUTNDp.s 			page 34


 435 0946 75D1F9F7 		.ascii	"u\321\371\367#\303\262\370w5\213\245XmW\332R\373\302"
 435      23C3B2F8 
 435      77358BA5 
 435      586D57DA 
 435      52FBC2
 436 0959 1003DCC8 		.ascii	"\020\003\334\310\331\324\001\027S\245,\246~\236\033"
 436      D9D40117 
 436      53A52CA6 
 436      7E9E1B
 437 0968 A99DA6A9 		.ascii	"\251\235\246\251\343\031\300\315\234M\035t1u\\\026S"
 437      E319C0CD 
 437      9C4D1D74 
 437      31755C16 
 437      53
 438 0979 BF489B7A 		.ascii	"\277H\233z7\372\215~\364R\337\262M\037\\\020\352a\035"
 438      37FA8D7E 
 438      F452DFB2 
 438      4D1F5C10 
 438      EA611D
 439 098c A45FC2A3 		.ascii	"\244_\302\243\024\355\251\":\306u\347{\321:]o\320\177"
 439      14EDA922 
 439      3AC675E7 
 439      7BD13A5D 
 439      6FD07F
 440 099f AD3C650C 		.ascii	"\255<e\014\211\177$-t\351nGe\264\225!\326\213\305\202"
 440      897F242D 
 440      74E96E47 
 440      65B49521 
 440      D68BC582 
 441 09b3 58EACF59 		.ascii	"X\352\317Y\244\350 \3645\264\001\323\370\306{?~\212"
 441      A4E820F4 
 441      35B401D3 
 441      F8C67B3F 
 441      7E8A
 442 09c5 7D6B7697 		.ascii	"}kv\227a\236\315\222l\277\222\304\336\245.\245V\366"
 442      619ECD92 
 442      6CBF92C4 
 442      DEA52EA5 
 442      56F6
 443 09d7 2C8691BF 		.ascii	",\206\221\277.588\011q\343\244\3137p\2145_\032\313\256"
 443      2E353838 
 443      0971E3A4 
 443      CB37708C 
 443      355F1ACB 
 444 09ec 8CB15044 		.ascii	"\214\261PD\037q\2040#\341xI\227\010\032n?\017\214\264"
 444      1F718430 
 444      23E17849 
 444      97081A6E 
 444      3F0F8CB4 
 445 0a00 1CB2F0AC 		.ascii	"\034\262\360\254\243Y\015=\205Kg\365\015\016\336Mu\211"
 445      A3590D3D 
 445      854B67F5 
 445      0D0EDE4D 
 445      7589
 446 0a12 68D6303F 		.ascii	"h\3260?\350\013y\364E\216\350\247\016r\350\313}\241"
 446      E80B79F4 
 446      458EE8A7 
ARM GAS  /tmp/ccQUTNDp.s 			page 35


 446      0E72E8CB 
 446      7DA1
 447 0a24 2FE6D197 		.ascii	"/\346\321\2278\242_\353\340\320_\364\205^\317\24378"
 447      38A25FEB 
 447      E0D05FF4 
 447      855ECFA3 
 447      3738
 448 0a36 A25F3AB8 		.ascii	"\242_:\270(\237\302\373\017W\243C\270v;\033\265\324"
 448      289FC2FB 
 448      0F57A343 
 448      B8763B1B 
 448      B5D4
 449 0a48 6ED472DE 		.ascii	"n\324r\336\250\025NF\351\333u=\254\303K\034\377.\217"
 449      A8154E46 
 449      E9DB753D 
 449      ACC34B1C 
 449      FF2E8F
 450 0a5b FA7CC297 		.ascii	"\372|\302\227\317M<\374\363\216>/}3w\237\233\035|\376"
 450      CF4D3CFC 
 450      F38E3E2F 
 450      7D33779F 
 450      9B1D7CFE 
 451 0a6f 8B2F9F57 		.ascii	"\213/\237W\362F\255\362\351\363\274\002?>\267\360\360"
 451      F246ADF2 
 451      E9F3BC02 
 451      3F3EB7F0 
 451      F0
 452 0a80 AB33E1FB 		.ascii	"\2533\341\373\226\366]\337\335\377\315\246\355\372\234"
 452      96F65DDF 
 452      DDFFCDA6 
 452      EDFA9C
 453 0a8f 67F59B83 		.ascii	"g\365\233\2033\005\233\337\371h\036\371\364\363+}\226"
 453      33059BDF 
 453      F9681EF9 
 453      F4F32B7D 
 453      96
 454 0aa0 F00B7328 		.ascii	"\360\013s(s\375\241\344z)\037\214k-p\372U 1\0007\300"
 454      73FDA1E4 
 454      7A291F8C 
 454      6B2D70FA 
 454      55203100 
 455 0ab6 0796A7D7 		.ascii	"\007\226\247\327\306\225\307\207\315u\0227U\302\355"
 455      C695C787 
 455      CD751237 
 455      55C2ED
 456 0ac5 CD1BF6D1 		.ascii	"\315\033\366\321\3316W\022\321\276\014\202h\243\215"
 456      D9365712 
 456      D1BE0C82 
 456      68A38D
 457 0ad4 8E0C2CD9 		.ascii	"\216\014,\331\362\226\360\274\376\2739@\362L~l\362\230"
 457      F296F0BC 
 457      FEBB3940 
 457      F24C7E6C 
 457      F298
 458 0ae6 C36DE20D 		.ascii	"\303m\342\015\303\023\001v\303\346\267\372\\\375\376"
 458      C3130176 
 458      C3E6B7FA 
ARM GAS  /tmp/ccQUTNDp.s 			page 36


 458      5CFDFE
 459 0af5 97D2F3DB 		.ascii	"\227\322\363\333Q\006\204\210,{Y\273&\220\217f\257J"
 459      51068488 
 459      2C7B59BB 
 459      26908F66 
 459      AF4A
 460 0b07 B8FE1067 		.ascii	"\270\376\020g\271\177\240\266\025\257O$@\333\010\320"
 460      B97FA0B6 
 460      15AF4F24 
 460      40DB08D0 
 461 0b17 89027E9E 		.ascii	"\211\002~\236,q\363d\311>O\226\302\351\213\301A\011"
 461      2C71F364 
 461      C93E4F96 
 461      C2E98BC1 
 461      4109
 462 0b29 E5DC988B 		.ascii	"\345\334\230\213\301y\227\030\354p\216\301\253\355\256"
 462      C1799718 
 462      EC708EC1 
 462      ABEDAE
 463 0b38 31F0E87C 		.ascii	"1\360\350|\273<b\300^|\031\206]w1\254\325\311\260TO"
 463      BB3C62C0 
 463      5E7C1986 
 463      5D7731AC 
 463      D5C9B054 
 464 0b4d D7225DC8 		.ascii	"\327\"]\310uLh\343\315\302\263=\336,\363\376c\321)\207"
 464      754C68E3 
 464      CDC2B33D 
 464      DE2CF3FE 
 464      63D12987 
 465 0b61 EB0B9DCD 		.ascii	"\353\013\235\315\334\347h\346\315\241\230\331\356\311"
 465      DCE768E6 
 465      CDA198D9 
 465      EEC9
 466 0b6f DE2427AB 		.ascii	"\336$'\253\326\272X\265\337\321\252\313C\261\252\303"
 466      D6BA58B5 
 466      DFD1AACB 
 466      43B1AAC3 
 467 0b7f 87555942 		.ascii	"\207UYB\274\303\305\312.G+\337\036\212\225\207<C\354"
 467      BCC3C5CA 
 467      2E472BDF 
 467      1E8A9587 
 467      3C43EC
 468 0b92 C8DD4117 		.ascii	"\310\335A\027\253\2168Zu\272k\321x}\215\343\204\311"
 468      AB8E385A 
 468      75BA6BD1 
 468      787D8DE3 
 468      84C9
 469 0ba4 6350EA76 		.ascii	"cP\352v2\213\263\343\204\213\035\307\034\355\350]\340"
 469      328BB3E3 
 469      848B1DC7 
 469      1CEDE85D 
 469      E0
 470 0bb5 6A87073D 		.ascii	"j\207\007=\275>\350\311\022\304w\\\314<m7\363\036\264"
 470      BD3EE8C9 
 470      12C4775C 
 470      CC3C6D37 
 470      F31EB4
ARM GAS  /tmp/ccQUTNDp.s 			page 37


 471 0bc8 464F1DED 		.ascii	"FO\035\355k\330\324\035\302\373F\272>08(\010\306\357"
 471      6BD8D41D 
 471      C2FB46BA 
 471      3E303828 
 471      08C6EF
 472 0bdb D52F9B20 		.ascii	"\325/\233 \314\322\314\337\242\237ex\217\240\327\364"
 472      CCD2CCDF 
 472      A29F6578 
 472      8FA0D7F4 
 473 0beb F9A90895 		.ascii	"\371\251\010\225\244+@\263j\013\251\332i\255\242_\356"
 473      A42B40B3 
 473      6A0BA9DA 
 473      69ADA25F 
 473      EE
 474 0bfc F06EE27F 		.ascii	"\360n\342\177\241\317\365|n\351\267\313\343+f\237dN"
 474      A1CFF57C 
 474      6EE9B7CB 
 474      E32B669F 
 474      644E
 475 0c0e FD1F4013 		.ascii	"\375\037@\023h[rA\265\234\221\356a\352Y\373\235Bz\025"
 475      685B7241 
 475      B59C91EE 
 475      61EA59FB 
 475      9D427A15 
 476 0c22 4A772E89 		.ascii	"Jw.\211F\012\2243\002\242[vl\267\2202 \032~\225\320"
 476      460A9433 
 476      02A25B76 
 476      6CB79032 
 476      201A7E95 
 477 0c37 452B5D7B 		.ascii	"E+]{\343&t\367\207\256\302\331&J\000\321\3458\276\275"
 477      E32674F7 
 477      87AEC2D9 
 477      264A00D1 
 477      E538BEBD 
 478 0c4b 62AC6268 		.ascii	"b\254bh\024R\347\202\235\272\216S\305\330\222\273\312"
 478      1452E782 
 478      9DBA8E53 
 478      C5D892BB 
 478      CA
 479 0c5c F39FB101 		.ascii	"\363\237\261\001\367\276\215\376\241\032\300\364\377"
 479      F7BE8DFE 
 479      A11AC0F4 
 479      FF
 480 0c69 61431816 		.ascii	"aC\030\0269d\001E\327\235\"\272\301[\220\271@\375K:"
 480      39640145 
 480      D79D22BA 
 480      C15B90B9 
 480      40FD4B3A 
 481 0c7d A330CEEA 		.ascii	"\2430\316\352\206\276k\273\373\037 \257##\233\310\222"
 481      86BE6BBB 
 481      FB1F20AF 
 481      23239BC8 
 481      92
 482 0c8e 69F6700E 		.ascii	"i\366p\016*#\264\037\333\221\266\246`U\327\377\303\335"
 482      2A23B41F 
 482      DB91B6A6 
 482      6055D7FF 
ARM GAS  /tmp/ccQUTNDp.s 			page 38


 482      C3DD
 483 0ca0 F0027F16 		.ascii	"\360\002\177\026\357\323\012\203Rz\325lfL\312\262g\010"
 483      EFD30A83 
 483      527AD56C 
 483      664CCAB2 
 483      6708
 484 0cb2 1D2BCB47 		.ascii	"\035+\313GV\230\260u\217\303\373\306Y?\312\312\302e"
 484      5698B075 
 484      8FC3FBC6 
 484      593FCACA 
 484      C265
 485 0cc4 E93EA74D 		.ascii	"\351>\247M\320L\006>\221\270\235\310\033J\204\326f\337"
 485      D04C063E 
 485      91B89DC8 
 485      1B4A84D6 
 485      66DF
 486 0cd6 89FCE28B 		.ascii	"\211\374\342\213N\272\023y\205|\030\370\224l\245c\321"
 486      4EBA1379 
 486      857C18F8 
 486      946CA563 
 486      D1
 487 0ce7 A16D110E 		.ascii	"\241m\021\016~@\340\270\376\204'\276n\244_\223\270\235"
 487      7E40E0B8 
 487      FE8427BE 
 487      6EA45F93 
 487      B89D
 488 0cf9 A9E7489C 		.ascii	"\251\347H\234r1!b3ai\007\371 \201qE\264\314\017\230"
 488      72312162 
 488      33616907 
 488      F9208171 
 488      45B4CC0F 
 489 0d0e C7C7F406 		.ascii	"\307\307\364\006+Xs\316`\021\216tc\233\352S\011oS}&"
 489      2B5873CE 
 489      60118E74 
 489      639BEA53 
 489      096F537D 
 490 0d23 E16DAAAB 		.ascii	"\341m\252\253\344\37499\017H\266\215\262\365\303\371"
 490      E4FC3939 
 490      0F48B68D 
 490      B2F5C3F9 
 491 0d33 69200DAA 		.ascii	"i \015\252\005/\035{\224\035\3219\006\\\260\372]\374"
 491      052F1D7B 
 491      941DD139 
 491      065CB0FA 
 491      5DFC
 492 0d45 23FB2592 		.ascii	"#\373%\222\355\307,\3105)\255\333KX\3105w\365\300hv"
 492      EDC72CC8 
 492      3529ADDB 
 492      4B58C835 
 492      77F5C068 
 493 0d5a 3560FD5E 		.ascii	"5`\375^b\271\025\321\026\276\347f\302\314\012\210\350"
 493      62B915D1 
 493      16BEE766 
 493      C2CC0A88 
 493      E8
 494 0d6b CBA87DF8 		.ascii	"\313\250}\370*\235\362O\307\243\307d\341\257\320g\315"
 494      2A9DF24F 
ARM GAS  /tmp/ccQUTNDp.s 			page 39


 494      C7A3C764 
 494      E1AFD067 
 494      CD
 495 0d7c C8E291B7 		.ascii	"\310\342\221\267I\207^}\375\207\022\265\013\367\363"
 495      49875E7D 
 495      FD8712B5 
 495      0BF7F3
 496 0d8b A3475327 		.ascii	"\243GS'\311\1772\201\216~\023\006\014J\201\210\316f"
 496      C97F3281 
 496      8E7E1306 
 496      0C4A8188 
 496      CE66
 497 0d9d 573B3720 		.ascii	"W;7 \332\325\365\223p\3400P]0\021\020\374lf5\231\377"
 497      DAD5F593 
 497      70E03050 
 497      5D301110 
 497      FC6C6635 
 498 0db3 71E1AB0C 		.ascii	"q\341\253\014zA \327\315\254\205\001\347\315\254{<\243"
 498      7A4120D7 
 498      CDAC8501 
 498      E7CDAC7B 
 498      3CA3
 499 0dc5 2F0BCF06 		.ascii	"/\013\317\006\314\240~\031\275\017\0246=\226VO\263\011"
 499      CCA07E19 
 499      BD0F1436 
 499      3D96564F 
 499      B309
 500 0dd7 3B335F4F 		.ascii	";3_O\235\031f\364W\266\015A\263\014\343]\223\350H?\220"
 500      9D1966F4 
 500      57B60D41 
 500      B30CE35D 
 500      93E8483F 
 501 0dec 6E7DCE6C 		.ascii	"n}\316lm]\3142+\004\203\240\206\333l\221Xu\304!\022"
 501      6D5DCC32 
 501      2B0483A0 
 501      86DB6C91 
 501      5875C421 
 502 0e01 8B46648D 		.ascii	"\213Fd\215D}\326H\264\034\361\025\211S\222\001\375]"
 502      447DD648 
 502      B41CF115 
 502      89539201 
 502      FD5D
 503 0e13 06DD9873 		.ascii	"\006\335\230s$V\270D\342;Y\"\261\334\032\211\347G\320"
 503      2456B844 
 503      E23B5922 
 503      B1DC1A89 
 503      E747D0
 504 0e26 48343A45 		.ascii	"H4:Eb\353H\203\333\305>\"\261\303l\335\224\031\011\321"
 504      62EB4883 
 504      DBC53E22 
 504      B1C36CDD 
 504      941909D1 
 505 0e3a 20A8C91E 		.ascii	" \250\311\036\211}=\016\221\350\315\036\211\346\254"
 505      897D3D0E 
 505      91E8CD1E 
 505      89E6AC
 506 0e49 91E8EEF1 		.ascii	"\221\350\356\361\025\211\367M\350/1\350\3259Gb\215K"
ARM GAS  /tmp/ccQUTNDp.s 			page 40


 506      1589F74D 
 506      E82F31E8 
 506      D5394762 
 506      8D4B
 507 0e5b 24EECA12 		.ascii	"$\356\312\022\211\026k$\336a\221X\355\024\211\2361\006"
 507      89166B24 
 507      DE619158 
 507      ED14899E 
 507      3106
 508 0e6d B70B7D44 		.ascii	"\267\013}D\342\204\331z^f$h\346\031c,7,\007\335\235"
 508      E284D97A 
 508      5E662468 
 508      E619632C 
 508      372C07DD 
 509 0e82 DC1070FB 		.ascii	"\334\020p\373\206\261\311\343\305\373\202\253\324:\017"
 509      86B1C9E3 
 509      C5FB82AB 
 509      D43A0F
 510 0e91 A9175DA5 		.ascii	"\251\027]\245vyH\275\344*\325\346!\265\321U\312\362"
 510      767948BD 
 510      E42AD5E6 
 510      21B5D155 
 510      CAF2
 511 0ea3 C52243EA 		.ascii	"\305\"C\352eW\251v\017]\233\\\245:<\2446\273J5zH\275"
 511      6557A976 
 511      0F5D9B5C 
 511      A53A3CA4 
 511      36BB4A35 
 512 0eba E22A75C8 		.ascii	"\342*u\310C\352UW\251n\017\251-\256R\275\036R[]\245"
 512      43EA5557 
 512      A96E0FA9 
 512      2DAE52BD 
 512      1E525B5D 
 513 0ecf 9A3DA4B6 		.ascii	"\232=\244\266\245\245P V!\253EEE\305\364_\"Y\034KTW"
 513      A5A55020 
 513      5621AB45 
 513      4545C5F4 
 513      5F22591C 
 514 0ee6 27E27055 		.ascii	"'\342pUU\371Lqe<VU[\246\024\307*\252\225\352\232D\242"
 514      55F94C71 
 514      653C5655 
 514      5BA614C7 
 514      2AAA95EA 
 515 0efd 2A595481 		.ascii	"*YT\201\356(\257\225\3252\245,\012u\011uF\024\327G\265"
 515      EE28AF95 
 515      D532A52C 
 515      0A750975 
 515      4614D747 
 516 0f12 BC27FFF9 		.ascii	"\274'\377\371'\221\311\350n+\226\252Y\020\222J5\010"
 516      2791C9E8 
 516      6E2B96AA 
 516      5910924A 
 516      3508
 517 0f24 17C01FB9 		.ascii	"\027\300\037\271\246\"\241*Q\2550V\0215o\357u\027\234"
 517      A622A12A 
 517      51AD3056 
 517      11356FEF 
ARM GAS  /tmp/ccQUTNDp.s 			page 41


 517      75179C
 518 0f37 91D466D4 		.ascii	"\221\324f\324(X\365H\255BU\344\262d\364\027\265J- \214"
 518      2858F548 
 518      AD4255E4 
 518      B264F417 
 518      B54A2D20 
 519 0f4c 02045B55 		.ascii	"\002\004[U\304\035%VQ\006\010\371\264yT\013\233\242"
 519      C41D2556 
 519      510608F9 
 519      B479540B 
 519      9BA2
 520 0f5e 412239D1 		.ascii	"A\"9\321\201\204\232\204\252%\213\037\377\327\247'?"
 520      81849A84 
 520      AA258B1F 
 520      FFD7A727 
 520      3F
 521 0f6f 3D1DD7D5 		.ascii	"=\035\327\325TV)j\262\370\311\311\223\001\320\260)\244"
 521      5456296A 
 521      B2F8C9C9 
 521      9301D0B0 
 521      29A4
 522 0f81 D5A89589 		.ascii	"\325\250\225\211\250\366\037\305\025\211j\245X\256R"
 522      A8F61FC5 
 522      15896AA5 
 522      58AE52
 523 0f90 A6173FAD 		.ascii	"\246\027?\255\304\265\204\372\244\012\256U\306\222\305"
 523      C4B584FA 
 523      A40AAE55 
 523      C692C5
 524 0f9f FF       		.ascii	"\377"
 525 0fa0 96A85563 		.ascii	"\226\250Uc\012P59Q\246<\241\304A\365\217*5%:%\241F\001"
 525      0A503539 
 525      51A63CA1 
 525      C441F58F 
 525      2A35253A 
 526 0fb8 3DFA8F8F 		.ascii	"=\372\217\217?\361\203bY\255~0\236\210+\017*\3623\225"
 526      3FF18362 
 526      59AD7E30 
 526      9E882B0F 
 526      2AF23395 
 527 0fcc A6E149AD 		.ascii	"\246\341I\255\2542\256a\303k\341\357\303\017E\265\000"
 527      AC32AE61 
 527      C36BE1EF 
 527      C30F45B5 
 527      00
 528 0fdd 5657884D 		.ascii	"VW\210M\213\306\022qM\231\256}#\253\351\0251`\030\263"
 528      8BC61271 
 528      4D99AE7D 
 528      23ABE915 
 528      316018B3 
 529 0ff1 4FC40028 		.ascii	"O\304\000(\246M\177\320\237Tt\352\267p\334"
 529      A64D7FD0 
 529      9F5474EA 
 529      B770DC
 530 1000 F255A51C 		.ascii	"\362U\245\034,\214j\242\372\210\250\376\275\250>*\252"
 530      2C8C6AA2 
 530      FA88A8FE 
ARM GAS  /tmp/ccQUTNDp.s 			page 42


 530      BDA83E2A 
 530      AA
 531 1011 DF12D589 		.ascii	"\337\022\325\211\242\372mI--\201R*V\251b\262F\002\350"
 531      A2FA6D49 
 531      2D2D8152 
 531      2A56A962 
 531      B24602E8 
 532 1025 605C99A6 		.ascii	"`\\\231\246\250\301DU\231\242\006\342r\2652,\251\375"
 532      A8C14455 
 532      99A206E2 
 532      72B5322C 
 532      A9FD
 533 1037 5CAEAA2C 		.ascii	"\\\256\252,\217G5\342\307\243\217@\302L\223\237\221"
 533      8F4735E2 
 533      C7A38F40 
 533      C24C939F 
 533      91
 534 1048 934ABE96 		.ascii	"\223J\276\226\324d\340B\013\341\007\023\243Z\220\334"
 534      D464E042 
 534      0BE10713 
 534      A35A90DC 
 535 1058 87B46AE0 		.ascii	"\207\264j\340\012\356\246T\311\345\311\220\246*S\222"
 535      0AEEA654 
 535      C9E5C990 
 535      A62A5392 
 536 1068 E03BFE13 		.ascii	"\340;\376\023\254N\226CsFG\236Z6\003*\362\225\351\225"
 536      AC4E9643 
 536      7346479E 
 536      5A36032A 
 536      F295E995 
 537 107c 5A0C44F2 		.ascii	"Z\014D\362\246i\211g\376\263f\014\2133\010(*0\216\241"
 537      A6698967 
 537      FEB3660C 
 537      8B330828 
 537      2A308EA1 
 538 1090 A6699A5A 		.ascii	"\246i\232Z\023JBl@\000\332A\356\325\344C,\252k\201E"
 538      134A426C 
 538      4000DA41 
 538      EED5E443 
 538      2CAA6B81 
 539 10a5 F7C4ADD6 		.ascii	"\367\304\255\326\246\003\001\301\304\264\270\242\206"
 539      A60301C1 
 539      C4B4B8A2 
 539      86
 540 10b2 485B3024 		.ascii	"H[0$\016\274\003\004<\253)P\246bH9\371s\260F\231\206"
 540      0EBC0304 
 540      3CAB2950 
 540      A6624839 
 540      F973B046 
 541 10c8 2F84DA11 		.ascii	"/\204\332\021FZVU&\265\2506\322\222\250\270&4M\256\324"
 541      465A5655 
 541      26B5A836 
 541      D292A8B8 
 541      26344DAE 
 542 10dd 2AE3E5F9 		.ascii	"*\343\345\371`\011I\277|\245F\211C\250\313C\000\211"
 542      600949BF 
 542      7CA54689 
ARM GAS  /tmp/ccQUTNDp.s 			page 43


 542      43A8CB43 
 542      0089
 543 10ef 5B00E172 		.ascii	"[\000\341r\025\016u\220t<\210\27225\030\213\003\226"
 543      150E7590 
 543      743C88BA 
 543      3235188B 
 543      0396
 544 1101 0467096C 		.ascii	"\004g\011l\037n\353\177\005\344O\005hP\324\252[LE\334"
 544      1F6EEB7F 
 544      05E44F05 
 544      6850D4AA 
 544      5B4C45DC 
 545 1115 F5CB6331 		.ascii	"\365\313c1.%\037)\232XTjM\3142e\012\020\223\227\254"
 545      2E251F29 
 545      9A58546A 
 545      4DCC3265 
 545      0A109397 
 546 112a FC25B05B 		.ascii	"\374%\260[\000\254+1-\212\357\234R\313a@aIY\010\227"
 546      00AC2B31 
 546      2D8AEF9C 
 546      52CB6140 
 546      61495908 
 547 113f E58A36A5 		.ascii	"\345\2126\2456\036\203\364\250Q\023S+q\336`\177JM M"
 547      361E83F4 
 547      A8511353 
 547      2B71DE60 
 547      7F4A4D20 
 548 1154 496A382C 		.ascii	"Ij8,Ib?\275\305'\030@\200?\034\337\222\322\222\242\030"
 548      49623FBD 
 548      C5271840 
 548      803F1CDF 
 548      92D292A2 
 549 1169 1A1EAFAD 		.ascii	"\032\036\257\255\252\212\232 \330\232 \311\274\333I"
 549      AA8A9A20 
 549      D89A20C9 
 549      BCDB49
 550 1178 6B68142D 		.ascii	"kh\024-)y8\252LWb\020\3111\266\312\244\242\325\326X"
 550      297938AA 
 550      4C576210 
 550      C931B6CA 
 550      A4A2D5D6 
 551 118d AB1ECAAC 		.ascii	"\253\036\312\254*\245Uw\332Z1\264\242\032Y\325\212J"
 551      2AA55577 
 551      DA5A31B4 
 551      A21A59D5 
 551      8A4A
 552 119f 6E777A76 		.ascii	"nwzv\247\015\303&Pz\273\323\263\273\354\256c\362p\016"
 552      A70DC326 
 552      507ABBD3 
 552      B3BBECAE 
 552      63F2700E 
 553 11b3 C1354EC6 		.ascii	"\3015N\306\350\023\300N!\271\215\312\311\244\242ja<"
 553      E813C04E 
 553      21B98DCA 
 553      C9A4A26A 
 553      613C
 554 11c5 4C56562B 		.ascii	"LVV+\254\207\225>\032\325\306\307*\236\244C\365\217"
ARM GAS  /tmp/ccQUTNDp.s 			page 44


 554      AC87953E 
 554      1AD5C6C7 
 554      2A9EA443 
 554      F58F
 555 11d7 A1F5E355 		.ascii	"\241\365\343UU\211\330\277C\213D\255\366w\266'\377B"
 555      5589D8BF 
 555      438B44AD 
 555      F677B627 
 555      FF42
 556 11e9 22F78378 		.ascii	"\"\367\203x%\036O\355\025\243m\015\377IU\224\261\266"
 556      251E4FED 
 556      15A36D0D 
 556      FF495594 
 556      B1B6
 557 11fb 9A1F25E4 		.ascii	"\232\037%\344\262\307UU\2361\214J\342\026\005\364\222"
 557      B2C75555 
 557      9E318C4A 
 557      E21605F4 
 557      92
 558 120c E81B49AF 		.ascii	"\350\033I\257\315f\201\362\352\232R\011J\210\246K2L"
 558      CD6681F2 
 558      EA9A5209 
 558      4A88A64B 
 558      324C
 559 121e 83A82935 		.ascii	"\203\250)5ABl\276\246\0008\364\265\020\343a\030n\020"
 559      41426CBE 
 559      A60038F4 
 559      B510E361 
 559      186E10
 560 1231 838122AA 		.ascii	"\203\201\"\252\215\316\010\370\370\"5Q&krQ\306\223B"
 560      8DCE08F8 
 560      F8223551 
 560      266B7251 
 560      C69342
 561 1244 2BA75FC5 		.ascii	"+\247_\305\372\241oE\344xY\004:\2756\203\334Dh\007\212"
 561      FAA16F45 
 561      E4785904 
 561      3ABD3683 
 561      DC446807 
 562 1259 E04C4356 		.ascii	"\340LCV\201\207\276\353\"\300\336|V\301\310\264J\255"
 562      8187BEEB 
 562      22C0DE7C 
 562      56C1C8B4 
 562      4AAD
 563 126b 02288DB0 		.ascii	"\002(\215\260\036m\003z\370K\214\253\310\323T\002\223"
 563      1E6D037A 
 563      F84B8CAB 
 563      C8D35402 
 563      93
 564 127c 918C6834 		.ascii	"\221\214h4\012\350\377\001\341\023p\347"
 564      0AE8FF01 
 564      E11370E7 
 565              		.text
 566              		.section	.gnu.lto_.symtab.9d0686ebbd798dd2,"",%progbits
 567 0000 74657374 		.ascii	"test_sequence_010\000\000\000\000\000\000\000\000\000"
 567      5F736571 
 567      75656E63 
ARM GAS  /tmp/ccQUTNDp.s 			page 45


 567      655F3031 
 567      30000000 
 568 001a 000000EE 		.ascii	"\000\000\000\356\001\000\000test_step\000\000\002\000"
 568      01000074 
 568      6573745F 
 568      73746570 
 568      00000200 
 569 002e 00000000 		.ascii	"\000\000\000\000\000\000\000\000\354\001\000\000_te"
 569      00000000 
 569      EC010000 
 569      5F7465
 570 003d 73745F61 		.ascii	"st_assert\000\000\002\000\000\000\000\000\000\000\000"
 570      73736572 
 570      74000002 
 570      00000000 
 570      00000000 
 571 0051 00A20100 		.ascii	"\000\242\001\000\000chGuardedPoolAllocTimeout\000\000"
 571      00636847 
 571      75617264 
 571      6564506F 
 571      6F6C416C 
 572 0071 02000000 		.ascii	"\002\000\000\000\000\000\000\000\000\000\252\001\000"
 572      00000000 
 572      0000AA01 
 572      00
 573 007e 00636847 		.ascii	"\000chGuardedPoolObjectInit\000\000\002\000\000\000"
 573      75617264 
 573      6564506F 
 573      6F6C4F62 
 573      6A656374 
 574 009c 00000000 		.ascii	"\000\000\000\000\000\000\265\001\000\000chPoolObjec"
 574      0000B501 
 574      00006368 
 574      506F6F6C 
 574      4F626A65 
 575 00b1 74496E69 		.ascii	"tInit\000\000\002\000\000\000\000\000\000\000\000\000"
 575      74000002 
 575      00000000 
 575      00000000 
 575      00
 576 00c2 BA010000 		.ascii	"\272\001\000\000chGuardedPoolFree\000\000\002\000\000"
 576      63684775 
 576      61726465 
 576      64506F6F 
 576      6C467265 
 577 00dc 00000000 		.ascii	"\000\000\000\000\000\000\000\300\001\000\000chGuard"
 577      000000C0 
 577      01000063 
 577      68477561 
 577      7264
 578 00ee 6564506F 		.ascii	"edPoolLoadArray\000\000\002\000\000\000\000\000\000"
 578      6F6C4C6F 
 578      61644172 
 578      72617900 
 578      00020000 
 579 0106 000000C5 		.ascii	"\000\000\000\305\001\000\000chPoolFree\000\000\002\000"
 579      01000063 
ARM GAS  /tmp/ccQUTNDp.s 			page 46


 579      68506F6F 
 579      6C467265 
 579      65000002 
 580 011b 00000000 		.ascii	"\000\000\000\000\000\000\000\000\313\001\000\000chP"
 580      00000000 
 580      CB010000 
 580      636850
 581 012a 6F6F6C41 		.ascii	"oolAlloc\000\000\002\000\000\000\000\000\000\000\000"
 581      6C6C6F63 
 581      00000200 
 581      00000000 
 581      000000
 582 013d 00D00100 		.ascii	"\000\320\001\000\000chPoolLoadArray\000\000\002\000"
 582      00636850 
 582      6F6F6C4C 
 582      6F616441 
 582      72726179 
 583 0155 00000000 		.ascii	"\000\000\000\000\000\000\000\000\324\001\000\000"
 583      00000000 
 583      D4010000 
 584              		.text
 585              		.section	.gnu.lto_.opts,"",%progbits
 586 0000 272D6D63 		.ascii	"'-mcpu=cortex-m3' '-mno-thumb-interwork' '-mthumb' "
 586      70753D63 
 586      6F727465 
 586      782D6D33 
 586      2720272D 
 587 0033 272D6767 		.ascii	"'-ggdb' '-O2' '-fomit-frame-pointer' '-falign-funct"
 587      64622720 
 587      272D4F32 
 587      2720272D 
 587      666F6D69 
 588 0066 696F6E73 		.ascii	"ions=16' '-ffunction-sections' '-fdata-sections' '-"
 588      3D313627 
 588      20272D66 
 588      66756E63 
 588      74696F6E 
 589 0099 666E6F2D 		.ascii	"fno-common' '-flto'\000"
 589      636F6D6D 
 589      6F6E2720 
 589      272D666C 
 589      746F2700 
 590              		.text
 591              		.cfi_sections	.debug_frame
 592              		.section	.text.null_provider,"ax",%progbits
 593              		.align	2
 594              		.p2align 4,,15
 595              		.thumb
 596              		.thumb_func
 597              		.type	null_provider, %function
 598              	null_provider:
 599              	.LFB217:
 600              		.file 1 "../../../test/rt/source/test/test_sequence_010.c"
 601              		.loc 1 61 0
 602              		.cfi_startproc
 603              		@ args = 0, pretend = 0, frame = 0
 604              		@ frame_needed = 0, uses_anonymous_args = 0
ARM GAS  /tmp/ccQUTNDp.s 			page 47


 605              		@ link register save eliminated.
 606              	.LVL0:
 607              		.loc 1 67 0
 608 0000 0020     		movs	r0, #0
 609              	.LVL1:
 610 0002 7047     		bx	lr
 611              		.cfi_endproc
 612              	.LFE217:
 613              		.size	null_provider, .-null_provider
 614 0004 AFF30080 		.section	.text.test_010_003_execute,"ax",%progbits
 614      AFF30080 
 614      AFF30080 
 615              		.align	2
 616              		.p2align 4,,15
 617              		.thumb
 618              		.thumb_func
 619              		.type	test_010_003_execute, %function
 620              	test_010_003_execute:
 621              	.LFB223:
 622              		.loc 1 261 0
 623              		.cfi_startproc
 624              		@ args = 0, pretend = 0, frame = 0
 625              		@ frame_needed = 0, uses_anonymous_args = 0
 626 0000 08B5     		push	{r3, lr}
 627              		.cfi_def_cfa_offset 8
 628              		.cfi_offset 3, -8
 629              		.cfi_offset 14, -4
 630              		.loc 1 267 0
 631 0002 40F20000 		movw	r0, #:lower16:.LANCHOR0
 632              		.loc 1 265 0
 633 0006 40F20003 		movw	r3, #:lower16:test_step
 634 000a C0F20003 		movt	r3, #:upper16:test_step
 635 000e 0122     		movs	r2, #1
 636              		.loc 1 267 0
 637 0010 4FF47A71 		mov	r1, #1000
 638 0014 C0F20000 		movt	r0, #:upper16:.LANCHOR0
 639              		.loc 1 265 0
 640 0018 1A60     		str	r2, [r3]
 641              		.loc 1 267 0
 642 001a FFF7FEFF 		bl	chGuardedPoolAllocTimeout
 643              	.LVL2:
 644              		.loc 1 269 0
 645 001e BDE80840 		pop	{r3, lr}
 646              		.loc 1 267 0
 647 0022 40F20001 		movw	r1, #:lower16:.LC0
 648 0026 D0F10100 		rsbs	r0, r0, #1
 649 002a 38BF     		it	cc
 650 002c 0020     		movcc	r0, #0
 651 002e C0F20001 		movt	r1, #:upper16:.LC0
 652 0032 FFF7FEBF 		b	_test_assert
 653              	.LVL3:
 654              		.cfi_endproc
 655              	.LFE223:
 656              		.size	test_010_003_execute, .-test_010_003_execute
 657 0036 00BFAFF3 		.section	.text.test_010_003_setup,"ax",%progbits
 657      0080AFF3 
 657      0080
ARM GAS  /tmp/ccQUTNDp.s 			page 48


 658              		.align	2
 659              		.p2align 4,,15
 660              		.thumb
 661              		.thumb_func
 662              		.type	test_010_003_setup, %function
 663              	test_010_003_setup:
 664              	.LFB222:
 665              		.loc 1 257 0
 666              		.cfi_startproc
 667              		@ args = 0, pretend = 0, frame = 0
 668              		@ frame_needed = 0, uses_anonymous_args = 0
 669              		@ link register save eliminated.
 670              		.loc 1 258 0
 671 0000 40F20000 		movw	r0, #:lower16:.LANCHOR0
 672 0004 C0F20000 		movt	r0, #:upper16:.LANCHOR0
 673 0008 0421     		movs	r1, #4
 674 000a FFF7FEBF 		b	chGuardedPoolObjectInit
 675              	.LVL4:
 676              		.cfi_endproc
 677              	.LFE222:
 678              		.size	test_010_003_setup, .-test_010_003_setup
 679 000e 00BF     		.section	.text.test_010_002_setup,"ax",%progbits
 680              		.align	2
 681              		.p2align 4,,15
 682              		.thumb
 683              		.thumb_func
 684              		.type	test_010_002_setup, %function
 685              	test_010_002_setup:
 686              	.LFB220:
 687              		.loc 1 180 0
 688              		.cfi_startproc
 689              		@ args = 0, pretend = 0, frame = 0
 690              		@ frame_needed = 0, uses_anonymous_args = 0
 691              		@ link register save eliminated.
 692              		.loc 1 181 0
 693 0000 40F20000 		movw	r0, #:lower16:.LANCHOR0
 694 0004 C0F20000 		movt	r0, #:upper16:.LANCHOR0
 695 0008 0421     		movs	r1, #4
 696 000a FFF7FEBF 		b	chGuardedPoolObjectInit
 697              	.LVL5:
 698              		.cfi_endproc
 699              	.LFE220:
 700              		.size	test_010_002_setup, .-test_010_002_setup
 701 000e 00BF     		.section	.text.test_010_001_setup,"ax",%progbits
 702              		.align	2
 703              		.p2align 4,,15
 704              		.thumb
 705              		.thumb_func
 706              		.type	test_010_001_setup, %function
 707              	test_010_001_setup:
 708              	.LFB218:
 709              		.loc 1 92 0
 710              		.cfi_startproc
 711              		@ args = 0, pretend = 0, frame = 0
 712              		@ frame_needed = 0, uses_anonymous_args = 0
 713              		@ link register save eliminated.
 714              		.loc 1 93 0
ARM GAS  /tmp/ccQUTNDp.s 			page 49


 715 0000 40F20000 		movw	r0, #:lower16:.LANCHOR1
 716 0004 C0F20000 		movt	r0, #:upper16:.LANCHOR1
 717 0008 0421     		movs	r1, #4
 718 000a 0022     		movs	r2, #0
 719 000c FFF7FEBF 		b	chPoolObjectInit
 720              	.LVL6:
 721              		.cfi_endproc
 722              	.LFE218:
 723              		.size	test_010_001_setup, .-test_010_001_setup
 724              		.section	.text.test_010_002_execute,"ax",%progbits
 725              		.align	2
 726              		.p2align 4,,15
 727              		.thumb
 728              		.thumb_func
 729              		.type	test_010_002_execute, %function
 730              	test_010_002_execute:
 731              	.LFB221:
 732              		.loc 1 184 0
 733              		.cfi_startproc
 734              		@ args = 0, pretend = 0, frame = 0
 735              		@ frame_needed = 0, uses_anonymous_args = 0
 736 0000 F8B5     		push	{r3, r4, r5, r6, r7, lr}
 737              		.cfi_def_cfa_offset 24
 738              		.cfi_offset 3, -24
 739              		.cfi_offset 4, -20
 740              		.cfi_offset 5, -16
 741              		.cfi_offset 6, -12
 742              		.cfi_offset 7, -8
 743              		.cfi_offset 14, -4
 744              		.loc 1 191 0
 745 0002 40F20000 		movw	r0, #:lower16:.LANCHOR0
 746              		.loc 1 189 0
 747 0006 40F20005 		movw	r5, #:lower16:test_step
 748              		.loc 1 191 0
 749 000a 40F20001 		movw	r1, #:lower16:.LANCHOR2
 750              		.loc 1 189 0
 751 000e 0123     		movs	r3, #1
 752 0010 C0F20005 		movt	r5, #:upper16:test_step
 753              		.loc 1 191 0
 754 0014 C0F20000 		movt	r0, #:upper16:.LANCHOR0
 755 0018 C0F20001 		movt	r1, #:upper16:.LANCHOR2
 756 001c 0422     		movs	r2, #4
 757              		.loc 1 189 0
 758 001e 2B60     		str	r3, [r5]
 759              		.loc 1 191 0
 760 0020 FFF7FEFF 		bl	chGuardedPoolLoadArray
 761              	.LVL7:
 762              		.loc 1 195 0
 763 0024 0223     		movs	r3, #2
 764 0026 2B60     		str	r3, [r5]
 765              	.LVL8:
 766 0028 0424     		movs	r4, #4
 767              	.LVL9:
 768              	.L10:
 769              		.loc 1 198 0
 770 002a 40F20000 		movw	r0, #:lower16:.LANCHOR0
 771 002e 0021     		movs	r1, #0
ARM GAS  /tmp/ccQUTNDp.s 			page 50


 772 0030 C0F20000 		movt	r0, #:upper16:.LANCHOR0
 773 0034 FFF7FEFF 		bl	chGuardedPoolAllocTimeout
 774              	.LVL10:
 775 0038 40F20001 		movw	r1, #:lower16:.LC1
 776 003c 0030     		adds	r0, r0, #0
 777 003e 18BF     		it	ne
 778 0040 0120     		movne	r0, #1
 779 0042 C0F20001 		movt	r1, #:upper16:.LC1
 780 0046 FFF7FEFF 		bl	_test_assert
 781              	.LVL11:
 782 004a 0028     		cmp	r0, #0
 783 004c 57D1     		bne	.L6
 784              		.loc 1 197 0
 785 004e 013C     		subs	r4, r4, #1
 786              	.LVL12:
 787 0050 EBD1     		bne	.L10
 788              		.loc 1 204 0
 789 0052 40F20000 		movw	r0, #:lower16:.LANCHOR0
 790 0056 2146     		mov	r1, r4
 791              		.loc 1 202 0
 792 0058 0323     		movs	r3, #3
 793              		.loc 1 204 0
 794 005a C0F20000 		movt	r0, #:upper16:.LANCHOR0
 795              		.loc 1 202 0
 796 005e 2B60     		str	r3, [r5]
 797              		.loc 1 204 0
 798 0060 FFF7FEFF 		bl	chGuardedPoolAllocTimeout
 799              	.LVL13:
 800 0064 40F20001 		movw	r1, #:lower16:.LC0
 801 0068 D0F10100 		rsbs	r0, r0, #1
 802 006c 38BF     		it	cc
 803 006e 0020     		movcc	r0, #0
 804              		.loc 1 202 0
 805 0070 40F20006 		movw	r6, #:lower16:test_step
 806              		.loc 1 204 0
 807 0074 C0F20001 		movt	r1, #:upper16:.LC0
 808              		.loc 1 202 0
 809 0078 C0F20006 		movt	r6, #:upper16:test_step
 810              		.loc 1 204 0
 811 007c FFF7FEFF 		bl	_test_assert
 812              	.LVL14:
 813 0080 0028     		cmp	r0, #0
 814 0082 3CD1     		bne	.L6
 815 0084 40F20004 		movw	r4, #:lower16:.LANCHOR2
 816              	.LVL15:
 817 0088 C0F20004 		movt	r4, #:upper16:.LANCHOR2
 818              	.LBB4:
 819              	.LBB5:
 820              		.loc 1 209 0
 821 008c 0423     		movs	r3, #4
 822 008e 04F11007 		add	r7, r4, #16
 823 0092 3360     		str	r3, [r6]
 824              	.LVL16:
 825              	.L13:
 826              		.loc 1 212 0
 827 0094 40F20000 		movw	r0, #:lower16:.LANCHOR0
 828 0098 2146     		mov	r1, r4
ARM GAS  /tmp/ccQUTNDp.s 			page 51


 829 009a C0F20000 		movt	r0, #:upper16:.LANCHOR0
 830 009e 0434     		adds	r4, r4, #4
 831 00a0 FFF7FEFF 		bl	chGuardedPoolFree
 832              	.LVL17:
 833              		.loc 1 211 0
 834 00a4 BC42     		cmp	r4, r7
 835 00a6 F5D1     		bne	.L13
 836              		.loc 1 217 0
 837 00a8 0523     		movs	r3, #5
 838 00aa 2B60     		str	r3, [r5]
 839              	.LVL18:
 840 00ac 0424     		movs	r4, #4
 841              	.LVL19:
 842              	.L15:
 843              		.loc 1 220 0
 844 00ae 40F20000 		movw	r0, #:lower16:.LANCHOR0
 845 00b2 0021     		movs	r1, #0
 846 00b4 C0F20000 		movt	r0, #:upper16:.LANCHOR0
 847 00b8 FFF7FEFF 		bl	chGuardedPoolAllocTimeout
 848              	.LVL20:
 849 00bc 40F20001 		movw	r1, #:lower16:.LC1
 850 00c0 0030     		adds	r0, r0, #0
 851 00c2 18BF     		it	ne
 852 00c4 0120     		movne	r0, #1
 853 00c6 C0F20001 		movt	r1, #:upper16:.LC1
 854 00ca FFF7FEFF 		bl	_test_assert
 855              	.LVL21:
 856 00ce B0B9     		cbnz	r0, .L6
 857              		.loc 1 219 0
 858 00d0 013C     		subs	r4, r4, #1
 859              	.LVL22:
 860 00d2 ECD1     		bne	.L15
 861              		.loc 1 226 0
 862 00d4 40F20000 		movw	r0, #:lower16:.LANCHOR0
 863 00d8 2146     		mov	r1, r4
 864              		.loc 1 224 0
 865 00da 0623     		movs	r3, #6
 866              		.loc 1 226 0
 867 00dc C0F20000 		movt	r0, #:upper16:.LANCHOR0
 868              		.loc 1 224 0
 869 00e0 2B60     		str	r3, [r5]
 870              		.loc 1 226 0
 871 00e2 FFF7FEFF 		bl	chGuardedPoolAllocTimeout
 872              	.LVL23:
 873              	.LBE5:
 874              	.LBE4:
 875              		.loc 1 228 0
 876 00e6 BDE8F840 		pop	{r3, r4, r5, r6, r7, lr}
 877              	.LVL24:
 878              	.LBB7:
 879              	.LBB6:
 880              		.loc 1 226 0
 881 00ea 40F20001 		movw	r1, #:lower16:.LC0
 882 00ee D0F10100 		rsbs	r0, r0, #1
 883 00f2 38BF     		it	cc
 884 00f4 0020     		movcc	r0, #0
 885 00f6 C0F20001 		movt	r1, #:upper16:.LC0
ARM GAS  /tmp/ccQUTNDp.s 			page 52


 886 00fa FFF7FEBF 		b	_test_assert
 887              	.LVL25:
 888              	.L6:
 889 00fe F8BD     		pop	{r3, r4, r5, r6, r7, pc}
 890              	.LBE6:
 891              	.LBE7:
 892              		.cfi_endproc
 893              	.LFE221:
 894              		.size	test_010_002_execute, .-test_010_002_execute
 895              		.section	.text.test_010_001_execute,"ax",%progbits
 896              		.align	2
 897              		.p2align 4,,15
 898              		.thumb
 899              		.thumb_func
 900              		.type	test_010_001_execute, %function
 901              	test_010_001_execute:
 902              	.LFB219:
 903              		.loc 1 96 0
 904              		.cfi_startproc
 905              		@ args = 0, pretend = 0, frame = 0
 906              		@ frame_needed = 0, uses_anonymous_args = 0
 907 0000 F8B5     		push	{r3, r4, r5, r6, r7, lr}
 908              		.cfi_def_cfa_offset 24
 909              		.cfi_offset 3, -24
 910              		.cfi_offset 4, -20
 911              		.cfi_offset 5, -16
 912              		.cfi_offset 6, -12
 913              		.cfi_offset 7, -8
 914              		.cfi_offset 14, -4
 915              		.loc 1 102 0
 916 0002 40F20000 		movw	r0, #:lower16:.LANCHOR1
 917              		.loc 1 100 0
 918 0006 40F20005 		movw	r5, #:lower16:test_step
 919              		.loc 1 102 0
 920 000a 40F20001 		movw	r1, #:lower16:.LANCHOR2
 921              		.loc 1 100 0
 922 000e 0123     		movs	r3, #1
 923 0010 C0F20005 		movt	r5, #:upper16:test_step
 924              		.loc 1 102 0
 925 0014 C0F20000 		movt	r0, #:upper16:.LANCHOR1
 926 0018 C0F20001 		movt	r1, #:upper16:.LANCHOR2
 927 001c 0422     		movs	r2, #4
 928              		.loc 1 100 0
 929 001e 2B60     		str	r3, [r5]
 930              		.loc 1 102 0
 931 0020 FFF7FEFF 		bl	chPoolLoadArray
 932              	.LVL26:
 933              		.loc 1 106 0
 934 0024 0223     		movs	r3, #2
 935 0026 2B60     		str	r3, [r5]
 936              	.LVL27:
 937 0028 0424     		movs	r4, #4
 938              	.LVL28:
 939              	.L21:
 940              		.loc 1 109 0
 941 002a 40F20000 		movw	r0, #:lower16:.LANCHOR1
 942 002e C0F20000 		movt	r0, #:upper16:.LANCHOR1
ARM GAS  /tmp/ccQUTNDp.s 			page 53


 943 0032 FFF7FEFF 		bl	chPoolAlloc
 944              	.LVL29:
 945 0036 40F20001 		movw	r1, #:lower16:.LC1
 946 003a 0030     		adds	r0, r0, #0
 947 003c 18BF     		it	ne
 948 003e 0120     		movne	r0, #1
 949 0040 C0F20001 		movt	r1, #:upper16:.LC1
 950 0044 FFF7FEFF 		bl	_test_assert
 951              	.LVL30:
 952 0048 0028     		cmp	r0, #0
 953 004a 57D1     		bne	.L17
 954              		.loc 1 108 0
 955 004c 013C     		subs	r4, r4, #1
 956              	.LVL31:
 957 004e ECD1     		bne	.L21
 958              		.loc 1 115 0
 959 0050 40F20000 		movw	r0, #:lower16:.LANCHOR1
 960              		.loc 1 113 0
 961 0054 0323     		movs	r3, #3
 962              		.loc 1 115 0
 963 0056 C0F20000 		movt	r0, #:upper16:.LANCHOR1
 964              		.loc 1 113 0
 965 005a 2B60     		str	r3, [r5]
 966              		.loc 1 115 0
 967 005c FFF7FEFF 		bl	chPoolAlloc
 968              	.LVL32:
 969 0060 40F20001 		movw	r1, #:lower16:.LC0
 970 0064 D0F10100 		rsbs	r0, r0, #1
 971 0068 38BF     		it	cc
 972 006a 0020     		movcc	r0, #0
 973              		.loc 1 113 0
 974 006c 40F20006 		movw	r6, #:lower16:test_step
 975              		.loc 1 115 0
 976 0070 C0F20001 		movt	r1, #:upper16:.LC0
 977              		.loc 1 113 0
 978 0074 C0F20006 		movt	r6, #:upper16:test_step
 979              		.loc 1 115 0
 980 0078 FFF7FEFF 		bl	_test_assert
 981              	.LVL33:
 982 007c 0028     		cmp	r0, #0
 983 007e 3DD1     		bne	.L17
 984 0080 40F20004 		movw	r4, #:lower16:.LANCHOR2
 985              	.LVL34:
 986 0084 C0F20004 		movt	r4, #:upper16:.LANCHOR2
 987              	.LBB10:
 988              	.LBB11:
 989              		.loc 1 119 0
 990 0088 0423     		movs	r3, #4
 991 008a 04F11007 		add	r7, r4, #16
 992 008e 3360     		str	r3, [r6]
 993              	.LVL35:
 994              	.L24:
 995              		.loc 1 122 0
 996 0090 40F20000 		movw	r0, #:lower16:.LANCHOR1
 997 0094 2146     		mov	r1, r4
 998 0096 C0F20000 		movt	r0, #:upper16:.LANCHOR1
 999 009a 0434     		adds	r4, r4, #4
ARM GAS  /tmp/ccQUTNDp.s 			page 54


 1000 009c FFF7FEFF 		bl	chPoolFree
 1001              	.LVL36:
 1002              		.loc 1 121 0
 1003 00a0 BC42     		cmp	r4, r7
 1004 00a2 F5D1     		bne	.L24
 1005              		.loc 1 126 0
 1006 00a4 0523     		movs	r3, #5
 1007 00a6 2B60     		str	r3, [r5]
 1008              	.LVL37:
 1009 00a8 0424     		movs	r4, #4
 1010              	.LVL38:
 1011              	.L26:
 1012              		.loc 1 129 0
 1013 00aa 40F20000 		movw	r0, #:lower16:.LANCHOR1
 1014 00ae C0F20000 		movt	r0, #:upper16:.LANCHOR1
 1015 00b2 FFF7FEFF 		bl	chPoolAlloc
 1016              	.LVL39:
 1017 00b6 40F20001 		movw	r1, #:lower16:.LC1
 1018 00ba 0030     		adds	r0, r0, #0
 1019 00bc 18BF     		it	ne
 1020 00be 0120     		movne	r0, #1
 1021 00c0 C0F20001 		movt	r1, #:upper16:.LC1
 1022 00c4 FFF7FEFF 		bl	_test_assert
 1023              	.LVL40:
 1024 00c8 C0B9     		cbnz	r0, .L17
 1025              		.loc 1 128 0
 1026 00ca 013C     		subs	r4, r4, #1
 1027              	.LVL41:
 1028 00cc EDD1     		bne	.L26
 1029              		.loc 1 135 0
 1030 00ce 40F20000 		movw	r0, #:lower16:.LANCHOR1
 1031              		.loc 1 133 0
 1032 00d2 0623     		movs	r3, #6
 1033              		.loc 1 135 0
 1034 00d4 C0F20000 		movt	r0, #:upper16:.LANCHOR1
 1035              		.loc 1 133 0
 1036 00d8 2B60     		str	r3, [r5]
 1037              		.loc 1 135 0
 1038 00da FFF7FEFF 		bl	chPoolAlloc
 1039              	.LVL42:
 1040 00de 40F20001 		movw	r1, #:lower16:.LC0
 1041 00e2 D0F10100 		rsbs	r0, r0, #1
 1042 00e6 38BF     		it	cc
 1043 00e8 0020     		movcc	r0, #0
 1044              		.loc 1 133 0
 1045 00ea 40F20004 		movw	r4, #:lower16:test_step
 1046              	.LVL43:
 1047              		.loc 1 135 0
 1048 00ee C0F20001 		movt	r1, #:upper16:.LC0
 1049              		.loc 1 133 0
 1050 00f2 C0F20004 		movt	r4, #:upper16:test_step
 1051              		.loc 1 135 0
 1052 00f6 FFF7FEFF 		bl	_test_assert
 1053              	.LVL44:
 1054 00fa 00B1     		cbz	r0, .L27
 1055              	.L17:
 1056 00fc F8BD     		pop	{r3, r4, r5, r6, r7, pc}
ARM GAS  /tmp/ccQUTNDp.s 			page 55


 1057              	.L27:
 1058              		.loc 1 142 0
 1059 00fe 40F20000 		movw	r0, #:lower16:.LANCHOR1
 1060 0102 40F20002 		movw	r2, #:lower16:null_provider
 1061              		.loc 1 140 0
 1062 0106 0723     		movs	r3, #7
 1063              		.loc 1 142 0
 1064 0108 0421     		movs	r1, #4
 1065 010a C0F20000 		movt	r0, #:upper16:.LANCHOR1
 1066 010e C0F20002 		movt	r2, #:upper16:null_provider
 1067              		.loc 1 140 0
 1068 0112 2360     		str	r3, [r4]
 1069              		.loc 1 142 0
 1070 0114 FFF7FEFF 		bl	chPoolObjectInit
 1071              	.LVL45:
 1072              		.loc 1 143 0
 1073 0118 40F20000 		movw	r0, #:lower16:.LANCHOR1
 1074 011c C0F20000 		movt	r0, #:upper16:.LANCHOR1
 1075 0120 FFF7FEFF 		bl	chPoolAlloc
 1076              	.LVL46:
 1077              	.LBE11:
 1078              	.LBE10:
 1079              		.loc 1 145 0
 1080 0124 BDE8F840 		pop	{r3, r4, r5, r6, r7, lr}
 1081              	.LBB13:
 1082              	.LBB12:
 1083              		.loc 1 143 0
 1084 0128 40F20001 		movw	r1, #:lower16:.LC2
 1085 012c D0F10100 		rsbs	r0, r0, #1
 1086 0130 38BF     		it	cc
 1087 0132 0020     		movcc	r0, #0
 1088 0134 C0F20001 		movt	r1, #:upper16:.LC2
 1089 0138 FFF7FEBF 		b	_test_assert
 1090              	.LVL47:
 1091              	.LBE12:
 1092              	.LBE13:
 1093              		.cfi_endproc
 1094              	.LFE219:
 1095              		.size	test_010_001_execute, .-test_010_001_execute
 1096              		.global	test_sequence_010
 1097 013c AFF30080 		.section	.data.gmp1,"aw",%progbits
 1098              		.align	2
 1099              		.set	.LANCHOR0,. + 0
 1100              		.type	gmp1, %object
 1101              		.size	gmp1, 24
 1102              	gmp1:
 1103 0000 00000000 		.word	gmp1
 1104 0004 00000000 		.word	gmp1
 1105 0008 00000000 		.word	0
 1106 000c 00000000 		.word	0
 1107 0010 04000000 		.word	4
 1108 0014 00000000 		.word	0
 1109              		.section	.rodata.test_sequence_010,"a",%progbits
 1110              		.align	2
 1111              		.type	test_sequence_010, %object
 1112              		.size	test_sequence_010, 16
 1113              	test_sequence_010:
ARM GAS  /tmp/ccQUTNDp.s 			page 56


 1114 0000 00000000 		.word	test_010_001
 1115 0004 00000000 		.word	test_010_002
 1116 0008 00000000 		.word	test_010_003
 1117 000c 00000000 		.word	0
 1118              		.section	.bss.objects,"aw",%nobits
 1119              		.align	2
 1120              		.set	.LANCHOR2,. + 0
 1121              		.type	objects, %object
 1122              		.size	objects, 16
 1123              	objects:
 1124 0000 00000000 		.space	16
 1124      00000000 
 1124      00000000 
 1124      00000000 
 1125              		.section	.rodata.str1.4,"aMS",%progbits,1
 1126              		.align	2
 1127              	.LC0:
 1128 0000 6C697374 		.ascii	"list not empty\000"
 1128      206E6F74 
 1128      20656D70 
 1128      747900
 1129 000f 00       		.space	1
 1130              	.LC1:
 1131 0010 6C697374 		.ascii	"list empty\000"
 1131      20656D70 
 1131      747900
 1132 001b 00       		.space	1
 1133              	.LC2:
 1134 001c 70726F76 		.ascii	"provider returned memory\000"
 1134      69646572 
 1134      20726574 
 1134      75726E65 
 1134      64206D65 
 1135 0035 000000   		.space	3
 1136              	.LC3:
 1137 0038 47756172 		.ascii	"Guarded Memory Pools timeout\000"
 1137      64656420 
 1137      4D656D6F 
 1137      72792050 
 1137      6F6F6C73 
 1138 0055 000000   		.space	3
 1139              	.LC4:
 1140 0058 4C6F6164 		.ascii	"Loading and emptying a guarded memory pool without "
 1140      696E6720 
 1140      616E6420 
 1140      656D7074 
 1140      79696E67 
 1141 008b 77616974 		.ascii	"waiting\000"
 1141      696E6700 
 1142 0093 00       		.space	1
 1143              	.LC5:
 1144 0094 4C6F6164 		.ascii	"Loading and emptying a memory pool\000"
 1144      696E6720 
 1144      616E6420 
 1144      656D7074 
 1144      79696E67 
 1145 00b7 00       		.section	.rodata.test_010_001,"a",%progbits
ARM GAS  /tmp/ccQUTNDp.s 			page 57


 1146              		.align	2
 1147              		.type	test_010_001, %object
 1148              		.size	test_010_001, 16
 1149              	test_010_001:
 1150 0000 94000000 		.word	.LC5
 1151 0004 00000000 		.word	test_010_001_setup
 1152 0008 00000000 		.word	0
 1153 000c 00000000 		.word	test_010_001_execute
 1154              		.section	.rodata.test_010_002,"a",%progbits
 1155              		.align	2
 1156              		.type	test_010_002, %object
 1157              		.size	test_010_002, 16
 1158              	test_010_002:
 1159 0000 58000000 		.word	.LC4
 1160 0004 00000000 		.word	test_010_002_setup
 1161 0008 00000000 		.word	0
 1162 000c 00000000 		.word	test_010_002_execute
 1163              		.section	.rodata.test_010_003,"a",%progbits
 1164              		.align	2
 1165              		.type	test_010_003, %object
 1166              		.size	test_010_003, 16
 1167              	test_010_003:
 1168 0000 38000000 		.word	.LC3
 1169 0004 00000000 		.word	test_010_003_setup
 1170 0008 00000000 		.word	0
 1171 000c 00000000 		.word	test_010_003_execute
 1172              		.section	.data.mp1,"aw",%progbits
 1173              		.align	2
 1174              		.set	.LANCHOR1,. + 0
 1175              		.type	mp1, %object
 1176              		.size	mp1, 12
 1177              	mp1:
 1178 0000 00000000 		.word	0
 1179 0004 04000000 		.word	4
 1180 0008 00000000 		.word	0
 1181              		.text
 1182              	.Letext0:
 1183              		.file 2 "/home/alex/MentorGraphics/Sourcery_CodeBench_Lite_for_ARM_EABI/lib/gcc/arm-none-eabi/4.8.
 1184              		.file 3 "/home/alex/MentorGraphics/Sourcery_CodeBench_Lite_for_ARM_EABI/arm-none-eabi/include/stdi
 1185              		.file 4 "../../../os/common/ports/ARMCMx/compilers/GCC/chtypes.h"
 1186              		.file 5 "../../../os/rt/include/chsystypes.h"
 1187              		.file 6 "../../../os/rt/include/chschd.h"
 1188              		.file 7 "../../../os/common/ports/ARMCMx/chcore.h"
 1189              		.file 8 "../../../os/common/ports/ARMCMx/chcore_v7m.h"
 1190              		.file 9 "../../../os/rt/include/chtm.h"
 1191              		.file 10 "../../../os/rt/include/chsem.h"
 1192              		.file 11 "../../../os/rt/include/chmtx.h"
 1193              		.file 12 "../../../os/common/oslib/include/chmemcore.h"
 1194              		.file 13 "../../../os/common/oslib/include/chmempools.h"
 1195              		.file 14 "../../../test/lib/ch_test.h"
 1196              		.file 15 "../../../os/common/ext/CMSIS/include/core_cm3.h"