ARM GAS  /tmp/ccUmqVQw.s 			page 1


   1              		.syntax unified
   2              		.cpu cortex-m3
   3              		.fpu softvfp
   4              		.eabi_attribute 20, 1
   5              		.eabi_attribute 21, 1
   6              		.eabi_attribute 23, 3
   7              		.eabi_attribute 24, 1
   8              		.eabi_attribute 25, 1
   9              		.eabi_attribute 26, 1
  10              		.eabi_attribute 30, 2
  11              		.eabi_attribute 34, 1
  12              		.eabi_attribute 18, 4
  13              		.thumb
  14              		.file	"test_sequence_011.c"
  15              		.text
  16              	.Ltext0:
  17              		.section	.gnu.lto_.jmpfuncs.7cfad7002667fcf2,"",%progbits
  18 0000 789CC554 		.ascii	"x\234\305T\275N\3030\020>'\245\224\376\246E\252`\261"
  18      BD4EC330 
  18      103E27A5 
  18      94FEA645 
  18      AA60B1
  19 0013 BCF3046C 		.ascii	"\274\363\004l\314\354H\254&qS\213\304\211H@@\227\214"
  19      CCEC48AC 
  19      2671538B 
  19      C4894840 
  19      40978C
  20 0026 B03077E1 		.ascii	"\2600w\341\235x\014\236\241\003\305\211\003$\220\266"
  20      9D780C9E 
  20      A103C589 
  20      032490B6 
  21 0036 A912952C 		.ascii	"\251\022\225,\261\357\356\3739\237t\032hP\364=7\001"
  21      B1EFEEFB 
  21      399F741A 
  21      6850F43D 
  21      3701
  22 0048 5EE45F87 		.ascii	"^\344_\207\270@\233\301\"\232G\006G\200\001\275F\363"
  22      B8409BC1 
  22      229A4706 
  22      478001BD 
  22      46F3
  23 005a 338E5052 		.ascii	"3\216PR\247k\227\210\243\230#9\350\321\307r9\370\272"
  23      A76B9788 
  23      A3982339 
  23      E8D1C772 
  23      39F8BA
  24 006d B400D02F 		.ascii	"\264\000\320/|\003\303\221\302\357\245\3708\365\024"
  24      7C03C391 
  24      C2EFA5F8 
  24      38F514
  25 007c A7345751 		.ascii	"\2474WQ&\330\246\221!\371\021I y\306}\014'\212\261\245"
  25      26D8A691 
  25      21F91149 
  25      2079C67D 
  25      0C278AB1 
  26 0091 E0D9E401 		.ascii	"\340\331\344\001\206S\225l\257\222Ku:\360\327l\027\303"
  26      8653956C 
ARM GAS  /tmp/ccUmqVQw.s 			page 2


  26      AF924B75 
  26      3AF0D76C 
  26      17C3
  27 00a3 B942F7D6 		.ascii	"\271B\367\326\232\355\344\016[\266\233\353s\235\273"
  27      9AEDE40E 
  27      5BB69BEB 
  27      739DBB
  28 00b2 6A8DA135 		.ascii	"j\215\2415oM2\036r*}\014\027JePN\245\3448K\024U\356"
  28      6F4D321E 
  28      722A7D0C 
  28      174A6550 
  28      4EA5E438 
  29 00ca B602C1D6 		.ascii	"\266\002\301\326\331\015\366w\374\214\303:\237\261\326"
  29      D90DF677 
  29      FC8CC33A 
  29      9FB1D6
  30 00d9 A1EE66F2 		.ascii	"\241\356f\362\377lY\256H+\273\"\313'\015\0143\225\034"
  30      FF6C59AE 
  30      482BBB22 
  30      CB270D0C 
  30      33951C
  31 00ec AE6EB6A6 		.ascii	"\256n\266\246\235\272a\253\0273\350o\307\365\014\252"
  31      9DBA61AB 
  31      1733E86F 
  31      C7F50CAA 
  32 00fc 5128F11D 		.ascii	"Q(\361\035\031\271\312\210\222z\357\312\343\230:\216"
  32      19B9CA88 
  32      927AEFCA 
  32      E3983A8E 
  33 010c 67D2907B 		.ascii	"g\322\220{\202\010/$\023\312\035f\301(\023NC\275\200"
  33      82082F24 
  33      13CA1D66 
  33      C128134E 
  33      43BD80
  34 011f 3F32624E 		.ascii	"?2bN\251\260\345\315\2302\352\223\311\015\265]&B\031"
  34      A9B0E5CD 
  34      9832EA93 
  34      C90DB55D 
  34      264219
  35 0132 68C768E6 		.ascii	"h\307h\346\372\341\003\364\271\270\243\016\267H\020"
  35      FAE103F4 
  35      B9B8A30E 
  35      B74810
  36 0141 D290C1F8 		.ascii	"\322\220\301\370V\260{\237\231\262\212$(\025>ty\020"
  36      56B07B9F 
  36      99B28A24 
  36      28153E74 
  36      7910
  37 0153 70614B12 		.ascii	"paK\022\306\310\225\224\273\206OT\243RU"
  37      C6C89594 
  37      BB864F54 
  37      A35255
  38              		.text
  39              		.section	.gnu.lto_.inline.7cfad7002667fcf2,"",%progbits
  40 0000 789C6362 		.ascii	"x\234cb`b\300\006\354\240\302\314\014\034\312V\214\014"
  40      6062C006 
  40      ECA0C2CC 
ARM GAS  /tmp/ccUmqVQw.s 			page 3


  40      0C1CCA56 
  40      8C0C
  41 0012 4C021702 		.ascii	"L\002\027\002\030\330\026\310\203EYx\031\030\230&\370"
  41      18D816C8 
  41      83455978 
  41      19189826 
  41      F8
  42 0023 31B0F281 		.ascii	"1\260\362\201\344\201ln\006\006\306\011~\350\302 >\210"
  42      E4816C6E 
  42      0606C609 
  42      7EE8C220 
  42      3E88
  43 0035 6616D8CA 		.ascii	"f\026\330\312\244\0074\242\217qM\004\206\031$\230\205"
  43      A40734A2 
  43      8F714D04 
  43      86192498 
  43      85
  44 0046 E043F561 		.ascii	"\340C\365aJ\300\365C)\354\332\341\252`\\\002\312p\270"
  44      4AC0F543 
  44      29ECDAE1 
  44      AA605C02 
  44      CA70B8
  45 0059 8948DDA4 		.ascii	"\211H\335\244Y\202C\023U5S\024\366X\370\014\354\374"
  45      59824313 
  45      55355314 
  45      F658F80C 
  45      ECFC
  46 006b 8CE06484 		.ascii	"\214\340d\204\034\271 \031\006\000\310\233*/"
  46      1CB92019 
  46      0600C89B 
  46      2A2F
  47              		.text
  48              		.section	.gnu.lto_.pureconst.7cfad7002667fcf2,"",%progbits
  49 0000 789C6362 		.ascii	"x\234cb`b`g\200\000f\006\011f\011\026\011\000\001\305"
  49      60626067 
  49      80006606 
  49      09660916 
  49      090001C5 
  50 0014 005E     		.ascii	"\000^"
  51              		.text
  52              		.section	.gnu.lto_test_011_002_execute.7cfad7002667fcf2,"",%progbits
  53 0000 789C9555 		.ascii	"x\234\225UML\023Q\020\236y\333m\013\266\026\371i\340"
  53      4D4C1351 
  53      109E79DB 
  53      6D0BB616 
  53      F969E0
  54 0013 4208470F 		.ascii	"B\010G\017\255MH<\342]\023/\220h<4\353\262\226\215\375"
  54      AD4D483C 
  54      E25D132F 
  54      90683C34 
  54      EBB2968D 
  55 0028 415A2E70 		.ascii	"AZ.p\340\321\026\303\301\030\302\0115\004H\203\236\004"
  55      E0D116C3 
  55      C118C209 
  55      35044883 
  55      9E04
  56 003a 0D176230 		.ascii	"\015\027b0lLL0\006\033\022\016^4\215\036\214A\243'\211"
ARM GAS  /tmp/ccUmqVQw.s 			page 4


  56      6C4C4C30 
  56      061B120E 
  56      5E348D1E 
  56      8C41A327 
  57 004f 68ACEFA7 		.ascii	"h\254\357\247\335\026\254\255n\332\3317\363\346\347"
  57      DD16ACAD 
  57      6EDAD937 
  57      F3E6E7
  58 005e 9B795F5F 		.ascii	"\233y__\011\0208\376\234g_\217\023`\225\275\321\005"
  58      091038FE 
  58      9C675F8F 
  58      136095BD 
  58      D105
  59 0070 48665F01 		.ascii	"Hf_\001L\271\011Q7\317\002mV\366\374@=\012Q\367\202"
  59      4CB90951 
  59      37CF026D 
  59      56F6FC40 
  59      3D0A51F7 
  60 0085 4C736C76 		.ascii	"Lslv3\315\201N\351\244\226\027ND\276\000\204I\2428T"
  60      33CD814E 
  60      E9A49617 
  60      4E44BE00 
  60      8449A238 
  61 009a 274E5E46 		.ascii	"'N^F\236\234\364\3022\265\346\012\323\337v\361\016\265"
  61      9E9CF4C2 
  61      32B5E60A 
  61      D3DF76F1 
  61      0EB5
  62 00ac B24BF467 		.ascii	"\262K\364g\261\210h\"\003\322\207\240#\\b\012\366\210"
  62      B1886822 
  62      03D287A0 
  62      235C620A 
  62      F688
  63 00be 17711C45 		.ascii	"\027q\034E&c\351\233\241m\232\265\212\305~\021\325\337"
  63      2663E99B 
  63      A16D9AB5 
  63      8AC57E11 
  63      D5DF
  64 00d0 286A8D58 		.ascii	"(j\215X\205b\361\323\367\302\273Cl\353t\201\211J\023"
  64      8562F1D3 
  64      F7C2BB43 
  64      6CEB7481 
  64      894A13
  65 00e3 175E2E7C 		.ascii	"\027^.|\\\2643\341\350\340\202\271\253\220\245t\266"
  65      5CB433E1 
  65      E8E082B9 
  65      AB90A574 
  65      B6
  66 00f4 87D7A273 		.ascii	"\207\327\242s\326b\376V\027]J\317\322_\014&s p\241Q"
  66      D662FE56 
  66      175D4ACF 
  66      D25F0C26 
  66      732070A1 
  67 0109 3D0D97B1 		.ascii	"=\015\227\261\227\311\034\223\300}\3313\300$\237\307"
  67      97C91C93 
  67      C07DD933 
  67      C0249FC7 
ARM GAS  /tmp/ccUmqVQw.s 			page 5


  68 0119 2012FE56 		.ascii	" \022\376Vv \2751\177\320\245\341\012\252p\017\356N"
  68      7620BD31 
  68      7FD0A5E1 
  68      0AAA700F 
  68      EE4E
  69 012b 51DA62A2 		.ascii	"Q\332b\242:\001\207t\206\257\2341\021\306\323;\241\274"
  69      3A018774 
  69      86AF9C31 
  69      11C6D33B 
  69      A1BC
  70 013d 52B92D0F 		.ascii	"R\271-\0177\013o\037\240\214\004\260#\\:\242\355\351"
  70      370B6F1F 
  70      A08C04B0 
  70      235C3AA2 
  70      EDE9
  71 014f 961BEC09 		.ascii	"\226\033\354\011\233\330T\006$\"&`\\\230r\025\223\211"
  71      9BD85406 
  71      24222660 
  71      5C987215 
  71      9389
  72 0161 CD002F20 		.ascii	"\315\000/ m\251\322Pj}!\177\273\272u7\201\213\215Z\227"
  72      6DA9D250 
  72      6A7D217F 
  72      BBBA7537 
  72      818B8D5A 
  73 0176 68ACADBC 		.ascii	"h\254\255\274\237\371\307\320F\311\263WP\327\316\317"
  73      9FF9C7D0 
  73      46C9B357 
  73      50D7CECF 
  74 0186 8E72B051 		.ascii	"\216r\260Q~n\203\0269\205\257Ork]\245\303*\237\232\365"
  74      7E6E8316 
  74      3985AF4F 
  74      726B5DA5 
  74      C32A9F9A 
  75 019b F24B46D1 		.ascii	"\362KF\321\360\221\350\355\241\230\277,\251\243\340"
  75      F091E8ED 
  75      A198BF2C 
  75      A9A3E0
  76 01aa 7904DBED 		.ascii	"y\004\333\355\201\235\320\221\271\256K|\322J\257\034"
  76      819DD091 
  76      B9AE4B7C 
  76      D24AAF1C 
  77 01ba 815DAA26 		.ascii	"\201]\252&F\357fS\362\310)u\312m\015\357\213\002\000"
  77      46EF6653 
  77      F2C82975 
  77      CA6D0DEF 
  77      8B0200
  78 01cd 3B90799D 		.ascii	";\220y\235\311-\226\246\027A\027+\303\203\004\370<\330"
  78      C92D96A6 
  78      1741172B 
  78      C38304F8 
  78      3CD8
  79 01df F626BBB6 		.ascii	"\366&\273\266W\227\233\334\231\033;M<\331\015\323\270"
  79      57979BDC 
  79      991B3B4D 
  79      3CD90DD3 
  79      B8
ARM GAS  /tmp/ccUmqVQw.s 			page 6


  80 01f0 40E7CF99 		.ascii	"@\347\317\231\350\253\034\014\353u\033\262\237\320N"
  80      E8AB1C0C 
  80      EB751BB2 
  80      9FD04E
  81 01ff C1F32AD5 		.ascii	"\301\363*\325#\031d\352\236_\311C\266\360\361\203\353"
  81      231964EA 
  81      9E5FC943 
  81      B6F0F183 
  81      EB
  82 0210 0F5A9CD2 		.ascii	"\017Z\234\322e\203\274u\023[9\330\364\306\306\217\377"
  82      6583BC75 
  82      135B39D8 
  82      F4C6C68F 
  82      FF
  83 0221 651E1167 		.ascii	"e\036\021gH\352\362C\303U6\345\306\007\350.\023\342"
  83      48EAF243 
  83      C35536E5 
  83      C607E82E 
  83      13E2
  84 0233 73A42E1F 		.ascii	"s\244.\0374|\374O\371T\036\340\253G\212\003N\212\247"
  84      347CFC4F 
  84      F9541EE0 
  84      AB478A03 
  84      4E8AA7
  85 0246 82149BB5 		.ascii	"\202\024\233\265H\321q\214\024[rf%\260U5\216R\201\324"
  85      48D1718C 
  85      145B7266 
  85      25B05535 
  85      8E5281D4 
  86 025a 20423EF3 		.ascii	" B>\363\276B\004/K]\213\010\276ZD\360\226\210\320\326"
  86      BE42042F 
  86      4B5D8B08 
  86      BE5A44F0 
  86      9688D0D6 
  87 026e 0DF32522 		.ascii	"\015\363%\"\264\377\235\010\276\032Dp\300\276\233\335"
  87      B4FF9D08 
  87      BE1A4470 
  87      C0BE9BDD 
  88 027e 2CCFF66D 		.ascii	",\317\366m`\374w\337\007\353t\206\317S\000\254\332\314"
  88      60FC77DF 
  88      07EB7486 
  88      CF5300AC 
  88      DACC
  89 0290 1DDB9449 		.ascii	"\035\333\224ITXy\016\"\313\314!\326\311s\275~\032\247"
  89      5458790E 
  89      22CBCC21 
  89      D6C973BD 
  89      7E1AA7
  90 02a3 B8E676D9 		.ascii	"\270\346v\331?A\005\341\000\273\241\230\225\017=\024"
  90      3F4105E1 
  90      00BBA198 
  90      950F3D14 
  91 02b3 0804E527 		.ascii	"\010\004\345'e$S\301\321T0\231\030\033\325\015\251r"
  91      652453C1 
  91      D1543099 
  91      181BD50D 
  91      A972
ARM GAS  /tmp/ccUmqVQw.s 			page 7


  92 02c5 114E1A37 		.ascii	"\021N\0327\306\214\270n\204\317\204B\001\035\232S\211"
  92      C68CB86E 
  92      84CF8442 
  92      011D9A53 
  92      89
  93 02d6 94160D27 		.ascii	"\224\026\015'\315q\303\023\325F#\302\205)d$\244\016"
  93      CD71C313 
  93      D54623C2 
  93      85296424 
  93      A40E
  94 02e8 1BDAC888 		.ascii	"\033\332\310\210\203k\247\355\274\211dPO\304b\2118["
  94      836BA7ED 
  94      BC896450 
  94      4FC46289 
  94      385B
  95 02fa 45CDAB41 		.ascii	"E\315\253A3\256G\307\206\214\240>\314\275\003\303\320"
  95      33AE47C7 
  95      868CA03E 
  95      CCBD03C3 
  95      D0
  96 030b AA45A309 		.ascii	"\252E\243\011]K\231\211x\3175\315\214\032C\340\2572"
  96      5D4B9989 
  96      78CF35CD 
  96      8C1A43E0 
  96      AF32
  97 031d C513A9B2 		.ascii	"\305\023\251\262\3717\316}\255\036"
  97      F937CE7D 
  97      AD1E
  98              		.text
  99              		.section	.gnu.lto_test_011_001_execute.7cfad7002667fcf2,"",%progbits
 100 0000 789CCD5A 		.ascii	"x\234\315Z{lS\327\031?\347\332N\034\307\211\3634\011"
 100      7B6C53D7 
 100      193FE7DA 
 100      4E1CC789 
 100      F33409
 101 0013 63C6A265 		.ascii	"c\306\242eL\375#)/\255\332\0370\376*c\352@\010J\331"
 101      4CFD2329 
 101      2FADDA1F 
 101      30FE2A63 
 101      EA40084A 
 102 0028 3405C798 		.ascii	"4\005\307\230\304\220\330\001\033\264\005Qn\234@\241"
 102      C490D801 
 102      1BB40551 
 102      6E9C40A1 
 103 0038 49480809 		.ascii	"IH\010\011\024\012m B\351VuhE\024\012lK\253\015\222"
 103      140A6D20 
 103      42E95675 
 103      6845140A 
 103      6C4BAB0D 
 104 004d F0DA26D4 		.ascii	"\360\332&\324\202X5\257[K\031\014\250\272\261\226G\275"
 104      825835AF 
 104      5B4B190C 
 104      A8BAB196 
 104      47BD
 105 005f F37DF7D8 		.ascii	"\363}\367\3307\276\234\\\333\343\022\315\212\276{\277"
 105      37BE9C5C 
 105      DBE312CD 
ARM GAS  /tmp/ccUmqVQw.s 			page 8


 105      8ABE7BBF 
 106 006f 73CFF7B8 		.ascii	"s\317\367\270\277\357\345\353\033\211HD\373\371\011"
 106      BFEFE5EB 
 106      1B894844 
 106      FBF909
 107 007e 2564CF53 		.ascii	"%d\317S\204\374\220\035\351xB\245\316\363\2044Y%\251"
 107      84FC901D 
 107      E97842A5 
 107      CEF38434 
 107      5925A9
 108 0091 ECE47788 		.ascii	"\354\344w\210l3]t\022\331n\342\234\03193\347,\310Y\244"
 108      6C335D74 
 108      12D96EE2 
 108      9C193933 
 108      E72CC859 
 109 00a6 1CE4B290 		.ascii	"\034\344\262\220\313\342\\6r\331\234\263\"g\345r6\344"
 109      CBE25C36 
 109      72D99CB3 
 109      2267E572 
 109      36E4
 110 00b8 72689962 		.ascii	"rh\231b\312\306\227sq9\227sv\344\354\222\243\375[\214"
 110      CAC69773 
 110      71399773 
 110      76E4EC92 
 110      A3FD5B8C 
 111 00cc CB6BFE36 		.ascii	"\313k\3766\343\362\244\374\333\245\214s\364>\303\270"
 111      E3F2A4FC 
 111      DBA58C73 
 111      F43EC3B8 
 112 00dc 7CEA0005 		.ascii	"|\352\000\005\324\301%\012P\242\200s\205\310\025r\256"
 112      D4C1250A 
 112      50A28073 
 112      85C81572 
 112      AE
 113 00ed 08B922CE 		.ascii	"\010\271\"\316\025#W\314\271\022\344J8W\212\\)\347\234"
 113      152357CC 
 113      B912E44A 
 113      38578A5C 
 113      29E79C
 114 0100 C839A5B2 		.ascii	"\3109\245\262\213\225\214\033w\322\305\270q\264\\q\274"
 114      8B958C1B 
 114      77D2C5B8 
 114      71B45C71 
 114      BC
 115 0111 2C7E524E 		.ascii	",~RN)\234\020J6J&\263%+\333\232c\313\265\347\345;\012"
 115      299C104A 
 115      364A26B3 
 115      252BDB9A 
 115      63CBB5E7 
 116 0128 0A8B8A4B 		.ascii	"\012\213\212KJ\235\343\312\312\351\306\245\024\340\266"
 116      4A9DE3CA 
 116      CAE9C6A5 
 116      14E0B6
 117 0137 4D22FB65 		.ascii	"M\"\373e\271+\272\351\3005iw\367{-\275\362\375X\214"
 117      B92BBAE9 
 117      C0356977 
 117      F77B2DBD 
ARM GAS  /tmp/ccUmqVQw.s 			page 9


 117      F2FD588C 
 118 014b 523F65A1 		.ascii	"R?e\241\231A\211\227\222\027\030C\335x\220\314L\002"
 118      99418997 
 118      92171843 
 118      DD7890CC 
 118      4C02
 119 015d 0406BA06 		.ascii	"\004\006\272\006\266\277\324^.\367F:\345\257\331~?5"
 119      B6BFD45E 
 119      2EF7463A 
 119      E5AFD97E 
 119      3F35
 120 016f 49E419E1 		.ascii	"I\344\031\341v\321G\2619\260cxx?\225\273\344\246\333"
 120      76D147B1 
 120      39B06378 
 120      783F95BB 
 120      E4A6DB
 121 0182 B198032D 		.ascii	"\261\230\003-~7\225\012.\331=\334f\353l\332\"\307b\033"
 121      7E37950A 
 121      2ED93DDC 
 121      66EB6CDA 
 121      22C7621B 
 122 0196 516E569A 		.ascii	"QnV\232r;5r?HK\256s\340\3553#\344\314\022\371Q\232\366"
 122      723B3572 
 122      3F484BAE 
 122      73E0ED33 
 122      23E4CC12 
 123 01ae 8E9F4FB6 		.ascii	"\216\237O\266W\235J\316C\373\350\244\004\304\247\267"
 123      579D4ACE 
 123      43FBE8A4 
 123      04C4A7B7 
 124 01be 6920AE49 		.ascii	"i \256I\307.\223|\360\222Vrez\222\362\347\313\007\345"
 124      C72E937C 
 124      F0925672 
 124      657A92F2 
 124      E7CB07E5 
 125 01d2 9681586C 		.ascii	"\226\201Xl6J\255M%uH\032\210\306b7\216F?~\235\026\367"
 125      364AAD4D 
 125      2575481A 
 125      88C66237 
 125      8E463F7E 
 126 01e9 53CA6EE0 		.ascii	"S\312n\340Mv\0039\204\335\256\215\021\213\035\210\003"
 126      4D760339 
 126      84DDAE8D 
 126      118B1D88 
 126      03
 127 01fa 48219012 		.ascii	"H!\220\022 N \343\331\326\375l\353\004`\\@&\262\225"
 127      204E20E3 
 127      D9D6FD6C 
 127      EB04605C 
 127      4026B295 
 128 020e 7EB6E206 		.ascii	"~\266\342\006f\022\220'\370\312\223\354\370sv\234\014"
 128      66129027 
 128      F8CA93EC 
 128      F873769C 
 128      0C
 129 021f 8B53804C 		.ascii	"\213S\200L\003\003\323\341l&\220Y\300\316\206\2639@"
 129      0303D3E1 
ARM GAS  /tmp/ccUmqVQw.s 			page 10


 129      6C269059 
 129      C0CE86B3 
 129      3940
 130 0231 9E05762E 		.ascii	"\236\005v.\234\315\003\362\034\260\363\201,\000v!\220"
 130      9CCD03F2 
 130      1CB0F381 
 130      2C007621 
 130      90
 131 0242 E7815D02 		.ascii	"\347\201]\002gK\201T\001\273\014\316\252\201\324\000"
 131      674B8154 
 131      01BB0CCE 
 131      AA81D400 
 132 0252 5B0B672B 		.ascii	"[\013g+\201\3243\373\007\231\375 0\253\201\204`C\030"
 132      81D433FB 
 132      0799FD20 
 132      30AB8184 
 132      604318
 133 0265 CED60169 		.ascii	"\316\326\001i\004v=\234m\000\362\"\337\277\221\035\337"
 133      04763D9C 
 133      6D00F222 
 133      DFBF911D 
 133      DF
 134 0276 624799C2 		.ascii	"bG\231\302j\004\351V\240Y/#mE\332\206\264\035\3516\244"
 134      6A04E956 
 134      A0592F23 
 134      6D45DA86 
 134      B41DE936 
 135 028b 1D483B91 		.ascii	"\035H;\221nG\332\205t\007\322n\244=Hw\"\335\205\224"
 135      6E47DA85 
 135      7407D26E 
 135      A43D4877 
 135      22DD8594 
 136 029f 85C3425A 		.ascii	"\205\303BZX\272\272y\366\305N\265\215\314\202,\211D"
 136      58BABA79 
 136      F6C54EB5 
 136      8DCC822C 
 136      8944
 137 02b1 687A892B 		.ascii	"hz\211+\377ZM\003&\266)]\261\017\223\304\266\244\024"
 137      FF5A4D03 
 137      26B6295D 
 137      B10F93C4 
 137      B6A414
 138 02c4 53D2DD43 		.ascii	"S\322\335C\0171J`/\373,b\024\272\327b*\301\321t\216"
 138      0F314A60 
 138      2FFB2C62 
 138      14BAD762 
 138      2AC1D174 
 139 02d9 448EBDF2 		.ascii	"D\216\275\362E\231\207\036\241\026\362*\331\323$\313"
 139      4599871E 
 139      A116F22A 
 139      D9D324CB 
 140 02e9 0588F65D 		.ascii	"\005\210\366]y\013\234e\327\243\030\250\317&\3613\002"
 140      790B9C65 
 140      D7A318A8 
 140      CF26F133 
 140      02
 141 02fa 6B17C8E6 		.ascii	"k\027\310\346\350\371>\252H\326\320\234\204\210\325"
ARM GAS  /tmp/ccUmqVQw.s 			page 11


 141      E8F93EAA 
 141      48D6D09C 
 141      8488D5
 142 0309 4B510695 		.ascii	"KQ\006\225X\3754\247\236\362]l\245\321Om\212G|\011\364"
 142      58FD34A7 
 142      9EF25D6C 
 142      A5D14F6D 
 142      8A477C09 
 143 031e D9084338 		.ascii	"\331\010C8\227\220s\244\371\202)\256\320\306t\302E\223"
 143      979073A4 
 143      F98229AE 
 143      D0C674C2 
 143      4593
 144 0330 62CC125F 		.ascii	"b\314\022_\267'\014\331\275T\231pl3,\226\371i\236\213"
 144      B7270CD9 
 144      BD549970 
 144      6C332C96 
 144      F9699E8B 
 145 0344 B4D27DF2 		.ascii	"\264\322}\362+\337\363\323\374\270\005?u\0202HZn$|\265"
 145      2BDFF3D3 
 145      FCB8053F 
 145      75103248 
 145      5A6E247C 
 146 0359 835ECB48 		.ascii	"\203^\313H\250\026S\023\271\350D4\276\274\223)\032\340"
 146      A8165313 
 146      B9E84434 
 146      BEBC9329 
 146      1AE0
 147 036b C4109114 		.ascii	"\304\020\221\024)\236\035\017N%\365\210\034\211\354"
 147      299E1D0F 
 147      4E25F588 
 147      1C89EC
 148 037a 4D192FC5 		.ascii	"M\031/\305\314\300\211\323\316$\320@y$z\305\253\247"
 148      CCC089D3 
 148      CE24D040 
 148      79247AC5 
 148      ABA7
 149 038c 9F759303 		.ascii	"\237u\223\003)\365\243\263\177(Wbw\373\302\301C\345"
 149      29F5A3B3 
 149      7F285762 
 149      77FBC2C1 
 149      43E5
 150 039e 3CA3E3A9 		.ascii	"<\243\343\251=p\346f\023\303\177\010\243s\012\263F1"
 150      3D70E666 
 150      13C37F08 
 150      A3730AB3 
 150      4631
 151 03b0 EA65F020 		.ascii	"\352e\360 \316[i\002\213\002/5{\350Y\305CeU\376q\222"
 151      CE5B6902 
 151      8B022F35 
 151      7BE859C5 
 151      436555FE 
 152 03c6 E3717B78 		.ascii	"\343q{x\264\2628\024\342\255\014p|=\364\0354\241\304"
 152      B4B23814 
 152      E2AD0C70 
 152      7C3DF41D 
 152      34A1C4
ARM GAS  /tmp/ccUmqVQw.s 			page 12


 153 03d9 BDF9DEB6 		.ascii	"\275\371\336\266D\210\035`\010\244\240\352F\306\276"
 153      44881D60 
 153      08A4A0EA 
 153      46C6BE
 154 03e8 50147B07 		.ascii	"P\024{\007\217}\221\213\374\211\307\276x\364\330\027"
 154      8F7D918B 
 154      FC89C7BE 
 154      78F4D817 
 155 03f8 0A626F26 		.ascii	"\012bo&CYJ\354\357f\032{S\032\261\367\320\323\314\331"
 155      43594AEC 
 155      EF661A7B 
 155      531AB1F7 
 155      D0D3CCD9 
 156 040c B4627F45 		.ascii	"\264b\177E\030\373\353\372\261\367\320\341\224\372\261"
 156      18FBEBFA 
 156      B1F7D0E1 
 156      94FAB1
 157 041b 920AF442 		.ascii	"\222\012\364B\177\007B\377\001\206\376\242(\364/kC\177"
 157      7F0742FF 
 157      0186FEA2 
 157      28F42F6B 
 157      437F
 158 042d 2945E899 		.ascii	")E\350\231\271t\"\177\251\371DG\"\300%`G\024y\247(\362"
 158      B974227F 
 158      A9F94447 
 158      22C02560 
 158      471479A7 
 159 0443 253CF225 		.ascii	"%<\362%.r\215G\276t\364\310;\005\221\267\220\177Q\323"
 159      2E728D47 
 159      BE74F4C8 
 159      3B0591B7 
 159      907F51D3 
 160 0457 05D212BD 		.ascii	"\005\322\022\275\365\267\3548\344\011KN/\337\016N\371"
 160      F5B7EC38 
 160      E4094B4E 
 160      2FDF0E4E 
 160      F9
 161 0468 E9387097 		.ascii	"\3518p\227u\313X\2469bV`\217n9\230\313Q\367\320_!\320"
 161      75CB58A6 
 161      39625660 
 161      8F6E3998 
 161      CB51F7D0 
 162 047f 8747008D 		.ascii	"\207G\000\215v\306\247\350\242\177\035\331E\025\035"
 162      76C6A7E8 
 162      A27F1DD9 
 162      45151D
 163 048e 494B87D5 		.ascii	"IK\207\325%\336Q#C\267\271\2342\016\230\015^p\375\335"
 163      25DE5123 
 163      43B7B99C 
 163      320E980D 
 163      5E70FDDD 
 164 04a2 16E5420D 		.ascii	"\026\345B\015\235\300V\223{\255\262\356\022\241>\201"
 164      9DC05693 
 164      7BADB2EE 
 164      12A13E81 
 165 04b2 A35EE622 		.ascii	"\243^\346\"\3679\352\345\252Q\025u\256B\200z\0269\215"
 165      F739EAE5 
ARM GAS  /tmp/ccUmqVQw.s 			page 13


 165      AA511575 
 165      AE42807A 
 165      16398D
 166 04c5 936768F0 		.ascii	"\223gh\360@b\337D\345~\320\267s\246\370\252\233]@\307"
 166      4062DF44 
 166      E57ED0B7 
 166      73A6F8AA 
 166      9B5D40C7 
 167 04d9 1CC98E4D 		.ascii	"\034\311\216M\0229\346V\033A\247\2446\202Q\034\233$"
 167      1239E656 
 167      1B41A7A4 
 167      3682511C 
 167      9B24
 168 04eb 702C9B94 		.ascii	"p,\233\224\242_\237\251~=\241\372\025\371~|\361\311"
 168      A25F9FA9 
 168      7E3DA1FA 
 168      15F97E7C 
 168      F1C9
 169 04fd 78E8F8C4 		.ascii	"x\350\370\304RV'\263\335\354Z\222\243SD\216N\316\310"
 169      525627B3 
 169      DDEC5A92 
 169      A353448E 
 169      4ECEC8
 170 0510 D1290247 		.ascii	"\321)\002G\255\004\032\326\373\327\245xh\301\307\031"
 170      AD041AD6 
 170      FBD7A578 
 170      68C1C719 
 171 0520 E4B0BC05 		.ascii	"\344\260\274\005\300B\307F\\<\374\320E\326\352\372\312"
 171      C042C746 
 171      5C3CFCD0 
 171      45D6EAFA 
 171      CA
 172 0531 334C638B 		.ascii	"3Lc\213\261\255\356\360\260\250\325u\370\306\240\325"
 172      B1ADEEF0 
 172      B0A8D575 
 172      F8C6A0D5 
 173 0541 9D8D3045 		.ascii	"\235\2150E\377\306R\371B\324\352Z\265\255\356?\006\264"
 173      FFC652F9 
 173      42D4EA5A 
 173      B5ADEE3F 
 173      06B4
 174 0553 3A03A13B 		.ascii	":\003\241;\"\204n\367\246\254\307\217]\3539\300\356"
 174      22846EF7 
 174      A6ACC78F 
 174      5DEB39C0 
 174      EE
 175 0564 3E627757 		.ascii	">bwW\204]\233\026\273\257\037\001\273c\306cwT\210\335"
 175      845D9B16 
 175      BBAF1F01 
 175      BB63C663 
 175      775488DD 
 176 0578 9EB1C0EE 		.ascii	"\236\261\300\356\014b\327,\001vM\222\000\273v-v\233"
 176      0C62D72C 
 176      01764D92 
 176      00BB762D 
 176      769B
 177 058a A4FF1DBB 		.ascii	"\244\377\035\273\343\034;\230n{?\321\235n\255\312tc"
ARM GAS  /tmp/ccUmqVQw.s 			page 14


 177      E31C3B98 
 177      6E7B3FD1 
 177      9D6EADCA 
 177      7463
 178 059c 3B7BF759 		.ascii	";{\367Y\3646\266\251\033_\323\335\330\036\337\2709\372"
 178      F436B6A9 
 178      1B5FD3DD 
 178      D81EDFB8 
 178      39FA
 179 05ae FAC1C404 		.ascii	"\372\301\304\004\236\226\3113B_\032\317\010\323\231"
 179      9E96C933 
 179      425F1ACF 
 179      08D399
 180 05bd 4ED133C2 		.ascii	"N\3213\302LQ\327\235\236\3213\302LA\327\315!7)\266\335"
 180      4C51D79D 
 180      9ED133C2 
 180      4C41D7CD 
 180      213729B6 
 181 05d2 370E509D 		.ascii	"7\016P\235\306\273j\264\276\253h\261\021I\371\262\371"
 181      C6BB6AB4 
 181      BEAB68B1 
 181      1149F9B2 
 181      F9
 182 05e3 8B4C3B70 		.ascii	"\213L;p\226\261\245pEX\012o\216E\007\376\000*a\027V"
 182      96B1A570 
 182      45580A6F 
 182      8E4507FE 
 182      002A6117 
 183 05f8 428FA812 		.ascii	"B\217\250\022\266i+a\367#T\302c\350\300\037\011\241"
 183      B6692B61 
 183      F72354C2 
 183      63E8C01F 
 183      09A1
 184 060a 7B6B4C3A 		.ascii	"{kL:\360\207\200\335k\210\335^\021v\035Z\354z\037\001"
 184      F08780DD 
 184      6B88DD5E 
 184      11761D5A 
 184      EC7A1F01 
 185 061e BBC7D081 		.ascii	"\273\307\320\201\377\"\304\356\227c\322\201\021\273"
 185      FF22C4EE 
 185      9763D281 
 185      11BB
 186 062c 83885D9F 		.ascii	"\203\210]\237\010\273N-v\375\006u\340c\372\035\270S"
 186      08BB4E2D 
 186      76FD0675 
 186      E063FA1D 
 186      B853
 187 063e 6DACEFEA 		.ascii	"m\254\357\3526\326\016u\343q\335\215\333\324\016|B\355"
 187      36D60E75 
 187      E371DD8D 
 187      DBD40E7C 
 187      42ED
 188 0650 C0B38CEE 		.ascii	"\300\263\214\356\300\263\231NQ\007\236#\352\300\263"
 188      C0B3994E 
 188      51079E23 
 188      EAC0B3
 189 065f 33EAC073 		.ascii	"3\352\300s\004\0358\227P\345'\253\2673\355\235\331\306"
ARM GAS  /tmp/ccUmqVQw.s 			page 15


 189      041D3897 
 189      50E527AB 
 189      B733ED9D 
 189      D9C6
 190 0671 2671CF19 		.ascii	"&q\317\031Q\022\017\032\324;\013\365\352\377\023\310"
 190      51120F1A 
 190      D43B0BF5 
 190      EAFF13C8 
 191 0681 E1A398C3 		.ascii	"\341\243\230\303GD9\274]\233\303\357\246\312\341\302"
 191      474439BC 
 191      5D9BC3EF 
 191      A6CAE1C2 
 192 0691 31ED9DBB 		.ascii	"1\355\235\273\204\320\015\217I\375#v\277A\354N\212\260"
 192      84D00D8F 
 192      49FD2376 
 192      BF41EC4E 
 192      8AB0
 193 06a3 EBD26237 		.ascii	"\353\322b7`@\357\204\372?\253_\377\333\325j=\247V\353"
 193      6040EF84 
 193      FA3FAB5F 
 193      FFDBD56A 
 193      3DA756EB 
 194 06b7 B34657EB 		.ascii	"\263FW\353\\\246\363\005\345\347\302\244j\235'\252\326"
 194      5CA6F305 
 194      E5E7C2A4 
 194      6A9D27AA 
 194      D6
 195 06c8 B9BC5AC7 		.ascii	"\271\274Z\307\273H?\177J\375\306\350\325:OP\255vBL\014"
 195      BB483F7F 
 195      4AFDC6E8 
 195      D53A4F50 
 195      AD76424C 
 196 06dd 112B3120 		.ascii	"\021+1 k\366\211\262fT\315\006\215\332\253\220.g1]\206"
 196      6BF689B2 
 196      6654CD06 
 196      8DDAAB90 
 196      2E67315D 
 197 06f2 45E9B243 		.ascii	"E\351\262C\233.\347\015\370\232\002IpYM\202\347\014"
 197      9B2EE70D 
 197      F89A0249 
 197      70594D82 
 197      E70C
 198 0704 488241F2 		.ascii	"H\202A\362\273\253\252\302D\277V#\225\307\"u\201d\305"
 198      BBABAAC2 
 198      44BF5623 
 198      95C72275 
 198      8164C5
 199 0717 B7CC37DA 		.ascii	"\267\3147\332\346\374D\326\305?\213X\353't1\344\021"
 199      E6FC44D6 
 199      C53F8B58 
 199      EB277431 
 199      E411
 200 0729 74F49B89 		.ascii	"t\364\233\211\034]P\003\026G$\347BQr.\310h\224,\324"
 200      1C5D5003 
 200      164724E7 
 200      4251722E 
 200      C868942C 
ARM GAS  /tmp/ccUmqVQw.s 			page 16


 201 073e 24E76582 		.ascii	"$\347e\202?2\232)\311G\237Yb\344\021\276bG@\012\020"
 201      3F329A29 
 201      C9479F59 
 201      62E411BE 
 201      6247400A 
 202 0753 9096E815 		.ascii	"\220\226\350\025\375\272\355R\307\361\237u\307\361\016"
 202      FDBAED52 
 202      C7F19F75 
 202      C7F10E
 203 0762 B5C03F52 		.ascii	"\265\300?Rc\373\274\321\005\276\204\351\024\215\343"
 203      63FBBCD1 
 203      05BE84E9 
 203      148DE3
 204 0771 A5220C97 		.ascii	"\245\"\014\227d\204\341RA\201\027*\301;v\351x\246\343"
 204      6484E152 
 204      4181172A 
 204      C13B76E9 
 204      78A6E3
 205 0784 D84A0C9D 		.ascii	"\330J\014\235)\227\2053\345\037c\360(\323z\007z\304"
 205      29978533 
 205      E51F63F0 
 205      28D37A07 
 205      7AC4
 206 0796 A7D823FE 		.ascii	"\247\330#\376.\352\021\335\332\036\361\331\377\327\243"
 206      2EEA11DD 
 206      DA1EF1D9 
 206      FFD7A3
 207 07a5 CC152174 		.ascii	"\314\025!t7\306d\034#v\377D\354\256\213\260\353\321"
 207      37C6641C 
 207      2376FF44 
 207      ECAE8BB0 
 207      EBD1
 208 07b7 6277CBA0 		.ascii	"bw\313\240q|S\277\254\273\325j\275\245Vk\225\321\325"
 208      717C53BF 
 208      ACBBD56A 
 208      BDA5566B 
 208      95D1D5
 209 07ca BA8CE914 		.ascii	"\272\214\351\024\215\343"
 209      8DE3
 210 07d0 6A51B52E 		.ascii	"jQ\265.\313h\034W\013\252\265\310\300q\374\371c\032"
 210      CB681C57 
 210      0BAAB5C8 
 210      C071FCF9 
 210      631A
 211 07e2 C76EBD52 		.ascii	"\307n\275R\273\017\351r\017\323\345+Q\272\354\324\246"
 211      BB0FE972 
 211      0FD3E52B 
 211      51BAECD4 
 211      A6
 212 07f3 CB8354E9 		.ascii	"\313\203T\351\342Ng\034\267D\277\322O\227\235\352\024"
 212      E24E671C 
 212      B744BFD2 
 212      4F979DEA 
 212      14
 213 0804 B8AB3B05 		.ascii	"\270\253;\005z\324\274\272\247\346U\215\321yU\313t\212"
 213      7AD4BCBA 
 213      A7E6558D 
ARM GAS  /tmp/ccUmqVQw.s 			page 17


 213      D17955CB 
 213      748A
 214 0816 A6C04A51 		.ascii	"\246\300JQ^\325f4\005V\012\362\252\230O\201/\177\233"
 214      5ED56634 
 214      05560AF2 
 214      AA984F81 
 214      2F7F9B
 215 0829 E914C851 		.ascii	"\351\024\310Q\242\035\335\332O\037\202-\011\013\026"
 215      A21DDDDA 
 215      4F1F822D 
 215      090B16
 216 0838 BDAACCE0 		.ascii	"\275\252\314\340\210\014]\372\370\232\024w\273^\331"
 216      880C5DFA 
 216      F89A1477 
 216      BB5ED9
 217 0847 69EC23E0 		.ascii	"i\354#\340\371\207K@WyZU\300|\325\251\200\33773%\035"
 217      F9874B40 
 217      57795A55 
 217      C07CD5A9 
 217      80DF3733 
 218 085d 26B8E776 		.ascii	"&\270\347v\223\240\002vi+`\273i\364\012`\246Rf?\276"
 218      93A00276 
 218      692B60BB 
 218      69F40A60 
 218      A652663F 
 219 0872 A03DB437 		.ascii	"\240=\2647\221BA\260\001R\332\027\264\253E\271\025\314"
 219      914241B0 
 219      0152DA17 
 219      B4AB45B9 
 219      15CC
 220 0884 E805ED6A 		.ascii	"\350\005\355jAn\225\340\367\260\315\275m\331\361]\241"
 220      416E95E0 
 220      F7B0CDBD 
 220      6DD9F15D 
 220      A1
 221 0895 74AA85E7 		.ascii	"t\252\205\347\302\250\025\022fz\260B4w\261Nt\027a~\027"
 221      C2A81512 
 221      667AB042 
 221      3477B14E 
 221      7417617E 
 222 08aa 135CE41D 		.ascii	"\023\\\344\035\336y\2779\372]\254\023\334E)\3776\331"
 222      DE79BF39 
 222      FA5DAC13 
 222      DC4529FF 
 222      36D9
 223 08bc 7E55B78F 		.ascii	"~U\267\217\354\242\211\267\314\227>\315\264\226l\274"
 223      ECA289B7 
 223      CC973ECD 
 223      B4966CBC 
 224 08cc 96F6F627 		.ascii	"\226\366\366'\\i4\272\261\254g:E\215e\203\010\266\365"
 224      5C6934BA 
 224      B1AC673A 
 224      458D6583 
 224      08B6F5
 225 08df 1935960D 		.ascii	"\0315\226\015\002\330\234Jc\031zC}\220x1^\310\312\353"
 225      02D89C4A 
 225      63197A43 
ARM GAS  /tmp/ccUmqVQw.s 			page 18


 225      7D907831 
 225      5EC8CAEB 
 226 08f3 58657163 		.ascii	"Xeqc\374\177\234\222\234\225)\333\316.&y\032\241\"W"
 226      FC7F9C92 
 226      9C9529DB 
 226      CE2E2679 
 226      1AA12257 
 227 0907 65CA7D75 		.ascii	"e\312}u\271\310{<\304\023G\3675B\005\316\216Cg\361\255"
 227      B9C87B3C 
 227      C41347F7 
 227      354205CE 
 227      8E4367F1 
 228 091c AB52427D 		.ascii	"\253RB}\342W\262\312\305C\302W\003e\374\177\262\336"
 228      E257B2CA 
 228      C543C257 
 228      0365FC7F 
 228      B2DE
 229 092e BF3E18D2 		.ascii	"\277>\030\322Q\263J_K9j\371#i\262\252\376-b\361g\253"
 229      51B34A5F 
 229      4B396AF9 
 229      2369B2AA 
 229      FE2D62F1 
 230 0944 70C3532B 		.ascii	"p\303S+**\225\277\260/\024\256\\\023\256\014\005\327"
 230      2A2A95BF 
 230      B02F14AE 
 230      5C13AE0C 
 230      05D7
 231 0956 AEF1FA14 		.ascii	"\256\361\372\024\026HU\310\267z\255/\340\365U==uj\205"
 231      164855C8 
 231      B77AAD2F 
 231      E0F5553D 
 231      3D756A85 
 232 096a 97980215 		.ascii	"\227\230\002\025O\323\000\243S\355\341`\330SW\025\362"
 232      4FD300A3 
 232      53EDE160 
 232      D8535715 
 232      F2
 233 097b 37FA2AA6 		.ascii	"7\372*\246\345\327y\326\324\340v`\247g\373W\204\353"
 233      E5D779D6 
 233      D4E07660 
 233      A767FB57 
 233      84EB
 234 098d 1B2A6698 		.ascii	"\033*f\230C\215\0253\245P\243M\335k\037\271Sj\230*5"
 234      438D1533 
 234      A550A34D 
 234      DD6B1FB9 
 234      536A982A 
 235 09a2 4C931AA6 		.ascii	"L\223\032\246\027\324\372<\015\356\025k<5\365\276@\330"
 235      17D4FA3C 
 235      0DEE156B 
 235      3C35F5BE 
 235      40D8
 236 09b4 B79C5860 		.ascii	"\267\234X`\241\301\014\233\236J8\031\014Uz\203\365\365"
 236      A1C10C9B 
 236      9E4A3819 
 236      0C557A83 
 236      F5F5
ARM GAS  /tmp/ccUmqVQw.s 			page 19


 237 09c6 C1003BAB 		.ascii	"\301\000;\253\363WW\372\003\336\272\265\313}\225\336"
 237      F35757FA 
 237      03DEBAB5 
 237      CB7D95DE 
 238 09d6 5AD85D51 		.ascii	"Z\330]QK\234\236\272\272\240\327\023\366\007\003\356"
 238      4B9C9EBA 
 238      BAA0D713 
 238      F60703EE 
 239 09e6 4030EC5E 		.ascii	"@0\354^\341\361\3271eE#\226\371Rq\275?\024\362\007j"
 239      E1F1D731 
 239      65452396 
 239      F95271BD 
 239      3F14F207 
 240 09fb 984D9FCF 		.ascii	"\230M\237\317]\315.\257\"\316\265\001\337O\033|^f\337"
 240      5DCD2EAF 
 240      22CEB501 
 240      DF4F1B7C 
 240      5E66DF
 241 0a0e 8DFE84C2 		.ascii	"\215\376\204\302\236\260\217\344\373\003\353<u\376\345"
 241      9EB08FE4 
 241      FB03EB3C 
 241      75FEE5
 242 0a1d 9CB58162 		.ascii	"\234\265\201b_}C\370g$\017\334s{k=\201\032\246\362\277"
 242      5F7D43F8 
 242      67240FDC 
 242      737B6B3D 
 242      811AA6F2 
 243 0a32 F4DE7C5C 		.ascii	"\364\336|\\"
 244              		.text
 245              		.section	.gnu.lto_test_011_001_setup.7cfad7002667fcf2,"",%progbits
 246 0000 789C6362 		.ascii	"x\234cb`b@\007\222@\274\006\210\215\201\230\221\231"
 246      60624007 
 246      9240BC06 
 246      888D8198 
 246      9199
 247 0012 819169C2 		.ascii	"\201\221i\3029\006\206F\016&FF\020\203\201\221\241\236"
 247      39068646 
 247      0E264646 
 247      10838191 
 247      A19E
 248 0024 89B13E92 		.ascii	"\211\261>\222\021\254v=\323\201\007\377\377\257\373"
 248      11AC763D 
 248      D38107FF 
 248      FFAFFB
 249 0033 D2B6FC0C 		.ascii	"\322\266\374\014\343l&f\240\010+CKC\303\004\005\006"
 249      E36C2666 
 249      A0082B43 
 249      4B43C304 
 249      0506
 250 0045 8664B08A 		.ascii	"\206d\260\212\020 \011\322\026\312\310\004\242\231\317"
 250      102009D2 
 250      16CAC804 
 250      A299CF
 251 0054 33B43DD8 		.ascii	"3\264=\330\375\230+\221q!#+P\272\232\341WCG\203@&#P"
 251      FD982B91 
 251      7121232B 
 251      50BA9AE1 
ARM GAS  /tmp/ccUmqVQw.s 			page 20


 251      57434783 
 252 006c 39C44490 		.ascii	"9\304D\220\010G&#c.#\003T\021DM\303D\306LF\246\\FF\250"
 252      08472623 
 252      632E2303 
 252      5411444D 
 252      C344C64C 
 253 0086 680490CB 		.ascii	"h\004\220\313\374\202\207!\223\221\205\201\341\"C\343"
 253      FC828721 
 253      93918581 
 253      E12243E3 
 254 0096 833DCA30 		.ascii	"\203=\3120C! \004h \320F\220\377\014\365\364\364!\250"
 254      43212004 
 254      6820D046 
 254      90FF0CF5 
 254      F4F421A8 
 255 00aa 24B5B844 		.ascii	"$\265\270D\277\250D\2778\277\264(9\025\302\005\021\361"
 255      BFA844BF 
 255      38BFB428 
 255      3915C205 
 255      11F1
 256 00bc C5A985A5 		.ascii	"\305\251\205\245\251y\311\251\361\006\206\206z\311\014"
 256      A979C9A9 
 256      F1068686 
 256      7AC90C
 257 00cb 00627B3F 		.ascii	"\000b{?H"
 257      48
 258              		.text
 259              		.section	.gnu.lto_.symbol_nodes.7cfad7002667fcf2,"",%progbits
 260 0000 789C4D50 		.ascii	"x\234MP\313JC1\024<'\271Q\352c\253`\305\357r\253\202"
 260      CB4A4331 
 260      143C27B9 
 260      51EA63AB 
 260      60C5EF72 
 261 0016 5D081514 		.ascii	"]\010\025\024,(\364\024\002\212\025D\\\2732\240\320"
 261      2C28F414 
 261      028A1544 
 261      5CBB32A0 
 261      D0
 262 0027 827E44F6 		.ascii	"\202~D\366\272\023|\267\306\372\031b\316D\274f1\303"
 262      BA137CB7 
 262      C6FA1962 
 262      CE44BC66 
 262      31C3
 263 0039 4C664E1E 		.ascii	"LfN\036\206\014\255\032*\313\274\262\020\235\335\021"
 263      860CAD1A 
 263      2ACBBCB2 
 263      109DDD11 
 264 0049 895C1CAF 		.ascii	"\211\\\034\257\271\021\033\022r\217LN\310<\263p\275"
 264      B9111B12 
 264      728F4C4E 
 264      C83CB370 
 264      BD
 265 005a 699E58CC 		.ascii	"i\236X\314\277\354\027\263f\337\331\346\254{\341\252"
 265      BFEC17B3 
 265      66DFD9E6 
 265      AC7BE1AA 
 266 006a 12EBDED8 		.ascii	"\022\353\336\330e\342\017\026[\242\275\036\363'KU\253"
ARM GAS  /tmp/ccUmqVQw.s 			page 21


 266      65E20F16 
 266      5BA2BD1E 
 266      F3274B55 
 266      AB
 267 007b C4E26A35 		.ascii	"\304\342j5f\231\252\325\204e\372OY\232\2430\372\316"
 267      6699AAD5 
 267      8465FA4F 
 267      599AA330 
 267      FACE
 268 008d 3C437EAC 		.ascii	"<C~\254\334\240\004\236\245p8\251\324\017G\312\015\362"
 268      DCA0049E 
 268      A57038A9 
 268      D40F47CA 
 268      0DF2
 269 009f FDCCF637 		.ascii	"\375\314\3667os\016\234{\232S\015\316\272\377P\366\301"
 269      6F730E9C 
 269      7B9A530D 
 269      CEBAFF50 
 269      F6C1
 270 00b1 79CEC9B2 		.ascii	"y\316\311\262\326\222R\203\342i\241{\213\3149F\304\005"
 270      D6925283 
 270      E269A17B 
 270      8BCC3946 
 270      C405
 271 00c3 E0227049 		.ascii	"\340\"pIK\276\211*06\321oj!\254\340\210u\340\006p\023"
 271      4BBE892A 
 271      3036D16F 
 271      6A21ACE0 
 271      8875E006 
 272 00d9 196002FA 		.ascii	"\031`\002\372\026\256\331\302\001-d\266\200m$\333\230"
 272      16AED9C2 
 272      012D64B6 
 272      806D24DB 
 272      98
 273 00ea D6C6B46D 		.ascii	"\326\306\264m\365\303\016\034`\330U\337\357!\011L{\352"
 273      F5C30E1C 
 273      60D855DF 
 273      EF21094C 
 273      7BEA
 274 00fc FB0E6EDD 		.ascii	"\373\016n\335\321|\332\007\036\340\206]\335\215]\264"
 274      D17CDA07 
 274      1EE0865D 
 274      DD8D5DB4 
 275 010c 04A75CE2 		.ascii	"\004\247\\\342\325\261PR\312\365\200/\211\001*\\\341"
 275      D5B15052 
 275      CAF5802F 
 275      89012A5C 
 275      E1
 276 011d D5E11AA6 		.ascii	"\325\341\032\246\037\300\214\203\242\206\245>,\275\233"
 276      1FC08C83 
 276      A286A53E 
 276      2CBD9B
 277 012c D22B946E 		.ascii	"\322+\224n\331V\363\344\363\307\323\017\321P\215\257"
 277      D956F3E4 
 277      F3C7D30F 
 277      D1508DAF 
 278              		.text
ARM GAS  /tmp/ccUmqVQw.s 			page 22


 279              		.section	.gnu.lto_.refs.7cfad7002667fcf2,"",%progbits
 280 0000 789C6D87 		.ascii	"x\234m\207\301\015\300 \020\303\022\037\005&a\273\356"
 280      C10DC020 
 280      10C3121F 
 280      052661BB 
 280      EE
 281 0011 FF2DE2C4 		.ascii	"\377-\342\304\243\002KV\034\204^%!\033\354\021\271\177"
 281      A3024B56 
 281      1C845E25 
 281      211BEC11 
 281      B97F
 282 0023 935B9D7F 		.ascii	"\223[\235\177\367\3322}\2504\372\264\020\356H\037k\242"
 282      F7DA327D 
 282      A834FAB4 
 282      10EE481F 
 282      6BA2
 283 0035 0175     		.ascii	"\001u"
 284              		.text
 285              		.section	.gnu.lto_.decls.7cfad7002667fcf2,"",%progbits
 286 0000 789CAD5A 		.ascii	"x\234\255Z{\220\024\305\031\357\236\275}q\013\302\021"
 286      7B9014C5 
 286      19EF9EBD 
 286      7D710BC2 
 286      11
 287 0011 0D181FAB 		.ascii	"\015\030\037\253\245\251(\221\003b\224TY\202b\002\244"
 287      A5A92891 
 287      03629454 
 287      59826202 
 287      A4
 288 0022 6262C5B2 		.ascii	"bb\305\262*U\251d\035\366\346\356V\357v\327\3319\300"
 288      2A55A964 
 288      1DF6E6EE 
 288      56EF76D7 
 288      D939C0
 289 0035 E40F8705 		.ascii	"\344\017\207\005\017D\364\016\020\004\005\356P\021("
 289      0F44F40E 
 289      100405EE 
 289      501128
 290 0044 10116278 		.ascii	"\020\021bx\0108\240u\034 \217\003\004\014\242\033D\036"
 290      0838A075 
 290      1C208F03 
 290      040CA21B 
 290      441E
 291 0056 823C3D45 		.ascii	"\202<=E\0047_\367\364\354\316\314\316\354\316\034\231"
 291      04375FF7 
 291      F4ECCECC 
 291      CEECCE1C 
 291      99
 292 0067 A29B99B9 		.ascii	"\242\233\231\271\376~\375\373\036\375\365c\207C\034"
 292      FE7EFDFB 
 292      1EFDF563 
 292      87431C
 293 0076 1ACA2194 		.ascii	"\032\312!\224\205k\310\275\0105\370\020*C\010\335\017"
 293      856BC8BD 
 293      0835F810 
 293      2A4308DD 
 293      0F
ARM GAS  /tmp/ccUmqVQw.s 			page 23


 294 0087 A53794F9 		.ascii	"\2457\224\371P^\203\262\020\212\027\3123\030!\031\312"
 294      505E83B2 
 294      108A17CA 
 294      33182119 
 294      CA
 295 0098 4AB84FC3 		.ascii	"J\270O\303\377\343\241<\013\245\021\312$(\317A\231\014"
 295      FFE3A13C 
 295      0BA511CA 
 295      2428CF41 
 295      990C
 296 00aa 650A9417 		.ascii	"e\012\224\027\2404Ai\2062\015\012\271\002Pf\300\375"
 296      A0344169 
 296      86320D0A 
 296      B9025066 
 296      C0FD
 297 00bc 6C2873A0 		.ascii	"l(s\240\264@Y\010\345-(\357@Y\005\005(\240\365\360\377"
 297      B4405908 
 297      E52D28EF 
 297      40590505 
 297      28A0F5F0 
 298 00d1 FB503642 		.ascii	"\373P6B\371\000\312A(G\031\206v\021\234k\221\312\245"
 298      F900CA41 
 298      28471986 
 298      76119C6B 
 298      91CAA5
 299 00e4 079410E1 		.ascii	"\007\224\020\341\013\357\2060\256\247\340\376k\254r"
 299      0BEF8630 
 299      AEA7E0FE 
 299      6BAC72
 300 00f3 27DC5640 		.ascii	"'\334V@9\015e\021\22438\257K+\224\263P\226\341\274\276"
 300      390D6511 
 300      943338AF 
 300      4B2B94B3 
 300      5096E1BC 
 301 0108 E4F2B13E 		.ascii	"\344\362\261>\010\257s\214g\013\343\012&\243\334\326"
 301      08AF738C 
 301      670BE30A 
 301      26A3DCD6 
 302 0118 9B3811BD 		.ascii	"\2338\021\275\302\254\177\215\023\341W\246\343f\305"
 302      C2AC7F8D 
 302      13E157A6 
 302      E366C5
 303 0127 EB8CCE8E 		.ascii	"\353\214\316\216\255:\236\032\037\215\253\306S\263\253"
 303      AD3A9E1A 
 303      1F8DABC6 
 303      53B3AB
 304 0136 6667CDEE 		.ascii	"fg\315\356\232O4\376\263\031\377\026\235\016\305\370"
 304      9A4F34FE 
 304      B319FF16 
 304      9D0EC5F8 
 305 0146 139F10EE 		.ascii	"\023\237\020\356\227\030\277i\354y5k\307\2616\253\030"
 305      9718BF69 
 305      EC79356B 
 305      C7B136AB 
 305      18
 306 0157 86E627FD 		.ascii	"\206\346'\375U\216&\313rZnm\224G\264\367\350\205\232"
 306      558E26CB 
ARM GAS  /tmp/ccUmqVQw.s 			page 24


 306      725A6E6D 
 306      9447B4F7 
 306      E8859A
 307 016a 65B8C2B3 		.ascii	"e\270\302\263z\004\321$\362:\263@\356\323\007\241\277"
 307      7A04D124 
 307      F23AB340 
 307      EED307A1 
 307      BF
 308 017b 601EC3AB 		.ascii	"`\036\303\253\000\275\011\005\021\301\270\035\275\001"
 308      00BD0905 
 308      11C1B81D 
 308      BD01
 309 0189 4DA13DC7 		.ascii	"M\241=\307\343\327q\020:\340L\320\332\245\376\235\\"
 309      E3D77110 
 309      3AE04CD0 
 309      DAA5FE9D 
 309      5C
 310 019a 445CBDD7 		.ascii	"D\\\275\327\356\2628\207\276\034k\360\3271\261\327p"
 310      EEB23887 
 310      BE1C6BF0 
 310      D731B1D7 
 310      70
 311 01ab 2F7A47C9 		.ascii	"/zG\311\310\214#m\301D\302\232D\031\223xS\327Q(\230"
 311      C88C236D 
 311      C144C29A 
 311      44199378 
 311      53D75128 
 312 01c0 BFB99651 		.ascii	"\277\271\226Q\261\223\233\217\313-\015R\201\246R\203"
 312      B1939B8F 
 312      CB2D0D52 
 312      81A65283 
 313 01d0 4CFA22CF 		.ascii	"L\372\"\317S\3464\351\260f\206\346L\323\321\214G\226"
 313      53E634E9 
 313      B06686E6 
 313      4CD3D18C 
 313      4796
 314 01e2 033C5E84 		.ascii	"\003<^\204+\300\024\2030\272\023-V\355\223\276\325\312"
 314      2BC01483 
 314      30BA132D 
 314      56ED93BE 
 314      D5CA
 315 01f4 2EA59139 		.ascii	".\245\22194\034\003\265\245\000\310\343%\370Nfqe\372"
 315      341C03B5 
 315      A500C8E3 
 315      25F84E66 
 315      7165FA
 316 0207 C4905CA6 		.ascii	"\304\220\\\246\276G\354/\026\327-\250\025\272Vfl\236"
 316      BE47EC2F 
 316      16D72DA8 
 316      15BA5666 
 316      6C9E
 317 0219 D3576EDD 		.ascii	"\323Wn\335\204\015Z]\207f0{\312X\342\361\220r[\273\274"
 317      840D5A5D 
 317      8766307B 
 317      CA58E2F1 
 317      90725BBB 
 318 022e 83555F78 		.ascii	"\203U_xh\374 \026\025*\212\2655\231=\3667\356\273\200"
ARM GAS  /tmp/ccUmqVQw.s 			page 25


 318      68FC2016 
 318      152A8AB5 
 318      35993DF6 
 318      37EEBB80 
 319 0242 D380CFE3 		.ascii	"\323\200\317\343\22548\024\214\015dy\354\015\032\203"
 319      95343814 
 319      8C0D6479 
 319      EC0D1A83 
 320 0252 049EB506 		.ascii	"\004\236\265\006\004\317\033\314\337\220\204wM\216\205"
 320      04CF1BCC 
 320      DF908477 
 320      4D8E85
 321 0261 26CAE3C7 		.ascii	"&\312\343\307<9\371\"\\Zvl\236\312\270,\007Cp\250\323"
 321      3C39F922 
 321      5C5A766C 
 321      9ECAB82C 
 321      074370A8 
 322 0276 C4C5601C 		.ascii	"\304\305`\034Ui;\203\254\001\000k\233\027\374\215Ci"
 322      55693B83 
 322      AC01006B 
 322      9B17FC8D 
 322      4369
 323 0288 4E73A015 		.ascii	"Ns\240\025\\.Fu\364\365\316\2233M\027\332=\257\310\312"
 323      5C2E4675 
 323      F4F5CE93 
 323      334D17DA 
 323      3DAFC8CA 
 324 029c AC01BDD1 		.ascii	"\254\001\275\3214\3420\305\247\217\226\241\032B \247"
 324      34E230C5 
 324      A78F96A1 
 324      1A4220A7 
 325 02ac AAF25EDB 		.ascii	"\252\362^\333\215$6\326\341\336\320\375\363\234Q\315"
 325      8D2436D6 
 325      E1DED0FD 
 325      F39C51CD 
 326 02bc D2281C9A 		.ascii	"\322(\034\232Me\336\007yC\314}\334\346\011\253\257K"
 326      4D65DE07 
 326      7943CC7D 
 326      DCE609AB 
 326      AF4B
 327 02ce 87DCFEC6 		.ascii	"\207\334\376\306\246\353\345\326)}X\260(\215\362$<\356"
 327      A6EBE5D6 
 327      297D58B0 
 327      288DF224 
 327      3CEE
 328 02e0 9D1B8AF1 		.ascii	"\235\033\212\361\316\274\272\347\364|\346\242\017h\270"
 328      CEBCBAE7 
 328      F47CE6A2 
 328      0F68B8
 329 02ef EC347177 		.ascii	"\3544qw\003\3269\363\362F<\236\202\265Q\2605\036s\354"
 329      03D639F3 
 329      F2463C9E 
 329      82B551B0 
 329      351E73EC 
 330 0303 054DB117 		.ascii	"\005M\261\0274\306^0\230\277\311j\227q\024;\226\341"
 330      34C65E30 
 330      98BFC96A 
ARM GAS  /tmp/ccUmqVQw.s 			page 26


 330      9771143B 
 330      96E1
 331 0315 D0268F66 		.ascii	"\320&\217fS+\322\245\303\340\314\311E\230\214a\2262"
 331      532BD2A5 
 331      C3E0CCC9 
 331      45988C61 
 331      9632
 332 0327 5A87EAC6 		.ascii	"Z\207\352\306\236\001\212\260\332fN\027\237\264\341"
 332      9E018AB0 
 332      DA664E17 
 332      9FB4E1
 333 0336 B0FABAB4 		.ascii	"\260\372\272\264\353\0166\316-\314\026j8\331\015\210"
 333      EB0E36CE 
 333      2DCC166A 
 333      38D90D88 
 334 0346 1DF9CCC9 		.ascii	"\035\371\314\311\241v\252\351\266.\006|Z9\324\246f+"
 334      A176AAE9 
 334      B62E067C 
 334      5A39D4A6 
 334      662B
 335 0358 2D696C77 		.ascii	"-ilw\215\0276)\306\241=Wg}\345\273\266n\362\264\220"
 335      8D173629 
 335      C6A13D57 
 335      677DE5BB 
 335      B66EF2B4 
 336 036d 23DBEF35 		.ascii	"#\333\3575\333\376\034\265\375^G\266\277\300l\317\343"
 336      DBFE1CB5 
 336      FD5E47B6 
 336      BFC06CCF 
 336      E3
 337 037e 8534491D 		.ascii	"\2054I\035\240\274\367v\331\226\235&[\036r\215Wh\313"
 337      A0BCF776 
 337      D9969D26 
 337      5B1E728D 
 337      5768CB
 338 0391 C35DB5A5 		.ascii	"\303]\265\245\325\245O3<\336\210o\207z\023\276\005\352"
 338      D5A54F33 
 338      3CDE886F 
 338      877A13BE 
 338      05EA
 339 03a3 ADB4DE03 		.ascii	"\255\264\336\003\265\256\357c\036S2\265\352;`\357\307"
 339      B5AEEF63 
 339      1E5332B5 
 339      EA3B60EF 
 339      C7
 340 03b4 39C39B79 		.ascii	"9\303\233ym\322\3259Q\316\255:z\242\\\006Y\327r\017"
 340      6DD2D539 
 340      51CEAD3A 
 340      7AA25C06 
 340      59D7720F 
 341 03c8 49A387E8 		.ascii	"I\243\207\350\\\376b\2311{\224\004\341\320L*\2221\207"
 341      5CFE6299 
 341      317B9404 
 341      E1D04C2A 
 341      923187
 342 03db C3053EAC 		.ascii	"\303\005>\254\276-\025\015\262\322\371e0\037ua\273\240"
 342      BE2D150D 
ARM GAS  /tmp/ccUmqVQw.s 			page 27


 342      B2D2F965 
 342      301F7561 
 342      BBA0
 343 03ed 6374B387 		.ascii	"ct\263\207\225\353\267\310rO\036\037\241\214?\264fl"
 343      95EBB7C8 
 343      724F1E1F 
 343      A18C3FB4 
 343      666C
 344 03ff 1FBC1CDA 		.ascii	"\037\274\034\332KE\216\231\030g^=v\361\216Y\024\371"
 344      4B458E99 
 344      18675E3D 
 344      76F18E59 
 344      14F9
 345 0411 98A320EE 		.ascii	"\230\243 \356\230l\221@,\264h-\323\272\177(\257\306"
 345      986C9140 
 345      2CB4682D 
 345      D3BA7F28 
 345      AFC6
 346 0423 8F872FFA 		.ascii	"\217\207/\372\351\032\352\024\325\242\321[\322\356F"
 346      E91AEA14 
 346      D5A2D15B 
 346      D2EE46
 347 0432 180E3551 		.ascii	"\030\0165Q\2213\205Z\354\352\247jq\306\221\361\277\333"
 347      9133855A 
 347      ECEAA76A 
 347      71C691F1 
 347      BFDB
 348 0444 3A07AB43 		.ascii	":\007\253CG\265\347\354\034lWRHZ\271\2705\324\314;_"
 348      47B5E7EC 
 348      1C6C5752 
 348      485AB9B8 
 348      35D4CC3B 
 349 0459 3B65BF52 		.ascii	";e\277R\372\254\247t;\351\310=\340\265\234\013\035 "
 349      FAACA774 
 349      3BE9C83D 
 349      E0B59C0B 
 349      1D20
 350 046b 75CEDC7B 		.ascii	"u\316\334{\216M\253\027)T\306k\236\011\375\246\231\320"
 350      8E4DAB17 
 350      2954C66B 
 350      9E09FDA6 
 350      99D0
 351 047d 6F9CD5FC 		.ascii	"o\234\325\374\301\374\015[\205\271l\316\241\023f\363"
 351      C1FC0D5B 
 351      85B96CCE 
 351      A11366F3 
 352 048d 59651EFB 		.ascii	"Ye\036\373\221\013\356;\336o\315\012Y~\316\247\005\262"
 352      910BEE3B 
 352      DE6FCD0A 
 352      597ECEA7 
 352      05B2
 353 049f CF4E6F0E 		.ascii	"\317No\016\235\246\235])\010\201=\037\245\3618j\211"
 353      9DA69D5D 
 353      2908813D 
 353      1FA5F138 
 353      6A89
 354 04b1 2B8E22F9 		.ascii	"+\216\"\371\335\255/;\213\344\334\232\3756\332\377\017"
ARM GAS  /tmp/ccUmqVQw.s 			page 28


 354      DDAD2F3B 
 354      8BE4DC9A 
 354      FD36DAFF 
 354      0F
 355 04c2 B4FF3467 		.ascii	"\264\3774g\352\277\345|\373_\325\020$\177*\335\375\232"
 355      EABFE57C 
 355      FB5FD510 
 355      247F2ADD 
 355      FD9A
 356 04d4 FD2F59CD 		.ascii	"\375/Y\315\304\367_[\314\335\257\3569z\216)\331\310"
 356      C4F75F5B 
 356      CCDDAFEE 
 356      397A8E29 
 356      D9C8
 357 04e6 9139E45D 		.ascii	"\2219\344]\237\331\335C\312\365\235\321g\303\222u\203"
 357      9FD9DD43 
 357      CAF59DD1 
 357      67C39275 
 357      83
 358 04f7 4FA3DFA5 		.ascii	"O\243\337\245Y\007\364<\376\267\305\324W\032\207\215"
 358      5907F43C 
 358      FEB7C5D4 
 358      571A878D 
 359 0507 AE11C306 		.ascii	"\256\021\303\006K\254\333\017\203G\003\373\320\011\230"
 359      4BACDB0F 
 359      834703FB 
 359      D00998
 360 0516 6D28A595 		.ascii	"m(\245\225\015z\260\315\256\301\214\314v\351\301\266"
 360      0D7AB0CD 
 360      AEC18CCC 
 360      76E9C1B6 
 361 0526 3A01EB69 		.ascii	":\001\353i\317l\267\036l\273k0#\263\275z\260]N\300\372"
 361      CF6CB71E 
 361      6CBB6B30 
 361      23B3BD7A 
 361      B05D4EC0 
 362 053b D833DBA7 		.ascii	"\3303\333\247\007\333\353\032\314\310\354\200\036\354"
 362      07DBEB1A 
 362      CCC8EC80 
 362      1EEC
 363 0549 8013B0B0 		.ascii	"\200\023\260\260\005\263\334e\267*\035\307\351V\245"
 363      05B3DC65 
 363      B72A1DC7 
 363      E956A5
 364 0558 077D5A4A 		.ascii	"\007}ZJp\031\323(\217\361\231\317m\0163\350M&\322~k"
 364      7019D328 
 364      8FF199CF 
 364      6D0E33E8 
 364      4D26D27E 
 365 056d D9B83849 		.ascii	"\331\2708I\327w\207\235 \026\011\230\346m\324\222*\330"
 365      D777879D 
 365      20160998 
 365      E66DD492 
 365      2AD8
 366 057f 71D76046 		.ascii	"q\327`F\267\314#`\206\\\223;\000R\372\314\312g;\303"
 366      B7CC2360 
 366      865C933B 
ARM GAS  /tmp/ccUmqVQw.s 			page 29


 366      0052FACC 
 366      CA673BC3 
 367 0593 09108FDF 		.ascii	"\011\020\217\337\240\2136G\247;\205G.z\027\235v\302"
 367      A08B3647 
 367      A73B8547 
 367      2E7A179D 
 367      76C2
 368 05a5 BF488CEE 		.ascii	"\277H\214\356*\340\257n$\355:_\240\357\374\202\353\316"
 368      2AE0AF6E 
 368      24ED3A5F 
 368      A0EFFC82 
 368      EBCE
 369 05b7 8DC63BB8 		.ascii	"\215\306;\270m\316O\345\214\202ugfv&\313\315\360\307"
 369      6DCE4FE5 
 369      8C827567 
 369      667626CB 
 369      CDF0C7
 370 05ca F7B31DEA 		.ascii	"\367\263\035\352\"\216\314\313\227|\226S\274\003\250"
 370      228ECCCB 
 370      977C9653 
 370      BC03A8
 371 05d9 CE996F55 		.ascii	"\316\231oU\322E\323\022\0124\336o\316\370\3304\301c"
 371      D245D312 
 371      0A34DE6F 
 371      CEF8D834 
 371      C163
 372 05eb E38C9DF3 		.ascii	"\343\214\235\363\027s\227\233\266\034z\336o2\235\201"
 372      1773979B 
 372      B61C7ADE 
 372      6F329D81 
 373 05fb 6291119C 		.ascii	"b\221\021\234\033\026\355\225k\226\311\362x\237\033"
 373      1B16ED95 
 373      6B96C9F2 
 373      789F1B
 374 060a E36534E3 		.ascii	"\343e4\343-\247:O-\320\231\330\302\235\"\263]+\0220"
 374      2DA73A4F 
 374      2DD099D8 
 374      C29D22B3 
 374      5D2B1230 
 375 061e 2972B60B 		.ascii	")r\266\013\212\234\325\024y\227*\322\362\177Pd\241k"
 375      8A9CD514 
 375      79972AD2 
 375      F27F5064 
 375      A16B
 376 0630 457AEA14 		.ascii	"Ez\352\024\241+\376\221\352b\213\035\027\331/\266\010"
 376      A12BFE91 
 376      EA628B1D 
 376      17D92FB6 
 376      08
 377 0641 9FB59CF9 		.ascii	"\237\265\234\371\244h\007\331\362\222\327\245\327\331"
 377      A46807D9 
 377      F292D7A5 
 377      D7D9
 378 064f 1776A85B 		.ascii	"\027v\250[T\303\371n\211\245q;[\032\257\247\026[\352"
 378      54C3F96E 
 378      89A5713B 
 378      5B1AAFA7 
ARM GAS  /tmp/ccUmqVQw.s 			page 30


 378      165BEA
 379 0662 B718378E 		.ascii	"\267\0307\216\220:\367\355\354`Kc\205B\255(0\276\317"
 379      903AF7ED 
 379      EC604B63 
 379      8542AD28 
 379      30BECF
 380 0675 647B9FD1 		.ascii	"d{\237\321\366\360H\372\272H\317y\236ao\310\203\037"
 380      F6F048FA 
 380      BA48CF79 
 380      9E616FC8 
 380      831F
 381 0687 75598E43 		.ascii	"uY\216Ck)\015b\277\256,\300\210\377\224\373\326\260"
 381      6B290D62 
 381      BFAE2CC0 
 381      88FF94FB 
 381      D6B0
 382 0699 8946B5D1 		.ascii	"\211F\265\321\306\253BL+-M\332\301\304\020\272\320\271"
 382      C6AB424C 
 382      2B2D4DDA 
 382      C1C410BA 
 382      D0B9
 383 06ab 4AB8753B 		.ascii	"J\270u;\315\251\332\224\267O\331$\342\334f7\323g)\015"
 383      CDA9DA94 
 383      B74FD924 
 383      E2DC6637 
 383      D367290D 
 384 06bf 81AD7411 		.ascii	"\201\255t\021\321Q\340\267\223\330\264\310=i<\230\265"
 384      D151E0B7 
 384      93D8B4C8 
 384      3D693C98 
 384      B5
 385 06d0 8BE52DFA 		.ascii	"\213\345-\372I\341\310U\373\341\300\375F?|u\225\206"
 385      49E1C855 
 385      FBE1C0FD 
 385      463F7C75 
 385      9586
 386 06e2 FBBEC9D9 		.ascii	"\373\276\311\331\336\372q\015+D\0259O\273\335m\336\220"
 386      DEFA710D 
 386      2B441539 
 386      4FBBDD6D 
 386      DE90
 387 06f4 64B39946 		.ascii	"d\263\231F\026\377\273\035\354Hd\345 =\221P\267\304"
 387      16FFBB1D 
 387      EC4864E5 
 387      203D9150 
 387      B7C4
 388 0706 3CBE8039 		.ascii	"<\276\2009\206\312zu\265%\226\225\317\204\366\001n\206"
 388      86CA7A75 
 388      B5259695 
 388      CF84F601 
 388      6E86
 389 0718 FD7136EC 		.ascii	"\375q6\354\367\253\2112`\366\271bN\224\256\006\335\202"
 389      F7AB8932 
 389      60F6B962 
 389      4E94AE06 
 389      DD82
 390 072a 00366AE3 		.ascii	"\0006j\343t[\221\273\354b\252C\037S\213\003W\025\001"
ARM GAS  /tmp/ccUmqVQw.s 			page 31


 390      745B91BB 
 390      EC62AA43 
 390      1F538B03 
 390      571501
 391 073d 64233C42 		.ascii	"d#<B]D\232\206L\306f\310\020\006\207\364\014\226_\035"
 391      5D449A86 
 391      4CC666C8 
 391      100687F4 
 391      0C965F1D 
 392 0751 03E5BDDD 		.ascii	"\003\345\275\335\272\214\355\3600\343\000s]\206\272"
 392      BA8CEDF0 
 392      30E30073 
 392      5D86BA
 393 0760 6E5581EB 		.ascii	"nU\201\353.\232W(N\316\024>\350\252\"\271\0132Y\300"
 393      2E9A5728 
 393      4ECE143E 
 393      E8AA22B9 
 393      0B3259C0 
 394 0774 C1BA2F6C 		.ascii	"\301\272/lt\257.\206\301\035\231\337;<\227\310\345\256"
 394      74AF2E86 
 394      C11D99DF 
 394      3B3C97C8 
 394      E5AE
 395 0786 F6BEEDD4 		.ascii	"\366\276\355\324\030G9r\260\364\221\311\030\016\316"
 395      18473972 
 395      B0F491C9 
 395      180ECE
 396 0795 370E5291 		.ascii	"7\016R\221\023\346\341\014i\237\035\324\235pt\276\260"
 396      13E6E10C 
 396      699F1DD4 
 396      9D7074BE 
 396      B0
 397 07a6 72B296D4 		.ascii	"r\262\226\324\325\344\270\223\216\347\023\356\367\375"
 397      D5E4B893 
 397      8EE713EE 
 397      F7FD
 398 07b4 56979E1F 		.ascii	"V\227\236\037t\300\221M\302)\316p\232{\322\211\355\177"
 398      74C0914D 
 398      C229CE70 
 398      9A7BD289 
 398      ED7F
 399 07c6 611788B2 		.ascii	"a\027\210\262\322\271\333xDw"
 399      D2B9DB78 
 399      4477
 400 07d0 C18C6795 		.ascii	"\301\214g\225\217\014xz_\302nj\017\335M\2511z\331\011"
 400      8F0C787A 
 400      5FC26E6A 
 400      0FDD4DA9 
 400      317AD909 
 401 07e4 B901F660 		.ascii	"\271\001\366`-\3235\343\036\242S\324\263A\007x\203\355"
 401      2DD335E3 
 401      1EA253D4 
 401      B3410778 
 401      83ED
 402 07f6 944D2BAB 		.ascii	"\224M+\253\366hG\371\352\201\340\013\256\361\214\374"
 402      F66847F9 
 402      EA81E00B 
ARM GAS  /tmp/ccUmqVQw.s 			page 32


 402      AEF18CFC 
 403 0806 3E9E6E98 		.ascii	">\236n\230\321g:\201\033\352\330\367\371\343W\036\237"
 403      D1673A81 
 403      1BEAD8F7 
 403      F9E3571E 
 403      9F
 404 0817 A31BC4F3 		.ascii	"\243\033\304\363\364<\377\033Z_\246\365\034\216\324"
 404      F43CFF1B 
 404      5A5FA6F5 
 404      1C8ED4
 405 0826 F368DD4A 		.ascii	"\363h\335J\3537h\275\220\326o\323\372_\264^C\353/i}"
 405      EB3768BD 
 405      90D66FD3 
 405      FA5FB45E 
 405      43EB2F69 
 406 083b 9AD66769 		.ascii	"\232\326gi}\236\326\337\320\372[}l\331\345A\323\"@\013"
 406      7D9ED6DF 
 406      D0FA5B7D 
 406      6CD9E541 
 406      D322400B 
 407 084f F9635DFE 		.ascii	"\371c]\376\201e\367V\335\006|N\020\273\004\013\027\263"
 407      8165F756 
 407      DD067C4E 
 407      10BB040B 
 407      17B3
 408 0861 E1319D0D 		.ascii	"\3411\235\015OP\033~E\355vQ\257\2516\013g\272z0\235"
 408      4F501B7E 
 408      45ED7651 
 408      AFA9360B 
 408      67BA7A30 
 409 0876 59D7B241 		.ascii	"Y\327\262A\227\00584?\210\221\375lRd\036d&\271\014\263"
 409      97053834 
 409      3F8891FD 
 409      6C52641E 
 409      6426B90C 
 410 088b BA696A3A 		.ascii	"\272ij:Tdj\272\222\237\2324w\270\351\273\250\0053:\013"
 410      54646ABA 
 410      929F9A34 
 410      77B8E9BB 
 410      A805333A 
 411 08a0 1EA616FC 		.ascii	"\036\246\026\374\202Z\360\022\215\230\313\306l\2640"
 411      825AF012 
 411      8D98CBC6 
 411      6CB430
 412 08af 68FA6DC9 		.ascii	"h\372m\311\370\203\216\356\326\331\020X\252\353|\031"
 412      F8838EEE 
 412      D6D91058 
 412      AAEB7C19 
 413 08bf EDFC6DDA 		.ascii	"\355\374m\332\371{\264\376\024;\010\327\2056_\244\344"
 413      F97BB4FE 
 413      143B08D7 
 413      85365FA4 
 413      E4
 414 08d0 3FD1518F 		.ascii	"?\321Q\217X\230|s\216p\005\003\220=n?\236\031\347\261"
 414      58987C73 
 414      8E700503 
 414      903D6E3F 
ARM GAS  /tmp/ccUmqVQw.s 			page 33


 414      9E19E7B1 
 415 08e4 FE78A657 		.ascii	"\376x\246W\011\252Y\316\025\325ZM\276;\223\037\357\232"
 415      09AA59CE 
 415      15D55A4D 
 415      BE3B931F 
 415      EF9A
 416 08f6 E9041BA6 		.ascii	"\351\004\033\246\241\022L\323\036WL\215Q@\000\032]S"
 416      A1124CD3 
 416      1E574C8D 
 416      5140001A 
 416      5D53
 417 0908 9D6843F5 		.ascii	"\235hC\365\232\022T\237\265\241\252\376\234k'5\311\235"
 417      9A12549F 
 417      B5A1AAFE 
 417      9C6B2735 
 417      C99D
 418 091a 828F68F2 		.ascii	"\202\217h\362\335\230\374d\327\372=o\243_A\2663\311"
 418      DD98FC64 
 418      D7FA3D6F 
 418      A35F41B6 
 418      33C9
 419 092c 3DE78E69 		.ascii	"=\347\216iR\223\357\301\344_p\315\364E\033\246\335K"
 419      5293EFC1 
 419      E45F70CD 
 419      F4451BA6 
 419      DD4B
 420 093e 309DE28E 		.ascii	"0\235\342\216\351\254\\\320\364f\000\315\256\251N\265"
 420      E9AC5CD0 
 420      F46600CD 
 420      AEA94EB5 
 421 094e A15A5182 		.ascii	"\241ZQ\202j\223\003\252\344H\211\311+\325\032\300\361"
 421      6A9303AA 
 421      E44889C9 
 421      2BD51AC0 
 421      F1
 422 095f 104398EE 		.ascii	"\020C\230\356\232\353K6\\\217\225\032\214\323\362do"
 422      9AEB4B36 
 422      5C8F951A 
 422      8CD3F264 
 422      6F
 423 0970 46F364E5 		.ascii	"F\363d\345lf\325\222s\367\315%\013j\371\307\3543\330"
 423      6C66D592 
 423      73F7CD25 
 423      0B6AF9C7 
 423      EC33D8
 424 0983 F4959ACD 		.ascii	"\364\225\232\315O_\004i\246G\373bP\373 \214C\207\202"
 424      4F5F0469 
 424      A647FB62 
 424      50FB208C 
 424      438782
 425 0996 C6A53542 		.ascii	"\306\2455B?G\013\010\236\274H\366P4\322~\206\347f\244"
 425      3F470B08 
 425      9EBC48F6 
 425      5034D27E 
 425      86E766A4 
 426 09aa BB78FCB2 		.ascii	"\273x\374\262\207\323\277P\211)\227\333B\315\343`\313"
 426      87D3BF50 
ARM GAS  /tmp/ccUmqVQw.s 			page 34


 426      892997DB 
 426      42CDE360 
 426      CB
 427 09bb 7CB3DA17 		.ascii	"|\263\332\027l\252\035\241\3176\243\277b\211\376\215"
 427      6CAA1DA1 
 427      CF36A3BF 
 427      6289FE8D 
 428 09cb 197D6237 		.ascii	"\031}b7'\350s\314\350s\013\3213\315\231\316\025\347"
 428      27E873CC 
 428      E8730BD1 
 428      33CD99CE 
 428      15E7
 429 09dd 7E396B85 		.ascii	"~9k\205<\301\302\250\0014\221\036U>+\217\303O\345\034"
 429      3CC1C2A8 
 429      0134911E 
 429      553E2B8F 
 429      C34FE51C 
 430 09f1 65FB95E7 		.ascii	"e\373\225\347|O\200l\340\272\031O\211u\004H\003\315"
 430      7C4F806C 
 430      E0BA194F 
 430      89750448 
 430      03CD
 431 0a03 E3EABD76 		.ascii	"\343\352\275vW\344w\200V\217\341\023C\265}\376A\235"
 431      57E47780 
 431      568FE113 
 431      43B57DFE 
 431      419D
 432 0a15 5B0C9FFA 		.ascii	"[\014\237\372qh}\201\201\324FoZZ\240\351\265-x\266\274"
 432      71687D81 
 432      81D4466F 
 432      5A5AA0E9 
 432      B52D78B6 
 433 0a2a 69829CCD 		.ascii	"i\202\234\315>\203\234\177\373\270\310L\214L\311\271"
 433      3E839C7F 
 433      FBB8C84C 
 433      8C4CC9B9 
 434 0a3a 8795EAAE 		.ascii	"\207\225\352\256\265\330'\211\260\303\264\341\271\324"
 434      B5D82789 
 434      B0C3B4E1 
 434      B9D4
 435 0a48 8AA7327D 		.ascii	"\212\2472}\362\224\276\362\374\264\222\315\0161\323"
 435      F294BEF2 
 435      FCB492CD 
 435      0E31D3
 436 0a57 2C12FCCB 		.ascii	",\022\374\313\3144\351O\272\006\032\207lh,\267\2441"
 436      CC34E94F 
 436      BA061A87 
 436      6C682CB7 
 436      A431
 437 0a69 63F20B76 		.ascii	"c\362\013v4\212M=+\212\232\213ML\346g\023\321\3436D"
 437      348A4D3D 
 437      2B8A9A8B 
 437      4D4CE667 
 437      13D1E336 
 438 0a7e FF6D4934 		.ascii	"\377mI4;\261+\366Z]\224\347\020#M\346e\023\315N\033"
 438      3BB12BF6 
 438      5A5D94E7 
ARM GAS  /tmp/ccUmqVQw.s 			page 35


 438      10234DE6 
 438      6513CD4E 
 439 0a93 9AEB8C34 		.ascii	"\232\353\2144oE\363\345\314.\222\325\276\305\260\257"
 439      6F45F3E5 
 439      CC2E92D5 
 439      BEC5B0AF 
 440 0aa3 9F349E9C 		.ascii	"\2374\236\234?\341\254G\373H\270\261\\\203\321\326\033"
 440      3FE1AC47 
 440      FB48B8B1 
 440      5C83D1D6 
 440      1B
 441 0ab4 86EF7F09 		.ascii	"\206\357\177\011\342\206<\"Ek\316t\254\375\344g\213"
 441      E2863C22 
 441      456BCE74 
 441      ACFDE467 
 441      8B
 442 0ac5 D2F2843C 		.ascii	"\322\362\204<\030I\331\034Zk\006\263H\356\212\021\255"
 442      1849D91C 
 442      5A6B06B3 
 442      48EE8A11 
 442      AD
 443 0ad6 751A490E 		.ascii	"u\032I\016\375\026\323\344\240\241y\311\006\263\315"
 443      FD16D3E4 
 443      A0A179C9 
 443      06B3CD
 444 0ae5 0C5660C5 		.ascii	"\014V`\305MF\250\345\012\250\3311rm\232$o\025J\233s"
 444      4D46A8E5 
 444      0AA8D931 
 444      726D9A24 
 444      6F154A9B 
 445 0afa 74E7BB4A 		.ascii	"t\347\273J\376\300\022\266\013\270\324WX\235+:\372\220"
 445      FEC012B6 
 445      0BB8D457 
 445      589D2B3A 
 445      FA90
 446 0b0c 9F474A7E 		.ascii	"\237GJ~p\305\343\315\236\333K\177\227E\317x=\246o\262"
 446      70C5E3CD 
 446      9EDB4B7F 
 446      9745CF78 
 446      3DA66FB2 
 447 0b20 7E10C2EA 		.ascii	"~\020\302\352\333\322g&W\256\264cz\004J\222\022\314"
 447      DBD26726 
 447      57AEB463 
 447      7A044A92 
 447      12CC
 448 0b32 F91CC700 		.ascii	"\371\034\307\000\273\266\177\314\236\240p\246\325\035"
 448      BBB67FCC 
 448      9EA070A6 
 448      D51D
 449 0b40 9901EC8C 		.ascii	"\231\001\354\214\276\335c\372Zc\027\365\223\033\012"
 449      BEDD63FA 
 449      5A6317F5 
 449      931B0A
 450 0b4f 610385E6 		.ascii	"a\003\205\3466\272\205%\270\034\332\347\004\254\310"
 450      36BA8525 
 450      B81CDAE7 
 450      04ACC8
ARM GAS  /tmp/ccUmqVQw.s 			page 36


 451 0b5e E66F9A1E 		.ascii	"\346o\232\036\354s\327`a\223\321\265\375\323V\017\331"
 451      EC73D760 
 451      6193D1B5 
 451      FDD3560F 
 451      D9
 452 0b6f 3F6DF390 		.ascii	"?m\363\220\235\323G\264\336I\353\016\217\361\363\300"
 452      9DD347B4 
 452      DE49EB0E 
 452      8FF1F3C0 
 453 0b7f 72E398D4 		.ascii	"r\343\230\324\234\252\303\313\373\036\225F\264\366\201"
 453      9CAAC3CB 
 453      FB1E9546 
 453      B4F681
 454 0b8e C9596D36 		.ascii	"\311Ym6\372\321\217A=\206_!\362\220\217\033w+\371q\242"
 454      FAD18F41 
 454      3D865F21 
 454      F2908F1B 
 454      772BF971 
 455 0ba3 CA58B7E2 		.ascii	"\312X\267\342\361\307\256Wf\373lVf\372$\225oEV5\346"
 455      F1C7AE57 
 455      66FB6C56 
 455      66FA2495 
 455      6F455635 
 456 0bb8 615F4062 		.ascii	"a_@b?\014\373\233\320\204\320\\Y\365\335\335h\245<I"
 456      3F0CFB9B 
 456      D084D05C 
 456      59F5DDDD 
 456      68A53C49 
 457 0bcc 19C0E30F 		.ascii	"\031\300\343\017\201].*\376\211.\311\263d\310\010\237"
 457      815D2E2A 
 457      FE892EC9 
 457      B364C808 
 457      9F
 458 0bdd 8CF4A84A 		.ascii	"\214\364\250J\221\034\261k\227\262g\0079\265\203$\361"
 458      911CB16B 
 458      97B26707 
 458      39B58324 
 458      F1
 459 0bee 63368B55 		.ascii	"c6\213U\363qh^\310\234\006\013F\355\247,\333\250\335"
 459      F371685E 
 459      C89C060B 
 459      46EDA72C 
 459      DBA8DD
 460 0c01 0D552555 		.ascii	"\015U%U\027\252}\221\237\035\235,\316\217\347\240od"
 460      17AA7D91 
 460      9F1D9D2C 
 460      CE8FE7A0 
 460      6F64
 461 0c13 D019D766 		.ascii	"\320\031\327f\375\257\215Yo(\0329<\376<\037\0207\241"
 461      FDAF8D59 
 461      6F281A39 
 461      3CFE3C1F 
 461      1037A1
 462 0c26 2560C259 		.ascii	"%`\302YC\363\335\253\221H\224\231$+\373zhc\235\255\361"
 462      43F3DDAB 
 462      91489499 
 462      242BFB7A 
ARM GAS  /tmp/ccUmqVQw.s 			page 37


 462      68639DAD 
 463 0c3b D4082578 		.ascii	"\324\010%x\333)\210\032\253\254\365\177r\255\365\353"
 463      DB29881A 
 463      ABACF57F 
 463      72ADF5EB 
 464 0c4b 4DC6026B 		.ascii	"M\306\002k\006Z]a\360\304\367;-<\261\245\264'\216\225"
 464      065A5D61 
 464      F0C4F73B 
 464      2D3CB1A5 
 464      B4278E95 
 465 0c5f F4C40F3B 		.ascii	"\364\304\017;\261\272\321\276\011\355cJ\2167(\251W\243"
 465      B1BAD1BE 
 465      09ED634A 
 465      8E3728A9 
 465      57A3
 466 0c71 885ACD15 		.ascii	"\210Z\315\025\232Z3\012\325R'Jm\210\231F\245\327\336"
 466      9A5A330A 
 466      D552274A 
 466      6D889946 
 466      A5D7DE
 467 0c84 77A76C77 		.ascii	"w\247lw\325+\212\344\335\257m\245\026\025\221:m+\325"
 467      D52B8AE4 
 467      DDAF6DA5 
 467      1615913A 
 467      6D2BD5
 468 0c97 5A44EA8C 		.ascii	"ZD\352\214\255\324\262\"Rg\2153\003\333O\235Yv\202\233"
 468      ADD4B222 
 468      52678D33 
 468      03DB4F9D 
 468      5976829B 
 469 0cab 2D2B74E1 		.ascii	"-+t\341{\213\363\205\357y'\013_\323\222\350H\310\230"
 469      7B8BF385 
 469      EF79270B 
 469      5FD392E8 
 469      48C898
 470 0cbe 7E6F43AF 		.ascii	"~oC\257\313\3624\271C\030\241}\317~\226\2668\007\276"
 470      CBF234B9 
 470      4318A17D 
 470      CF7E96B6 
 470      3807BE
 471 0cd1 B4EA971D 		.ascii	"\264\352\227\035x1\261+Dl%\375\326\341\023z,h/\306\350"
 471      7831B12B 
 471      446C25FD 
 471      D6E1137A 
 471      2C682FC6 
 472 0ce6 D00D525A 		.ascii	"\320\015RZ>x\344\221\021l\021g/\304\324\3544\256\326"
 472      3E78E491 
 472      116C1167 
 472      2FC4D4EC 
 472      34AED6
 473 0cf9 4CD65E5D 		.ascii	"L\326^]\304\332\227t\251\275,Z\313\213w\366\357_\251"
 473      C4DA9774 
 473      A9BD2C5A 
 473      CB8B77F6 
 473      EF5FA9
 474 0d0c FE4BA42A 		.ascii	"\376K\244*\243\211\372\372D\034\356\352b\243*c\361h"
 474      A389FAFA 
ARM GAS  /tmp/ccUmqVQw.s 			page 38


 474      441CEEEA 
 474      62A32A63 
 474      F168
 475 0d1e 5D439550 		.ascii	"]C\225P\031\255\255\025\370d\377Z\324\275^\250O\210"
 475      19ADAD15 
 475      F864FF5A 
 475      D4BD5EA8 
 475      4F88
 476 0d30 4F47C863 		.ascii	"OG\310cD\362\015\377\343c\341a\250\\\367\262\256\262"
 476      44F20DFF 
 476      E363E161 
 476      A85CF7B2 
 476      AEB2
 477 0d42 36512F54 		.ascii	"6Q/T\362u\302\330\312\207\205\270\224\020\207\213|\262"
 477      F275C2D8 
 477      CA8785B8 
 477      9410878B 
 477      7CB2
 478 0d54 36164D55 		.ascii	"6\026MU>\232h\020\243\002\264\033\226\250\022\036\024"
 478      3E9A6810 
 478      A302B41B 
 478      96A8121E 
 478      14
 479 0d65 E2D1DAC8 		.ascii	"\342\321\332\310\037b\222\020\251N\210\221\007\376\374"
 479      1F629210 
 479      A94E8891 
 479      07FEFC
 480 0d74 70E4B70F 		.ascii	"p\344\267\017<8\262\222\364Z\023\215V\362b\375]\361"
 480      3C38B292 
 480      F45A138D 
 480      56F262FD 
 480      5DF1
 481 0d86 445CB84B 		.ascii	"D\\\270K\340G\305*\357\356?\270\377\300\034\233\224"
 481      E047C52A 
 481      EFEE3FB8 
 481      FFC01C9B 
 481      94
 482 0d97 54552554 		.ascii	"TU%T\003\033_*\366\017!\"\335\345\200?P\214&D\001\204"
 482      031B5F2A 
 482      F60F2122 
 482      DDE5803F 
 482      508C2644 
 483 0dad 42705B23 		.ascii	"Bp[#H\325\015\361hD\012$\305\304\350X\225 v\247\032"
 483      48D50DF1 
 483      68440A24 
 483      C5C4E858 
 483      952076A7 
 484 0dc2 4105F711 		.ascii	"A\005\367\021\251\\\367t\207\005z2!J\251J =\354\341"
 484      A95CF774 
 484      87057A32 
 484      214AA94A 
 484      203DECE1 
 485 0dd6 B100CE90 		.ascii	"\261\000\316\220\273\245\244'\371\272XM<\"\375\375*"
 485      BBA5A427 
 485      F9BA584D 
 485      3C22FDFD 
 485      2A
ARM GAS  /tmp/ccUmqVQw.s 			page 39


 486 0de7 CD60545F 		.ascii	"\315`T_\247x,.AO\201\006\370\377\236\273#\222\227\366"
 486      A7782C2E 
 486      414F8106 
 486      F8FF9EBB 
 486      239297F6 
 487 0dfb 571617C6 		.ascii	"W\026\027\306J\336$_#\244\312\252EA(#\364\313\210q\312"
 487      4ADE245F 
 487      23A4CAAA 
 487      45412823 
 487      F4CB8871 
 488 0e10 1A524295 		.ascii	"\032RB\225OU\344f\275\"\242\2447\2164\026@\375\365\015"
 488      4F55E466 
 488      BD22A2A4 
 488      378E3416 
 488      40FDF50D 
 489 0e24 9230166C 		.ascii	"\2220\026l\002\214\350\355m\266\002\251\247S\322\323"
 489      028CE8ED 
 489      6DB602A9 
 489      A753D2D3 
 490 0e34 49210552 		.ascii	"I!\005R\327H\265\"\300\247\"O5\010\015\340\214\236 "
 490      D748B522 
 490      C0A7224F 
 490      35080DE0 
 490      8C9E20
 491 0e47 6D7815B6 		.ascii	"mx\025\266G\211\326V\021e\324\346\021)\230\023\365R"
 491      4789D656 
 491      1165D4E6 
 491      11299813 
 491      F552
 492 0e59 C9C1252D 		.ascii	"\311\301%-\237\250O\306\352\0041U9|\3300\000\3248\371"
 492      9FA84FC6 
 492      EA043155 
 492      397CD830 
 492      00D438F9 
 493 0e6d A5A4184B 		.ascii	"\245\244\030K\200&\304L\277\032\024\221\312\310s\210"
 493      8026C44C 
 493      BF1A1491 
 493      CAC87388 
 494 0e7d C846A289 		.ascii	"\310F\242\2118\250&\225\323\007\370sT\032k\025?\026"
 494      38A82695 
 494      D307F873 
 494      541A6B15 
 494      3F16
 495 0e8f 1E8E8CBE 		.ascii	"\036\216\214\276\267\236\320\025\205\032pOD\342\304"
 495      B79ED015 
 495      851A704F 
 495      44E2C4
 496 0e9e BB39F1D7 		.ascii	"\2739\361\327\234x\017'\336\313\211\2039\3617\036q\340"
 496      9C780F27 
 496      DECB8983 
 496      39F1371E 
 496      71E0
 497 0eb0 002803B9 		.ascii	"\000(\003\271:\221K%=\000\355\215\013c\004\321\233\250"
 497      3A914B25 
 497      3D00ED8D 
 497      0B6304D1 
 497      9BA8
ARM GAS  /tmp/ccUmqVQw.s 			page 40


 498 0ec2 03FB97C5 		.ascii	"\003\373\227\305\371z\3017\206\037\305\247\204\200\224"
 498      F97AC137 
 498      861FC5A7 
 498      848094
 499 0ed1 927870BA 		.ascii	"\222xp\272\344'\024\007\203#\351\263_\252\207\240\200"
 499      E4271407 
 499      8323E9B3 
 499      5FAA87A0 
 499      80
 500 0ee2 A7EA3ABE 		.ascii	"\247\352:\276&\345\227D\241:\005\354\311\177\336\372"
 500      26E59744 
 500      A13A05EC 
 500      C97FDEFA 
 501 0ef2 540D3467 		.ascii	"T\0154g\012\371\304\252\247\341E@\030\033\223\242 \342"
 501      0AF9C4AA 
 501      A7E14540 
 501      181B93A2 
 501      20E2
 502 0f04 1B232546 		.ascii	"\033#%F=\221\254`\246\004\001A\204\320\"Pc$IL\372S\020"
 502      3D91AC60 
 502      A6040141 
 502      84D02250 
 502      6324494C 
 503 0f1b 84201002 		.ascii	"\204 \020\002\023\247\204z\010EP\310> \240\011h\352"
 503      13A7847A 
 503      084550C8 
 503      3E20A009 
 503      68EA
 504 0f2d 8DC6A588 		.ascii	"\215\306\245\210\344\201\032\340\341U\022\376\203PI"
 504      E4811AE0 
 504      E15512FE 
 504      835049
 505 0f3c 960BA309 		.ascii	"\226\013\243\011\032\237z\022\210\010c\310\015n\350"
 505      1A9F7A12 
 505      880863C8 
 505      0D6EE8
 506 0f4b A139BD2E 		.ascii	"\2419\275.\226\002\251kta@\336\370\307\3601)\026\257"
 506      9602A96B 
 506      746140DE 
 506      F8C7F031 
 506      2916AF
 507 0f5e 090009EA 		.ascii	"\011\000\011\352\334\200\220\024\342\020\3165~\200$"
 507      DC809014 
 507      E210CE35 
 507      7E8024
 508 0f6d 2DC0AE7C 		.ascii	"-\300\256|\035\361\223\267>\231H\324\201\313\204\321"
 508      1DF193B7 
 508      3E9948D4 
 508      81CB84D1 
 509 0f7d DEC498B8 		.ascii	"\336\304\230\270 z\240\305\300\034WIHI\204m\212\216"
 509      207AA0C5 
 509      C01C5749 
 509      4849846D 
 509      8A8E
 510 0f8f 23F59154 		.ascii	"#\365\221T\240\027\000\023\235\007\014\034\330?\212"
 510      A0170013 
 510      9D070C1C 
ARM GAS  /tmp/ccUmqVQw.s 			page 41


 510      D83F8A
 511 0f9e 7E42     		.ascii	"~B"
 512 0fa0 5FC27D64 		.ascii	"_\302}d\300\200A\021a\254\020\205\230\326\277\034\250"
 512      C0804111 
 512      61AC1085 
 512      98D6BF1C 
 512      A8
 513 0fb1 BDAC30BC 		.ascii	"\275\2540\274L\011RC\362\006cw$\227\020\205\340\236"
 513      4C095243 
 513      F2066377 
 513      24971085 
 513      E09E
 514 0fc3 D825F220 		.ascii	"\330%\362 \020\014\321\307\010\237J\011\242T\021\255"
 514      100CD1C7 
 514      089F4A09 
 514      A25411AD 
 515 0fd3 1D0163EE 		.ascii	"\035\001c\356\201\272\272D\364\0012$\205\252n\352\253"
 515      81BABA44 
 515      F4013224 
 515      85AA6EEA 
 515      AB
 516 0fe4 DFC1780C 		.ascii	"\337\301x\014\251\267\217\202\213\033R=\325\207?\215"
 516      A9B78F82 
 516      8B1B523D 
 516      D5873F8D 
 517 0ff4 7A42884A 		.ascii	"zB\210J#\3431)Hq\310\220"
 517      23E33129 
 517      4871C890 
 518 1000 BDA3B492 		.ascii	"\275\243\264\222b\"A(\224\323\207Q\015\325\340gU>%\011"
 518      62224128 
 518      94D38751 
 518      0DD5E067 
 518      553E2509 
 519 1014 492FE51E 		.ascii	"I/\345\036\220\004^\254\002\313\371\231~\335H\203(D"
 519      90045EAC 
 519      02CBF999 
 519      7EDD4883 
 519      2844
 520 1026 5D44EA55 		.ascii	"]D\352U`\251\276\375\305D\025/\361\375\013\376\022\322"
 520      60A9BEFD 
 520      C544152F 
 520      F1FD0BFE 
 520      12D2
 521 1038 9BE546AA 		.ascii	"\233\345F\252\032/\305\022\3610\037\257\012W\213|M="
 521      1A2FC512 
 521      F1301FAF 
 521      0A578B7C 
 521      4D3D
 522 104a 44017D83 		.ascii	"D\001}\203\364M\007u\177H\250\346\033\352\2440Q\023"
 522      F44D0775 
 522      7F48A8E6 
 522      1BEAA430 
 522      5113
 523 105c 95EB2CE3 		.ascii	"\225\353,\343%J&\377\007eJ\223\252"
 523      254A26FF 
 523      07654A93 
 523      AA
ARM GAS  /tmp/ccUmqVQw.s 			page 42


 524              		.text
 525              		.section	.gnu.lto_.symtab.7cfad7002667fcf2,"",%progbits
 526 0000 74657374 		.ascii	"test_heap\000\000\000\000\000\000\000\000\000\000\000"
 526      5F686561 
 526      70000000 
 526      00000000 
 526      00000000 
 527 0014 00BD0100 		.ascii	"\000\275\001\000\000test_sequence_011\000\000\000\000"
 527      00746573 
 527      745F7365 
 527      7175656E 
 527      63655F30 
 528 002e 00000000 		.ascii	"\000\000\000\000\000\000\000\000\303\001\000\000tes"
 528      00000000 
 528      C3010000 
 528      746573
 529 003d 745F7374 		.ascii	"t_step\000\000\002\000\000\000\000\000\000\000\000\000"
 529      65700000 
 529      02000000 
 529      00000000 
 529      0000
 530 004f C1010000 		.ascii	"\301\001\000\000test_buffer\000\000\002\000\000\000"
 530      74657374 
 530      5F627566 
 530      66657200 
 530      00020000 
 531 0064 00000000 		.ascii	"\000\000\000\000\000\000\277\001\000\000_test_asser"
 531      0000BF01 
 531      00005F74 
 531      6573745F 
 531      61737365 
 532 0079 74000002 		.ascii	"t\000\000\002\000\000\000\000\000\000\000\000\000\237"
 532      00000000 
 532      00000000 
 532      009F
 533 0087 01000063 		.ascii	"\001\000\000chHeapAllocAligned\000\000\002\000\000\000"
 533      68486561 
 533      70416C6C 
 533      6F63416C 
 533      69676E65 
 534 00a2 00000000 		.ascii	"\000\000\000\000\000\000\247\001\000\000chHeapFree\000"
 534      0000A701 
 534      00006368 
 534      48656170 
 534      46726565 
 535 00b7 00020000 		.ascii	"\000\002\000\000\000\000\000\000\000\000\000\255\001"
 535      00000000 
 535      000000AD 
 535      01
 536 00c4 00006368 		.ascii	"\000\000chHeapStatus\000\000\002\000\000\000\000\000"
 536      48656170 
 536      53746174 
 536      75730000 
 536      02000000 
 537 00da 00000000 		.ascii	"\000\000\000\000\261\001\000\000chHeapObjectInit\000"
 537      B1010000 
 537      63684865 
ARM GAS  /tmp/ccUmqVQw.s 			page 43


 537      61704F62 
 537      6A656374 
 538 00f3 00020000 		.ascii	"\000\002\000\000\000\000\000\000\000\000\000\267\001"
 538      00000000 
 538      000000B7 
 538      01
 539 0100 0000     		.ascii	"\000\000"
 540              		.text
 541              		.section	.gnu.lto_.opts,"",%progbits
 542 0000 272D6D63 		.ascii	"'-mcpu=cortex-m3' '-mno-thumb-interwork' '-mthumb' "
 542      70753D63 
 542      6F727465 
 542      782D6D33 
 542      2720272D 
 543 0033 272D6767 		.ascii	"'-ggdb' '-O2' '-fomit-frame-pointer' '-falign-funct"
 543      64622720 
 543      272D4F32 
 543      2720272D 
 543      666F6D69 
 544 0066 696F6E73 		.ascii	"ions=16' '-ffunction-sections' '-fdata-sections' '-"
 544      3D313627 
 544      20272D66 
 544      66756E63 
 544      74696F6E 
 545 0099 666E6F2D 		.ascii	"fno-common' '-flto'\000"
 545      636F6D6D 
 545      6F6E2720 
 545      272D666C 
 545      746F2700 
 546              		.text
 547              		.cfi_sections	.debug_frame
 548              		.section	.text.test_011_002_execute,"ax",%progbits
 549              		.align	2
 550              		.p2align 4,,15
 551              		.thumb
 552              		.thumb_func
 553              		.type	test_011_002_execute, %function
 554              	test_011_002_execute:
 555              	.LFB219:
 556              		.file 1 "../../../test/rt/source/test/test_sequence_011.c"
 557              		.loc 1 230 0
 558              		.cfi_startproc
 559              		@ args = 0, pretend = 0, frame = 8
 560              		@ frame_needed = 0, uses_anonymous_args = 0
 561 0000 70B5     		push	{r4, r5, r6, lr}
 562              		.cfi_def_cfa_offset 16
 563              		.cfi_offset 4, -16
 564              		.cfi_offset 5, -12
 565              		.cfi_offset 6, -8
 566              		.cfi_offset 14, -4
 567              		.loc 1 236 0
 568 0002 40F20004 		movw	r4, #:lower16:test_step
 569              		.loc 1 230 0
 570 0006 82B0     		sub	sp, sp, #8
 571              		.cfi_def_cfa_offset 24
 572              		.loc 1 236 0
 573 0008 0123     		movs	r3, #1
ARM GAS  /tmp/ccUmqVQw.s 			page 44


 574              		.loc 1 238 0
 575 000a 6946     		mov	r1, sp
 576 000c 01AA     		add	r2, sp, #4
 577              		.loc 1 236 0
 578 000e C0F20004 		movt	r4, #:upper16:test_step
 579              		.loc 1 238 0
 580 0012 0020     		movs	r0, #0
 581              		.loc 1 236 0
 582 0014 2360     		str	r3, [r4]
 583              		.loc 1 238 0
 584 0016 FFF7FEFF 		bl	chHeapStatus
 585              	.LVL0:
 586              	.LBB37:
 587              	.LBB38:
 588              		.file 2 "../../../os/common/oslib/include/chheap.h"
 589              		.loc 2 157 0
 590 001a 40F20000 		movw	r0, #:lower16:.LANCHOR0
 591 001e 1021     		movs	r1, #16
 592 0020 0822     		movs	r2, #8
 593 0022 C0F20000 		movt	r0, #:upper16:.LANCHOR0
 594 0026 FFF7FEFF 		bl	chHeapAllocAligned
 595              	.LVL1:
 596              	.LBE38:
 597              	.LBE37:
 598              		.loc 1 240 0
 599 002a 40F20001 		movw	r1, #:lower16:.LC0
 600 002e 0646     		mov	r6, r0
 601 0030 0030     		adds	r0, r0, #0
 602 0032 18BF     		it	ne
 603 0034 0120     		movne	r0, #1
 604 0036 C0F20001 		movt	r1, #:upper16:.LC0
 605 003a FFF7FEFF 		bl	_test_assert
 606              	.LVL2:
 607 003e 0546     		mov	r5, r0
 608 0040 08B1     		cbz	r0, .L5
 609              		.loc 1 250 0
 610 0042 02B0     		add	sp, sp, #8
 611              		@ sp needed
 612 0044 70BD     		pop	{r4, r5, r6, pc}
 613              	.L5:
 614              		.loc 1 241 0
 615 0046 3046     		mov	r0, r6
 616 0048 FFF7FEFF 		bl	chHeapFree
 617              	.LVL3:
 618              		.loc 1 245 0
 619 004c 0223     		movs	r3, #2
 620              	.LBB39:
 621              	.LBB40:
 622              		.loc 2 157 0
 623 004e 0822     		movs	r2, #8
 624 0050 2846     		mov	r0, r5
 625 0052 6FF0FF01 		mvn	r1, #255
 626              	.LBE40:
 627              	.LBE39:
 628              		.loc 1 245 0
 629 0056 2360     		str	r3, [r4]
 630              	.LVL4:
ARM GAS  /tmp/ccUmqVQw.s 			page 45


 631              	.LBB42:
 632              	.LBB41:
 633              		.loc 2 157 0
 634 0058 FFF7FEFF 		bl	chHeapAllocAligned
 635              	.LVL5:
 636              	.LBE41:
 637              	.LBE42:
 638              		.loc 1 248 0
 639 005c 40F20001 		movw	r1, #:lower16:.LC1
 640 0060 D0F10100 		rsbs	r0, r0, #1
 641 0064 38BF     		it	cc
 642 0066 0020     		movcc	r0, #0
 643 0068 C0F20001 		movt	r1, #:upper16:.LC1
 644 006c FFF7FEFF 		bl	_test_assert
 645              	.LVL6:
 646              		.loc 1 250 0
 647 0070 02B0     		add	sp, sp, #8
 648              		@ sp needed
 649 0072 70BD     		pop	{r4, r5, r6, pc}
 650              		.cfi_endproc
 651              	.LFE219:
 652              		.size	test_011_002_execute, .-test_011_002_execute
 653 0074 AFF30080 		.section	.text.test_011_001_execute,"ax",%progbits
 653      AFF30080 
 653      AFF30080 
 654              		.align	2
 655              		.p2align 4,,15
 656              		.thumb
 657              		.thumb_func
 658              		.type	test_011_001_execute, %function
 659              	test_011_001_execute:
 660              	.LFB218:
 661              		.loc 1 94 0
 662              		.cfi_startproc
 663              		@ args = 0, pretend = 0, frame = 16
 664              		@ frame_needed = 0, uses_anonymous_args = 0
 665 0000 2DE9F041 		push	{r4, r5, r6, r7, r8, lr}
 666              		.cfi_def_cfa_offset 24
 667              		.cfi_offset 4, -24
 668              		.cfi_offset 5, -20
 669              		.cfi_offset 6, -16
 670              		.cfi_offset 7, -12
 671              		.cfi_offset 8, -8
 672              		.cfi_offset 14, -4
 673              		.loc 1 102 0
 674 0004 40F20000 		movw	r0, #:lower16:.LANCHOR0
 675              		.loc 1 94 0
 676 0008 84B0     		sub	sp, sp, #16
 677              		.cfi_def_cfa_offset 40
 678              		.loc 1 100 0
 679 000a 40F20004 		movw	r4, #:lower16:test_step
 680 000e 0123     		movs	r3, #1
 681              		.loc 1 102 0
 682 0010 01A9     		add	r1, sp, #4
 683              		.loc 1 100 0
 684 0012 C0F20004 		movt	r4, #:upper16:test_step
 685              		.loc 1 102 0
ARM GAS  /tmp/ccUmqVQw.s 			page 46


 686 0016 C0F20000 		movt	r0, #:upper16:.LANCHOR0
 687 001a 0022     		movs	r2, #0
 688              		.loc 1 100 0
 689 001c 2360     		str	r3, [r4]
 690              		.loc 1 102 0
 691 001e FFF7FEFF 		bl	chHeapStatus
 692              	.LVL7:
 693 0022 B0F1010E 		subs	lr, r0, #1
 694 0026 DEF10000 		rsbs	r0, lr, #0
 695 002a 40F20001 		movw	r1, #:lower16:.LC2
 696 002e 50EB0E00 		adcs	r0, r0, lr
 697 0032 C0F20001 		movt	r1, #:upper16:.LC2
 698 0036 FFF7FEFF 		bl	_test_assert
 699              	.LVL8:
 700 003a 10B1     		cbz	r0, .L14
 701              	.L6:
 702              		.loc 1 207 0
 703 003c 04B0     		add	sp, sp, #16
 704              		@ sp needed
 705 003e BDE8F081 		pop	{r4, r5, r6, r7, r8, pc}
 706              	.L14:
 707              	.LBB43:
 708              	.LBB44:
 709              		.loc 2 157 0
 710 0042 40F20000 		movw	r0, #:lower16:.LANCHOR0
 711              	.LBE44:
 712              	.LBE43:
 713              		.loc 1 107 0
 714 0046 0223     		movs	r3, #2
 715              	.LBB47:
 716              	.LBB45:
 717              		.loc 2 157 0
 718 0048 4FF44D61 		mov	r1, #3280
 719 004c C0F20000 		movt	r0, #:upper16:.LANCHOR0
 720 0050 0822     		movs	r2, #8
 721              	.LBE45:
 722              	.LBE47:
 723              		.loc 1 107 0
 724 0052 2360     		str	r3, [r4]
 725              	.LVL9:
 726              	.LBB48:
 727              	.LBB46:
 728              		.loc 2 157 0
 729 0054 FFF7FEFF 		bl	chHeapAllocAligned
 730              	.LVL10:
 731              	.LBE46:
 732              	.LBE48:
 733              		.loc 1 110 0
 734 0058 40F20001 		movw	r1, #:lower16:.LC1
 735 005c D0F10100 		rsbs	r0, r0, #1
 736 0060 38BF     		it	cc
 737 0062 0020     		movcc	r0, #0
 738 0064 C0F20001 		movt	r1, #:upper16:.LC1
 739 0068 FFF7FEFF 		bl	_test_assert
 740              	.LVL11:
 741 006c 0028     		cmp	r0, #0
 742 006e E5D1     		bne	.L6
ARM GAS  /tmp/ccUmqVQw.s 			page 47


 743              	.LBB49:
 744              	.LBB50:
 745              		.loc 2 157 0
 746 0070 40F20000 		movw	r0, #:lower16:.LANCHOR0
 747              	.LBE50:
 748              	.LBE49:
 749              		.loc 1 115 0
 750 0074 0323     		movs	r3, #3
 751              	.LBB53:
 752              	.LBB51:
 753              		.loc 2 157 0
 754 0076 1021     		movs	r1, #16
 755 0078 C0F20000 		movt	r0, #:upper16:.LANCHOR0
 756 007c 0822     		movs	r2, #8
 757              	.LBE51:
 758              	.LBE53:
 759              		.loc 1 115 0
 760 007e 2360     		str	r3, [r4]
 761              	.LVL12:
 762              	.LBB54:
 763              	.LBB52:
 764              		.loc 2 157 0
 765 0080 FFF7FEFF 		bl	chHeapAllocAligned
 766              	.LVL13:
 767              	.LBE52:
 768              	.LBE54:
 769              		.loc 1 118 0
 770 0084 40F20001 		movw	r1, #:lower16:.LC0
 771 0088 0546     		mov	r5, r0
 772 008a 0030     		adds	r0, r0, #0
 773 008c 18BF     		it	ne
 774 008e 0120     		movne	r0, #1
 775 0090 C0F20001 		movt	r1, #:upper16:.LC0
 776 0094 FFF7FEFF 		bl	_test_assert
 777              	.LVL14:
 778 0098 0028     		cmp	r0, #0
 779 009a CFD1     		bne	.L6
 780              		.loc 1 119 0
 781 009c 2846     		mov	r0, r5
 782 009e FFF7FEFF 		bl	chHeapFree
 783              	.LVL15:
 784              	.LBB55:
 785              		.loc 1 128 0
 786 00a2 40F20000 		movw	r0, #:lower16:.LANCHOR0
 787              	.LBE55:
 788              		.loc 1 124 0
 789 00a6 0423     		movs	r3, #4
 790              	.LBB56:
 791              		.loc 1 128 0
 792 00a8 02A9     		add	r1, sp, #8
 793 00aa C0F20000 		movt	r0, #:upper16:.LANCHOR0
 794 00ae 03AA     		add	r2, sp, #12
 795              	.LBE56:
 796              		.loc 1 124 0
 797 00b0 2360     		str	r3, [r4]
 798              	.LBB57:
 799              		.loc 1 128 0
ARM GAS  /tmp/ccUmqVQw.s 			page 48


 800 00b2 FFF7FEFF 		bl	chHeapStatus
 801              	.LVL16:
 802              		.loc 1 129 0
 803 00b6 471E     		subs	r7, r0, #1
 804              		.loc 1 128 0
 805 00b8 0346     		mov	r3, r0
 806              		.loc 1 129 0
 807 00ba 40F20001 		movw	r1, #:lower16:.LC3
 808 00be 7842     		rsbs	r0, r7, #0
 809 00c0 7841     		adcs	r0, r0, r7
 810 00c2 C0F20001 		movt	r1, #:upper16:.LC3
 811              		.loc 1 128 0
 812 00c6 0093     		str	r3, [sp]
 813              		.loc 1 129 0
 814 00c8 FFF7FEFF 		bl	_test_assert
 815              	.LVL17:
 816 00cc 0028     		cmp	r0, #0
 817 00ce B5D1     		bne	.L6
 818              		.loc 1 130 0
 819 00d0 0298     		ldr	r0, [sp, #8]
 820 00d2 40F20001 		movw	r1, #:lower16:.LC4
 821 00d6 0F28     		cmp	r0, #15
 822 00d8 94BF     		ite	ls
 823 00da 0020     		movls	r0, #0
 824 00dc 0120     		movhi	r0, #1
 825 00de C0F20001 		movt	r1, #:upper16:.LC4
 826 00e2 FFF7FEFF 		bl	_test_assert
 827              	.LVL18:
 828 00e6 0028     		cmp	r0, #0
 829 00e8 A8D1     		bne	.L6
 830              		.loc 1 131 0
 831 00ea 0298     		ldr	r0, [sp, #8]
 832 00ec 039B     		ldr	r3, [sp, #12]
 833 00ee 40F20001 		movw	r1, #:lower16:.LC4
 834 00f2 C61A     		subs	r6, r0, r3
 835 00f4 7042     		rsbs	r0, r6, #0
 836 00f6 7041     		adcs	r0, r0, r6
 837 00f8 C0F20001 		movt	r1, #:upper16:.LC4
 838 00fc FFF7FEFF 		bl	_test_assert
 839              	.LVL19:
 840 0100 0546     		mov	r5, r0
 841 0102 0028     		cmp	r0, #0
 842 0104 9AD1     		bne	.L6
 843              	.LBE57:
 844              	.LBB58:
 845              	.LBB59:
 846              		.loc 2 157 0
 847 0106 40F20000 		movw	r0, #:lower16:.LANCHOR0
 848              	.LBE59:
 849              	.LBE58:
 850              		.loc 1 135 0
 851 010a 0523     		movs	r3, #5
 852              	.LBB62:
 853              	.LBB60:
 854              		.loc 2 157 0
 855 010c 1021     		movs	r1, #16
 856 010e 0822     		movs	r2, #8
ARM GAS  /tmp/ccUmqVQw.s 			page 49


 857 0110 C0F20000 		movt	r0, #:upper16:.LANCHOR0
 858              	.LBE60:
 859              	.LBE62:
 860              		.loc 1 135 0
 861 0114 2360     		str	r3, [r4]
 862              	.LVL20:
 863              	.LBB63:
 864              	.LBB61:
 865              		.loc 2 157 0
 866 0116 FFF7FEFF 		bl	chHeapAllocAligned
 867              	.LVL21:
 868 011a 0746     		mov	r7, r0
 869              	.LVL22:
 870              	.LBE61:
 871              	.LBE63:
 872              	.LBB64:
 873              	.LBB65:
 874 011c 40F20000 		movw	r0, #:lower16:.LANCHOR0
 875 0120 1021     		movs	r1, #16
 876 0122 0822     		movs	r2, #8
 877 0124 C0F20000 		movt	r0, #:upper16:.LANCHOR0
 878 0128 FFF7FEFF 		bl	chHeapAllocAligned
 879              	.LVL23:
 880 012c 0646     		mov	r6, r0
 881              	.LVL24:
 882              	.LBE65:
 883              	.LBE64:
 884              	.LBB66:
 885              	.LBB67:
 886 012e 40F20000 		movw	r0, #:lower16:.LANCHOR0
 887 0132 1021     		movs	r1, #16
 888 0134 0822     		movs	r2, #8
 889 0136 C0F20000 		movt	r0, #:upper16:.LANCHOR0
 890 013a FFF7FEFF 		bl	chHeapAllocAligned
 891              	.LVL25:
 892 013e 8046     		mov	r8, r0
 893              	.LBE67:
 894              	.LBE66:
 895              		.loc 1 140 0
 896 0140 3846     		mov	r0, r7
 897 0142 FFF7FEFF 		bl	chHeapFree
 898              	.LVL26:
 899              		.loc 1 141 0
 900 0146 3046     		mov	r0, r6
 901 0148 FFF7FEFF 		bl	chHeapFree
 902              	.LVL27:
 903              		.loc 1 142 0
 904 014c 4046     		mov	r0, r8
 905 014e FFF7FEFF 		bl	chHeapFree
 906              	.LVL28:
 907              		.loc 1 143 0
 908 0152 40F20000 		movw	r0, #:lower16:.LANCHOR0
 909 0156 2A46     		mov	r2, r5
 910 0158 6946     		mov	r1, sp
 911 015a C0F20000 		movt	r0, #:upper16:.LANCHOR0
 912 015e FFF7FEFF 		bl	chHeapStatus
 913              	.LVL29:
ARM GAS  /tmp/ccUmqVQw.s 			page 50


 914 0162 451E     		subs	r5, r0, #1
 915 0164 6842     		rsbs	r0, r5, #0
 916 0166 40F20001 		movw	r1, #:lower16:.LC2
 917 016a 6841     		adcs	r0, r0, r5
 918 016c C0F20001 		movt	r1, #:upper16:.LC2
 919 0170 FFF7FEFF 		bl	_test_assert
 920              	.LVL30:
 921 0174 0546     		mov	r5, r0
 922 0176 0028     		cmp	r0, #0
 923 0178 7FF460AF 		bne	.L6
 924              	.LBB68:
 925              	.LBB69:
 926              		.loc 2 157 0
 927 017c 40F20000 		movw	r0, #:lower16:.LANCHOR0
 928              	.LBE69:
 929              	.LBE68:
 930              		.loc 1 147 0
 931 0180 0623     		movs	r3, #6
 932              	.LBB72:
 933              	.LBB70:
 934              		.loc 2 157 0
 935 0182 1021     		movs	r1, #16
 936 0184 0822     		movs	r2, #8
 937 0186 C0F20000 		movt	r0, #:upper16:.LANCHOR0
 938              	.LBE70:
 939              	.LBE72:
 940              		.loc 1 147 0
 941 018a 2360     		str	r3, [r4]
 942              	.LVL31:
 943              	.LBB73:
 944              	.LBB71:
 945              		.loc 2 157 0
 946 018c FFF7FEFF 		bl	chHeapAllocAligned
 947              	.LVL32:
 948 0190 0646     		mov	r6, r0
 949              	.LVL33:
 950              	.LBE71:
 951              	.LBE73:
 952              	.LBB74:
 953              	.LBB75:
 954 0192 40F20000 		movw	r0, #:lower16:.LANCHOR0
 955 0196 1021     		movs	r1, #16
 956 0198 0822     		movs	r2, #8
 957 019a C0F20000 		movt	r0, #:upper16:.LANCHOR0
 958 019e FFF7FEFF 		bl	chHeapAllocAligned
 959              	.LVL34:
 960 01a2 0746     		mov	r7, r0
 961              	.LVL35:
 962              	.LBE75:
 963              	.LBE74:
 964              	.LBB76:
 965              	.LBB77:
 966 01a4 40F20000 		movw	r0, #:lower16:.LANCHOR0
 967 01a8 1021     		movs	r1, #16
 968 01aa 0822     		movs	r2, #8
 969 01ac C0F20000 		movt	r0, #:upper16:.LANCHOR0
 970 01b0 FFF7FEFF 		bl	chHeapAllocAligned
ARM GAS  /tmp/ccUmqVQw.s 			page 51


 971              	.LVL36:
 972              	.LBE77:
 973              	.LBE76:
 974              		.loc 1 152 0
 975 01b4 FFF7FEFF 		bl	chHeapFree
 976              	.LVL37:
 977              		.loc 1 153 0
 978 01b8 3846     		mov	r0, r7
 979 01ba FFF7FEFF 		bl	chHeapFree
 980              	.LVL38:
 981              		.loc 1 154 0
 982 01be 3046     		mov	r0, r6
 983 01c0 FFF7FEFF 		bl	chHeapFree
 984              	.LVL39:
 985              		.loc 1 155 0
 986 01c4 40F20000 		movw	r0, #:lower16:.LANCHOR0
 987 01c8 2A46     		mov	r2, r5
 988 01ca 6946     		mov	r1, sp
 989 01cc C0F20000 		movt	r0, #:upper16:.LANCHOR0
 990 01d0 FFF7FEFF 		bl	chHeapStatus
 991              	.LVL40:
 992 01d4 421E     		subs	r2, r0, #1
 993 01d6 5042     		rsbs	r0, r2, #0
 994 01d8 40F20001 		movw	r1, #:lower16:.LC2
 995 01dc 5041     		adcs	r0, r0, r2
 996 01de C0F20001 		movt	r1, #:upper16:.LC2
 997 01e2 FFF7FEFF 		bl	_test_assert
 998              	.LVL41:
 999 01e6 0546     		mov	r5, r0
 1000 01e8 0028     		cmp	r0, #0
 1001 01ea 7FF427AF 		bne	.L6
 1002              	.LBB78:
 1003              	.LBB79:
 1004              		.loc 2 157 0
 1005 01ee 40F20000 		movw	r0, #:lower16:.LANCHOR0
 1006              	.LBE79:
 1007              	.LBE78:
 1008              		.loc 1 160 0
 1009 01f2 0723     		movs	r3, #7
 1010              	.LBB82:
 1011              	.LBB80:
 1012              		.loc 2 157 0
 1013 01f4 1121     		movs	r1, #17
 1014 01f6 0822     		movs	r2, #8
 1015 01f8 C0F20000 		movt	r0, #:upper16:.LANCHOR0
 1016              	.LBE80:
 1017              	.LBE82:
 1018              		.loc 1 160 0
 1019 01fc 2360     		str	r3, [r4]
 1020              	.LVL42:
 1021              	.LBB83:
 1022              	.LBB81:
 1023              		.loc 2 157 0
 1024 01fe FFF7FEFF 		bl	chHeapAllocAligned
 1025              	.LVL43:
 1026 0202 0646     		mov	r6, r0
 1027              	.LVL44:
ARM GAS  /tmp/ccUmqVQw.s 			page 52


 1028              	.LBE81:
 1029              	.LBE83:
 1030              	.LBB84:
 1031              	.LBB85:
 1032 0204 40F20000 		movw	r0, #:lower16:.LANCHOR0
 1033 0208 1021     		movs	r1, #16
 1034 020a 0822     		movs	r2, #8
 1035 020c C0F20000 		movt	r0, #:upper16:.LANCHOR0
 1036 0210 FFF7FEFF 		bl	chHeapAllocAligned
 1037              	.LVL45:
 1038 0214 0746     		mov	r7, r0
 1039              	.LBE85:
 1040              	.LBE84:
 1041              		.loc 1 164 0
 1042 0216 3046     		mov	r0, r6
 1043 0218 FFF7FEFF 		bl	chHeapFree
 1044              	.LVL46:
 1045              		.loc 1 165 0
 1046 021c 40F20000 		movw	r0, #:lower16:.LANCHOR0
 1047 0220 2A46     		mov	r2, r5
 1048 0222 6946     		mov	r1, sp
 1049 0224 C0F20000 		movt	r0, #:upper16:.LANCHOR0
 1050 0228 FFF7FEFF 		bl	chHeapStatus
 1051              	.LVL47:
 1052 022c 831E     		subs	r3, r0, #2
 1053 022e 5842     		rsbs	r0, r3, #0
 1054 0230 40F20001 		movw	r1, #:lower16:.LC5
 1055 0234 5841     		adcs	r0, r0, r3
 1056 0236 C0F20001 		movt	r1, #:upper16:.LC5
 1057 023a FFF7FEFF 		bl	_test_assert
 1058              	.LVL48:
 1059 023e 0546     		mov	r5, r0
 1060 0240 0028     		cmp	r0, #0
 1061 0242 7FF4FBAE 		bne	.L6
 1062              	.LVL49:
 1063              	.LBB86:
 1064              	.LBB87:
 1065              		.loc 2 157 0
 1066 0246 40F20000 		movw	r0, #:lower16:.LANCHOR0
 1067 024a 1021     		movs	r1, #16
 1068 024c 0822     		movs	r2, #8
 1069 024e C0F20000 		movt	r0, #:upper16:.LANCHOR0
 1070 0252 FFF7FEFF 		bl	chHeapAllocAligned
 1071              	.LVL50:
 1072 0256 0646     		mov	r6, r0
 1073              	.LBE87:
 1074              	.LBE86:
 1075              		.loc 1 169 0
 1076 0258 40F20000 		movw	r0, #:lower16:.LANCHOR0
 1077 025c 2A46     		mov	r2, r5
 1078 025e C0F20000 		movt	r0, #:upper16:.LANCHOR0
 1079 0262 6946     		mov	r1, sp
 1080 0264 FFF7FEFF 		bl	chHeapStatus
 1081              	.LVL51:
 1082 0268 0128     		cmp	r0, #1
 1083 026a 00F0E480 		beq	.L13
 1084              		.loc 1 169 0 is_stmt 0 discriminator 2
ARM GAS  /tmp/ccUmqVQw.s 			page 53


 1085 026e 40F20000 		movw	r0, #:lower16:.LANCHOR0
 1086 0272 C0F20000 		movt	r0, #:upper16:.LANCHOR0
 1087 0276 6946     		mov	r1, sp
 1088 0278 0022     		movs	r2, #0
 1089 027a FFF7FEFF 		bl	chHeapStatus
 1090              	.LVL52:
 1091 027e B0F10208 		subs	r8, r0, #2
 1092 0282 D8F10000 		rsbs	r0, r8, #0
 1093 0286 50EB0800 		adcs	r0, r0, r8
 1094              	.L11:
 1095              		.loc 1 169 0 discriminator 4
 1096 028a 40F20001 		movw	r1, #:lower16:.LC2
 1097 028e C0F20001 		movt	r1, #:upper16:.LC2
 1098 0292 FFF7FEFF 		bl	_test_assert
 1099              	.LVL53:
 1100 0296 0546     		mov	r5, r0
 1101 0298 0028     		cmp	r0, #0
 1102 029a 7FF4CFAE 		bne	.L6
 1103              		.loc 1 171 0 is_stmt 1
 1104 029e 3846     		mov	r0, r7
 1105 02a0 FFF7FEFF 		bl	chHeapFree
 1106              	.LVL54:
 1107              		.loc 1 172 0
 1108 02a4 3046     		mov	r0, r6
 1109 02a6 FFF7FEFF 		bl	chHeapFree
 1110              	.LVL55:
 1111              		.loc 1 173 0
 1112 02aa 40F20000 		movw	r0, #:lower16:.LANCHOR0
 1113 02ae 2A46     		mov	r2, r5
 1114 02b0 6946     		mov	r1, sp
 1115 02b2 C0F20000 		movt	r0, #:upper16:.LANCHOR0
 1116 02b6 FFF7FEFF 		bl	chHeapStatus
 1117              	.LVL56:
 1118 02ba B0F1010C 		subs	ip, r0, #1
 1119 02be DCF10000 		rsbs	r0, ip, #0
 1120 02c2 40F20001 		movw	r1, #:lower16:.LC2
 1121 02c6 50EB0C00 		adcs	r0, r0, ip
 1122 02ca C0F20001 		movt	r1, #:upper16:.LC2
 1123 02ce FFF7FEFF 		bl	_test_assert
 1124              	.LVL57:
 1125 02d2 0646     		mov	r6, r0
 1126 02d4 0028     		cmp	r0, #0
 1127 02d6 7FF4B1AE 		bne	.L6
 1128              		.loc 1 178 0
 1129 02da 0825     		movs	r5, #8
 1130              	.LBB88:
 1131              	.LBB89:
 1132              		.loc 2 157 0
 1133 02dc 40F20000 		movw	r0, #:lower16:.LANCHOR0
 1134 02e0 2A46     		mov	r2, r5
 1135 02e2 1021     		movs	r1, #16
 1136 02e4 C0F20000 		movt	r0, #:upper16:.LANCHOR0
 1137              	.LBE89:
 1138              	.LBE88:
 1139              		.loc 1 178 0
 1140 02e8 2560     		str	r5, [r4]
 1141              	.LVL58:
ARM GAS  /tmp/ccUmqVQw.s 			page 54


 1142              	.LBB91:
 1143              	.LBB90:
 1144              		.loc 2 157 0
 1145 02ea FFF7FEFF 		bl	chHeapAllocAligned
 1146              	.LVL59:
 1147 02ee 0446     		mov	r4, r0
 1148              	.LVL60:
 1149              	.LBE90:
 1150              	.LBE91:
 1151              	.LBB92:
 1152              	.LBB93:
 1153 02f0 40F20000 		movw	r0, #:lower16:.LANCHOR0
 1154 02f4 2A46     		mov	r2, r5
 1155 02f6 1021     		movs	r1, #16
 1156 02f8 C0F20000 		movt	r0, #:upper16:.LANCHOR0
 1157 02fc FFF7FEFF 		bl	chHeapAllocAligned
 1158              	.LVL61:
 1159 0300 0746     		mov	r7, r0
 1160              	.LBE93:
 1161              	.LBE92:
 1162              		.loc 1 182 0
 1163 0302 2046     		mov	r0, r4
 1164 0304 FFF7FEFF 		bl	chHeapFree
 1165              	.LVL62:
 1166              		.loc 1 183 0
 1167 0308 40F20000 		movw	r0, #:lower16:.LANCHOR0
 1168 030c 3246     		mov	r2, r6
 1169 030e 6946     		mov	r1, sp
 1170 0310 C0F20000 		movt	r0, #:upper16:.LANCHOR0
 1171 0314 FFF7FEFF 		bl	chHeapStatus
 1172              	.LVL63:
 1173 0318 B0F1020E 		subs	lr, r0, #2
 1174 031c DEF10000 		rsbs	r0, lr, #0
 1175 0320 40F20001 		movw	r1, #:lower16:.LC5
 1176 0324 50EB0E00 		adcs	r0, r0, lr
 1177 0328 C0F20001 		movt	r1, #:upper16:.LC5
 1178 032c FFF7FEFF 		bl	_test_assert
 1179              	.LVL64:
 1180              		.loc 1 178 0
 1181 0330 40F20004 		movw	r4, #:lower16:test_step
 1182              		.loc 1 183 0
 1183 0334 0646     		mov	r6, r0
 1184              		.loc 1 178 0
 1185 0336 C0F20004 		movt	r4, #:upper16:test_step
 1186              		.loc 1 183 0
 1187 033a 0028     		cmp	r0, #0
 1188 033c 7FF47EAE 		bne	.L6
 1189              	.LVL65:
 1190              	.LBB94:
 1191              	.LBB95:
 1192              		.loc 2 157 0
 1193 0340 40F20000 		movw	r0, #:lower16:.LANCHOR0
 1194 0344 2021     		movs	r1, #32
 1195 0346 2A46     		mov	r2, r5
 1196 0348 C0F20000 		movt	r0, #:upper16:.LANCHOR0
 1197 034c FFF7FEFF 		bl	chHeapAllocAligned
 1198              	.LVL66:
ARM GAS  /tmp/ccUmqVQw.s 			page 55


 1199              	.LBE95:
 1200              	.LBE94:
 1201              		.loc 1 185 0
 1202 0350 FFF7FEFF 		bl	chHeapFree
 1203              	.LVL67:
 1204              		.loc 1 186 0
 1205 0354 3846     		mov	r0, r7
 1206 0356 FFF7FEFF 		bl	chHeapFree
 1207              	.LVL68:
 1208              		.loc 1 187 0
 1209 035a 40F20000 		movw	r0, #:lower16:.LANCHOR0
 1210 035e 3246     		mov	r2, r6
 1211 0360 6946     		mov	r1, sp
 1212 0362 C0F20000 		movt	r0, #:upper16:.LANCHOR0
 1213 0366 FFF7FEFF 		bl	chHeapStatus
 1214              	.LVL69:
 1215 036a 461E     		subs	r6, r0, #1
 1216 036c 7042     		rsbs	r0, r6, #0
 1217 036e 40F20001 		movw	r1, #:lower16:.LC2
 1218 0372 7041     		adcs	r0, r0, r6
 1219 0374 C0F20001 		movt	r1, #:upper16:.LC2
 1220 0378 FFF7FEFF 		bl	_test_assert
 1221              	.LVL70:
 1222 037c 0246     		mov	r2, r0
 1223 037e 0028     		cmp	r0, #0
 1224 0380 7FF45CAE 		bne	.L6
 1225              		.loc 1 193 0
 1226 0384 40F20000 		movw	r0, #:lower16:.LANCHOR0
 1227              		.loc 1 191 0
 1228 0388 0923     		movs	r3, #9
 1229              		.loc 1 193 0
 1230 038a 6946     		mov	r1, sp
 1231 038c C0F20000 		movt	r0, #:upper16:.LANCHOR0
 1232              		.loc 1 191 0
 1233 0390 2360     		str	r3, [r4]
 1234              		.loc 1 193 0
 1235 0392 FFF7FEFF 		bl	chHeapStatus
 1236              	.LVL71:
 1237              	.LBB96:
 1238              	.LBB97:
 1239              		.loc 2 157 0
 1240 0396 40F20000 		movw	r0, #:lower16:.LANCHOR0
 1241 039a 2A46     		mov	r2, r5
 1242 039c 0099     		ldr	r1, [sp]
 1243 039e C0F20000 		movt	r0, #:upper16:.LANCHOR0
 1244 03a2 FFF7FEFF 		bl	chHeapAllocAligned
 1245              	.LVL72:
 1246              	.LBE97:
 1247              	.LBE96:
 1248              		.loc 1 195 0
 1249 03a6 40F20001 		movw	r1, #:lower16:.LC0
 1250 03aa 0646     		mov	r6, r0
 1251 03ac 0030     		adds	r0, r0, #0
 1252 03ae C0F20001 		movt	r1, #:upper16:.LC0
 1253 03b2 18BF     		it	ne
 1254 03b4 0120     		movne	r0, #1
 1255 03b6 FFF7FEFF 		bl	_test_assert
ARM GAS  /tmp/ccUmqVQw.s 			page 56


 1256              	.LVL73:
 1257 03ba 0146     		mov	r1, r0
 1258 03bc 0028     		cmp	r0, #0
 1259 03be 7FF43DAE 		bne	.L6
 1260              		.loc 1 196 0
 1261 03c2 40F20000 		movw	r0, #:lower16:.LANCHOR0
 1262 03c6 0A46     		mov	r2, r1
 1263 03c8 C0F20000 		movt	r0, #:upper16:.LANCHOR0
 1264 03cc FFF7FEFF 		bl	chHeapStatus
 1265              	.LVL74:
 1266 03d0 40F20001 		movw	r1, #:lower16:.LC6
 1267 03d4 D0F10100 		rsbs	r0, r0, #1
 1268 03d8 38BF     		it	cc
 1269 03da 0020     		movcc	r0, #0
 1270 03dc C0F20001 		movt	r1, #:upper16:.LC6
 1271 03e0 FFF7FEFF 		bl	_test_assert
 1272              	.LVL75:
 1273 03e4 0546     		mov	r5, r0
 1274 03e6 0028     		cmp	r0, #0
 1275 03e8 7FF428AE 		bne	.L6
 1276              		.loc 1 197 0
 1277 03ec 3046     		mov	r0, r6
 1278 03ee FFF7FEFF 		bl	chHeapFree
 1279              	.LVL76:
 1280              		.loc 1 204 0
 1281 03f2 40F20000 		movw	r0, #:lower16:.LANCHOR0
 1282 03f6 6946     		mov	r1, sp
 1283 03f8 2A46     		mov	r2, r5
 1284              		.loc 1 202 0
 1285 03fa 0A23     		movs	r3, #10
 1286              		.loc 1 204 0
 1287 03fc C0F20000 		movt	r0, #:upper16:.LANCHOR0
 1288              		.loc 1 202 0
 1289 0400 2360     		str	r3, [r4]
 1290              		.loc 1 204 0
 1291 0402 FFF7FEFF 		bl	chHeapStatus
 1292              	.LVL77:
 1293 0406 421E     		subs	r2, r0, #1
 1294 0408 5042     		rsbs	r0, r2, #0
 1295 040a 40F20001 		movw	r1, #:lower16:.LC2
 1296 040e 5041     		adcs	r0, r0, r2
 1297 0410 C0F20001 		movt	r1, #:upper16:.LC2
 1298 0414 FFF7FEFF 		bl	_test_assert
 1299              	.LVL78:
 1300 0418 0028     		cmp	r0, #0
 1301 041a 7FF40FAE 		bne	.L6
 1302              		.loc 1 205 0
 1303 041e 9DE80900 		ldmia	sp, {r0, r3}
 1304 0422 C31A     		subs	r3, r0, r3
 1305 0424 5842     		rsbs	r0, r3, #0
 1306 0426 40F20001 		movw	r1, #:lower16:.LC7
 1307 042a 5841     		adcs	r0, r0, r3
 1308 042c C0F20001 		movt	r1, #:upper16:.LC7
 1309 0430 FFF7FEFF 		bl	_test_assert
 1310              	.LVL79:
 1311 0434 02E6     		b	.L6
 1312              	.LVL80:
ARM GAS  /tmp/ccUmqVQw.s 			page 57


 1313              	.L13:
 1314              		.loc 1 169 0
 1315 0436 0120     		movs	r0, #1
 1316 0438 27E7     		b	.L11
 1317              		.cfi_endproc
 1318              	.LFE218:
 1319              		.size	test_011_001_execute, .-test_011_001_execute
 1320 043a 00BFAFF3 		.section	.text.test_011_001_setup,"ax",%progbits
 1320      0080
 1321              		.align	2
 1322              		.p2align 4,,15
 1323              		.thumb
 1324              		.thumb_func
 1325              		.type	test_011_001_setup, %function
 1326              	test_011_001_setup:
 1327              	.LFB217:
 1328              		.loc 1 90 0
 1329              		.cfi_startproc
 1330              		@ args = 0, pretend = 0, frame = 0
 1331              		@ frame_needed = 0, uses_anonymous_args = 0
 1332              		@ link register save eliminated.
 1333              		.loc 1 91 0
 1334 0000 40F20000 		movw	r0, #:lower16:.LANCHOR0
 1335 0004 40F20001 		movw	r1, #:lower16:test_buffer
 1336 0008 C0F20000 		movt	r0, #:upper16:.LANCHOR0
 1337 000c C0F20001 		movt	r1, #:upper16:test_buffer
 1338 0010 4FF4CD62 		mov	r2, #1640
 1339 0014 FFF7FEBF 		b	chHeapObjectInit
 1340              	.LVL81:
 1341              		.cfi_endproc
 1342              	.LFE217:
 1343              		.size	test_011_001_setup, .-test_011_001_setup
 1344              		.global	test_sequence_011
 1345              		.global	test_heap
 1346 0018 AFF30080 		.section	.rodata.test_011_002,"a",%progbits
 1346      AFF30080 
 1347              		.align	2
 1348              		.type	test_011_002, %object
 1349              		.size	test_011_002, 16
 1350              	test_011_002:
 1351 0000 94000000 		.word	.LC8
 1352 0004 00000000 		.word	0
 1353 0008 00000000 		.word	0
 1354 000c 00000000 		.word	test_011_002_execute
 1355              		.section	.rodata.test_sequence_011,"a",%progbits
 1356              		.align	2
 1357              		.type	test_sequence_011, %object
 1358              		.size	test_sequence_011, 12
 1359              	test_sequence_011:
 1360 0000 00000000 		.word	test_011_001
 1361 0004 00000000 		.word	test_011_002
 1362 0008 00000000 		.word	0
 1363              		.section	.rodata.str1.4,"aMS",%progbits,1
 1364              		.align	2
 1365              	.LC0:
 1366 0000 616C6C6F 		.ascii	"allocation failed\000"
 1366      63617469 
ARM GAS  /tmp/ccUmqVQw.s 			page 58


 1366      6F6E2066 
 1366      61696C65 
 1366      6400
 1367 0012 0000     		.space	2
 1368              	.LC1:
 1369 0014 616C6C6F 		.ascii	"allocation not failed\000"
 1369      63617469 
 1369      6F6E206E 
 1369      6F742066 
 1369      61696C65 
 1370 002a 0000     		.space	2
 1371              	.LC2:
 1372 002c 68656170 		.ascii	"heap fragmented\000"
 1372      20667261 
 1372      676D656E 
 1372      74656400 
 1373              	.LC3:
 1374 003c 6D697373 		.ascii	"missing free block\000"
 1374      696E6720 
 1374      66726565 
 1374      20626C6F 
 1374      636B00
 1375 004f 00       		.space	1
 1376              	.LC4:
 1377 0050 756E6578 		.ascii	"unexpected heap state\000"
 1377      70656374 
 1377      65642068 
 1377      65617020 
 1377      73746174 
 1378 0066 0000     		.space	2
 1379              	.LC5:
 1380 0068 696E7661 		.ascii	"invalid state\000"
 1380      6C696420 
 1380      73746174 
 1380      6500
 1381 0076 0000     		.space	2
 1382              	.LC6:
 1383 0078 6E6F7420 		.ascii	"not empty\000"
 1383      656D7074 
 1383      7900
 1384 0082 0000     		.space	2
 1385              	.LC7:
 1386 0084 73697A65 		.ascii	"size changed\000"
 1386      20636861 
 1386      6E676564 
 1386      00
 1387 0091 000000   		.space	3
 1388              	.LC8:
 1389 0094 44656661 		.ascii	"Default Heap\000"
 1389      756C7420 
 1389      48656170 
 1389      00
 1390 00a1 000000   		.space	3
 1391              	.LC9:
 1392 00a4 416C6C6F 		.ascii	"Allocation and fragmentation\000"
 1392      63617469 
 1392      6F6E2061 
ARM GAS  /tmp/ccUmqVQw.s 			page 59


 1392      6E642066 
 1392      7261676D 
 1393 00c1 000000   		.section	.rodata.test_011_001,"a",%progbits
 1394              		.align	2
 1395              		.type	test_011_001, %object
 1396              		.size	test_011_001, 16
 1397              	test_011_001:
 1398 0000 A4000000 		.word	.LC9
 1399 0004 00000000 		.word	test_011_001_setup
 1400 0008 00000000 		.word	0
 1401 000c 00000000 		.word	test_011_001_execute
 1402              		.section	.bss.test_heap,"aw",%nobits
 1403              		.align	3
 1404              		.set	.LANCHOR0,. + 0
 1405              		.type	test_heap, %object
 1406              		.size	test_heap, 32
 1407              	test_heap:
 1408 0000 00000000 		.space	32
 1408      00000000 
 1408      00000000 
 1408      00000000 
 1408      00000000 
 1409              		.text
 1410              	.Letext0:
 1411              		.file 3 "/home/alex/MentorGraphics/Sourcery_CodeBench_Lite_for_ARM_EABI/lib/gcc/arm-none-eabi/4.8.
 1412              		.file 4 "/home/alex/MentorGraphics/Sourcery_CodeBench_Lite_for_ARM_EABI/arm-none-eabi/include/stdi
 1413              		.file 5 "../../../os/common/ports/ARMCMx/compilers/GCC/chtypes.h"
 1414              		.file 6 "../../../os/rt/include/chsystypes.h"
 1415              		.file 7 "../../../os/rt/include/chschd.h"
 1416              		.file 8 "../../../os/common/ports/ARMCMx/chcore.h"
 1417              		.file 9 "../../../os/common/ports/ARMCMx/chcore_v7m.h"
 1418              		.file 10 "../../../os/rt/include/chtm.h"
 1419              		.file 11 "../../../os/rt/include/chsem.h"
 1420              		.file 12 "../../../os/rt/include/chmtx.h"
 1421              		.file 13 "../../../os/common/oslib/include/chmemcore.h"
 1422              		.file 14 "../../../test/lib/ch_test.h"
 1423              		.file 15 "../../../os/common/ext/CMSIS/include/core_cm3.h"
 1424              		.file 16 "../../../test/rt/source/test/test_root.h"