ARM GAS  /tmp/ccXlDfva.s 			page 1


   1              		.syntax unified
   2              		.cpu cortex-m3
   3              		.fpu softvfp
   4              		.eabi_attribute 20, 1
   5              		.eabi_attribute 21, 1
   6              		.eabi_attribute 23, 3
   7              		.eabi_attribute 24, 1
   8              		.eabi_attribute 25, 1
   9              		.eabi_attribute 26, 1
  10              		.eabi_attribute 30, 2
  11              		.eabi_attribute 34, 1
  12              		.eabi_attribute 18, 4
  13              		.thumb
  14              		.file	"test_sequence_001.c"
  15              		.text
  16              	.Ltext0:
  17              		.section	.gnu.lto_.jmpfuncs.81fe53e17c8c14b,"",%progbits
  18 0000 789CA593 		.ascii	"x\234\245\223\255o\024A\030\207g\267\337\250\376\005"
  18      AD6F1441 
  18      188767B7 
  18      DFA8FE05 
  19 0010 97152892 		.ascii	"\227\025(\222\026HP\213an\366\275\273I\367\253;\263"
  19      1648508B 
  19      616EF6BD 
  19      BB49F7AB 
  19      3BB3
  20 0022 A5C54CAE 		.ascii	"\245\305L\256\245\264K\31259\256\012sA\200@\000A\320"
  20      A5B44BCA 
  20      3539AE0A 
  20      73418040 
  20      0041D0
  21 0035 84100402 		.ascii	"\204\020\004\002\004\002\201@ \020\010\020\204 \020"
  21      04028140 
  21      20100810 
  21      842010
  22 0044 08040283 		.ascii	"\010\004\002\203 \004\201\250\240\354\336\355\245\354"
  22      200481A8 
  22      A0ECDEED 
  22      A5EC
  23 0052 D725C3AC 		.ascii	"\327%\303\254\334\367\231\347\375\315;3:\322Q\331w8"
  23      DCF799E7 
  23      FDCD3B33 
  23      3AD251D9 
  23      7738
  24 0064 87D0D929 		.ascii	"\207\320\331)\224T5\375\032:\350\357\367\347#\015\325"
  24      945435FD 
  24      1A3AE8EF 
  24      F7E7230D 
  24      D5
  25 0075 90F6B0BF 		.ascii	"\220\366\260\277\177.\322\264\001\245\351\253Z\244\351"
  25      7F2ED2B4 
  25      01A5E9AB 
  25      5AA4E9
  26 0084 28034DD4 		.ascii	"(\003M\324\320\304\020\232L!\351\365\307\025\327\203"
  26      D0C4109A 
  26      4C21E9F5 
  26      C715D783 
ARM GAS  /tmp/ccXlDfva.s 			page 2


  27 0094 DCFABE96 		.ascii	"\334\372\276\226\027\\\222\023\034\026\00475\305-<U"
  27      175C9213 
  27      1C160437 
  27      35C52D3C 
  27      55
  28 00a5 15BC5315 		.ascii	"\025\274S\025|W\025\334\322\345\004\205!>S\025\274W"
  28      7C5715DC 
  28      D2E50485 
  28      213E5315 
  28      BC57
  29 00b7 15FC5015 		.ascii	"\025\374P\025\334\226|\012\005\301s\325\267\364Q5\301"
  29      DC967C0A 
  29      05C173D5 
  29      B7F45135 
  29      C1
  30 00c8 2F55C1BD 		.ascii	"/U\301\275IE\301\013U\301'U\301oIA\341\024\356O)&x)"
  30      4945C10B 
  30      55C12755 
  30      C16F4941 
  30      E114EE4F 
  31 00e0 292824F8 		.ascii	")($\370\254\232\340@U\360`ZQ\360JU\360EU\360GRP8\205"
  31      AC9AE040 
  31      55F0605A 
  31      51F04A55 
  31      F04555F0 
  32 00f9 47338A82 		.ascii	"G3\212\202\327\252\202\257\222\002=/\270>+'\270\343"
  32      D7AA82AF 
  32      92023D2F 
  32      B83E2B27 
  32      B8E3
  33 010b E60D8F25 		.ascii	"\346\015\217%\015\363y\301\233\214@\377\237\223\374"
  33      0DF379C1 
  33      9B8C40FF 
  33      9F93FC
  34 011a 2699A130 		.ascii	"&\231\2410\307\033sr\202\311\274\340I\225`\252\206\336"
  34      C71B7372 
  34      82C9BCE0 
  34      499560AA 
  34      86DE
  35 012c A6B5E97C 		.ascii	"\246\265\351|-^\367A\262qa\353?\253\00435t\367\330\260"
  35      2D5EF741 
  35      B27161EB 
  35      3FAB0433 
  35      3574F7D8 
  36 0141 368B8645 		.ascii	"6\213\206Ed,,,\030\244%\254zS\360V\000\330b\302\017"
  36      642C2C2C 
  36      18A425AC 
  36      7A53F056 
  36      00D862C2 
  37 0156 BC06B5A9 		.ascii	"\274\006\265\251\3334\015#\003\304\177\355\021\025\327"
  37      DB340D23 
  37      03C47FED 
  37      1115D7
  38 0165 065F0600 		.ascii	"\006_\006\000\027\327m\020\214c\262$H\013\310\222\231"
  38      17D76D10 
  38      8C63B224 
  38      480BC892 
ARM GAS  /tmp/ccXlDfva.s 			page 3


  38      99
  39 0176 05788009 		.ascii	"\005x\200\011\210z\330h@ \030\275\000\371\026C\300\301"
  39      887AD868 
  39      402018BD 
  39      00F91643 
  39      C0C1
  40 0188 6C69D4A0 		.ascii	"li\324\240\274\005f\014\002\236\246(\003\006\335G)3"
  40      BC05660C 
  40      029EA628 
  40      0306DD47 
  40      2933
  41 019a 005B631C 		.ascii	"\000[c\034\234$$\207\322\220I\2052N\011+\311@\032M\021"
  41      9C242487 
  41      D2904985 
  41      324E092B 
  41      C9401A4D 
  42 01af 3210D69A 		.ascii	"2\020\326\232\213\035J\314J\300\001\307\367<\2738\250"
  42      8B1D4ACC 
  42      4AC001C7 
  42      F73CBB38 
  42      A8
  43 01c0 11D002EC 		.ascii	"\021\320\002\354\0375(7\020/\2001-0\265\353\336*\024"
  43      1F352837 
  43      102F8031 
  43      2D30B5EB 
  43      DE2A14
  44 01d3 B6796460 		.ascii	"\266yd`\0147!9Rj\216\003*C\302\012\270\234\011N\035"
  44      0C372139 
  44      526A8E03 
  44      2A43C20A 
  44      B89C094E 
  45 01e8 F0426E56 		.ascii	"\360BnV\001c\006E<\327Z\301A\352(1\214\200\312\014N"
  45      01630645 
  45      3CD75AC1 
  45      41EA2831 
  45      8C80CA0C 
  46 01fd C821DEA4 		.ascii	"\310!\336\244\010\200\204\011V\005T\017\212\201\203"
  46      08808409 
  46      5605540F 
  46      8A8183
  47 020c FD563CCB 		.ascii	"\375V<\313t\022c\000\263\334p\036\323\270\007\345\225"
  47      74126300 
  47      B3DC701E 
  47      D3B807E5 
  47      95
  48 021d 210368C6 		.ascii	"!\003h\306w&X\253\004\270\363\357a\347\000\317\217\247"
  48      772658AB 
  48      04B8F3EF 
  48      61E700CF 
  48      8FA7
  49 022f 133F07C1 		.ascii	"\023?\007\301|\000\253$\203\353\011j\305\327z\370\372"
  49      7C00AB24 
  49      83EB096A 
  49      C5D77AF8 
  49      FA
  50 0240 4A80F4B2 		.ascii	"J\200\364\262\214\036U\021H\306/\226C\354\362\320)\005"
  50      8C1E5511 
ARM GAS  /tmp/ccXlDfva.s 			page 4


  50      48C62F96 
  50      43ECF2D0 
  50      2905
  51 0252 181F3016 		.ascii	"\030\0370\026\330\034W\001\215\000\226CpI\3716c \236"
  51      D81C5701 
  51      8D009643 
  51      7049F936 
  51      63209E
  52 0265 A067879C 		.ascii	"\240g\207\234zn\346N\372\355\336\306\266\341\356]Y\337"
  52      7A6EE64E 
  52      FAEDDEC6 
  52      B6E1EE5D 
  52      59DF
  53 0277 EC66C790 		.ascii	"\354f\307\220\002N\324\331\355\216\005\332\227+\201"
  53      024ED4D9 
  53      ED8E05DA 
  53      972B81
  54 0286 E9338BA7 		.ascii	"\3513\213\247\026O\017\271\225\315\356\325h\267c\260"
  54      164F0FB9 
  54      95CDEED5 
  54      68B763B0 
  55 0296 5E37EA6C 		.ascii	"^7\352l\231E\021\353\265\327w6\215\306N{+\3471\320\211"
  55      994511EB 
  55      B5D77736 
  55      8DC64E7B 
  55      2BE731D0 
  56 02ab 41D6EEEE 		.ascii	"A\326\356\356\305\275\215^\276\230|d;Z\217<v2\340\350"
  56      C5BD8D5E 
  56      BE987C64 
  56      3B5A8F3C 
  56      7632E0E8 
  57 02bf 2FDDA556 		.ascii	"/\335\245V\324"
  57      D4
  58              		.text
  59              		.section	.gnu.lto_.inline.81fe53e17c8c14b,"",%progbits
  60 0000 789C6362 		.ascii	"x\234cb`b\300\006^B\205\201\324\005\306\247\034\214"
  60      6062C006 
  60      5E428581 
  60      D405C6A7 
  60      1C8C
  61 0012 0C4C4C17 		.ascii	"\014LL\027\370\031\330\026\310\203\305\231\270\031\030"
  61      F819D816 
  61      C883C599 
  61      B81918
  62 0021 1847C951 		.ascii	"\030G\311Q\222\226$\203\322\012F\272\245;\006\000\337"
  62      92962483 
  62      D20A46BA 
  62      A53B0600 
  62      DF
  63 0032 090D39   		.ascii	"\011\0159"
  64              		.text
  65              		.section	.gnu.lto_.pureconst.81fe53e17c8c14b,"",%progbits
  66 0000 789C6362 		.ascii	"x\234cb`b`e\200\000&\006\011&\011\000\001\000\000>"
  66      60626065 
  66      80002606 
  66      09260900 
  66      0100003E 
ARM GAS  /tmp/ccXlDfva.s 			page 5


  67              		.text
  68              		.section	.gnu.lto_test_001_002_execute.81fe53e17c8c14b,"",%progbits
  69 0000 789CA5D9 		.ascii	"x\234\245\331Ol\323V\034\007\360\367\234\226v\2348\262"
  69      4F6CD356 
  69      1C07F0F7 
  69      9C96769C 
  69      38B2
  70 0012 0BCA6DA7 		.ascii	"\013\312m\247\266 \355\324\323\\\347\245\261\232\330"
  70      B620EDD4 
  70      D35CE7A5 
  70      B19AD8
  71 0021 A9FD5C28 		.ascii	"\251\375\\(\027k\212r\310a\233F\213\204\264\003\356"
  71      176B8A72 
  71      C8619B46 
  71      8B84B403 
  71      EE
  72 0032 5469050A 		.ascii	"Ti\005\012\3440i\351?\030\232\320(\177\265\303$(\033"
  72      E43069E9 
  72      3F189AD0 
  72      287FB5C3 
  72      24281B
  73 0045 9B769836 		.ascii	"\233v\23066\212\266\303\004\024h%4\361\247@\017\223"
  73      368AB6C3 
  73      04146825 
  73      34F1A740 
  73      0F93
  74 0057 362885EC 		.ascii	"6(\205\354\331NHH\374S\336\323\263Z\327\215\277\357"
  74      D94E4848 
  74      FC53DED3 
  74      B35AD78D 
  74      BFEF
  75 0069 FD3EFEF9 		.ascii	"\375>\376\371\331\227(HA\215\333\333\354wh+B_\264!\204"
  75      D9972848 
  75      418DDBDB 
  75      EC77682B 
  75      425FB421 
  76 007e 63082BC5 		.ascii	"c\010+\305E\204\306:\025\214\375\003\204\321~\005\357"
  76      4584C63A 
  76      158CFD03 
  76      84D17E05 
  76      EF
  77 008f 1FC641F6 		.ascii	"\037\306A\366\202\362\343J\271|~\372\263\263\263xA)"
  77      82F2E34A 
  77      B97C7EFA 
  77      B3B3B378 
  77      4129
  78 00a1 B04FDAD1 		.ascii	"\260O\332\321\270\347\025\343\010\345\202\004e{\177"
  78      B8E715E3 
  78      08E58204 
  78      657B7F
  79 00b0 988315FF 		.ascii	"\230\203\025\377o\354\032\372\364b\351\337\255\357\343"
  79      6FEC1AFA 
  79      F462E9DF 
  79      ADEFE3
  80 00bf 13B81DCD 		.ascii	"\023\270\035\315\240\3511\317\333R\300\350\023\264\356"
  80      A0E931CF 
  80      DB52C0E8 
ARM GAS  /tmp/ccXlDfva.s 			page 6


  80      13B4EE
  81 00ce 4DF847F8 		.ascii	"M\370G\370\203`\330.\314\016Q\365\010\371\207\327\321"
  81      8360D82E 
  81      CC0E51F5 
  81      08F987D7 
  81      D1
  82 00df F8CAAD7B 		.ascii	"\370\312\255{\035\341HT\033\241\344*I\377\223\222\347"
  82      1DE14854 
  82      1BA1E42A 
  82      49FF9392 
  82      E7
  83 00f0 0D16706C 		.ascii	"\015\026pl\033zw\316+\275W\300m\250\222/\370;6\305\227"
  83      1B7A77CE 
  83      2BBD57C0 
  83      6DA8922F 
  83      F83B36C5 
  84 0105 4BB1A619 		.ascii	"K\261\246\0316\345\260\362\272V\307\026\226\355\014"
  84      36E5B0F2 
  84      BA56C716 
  84      96ED0C
  85 0114 CBDDFE6A 		.ascii	"\313\335\376jsT\271X}9\247\200\337\332\206\234\260\334"
  85      7354B958 
  85      7D39A780 
  85      DFDA869C 
  85      B0DC
  86 0126 E6C6722B 		.ascii	"\346\306r+w\270\305;!\361\335V\342\242Q#/\313\223\037"
  86      77B8C53B 
  86      21F1DD56 
  86      E2A25123 
  86      2FCB931F 
  87 013a 7093F741 		.ascii	"p\223\367A\344\207\255\310JM\374H^\274\312-\236\302"
  87      E487ADC8 
  87      4A4DFC48 
  87      5EBCCA2D 
  87      9EC2
  88 014c 10F9712B 		.ascii	"\020\371q+2\252\221\237\310\223\237r\223\027@\362\232"
  88      32AA919F 
  88      C8939F72 
  88      931740F2 
  88      9A
  89 015d 00F9993C 		.ascii	"\000\371\231<\37197y\011$\257\013\220_\310\2237\270"
  89      F9393779 
  89      0924AF0B 
  89      905FC893 
  89      37B8
  90 016f C91B20F9 		.ascii	"\311\033 \371e+2\256\221_\311\223\313\334\3449\005\""
  90      652B32AE 
  90      915FC993 
  90      CBDCE439 
  90      0522
  91 0181 4FB4F393 		.ascii	"O\264\363\223\017\234\224&\037\374\233\227|\005$\037"
  91      0F9C9426 
  91      1FFC9B97 
  91      7C05241F 
  92 0191 12204FCA 		.ascii	"\022 O\312\223\017s\223\227A\362\021\001\362Qyr\211"
  92      930F7393 
  92      9741F211 
ARM GAS  /tmp/ccXlDfva.s 			page 7


  92      01F25179 
  92      7289
  93 01a3 9BECC520 		.ascii	"\233\354\305 \362\224\000yZ\236<\303M>\001\222g[\221"
  93      F2940079 
  93      5A9E3CC3 
  93      4D3E0192 
  93      675B91
  94 01b6 EBDE1873 		.ascii	"\353\336\030s\362\344c\334\344\237@\362q\201.\237\222"
  94      F2E463DC 
  94      E49F40F2 
  94      71812E9F 
  94      92
  95 01c7 27CF7393 		.ascii	"'\317s\223\357\201\344\323\002]>#O>\313M\036o\203\310"
  95      EF81E4D3 
  95      025D3E23 
  95      4F3ECB4D 
  95      1E6F83C8 
  96 01db E704BA7C 		.ascii	"\347\004\272|^\236|\201\233|\022$_\024 _\222'/p\223"
  96      5E9E7C81 
  96      9B7C1224 
  96      5F14205F 
  96      92272F70 
  97 01f0 7F06C997 		.ascii	"\177\006\311\227\005\310\337\311\223\277\347&\337\007"
  97      05C8DFC9 
  97      93BFE726 
  97      DF07
  98 01fe C95704C8 		.ascii	"\311W\004\310?\310\223\177\341&O\264C\344_\005\310W"
  98      3FC8937F 
  98      E1264FB4 
  98      43E45F05 
  98      C857
  99 0210 E5C9BF71 		.ascii	"\345\311\277q\223\347A\362\357\002o\214k\362\344En\362"
  99      93E741F2 
  99      EF026F8C 
  99      6BF2E445 
  99      6EF2
 100 0222 55907C5D 		.ascii	"U\220|]\240\3137\344\3117\271\311\253 \371\226\000y"
 100      A0CB37E4 
 100      C937B9C9 
 100      AB20F996 
 100      0079
 101 0234 499E7C9B 		.ascii	"I\236|\233\233<\271\011\"\337\021 \337\225'/s\223\317"
 101      9B3CB909 
 101      22DF1120 
 101      DF95272F 
 101      7393CF
 102 0247 81E40702 		.ascii	"\201\344\007\002\344\207\362\344G\334\344E\220\274*"
 102      E487F2E4 
 102      47DCE445 
 102      90BC2A
 103 0256 407E2C4F 		.ascii	"@~,O~\302M^\003\311O\005\336\030k\362\344g\334\344b"
 103      7EC24D5E 
 103      03C94F05 
 103      DE186BF2 
 103      E467DCE4 
 104 026b 07447E2E 		.ascii	"\007D~.@^\227'\277\340&\177\003\2227\004\310/\345\311"
 104      405E9727 
ARM GAS  /tmp/ccXlDfva.s 			page 8


 104      BFE0267F 
 104      03923704 
 104      C82FE5C9 
 105 027f AFB8C97F 		.ascii	"\257\270\311\177\202\344\262\000y\342ki\362\201\373"
 105      82E4B200 
 105      79E26B69 
 105      F281FB
 106 028e BCE47F40 		.ascii	"\274\344\177@\362\301\346)\336$\227\353\236\277C\362"
 106      F2C1E629 
 106      DE2497EB 
 106      9EBF43F2 
 107 029e E6496EF3 		.ascii	"\346In\363\347\235\220\371p+\263Wg>\"o>\312m\376\026"
 107      E79D90F9 
 107      702BB357 
 107      673E226F 
 107      3ECA6DFE 
 108 02b3 34975A99 		.ascii	"4\227Z\231\353\226\306\224<y\232\233\374\027H\236\021"
 108      EB96C694 
 108      3C799A9B 
 108      FC17489E 
 108      11
 109 02c4 20CFCA93 		.ascii	" \317\312\223\347\270\311\377\201\344c\002\344\343r"
 109      E7B8C9FF 
 109      81E46302 
 109      E4E372
 110 02d3 E43FD0D8 		.ascii	"\344?\320\330\312\374;\325\031\302\2152mq1\370&bGww"
 110      CAFC3BD5 
 110      19C28D32 
 110      6D7131F8 
 110      26624777 
 111 02e8 4FF8339A 		.ascii	"O\3703\232\037\031\355\3313\3323\362\321\336=\271|\370"
 111      1F19EDD9 
 111      33DA33F2 
 111      D1DE3DB9 
 111      7CF8
 112 02fa AFBF7347 		.ascii	"\257\277sG\362\037\357\315\177\230\313\273\333\267\357"
 112      F21FEFCD 
 112      7F98CBBB 
 112      DBB7EF
 113 0309 E8CEA178 		.ascii	"\350\316\241xWWW\\K\271Z\262\337\265\251k\021\333L;"
 113      5757575C 
 113      4BB95AB2 
 113      DFB5A96B 
 113      11DB4C3B 
 114 031d 54378DDE 		.ascii	"T7\215\336x\260!\334\030IZd\320!\2066\\I\304\033\003"
 114      78B021DC 
 114      18495A64 
 114      D0218636 
 114      5C49C41B 
 115 0332 54CF9004 		.ascii	"T\317\220\004IS52\340\237u\007\035\325\240N&2\220!\031"
 115      49533532 
 115      E09F7507 
 115      1DD5A04E 
 115      26329021 
 116 0347 CDB4886B 		.ascii	"\315\264\210k\353\273Id\3000]=\221&.MYDM\3646\007\314"
 116      EBBB4964 
 116      C0305D3D 
ARM GAS  /tmp/ccXlDfva.s 			page 9


 116      91262E4D 
 116      59444DF4 
 117 035e 2C2BC246 		.ascii	",+\302F\273v\226\220\250\200c\263\321\257\253G\224\360"
 117      BB769690 
 117      A88063B3 
 117      D1AFAB47 
 117      94F0
 118 0370 0316E9D7 		.ascii	"\003\026\351\327mjE_\246\037\330\251\352\224\354\322"
 118      6D6A455F 
 118      A61FD8A9 
 118      EA94ECD2 
 119 0380 2918B049 		.ascii	")\030\260IF\315\246\330\265\330\200\241\026p\263\226"
 119      46CDA6D8 
 119      B5D880A1 
 119      1670B396 
 120 0390 DEDB1CC8 		.ascii	"\336\333\034\3108\254Bux\324\014\225\000\303j\216eG"
 120      38AC4275 
 120      78D40C95 
 120      00C36A8E 
 120      6547
 121 03a2 CCA09946 		.ascii	"\314\240\231FbH\265l\020Y\015\0047\306\214\230\201\014"
 121      6248B56C 
 121      10590D04 
 121      37C68C98 
 121      810C
 122 03b4 1183D608 		.ascii	"\021\203\326\010P \034\357\320\250\253 \266\255\366"
 122      50201CEF 
 122      D0A8AB20 
 122      B6ADF6
 123 03c3 13D8500D 		.ascii	"\023\330P\015\204]\210\012\250z\272\317\254u\"b\206"
 123      845D880A 
 123      A87ABACF 
 123      AC752262 
 123      86
 124 03d4 60D1C08D 		.ascii	"`\321\300\215J\0215[\177\303\243f\310\232f\032F&\206"
 124      4A11355B 
 124      7FC3A366 
 124      C89A661A 
 124      462686
 125 03e7 0D35A36B 		.ascii	"\0155\243k\315%\022}\376\262W)[-\272\026\325\250 0l"
 125      CD25127D 
 125      FEB25729 
 125      5B2DBA16 
 125      D5A82030 
 126 03fc 53920972 		.ascii	"S\222\011r\254\347)\242\015\364\276\031 \206\332\227"
 126      ACE729A2 
 126      0DF4BE19 
 126      2086DA97 
 127 040c AE9C6ABA 		.ascii	"\256\234j\272\314\272\200j\333\304\242\215+\312\017"
 127      CCBA806A 
 127      DBC4A28D 
 127      2BCA0F
 128 041b 504BD5FC 		.ascii	"PK\325\374V\331\003\200!\014\3649\311$\261\252\217W"
 128      56D90380 
 128      210CF439 
 128      C924B1AA 
 128      8F57
ARM GAS  /tmp/ccXlDfva.s 			page 10


 129 042d 540986D4 		.ascii	"T\011\206\324\006\"\221I=\235\256<w\315\215\012J\204"
 129      06229149 
 129      3D9DAE3C 
 129      77CD8D0A 
 129      4A84
 130 043f E7D88D34 		.ascii	"\347\330\2154YV7\372\375\022\377\003\034\026\032~"
 130      595637FA 
 130      FD12FF03 
 130      1C161A7E 
 131              		.text
 132              		.section	.gnu.lto_test_001_001_execute.81fe53e17c8c14b,"",%progbits
 133 0000 789C6362 		.ascii	"x\234cb`b@\007\222@\254\311\302\300\300\303\310\300"
 133      60624007 
 133      9240ACC9 
 133      C2C0C0C3 
 133      C8C0
 134 0012 C0C8CCC0 		.ascii	"\300\310\314\300\3104\341\034\003C#\007\023##\210\301"
 134      C834E11C 
 134      03432307 
 134      13232388 
 134      C1
 135 0023 C0C850CF 		.ascii	"\300\310P\317\304X\037\311\010V\273\236\351\300\203"
 135      C4581FC9 
 135      0856BB9E 
 135      E9C083
 136 0032 FFFFD7FD 		.ascii	"\377\377\327\375x\370h%\243\240\020P\200\225\241\245"
 136      78F86825 
 136      A3A01050 
 136      8095A1A5 
 137 0042 A1618202 		.ascii	"\241a\202\002\003C2XA\010\220\004\351\012ed\002\321"
 137      03433258 
 137      41089004 
 137      E90A6564 
 137      02D1
 138 0054 CC67199A 		.ascii	"\314g\031\232v\374\270\317\230\310\270\220\221\225a"
 138      76FCB8CF 
 138      98C8B890 
 138      919561
 139 0063 36C3ACC6 		.ascii	"6\303\254\306\206\006\201LF\206j\206_\015\035 \026c"
 139      8606814C 
 139      46866A86 
 139      5F0D1D20 
 139      1663
 140 0075 2E585B04 		.ascii	".X[\004#\220\311\000c1\200\230\347\031Z\036t.\346\202"
 140      2390C900 
 140      63318098 
 140      E7195A1E 
 140      742EE682 
 141 0089 E86440E8 		.ascii	"\350d@\350`J\206\252\004\211\314hh\010\315dd\226c0\231"
 141      604A86AA 
 141      0489CC68 
 141      6808CD64 
 141      64966330 
 142 009e DB30C321 		.ascii	"\3330\303!\223\221\205\001\252>\023D\200\214\350z\314"
 142      93918501 
 142      AA3E1344 
 142      808CE87A 
ARM GAS  /tmp/ccXlDfva.s 			page 11


 142      CC
 143 00af 8ECD0826 		.ascii	"\216\315\010&d#\0023\031\331\344\030\342!F\260\243\033"
 143      64230233 
 143      19D9E418 
 143      E22146B0 
 143      A31B
 144 00c1 B1A09B19 		.ascii	"\261\240\233\031\303\004\216d`@\301\234\313\311\010"
 144      C3048E64 
 144      6040C19C 
 144      CBC908
 145 00d0 54CB05B1 		.ascii	"T\313\005\261\256\2078\027s\313140B\354\343\301pr/\321"
 145      AE873817 
 145      73CB3134 
 145      3042ECE3 
 145      C170722F 
 146 00e5 4E6E62C4 		.ascii	"Nnb\304\341\346\007}\304\271\203W\216a1\324\014>\014"
 146      E1E6077D 
 146      C4B98357 
 146      8E6131D4 
 146      0C3E0C
 147 00f8 33FA8976 		.ascii	"3\372\211v\307*\\\356X0\203P\330\261 \302n&\025\302"
 147      C72A5CEE 
 147      58308350 
 147      D8B120C2 
 147      6E2615C2 
 148 010c 6E16D16E 		.ascii	"n\026\321n>\215\323\315\263\011\271\231\001\341\346"
 148      3E8DD3CD 
 148      B309B999 
 148      01E1E6
 149 011b 395470F3 		.ascii	"9Tp\363\\\242\335\374\006\247\233\347\221\220F\347S"
 149      5CA2DDFC 
 149      06A79BE7 
 149      919046E7 
 149      53
 150 012c E8E68B0C 		.ascii	"\350\346\213\014\215\017V*\303\214\200\200\020\240v"
 150      8D0F562A 
 150      C38C8080 
 150      10A076
 151 013b 607E07B9 		.ascii	"`~\007\271\331POO\037\202JR\213K\364\213J\364\213\363"
 151      D9504F4F 
 151      1F824A52 
 151      8B4BF48B 
 151      4AF48BF3 
 152 014f 4B8B9253 		.ascii	"K\213\222S!\\\020\021_\234ZX\232\232\227\234\032o``"
 152      215C1011 
 152      5F9C5A58 
 152      9A9A979C 
 152      1A6F6060 
 153 0163 A897CCA0 		.ascii	"\250\227\314\240\245\253\253\253\020P\224\237R\232\\"
 153      A5ABABAB 
 153      1050949F 
 153      529A5C
 154 0172 62A58009 		.ascii	"b\245\200\011\23432\2232\375\203\365\203B\030\024@J"
 154      9C333293 
 154      32FD83F5 
 154      83421814 
 154      404A
ARM GAS  /tmp/ccXlDfva.s 			page 12


 155 0184 834B1293 		.ascii	"\203K\022\223rR\025\334r\022\323\321\225\003\213\016"
 155      725215DC 
 155      7212D3D1 
 155      95038B0E 
 156 0194 B092B0D4 		.ascii	"\260\222\260\324\242\342\314\374<\240\322\242\314<T"
 156      A2E2CCFC 
 156      3CA0D2A2 
 156      CC3C54
 157 01a3 550C6C26 		.ascii	"U\014l&z\006z\206\020u\276\211Y\371E\012~\245\271I\251"
 157      7A067A86 
 157      1075BE89 
 157      59F9450A 
 157      7EA5B949 
 158 01b8 45686641 		.ascii	"EhfA\025d\346\341W\020\220X\222\234\201C\001\000\353"
 158      1564E6E1 
 158      57109058 
 158      929C8143 
 158      0100EB
 159 01cb 6D4841   		.ascii	"mHA"
 160              		.text
 161              		.section	.gnu.lto_.symbol_nodes.81fe53e17c8c14b,"",%progbits
 162 0000 789C4D93 		.ascii	"x\234M\223\315\212\032Q\020F\353V\353\350[\344)\362"
 162      CD8A1A51 
 162      1046EB56 
 162      EBE85BE4 
 162      29F2
 163 0012 4079923B 		.ascii	"@y\222;P\020\031\005\015\012\012\032t\321/\022\350}"
 163      50101905 
 163      0D0A0A1A 
 163      74D12F12 
 163      E87D
 164 0024 F693DF31 		.ascii	"\366\223\3371\027\0244(8\353\204t\272Ne\342\246n\237"
 164      17143428 
 164      38EB8474 
 164      BA4E65E2 
 164      A66E9F
 165 0037 4FCEB7FA 		.ascii	"O\316\267\372TT^\367\304\177\3729e\221w\037Er~\377\360"
 165      54545EF7 
 165      C47FFA39 
 165      6591771F 
 165      45727EFF 
 166 004c A6FF2DB5 		.ascii	"\246\377-\265/\321\307\224\323\177\364kJ\375,\375OI"
 166      2FD1C794 
 166      D37FF46B 
 166      4AFD2CFD 
 166      4F49
 167 005e 7BB9EA7F 		.ascii	"{\271\352\177IU{\322>e\365\377\334\337\247\364\224r"
 167      49557BD2 
 167      3E65F5FF 
 167      DCDFA7F4 
 167      9472
 168 0070 F5F2F53D 		.ascii	"\365\362\365=\345\336\277\257J\206R?\375n\357@\232\356"
 168      E5DEBFAF 
 168      4A86523F 
 168      FD6EEF40 
 168      9AEE
 169 0082 DE49E9EE 		.ascii	"\336I\351\356Pl\357\274\336;o\366\316\013\334\336\376"
ARM GAS  /tmp/ccXlDfva.s 			page 13


 169      506CEFBC 
 169      DE3B6FF6 
 169      CE0BDCDE 
 169      FE
 170 0093 7CF597D7 		.ascii	"|\365\227\327\335\035J\323\335\201\024\270\215\234\327"
 170      DD1D4AD3 
 170      DD8114B8 
 170      8D9CD7
 171 00a2 23E7CDC8 		.ascii	"#\347\315\310y\201\333\330y=v\336\214\235\027\270M\360"
 171      7981DBD8 
 171      793D76DE 
 171      8C9D17B8 
 171      4DF0
 172 00b4 4FF04FF0 		.ascii	"O\360O\360\303m\212\177\212\177\212\037n3\3743\3743"
 172      C36D8A7F 
 172      8A7F8A1F 
 172      6E33FC33 
 172      FC33
 173 00c6 FC709BE3 		.ascii	"\374p\233\343\237\343\237\343\207\333\002\377\002\377"
 173      9FE39FE3 
 173      87DB02FF 
 173      02FF
 174 00d4 023FDC96 		.ascii	"\002?\334\226\370\227\370\227\370\341\266\302\277\302"
 174      F897F897 
 174      F8E1B6C2 
 174      BFC2
 175 00e2 BFC20FB7 		.ascii	"\277\302\017\2675\3765\3765~\270m\360o\360o\360\303"
 175      35FE35FE 
 175      357EB86D 
 175      F06FF06F 
 175      F0C3
 176 00f4 6D8B7F8B 		.ascii	"m\213\177\213\177\213\037n;\374;\374;\374p\373\361\341"
 176      7F8B1F6E 
 176      3BFC3BFC 
 176      3BFC70FB 
 176      F1E1
 177 0106 57D515F8 		.ascii	"W\325\025\370\243m\360G[\021\221\025\242\272\0205\205"
 177      A36DF047 
 177      5B119115 
 177      A2BA1035 
 177      85
 178 0117 A8446407 		.ascii	"\250Dd\007\242\372@\324\034\210JDv\214\256ct\035\243"
 178      A2FA40D4 
 178      1C884A44 
 178      768CAE63 
 178      741DA3
 179 012a 2B223B45 		.ascii	"+\";E\327)\272N\321\025\221\235\243\353\034]\347\350"
 179      D729BA4E 
 179      D115919D 
 179      A3EB1C5D 
 179      E7E8
 180 013c 8AC82ED1 		.ascii	"\212\310.\321u\211\256KtEd\327\350\272F\3275\272\"\262"
 180      7589AE4B 
 180      744564D7 
 180      E8BA46D7 
 180      35BA22B2 
 181 0150 5B74DDA2 		.ascii	"[t\335\242\353\026]\021\331st=GW\367\320;\237\225\016"
ARM GAS  /tmp/ccXlDfva.s 			page 14


 181      EB165D11 
 181      D973743D 
 181      4757F7D0 
 181      3B9F950E 
 182 0164 7D563AF0 		.ascii	"}V:\360Y\265\274\233U\313\273Y)\263Rf\245\314J\231\225"
 182      59B5BC9B 
 182      55CBBB59 
 182      29B35266 
 182      A5CC4A99 
 183 0179 322B6556 		.ascii	"2+eV\312\254\224Y)\263R\237\225\374\001Y\017]\007"
 183      CAAC9459 
 183      29B3529F 
 183      95FC0159 
 183      0F5D07
 184              		.text
 185              		.section	.gnu.lto_.refs.81fe53e17c8c14b,"",%progbits
 186 0000 789C25C2 		.ascii	"x\234%\302\201\011\000 \014\300\260\266\316\033\374"
 186      81090020 
 186      0CC0B0B6 
 186      CE1BFC
 187 000f FF530543 		.ascii	"\377S\005C\"\016\237\250\275\253i;\345\016.\005H\000"
 187      220E9FA8 
 187      BDAB693B 
 187      E50E2E05 
 187      4800
 188 0021 47       		.ascii	"G"
 189              		.text
 190              		.section	.gnu.lto_.decls.81fe53e17c8c14b,"",%progbits
 191 0000 789C9D56 		.ascii	"x\234\235Vml\024E\030~g\257\327\366\354\345J\211\222"
 191      6D6C1445 
 191      187E67AF 
 191      D7F6ECE5 
 191      4A8992
 192 0013 92187A98 		.ascii	"\222\030z\230`b\023\356\332b\342\037C\370\210A\242\370"
 192      606213EE 
 192      DA62E21F 
 192      43F88841 
 192      A2F8
 193 0025 4342E20F 		.ascii	"CB\342\017\343\261\\\247\366\222v\257\336\355E\214\177"
 193      E3B15CA7 
 193      F69276AF 
 193      DEED458C 
 193      7F
 194 0036 C69A6843 		.ascii	"\306\232hC\214\036\305\217\376\020\323\026\260(\010"
 194      8C1EC58F 
 194      FE10D316 
 194      B02808
 195 0045 142A29B1 		.ascii	"\024*)\261\232\245\201RQk\211\200\030-\271\240\342G"
 195      9AA58152 
 195      516B8980 
 195      182DB9A0 
 195      E247
 196 0057 FC28267C 		.ascii	"\374(&|D\255\347\273;\263\267{w\273\336\235\223\276"
 196      44ADE7BB 
 196      3BB3B77B 
 196      77BBDE9D 
 196      93BE
ARM GAS  /tmp/ccXlDfva.s 			page 15


 197 0069 DBD9D979 		.ascii	"\333\331\331y\237\367y\237\231y\347$\220\340~\002\220"
 197      9FF7799F 
 197      9979E724 
 197      90E07E02 
 197      90
 198 007a C5F67800 		.ascii	"\305\366x\000`\004\373\036\000X\215\346C\033B\033F\033"
 198      6004FB1E 
 198      00588DE6 
 198      431B421B 
 198      461B
 199 008c 413B8076 		.ascii	"A;\200v\020\355\020\332a\264Q\264\243\300\233\027m\014"
 199      10ED10DA 
 199      61B451B4 
 199      A3C09B17 
 199      6D0C
 200 009e 6D1CED03 		.ascii	"m\034\355\003\264\223h\247\321\252\320\316\240}\214"
 200      B49368A7 
 200      D1AAD0CE 
 200      A07D8C
 201 00ad 7605ED17 		.ascii	"v\005\355\027\310o\272O\235\360\277\216v\303\026g\002"
 201      C86FBA4F 
 201      9DF0BF8E 
 201      76C31667 
 201      02
 202 00be EDA6883D 		.ascii	"\355\246\210=i\343\002\002wL\3048)b\022\021\313\336"
 202      69E30202 
 202      774CC438 
 202      29621211 
 202      CBDE
 203 00d0 743EF505 		.ascii	"t>\365\005\370&\357\011[,\2478f\236f<373\246S\274:\330"
 203      F826EF09 
 203      5B2CA738 
 203      669E663C 
 203      333733A6 
 204 00e8 C1582F1B 		.ascii	"\301X/\033|\201=8\035h\2004\303\226\361\016\004|\320"
 204      7C813D38 
 204      1D688034 
 204      C396F10E 
 204      047CD0
 205 00fb A78F67F6 		.ascii	"\247\217g\366\261\306F\200\307\210Lp\250\326\350\370"
 205      B1C64680 
 205      C7884C70 
 205      A8D6E8F8 
 206 010b 7D06D20A 		.ascii	"}\006\322\012\330\213s\321A\222\311\036\342\303u\221"
 206      D88B73D1 
 206      4192C91E 
 206      E2C37591 
 207 011b 083836FE 		.ascii	"\01086\376]o\272;\357\233\275,qF\327\275\206I\203\321"
 207      5D6FBA3B 
 207      EF9BBD2C 
 207      7146D7BD 
 207      864983D1 
 208 012f 33B830C1 		.ascii	"3\2700\301\321\230!<\202\246G\225\360x\333\026\307\357"
 208      D198213C 
 208      82A64795 
 208      F078DB16 
 208      C7EF
ARM GAS  /tmp/ccXlDfva.s 			page 16


 209 0141 B3772037 		.ascii	"\263w 7\356\3447D\352\314)\"q\036\314\331\303\310<\235"
 209      EEE43744 
 209      EACC2922 
 209      711ECCD9 
 209      C3C83C9D 
 210 0155 79E5E75B 		.ascii	"y\345\347[\022c\2652\0311\262\357 \320\014\357pI\256"
 210      1263B532 
 210      1931B2EF 
 210      20D00CEF 
 210      7049AE
 211 0168 DCE72485 		.ascii	"\334\347$\205Lj|E\3572y\2274\013j5>\253\243o\360z\347"
 211      4C6A7C45 
 211      EF327997 
 211      340B6A35 
 211      3EABA36F 
 212 017f F5090E04 		.ascii	"\365\011\016\004\270x\202\034\223LvA\201{\260b\345\336"
 212      B878821C 
 212      934C7641 
 212      817BB062 
 212      E5DE
 213 0191 7351AEA9 		.ascii	"sQ\256\251\204r\007,\345\312\241\332b\372W\013\377\303"
 213      8472072C 
 213      E5CAA1DA 
 213      62FA570B 
 213      FFC3
 214 01a3 15333DE2 		.ascii	"\0253=\342\302\324[\202\351\241\312\230\316\346Dm\026"
 214      C2D45B82 
 214      E9A1CA98 
 214      CEE6446D 
 214      16
 215 01b4 00472BA6 		.ascii	"\000G+\246z\314\205\352=%\250\216ZT\233\340-\246\315"
 215      7ACC85EA 
 215      3D25A88E 
 215      5A549BE0 
 215      2DA6CD
 216 01c7 67E6CE5C 		.ascii	"g\346\316\\=Gv>\317\246\331\274\276-\226\300k\202\002"
 216      3D47763E 
 216      CFA6D9BC 
 216      BE2D96C0 
 216      6B8202
 217 01da 23AA4C56 		.ascii	"#\252LV\337\341\012\365>Y\"z[<\034Q\202\375\204\344"
 217      DFE10AF5 
 217      3E59227A 
 217      5B3C1C51 
 217      82FD84E4 
 218 01ee B61D6F77 		.ascii	"\266\035ow\303>\035\217\355g\036\003M\237?F\232\300"
 218      C33E1D8F 
 218      ED671E03 
 218      4D9F3F46 
 218      9AC0
 219 0200 D664729C 		.ascii	"\326dr\234H\366\001\316L\273E9'\036J\202\017\313\002"
 219      48F601CE 
 219      4CBB4539 
 219      271E4A82 
 219      0FCB02
 220 0213 1F2F043F 		.ascii	"\037/\004?Q\014\236Ig.\314\374\326\213i\017V\234\366"
 220      510C9E49 
ARM GAS  /tmp/ccXlDfva.s 			page 17


 220      672ECCFC 
 220      D68B690F 
 220      569CF6
 221 0226 8448DB03 		.ascii	"\204H\333\003R\321\202\347J\233\3268\020p\256>2\331"
 221      52D182E7 
 221      4A9BD638 
 221      1070AE3E 
 221      32D9
 222 0238 4B56945B 		.ascii	"KV\224[\267\212\202\177d-\237%\273\241\374\357E\342"
 222      B78A827F 
 222      642D9F25 
 222      BBA1FCEF 
 222      45E2
 223 024a F0499A53 		.ascii	"\360I\232S\366\332\361O^b$\375\\&\233m*?\363\311\374"
 223      F6DAF14F 
 223      5E6224FD 
 223      5C269B6D 
 223      2A3FF3C9 
 224 025f CC79752A 		.ascii	"\314yu*\240\361\267\013\215S\2164\306-\032\\X\011\372"
 224      A0F1B70B 
 224      8D538E34 
 224      C62D1A5C 
 224      5809FA
 225 0272 246780A9 		.ascii	"$g\200\251|\200\273`\210\015\366k\013g_]\312\206z\031"
 225      7C80BB60 
 225      880DF66B 
 225      0B675F5D 
 225      CA867A19 
 226 0286 FB279B45 		.ascii	"\373'\233E\262^\275Z\356\312!\270%2ma\3518G4<\004\337"
 226      B25EBD5A 
 226      EECA21B8 
 226      25326D61 
 226      E9384734 
 227 029d ED21BB18 		.ascii	"\355!\273\030\036\002\246!R\223yr\247\003\271\365\325"
 227      1E02A621 
 227      52937972 
 227      A703B9F5 
 227      D5
 228 02ae 707D17C3 		.ascii	"p}\027\303NC+\224\312V\301\0311\003,\202\\\011\277\360"
 228      4E432B94 
 228      CA56C119 
 228      31032C82 
 228      5C09BFF0 
 229 02c2 F2E9562C 		.ascii	"\362\351V,\341\302#\350:]&\237\341~(9M\237\3709Y,\022"
 229      E1C223E8 
 229      3A5D269F 
 229      E17E2839 
 229      4D9FF839 
 230 02d9 E317A4F6 		.ascii	"\343\027\244\366\027\015\362Qp\220L\264\345\200l{\265"
 230      170DF251 
 230      70904CB4 
 230      E5806C7B 
 230      B5
 231 02ea 858569C2 		.ascii	"\205\205i\302\372\375|\007I\260\333\320Hwu\322(\357"
 231      FAFD7C07 
 231      49B0DBD0 
 231      487775D2 
ARM GAS  /tmp/ccXlDfva.s 			page 18


 231      28EF
 232 02fc 6A1313F2 		.ascii	"j\023\023\362\341\262?\031py\233\237\037S7\315\317c"
 232      E1B23F19 
 232      70799B9F 
 232      1F5337CD 
 232      CF63
 233 030e 5C1B4909 		.ascii	"\\\033I\011\206+\246\020\314\243\220\236\362\247e\216"
 233      862BA610 
 233      CCA3909E 
 233      F2A7658E 
 234 031e 8B75A71C 		.ascii	"\213u\247\034\260Z\367|\372\355`\243\025\203\005\013"
 234      B05AF77C 
 234      FAED60A3 
 234      1583050B 
 235 032e 44E789CA 		.ascii	"D\347\211\312d\3268\352\347\310r|~a</\032\317K\370\314"
 235      64D638EA 
 235      E7C8727C 
 235      7E613C2F 
 235      1ACF4BF8 
 236 0343 35094E14 		.ascii	"5\011N\024\354ysQmx\326\332CiD\3475(X\254O]\362\323"
 236      EC797351 
 236      6D78D6DA 
 236      436944E7 
 236      352858AC 
 237 035b F1BFB6CA 		.ascii	"\361\277\266\312L>\344Vs\246\337\030\265\216\011\367"
 237      4C3EE456 
 237      73A6DF18 
 237      B58E09F7 
 238 036b 719E2593 		.ascii	"q\236%\223o*\276\337\346\\\3567{\021\260f\341\360\251"
 238      6F2ABEDF 
 238      E65CEE37 
 238      7B11B066 
 238      E1F0A9
 239 037e C2535F44 		.ascii	"\302S_D\3422\236\372epQ\332\315\370\332\335\013\307"
 239      E2329EFA 
 239      657051DA 
 239      CDF8DADD 
 239      0BC7
 240 0390 589FD622 		.ascii	"X\237\326\"\223\263\310.\267+\236\205?\331\000\313\314"
 240      93B3C82E 
 240      B72B9E85 
 240      3FD900CB 
 240      CC
 241 03a1 BDF8FD2A 		.ascii	"\275\370\375*\236\223^!fg\265/\247\336$l0Wit\365$\230"
 241      9E935E21 
 241      6667B52F 
 241      A7DE246C 
 241      30576974 
 242 03b8 2F0C5A7C 		.ascii	"/\014Z|h\277\025\265\206G[\303=\371\012\362P\332WS\244"
 242      68BF15B5 
 242      86475BC3 
 242      3DF90AF2 
 242      50DA5753 
 243 03cd 9C5F0D45 		.ascii	"\234_\015E\371\374P\261\250?\272\210j.\266\233\337U"
 243      F9FC50B1 
 243      A83FBA88 
 243      6A2EB69B 
ARM GAS  /tmp/ccXlDfva.s 			page 19


 243      DF55
 244 03df 6B3B2C83 		.ascii	"k;,\203\005\024p`\215\025\236\357C\335\343\2741\215"
 244      05147060 
 244      8D159EEF 
 244      43DDE3BC 
 244      318D
 245 03f1 EF48FBFB 		.ascii	"\357H\373\373%\221k\037\323.W\233\225\300~M\213\270"
 245      25916B1F 
 245      D32E579B 
 245      95C07E4D 
 245      8BB8
 246 0403 C454E4F5 		.ascii	"\304T\344\365\372|\351g\034\244\337\341))\375\257\245"
 246      FA7CE967 
 246      1CA4DFE1 
 246      2929FDAF 
 246      A5
 247 0414 A59F294B 		.ascii	"\245\237)K\372b\350k\025k\377\207\213\366\365%\264\237"
 247      FA62E86B 
 247      156BFF87 
 247      8BF6F525 
 247      B49F
 248 0426 B76BFF86 		.ascii	"\267k\377\206\207k\177\355\177i\0370\265\037+\326\236"
 248      876B7FED 
 248      7F691F30 
 248      B51F2BD6 
 248      9E
 249 0437 FF2435CF 		.ascii	"\377$5\317}A\251\360\272\247u\335\345\247/\277\316\335"
 249      7D41A9F0 
 249      BAA775DD 
 249      E5A72FBF 
 249      CEDD
 250 0449 BC6EB87A 		.ascii	"\274n\270zM\376\207\327M[U\252\212v\312\211'\302\235"
 250      4DFE87D7 
 250      4D5B55AA 
 250      8A76CA89 
 250      27C29D
 251 045c F16E1A96 		.ascii	"\361n\032\226\273\350\366\360&\252\250\361\304\206\204"
 251      BBE8F6F0 
 251      26AAA8F1 
 251      C48684
 252 046b DCD3198B 		.ascii	"\334\323\031\213&\303\233\343\251D\224&\236\211\254"
 252      26C39BE3 
 252      A9449426 
 252      9E89AC
 253 047a 8FB7D375 		.ascii	"\217\267\323uT\211vF\036\216\2514\322\021OD\326>\272"
 253      54897646 
 253      1E8EA934 
 253      D2114F44 
 253      D63EBA
 254 048d 29F2C0DA 		.ascii	")\362\300\332u\033\303r\242{\245\022W\350J*o\213\205"
 254      751BC372 
 254      A27BA512 
 254      57E84A2A 
 254      6F8B85
 255 04a0 634AB42B 		.ascii	"cJ\264+\325N\303I\265=\246\250\241N\250M\341\377Um\021"
 255      D54EC349 
 255      B53DA6A8 
ARM GAS  /tmp/ccXlDfva.s 			page 20


 255      A14EA84D 
 255      E1FF556D 
 256 04b5 B57AC323 		.ascii	"\265z\303#[\202\353\2415\024\012\363?\225&\325pB\015"
 256      5B82EBA1 
 256      35140AF3 
 256      3F9526D5 
 256      70420D
 257 04c8 278D28FC 		.ascii	"'\215(\374U\177D\222\364\251\024\006\243\221\226\226"
 257      557F4492 
 257      F4A91406 
 257      A3919696 
 258 04d8 D650146E 		.ascii	"\326P\024n7\006\261\217\326\026\241\333i4\245R\373`"
 258      3706B18F 
 258      D616A1DB 
 258      6934A552 
 258      FB60
 259 04ea AB397867 		.ascii	"\2539xg>vWl[\030)\353}$\3427<z\022H\247K\251\263^\224"
 259      3E76576C 
 259      5B1829EB 
 259      7D24E237 
 259      3C7A1248 
 260 0504 DBACBE8F 		.ascii	"\333\254\276\217\307WiO\225\"wSo\222\252\251\236Z\225"
 260      C757694F 
 260      95227753 
 260      6F92AAA9 
 260      9E5A95
 261 0517 CA89F6F8 		.ascii	"\312\211\366\370\323J\215\010c8D\345$\215\250\015E\204"
 261      D34A8D08 
 261      633844E5 
 261      248DA80D 
 261      4584
 262 0529 978612F1 		.ascii	"\227\206\022\361vY\225CE_\374v\312\376\207hB\241]\301"
 262      76599543 
 262      455FFC76 
 262      CAFE8768 
 262      42A15DC1 
 263 053d 8D4A471C 		.ascii	"\215JG\034\354_\332\026\211/\233\251\252\306\224'\223"
 263      EC5FDA16 
 263      892F9BA9 
 263      AAC69427 
 263      93
 264 054e F02F8E3B 		.ascii	"\360/\216;i\262"
 264      69B2
 265              		.text
 266              		.section	.gnu.lto_.symtab.81fe53e17c8c14b,"",%progbits
 267 0000 74657374 		.ascii	"test_sequence_001\000\000\000\000\000\000\000\000\000"
 267      5F736571 
 267      75656E63 
 267      655F3030 
 267      31000000 
 268 001a 000000C9 		.ascii	"\000\000\000\311\000\000\000test_step\000\000\002\000"
 268      00000074 
 268      6573745F 
 268      73746570 
 268      00000200 
 269 002e 00000000 		.ascii	"\000\000\000\000\000\000\000\000\307\000\000\000tes"
 269      00000000 
ARM GAS  /tmp/ccXlDfva.s 			page 21


 269      C7000000 
 269      746573
 270 003d 745F7072 		.ascii	"t_println\000\000\002\000\000\000\000\000\000\000\000"
 270      696E746C 
 270      6E000002 
 270      00000000 
 270      00000000 
 271 0051 00BB0000 		.ascii	"\000\273\000\000\000test_printn\000\000\002\000\000"
 271      00746573 
 271      745F7072 
 271      696E746E 
 271      00000200 
 272 0066 00000000 		.ascii	"\000\000\000\000\000\000\000\301\000\000\000test_pr"
 272      000000C1 
 272      00000074 
 272      6573745F 
 272      7072
 273 0078 696E7400 		.ascii	"int\000\000\002\000\000\000\000\000\000\000\000\000"
 273      00020000 
 273      00000000 
 273      000000
 274 0087 C5000000 		.ascii	"\305\000\000\000"
 275              		.text
 276              		.section	.gnu.lto_.opts,"",%progbits
 277 0000 272D6D63 		.ascii	"'-mcpu=cortex-m3' '-mno-thumb-interwork' '-mthumb' "
 277      70753D63 
 277      6F727465 
 277      782D6D33 
 277      2720272D 
 278 0033 272D6767 		.ascii	"'-ggdb' '-O2' '-fomit-frame-pointer' '-falign-funct"
 278      64622720 
 278      272D4F32 
 278      2720272D 
 278      666F6D69 
 279 0066 696F6E73 		.ascii	"ions=16' '-ffunction-sections' '-fdata-sections' '-"
 279      3D313627 
 279      20272D66 
 279      66756E63 
 279      74696F6E 
 280 0099 666E6F2D 		.ascii	"fno-common' '-flto'\000"
 280      636F6D6D 
 280      6F6E2720 
 280      272D666C 
 280      746F2700 
 281              		.text
 282              		.cfi_sections	.debug_frame
 283              		.section	.text.test_001_002_execute,"ax",%progbits
 284              		.align	2
 285              		.p2align 4,,15
 286              		.thumb
 287              		.thumb_func
 288              		.type	test_001_002_execute, %function
 289              	test_001_002_execute:
 290              	.LFB218:
 291              		.file 1 "../../../test/rt/source/test/test_sequence_001.c"
 292              		.loc 1 101 0
 293              		.cfi_startproc
ARM GAS  /tmp/ccXlDfva.s 			page 22


 294              		@ args = 0, pretend = 0, frame = 0
 295              		@ frame_needed = 0, uses_anonymous_args = 0
 296 0000 38B5     		push	{r3, r4, r5, lr}
 297              		.cfi_def_cfa_offset 16
 298              		.cfi_offset 3, -16
 299              		.cfi_offset 4, -12
 300              		.cfi_offset 5, -8
 301              		.cfi_offset 14, -4
 302              		.loc 1 106 0
 303 0002 40F20000 		movw	r0, #:lower16:.LC0
 304              		.loc 1 104 0
 305 0006 40F20003 		movw	r3, #:lower16:test_step
 306 000a C0F20003 		movt	r3, #:upper16:test_step
 307 000e 0125     		movs	r5, #1
 308              		.loc 1 106 0
 309 0010 C0F20000 		movt	r0, #:upper16:.LC0
 310              		.loc 1 108 0
 311 0014 40F20004 		movw	r4, #:lower16:.LC1
 312              		.loc 1 104 0
 313 0018 1D60     		str	r5, [r3]
 314              		.loc 1 108 0
 315 001a C0F20004 		movt	r4, #:upper16:.LC1
 316              		.loc 1 106 0
 317 001e FFF7FEFF 		bl	test_print
 318              	.LVL0:
 319              		.loc 1 107 0
 320 0022 1020     		movs	r0, #16
 321 0024 FFF7FEFF 		bl	test_printn
 322              	.LVL1:
 323              		.loc 1 108 0
 324 0028 2046     		mov	r0, r4
 325 002a FFF7FEFF 		bl	test_println
 326              	.LVL2:
 327              		.loc 1 109 0
 328 002e 40F20000 		movw	r0, #:lower16:.LC2
 329 0032 C0F20000 		movt	r0, #:upper16:.LC2
 330 0036 FFF7FEFF 		bl	test_print
 331              	.LVL3:
 332              		.loc 1 110 0
 333 003a 42F21070 		movw	r0, #10000
 334 003e FFF7FEFF 		bl	test_printn
 335              	.LVL4:
 336              		.loc 1 111 0
 337 0042 2046     		mov	r0, r4
 338 0044 FFF7FEFF 		bl	test_println
 339              	.LVL5:
 340              		.loc 1 112 0
 341 0048 40F20000 		movw	r0, #:lower16:.LC3
 342 004c C0F20000 		movt	r0, #:upper16:.LC3
 343 0050 FFF7FEFF 		bl	test_print
 344              	.LVL6:
 345              		.loc 1 113 0
 346 0054 0220     		movs	r0, #2
 347 0056 FFF7FEFF 		bl	test_printn
 348              	.LVL7:
 349              		.loc 1 114 0
 350 005a 2046     		mov	r0, r4
ARM GAS  /tmp/ccXlDfva.s 			page 23


 351 005c FFF7FEFF 		bl	test_println
 352              	.LVL8:
 353              		.loc 1 115 0
 354 0060 40F20000 		movw	r0, #:lower16:.LC4
 355 0064 C0F20000 		movt	r0, #:upper16:.LC4
 356 0068 FFF7FEFF 		bl	test_print
 357              	.LVL9:
 358              		.loc 1 116 0
 359 006c 0020     		movs	r0, #0
 360 006e FFF7FEFF 		bl	test_printn
 361              	.LVL10:
 362              		.loc 1 117 0
 363 0072 2046     		mov	r0, r4
 364 0074 FFF7FEFF 		bl	test_println
 365              	.LVL11:
 366              		.loc 1 118 0
 367 0078 40F20000 		movw	r0, #:lower16:.LC5
 368 007c C0F20000 		movt	r0, #:upper16:.LC5
 369 0080 FFF7FEFF 		bl	test_print
 370              	.LVL12:
 371              		.loc 1 119 0
 372 0084 0020     		movs	r0, #0
 373 0086 FFF7FEFF 		bl	test_printn
 374              	.LVL13:
 375              		.loc 1 120 0
 376 008a 2046     		mov	r0, r4
 377 008c FFF7FEFF 		bl	test_println
 378              	.LVL14:
 379              		.loc 1 121 0
 380 0090 40F20000 		movw	r0, #:lower16:.LC6
 381 0094 C0F20000 		movt	r0, #:upper16:.LC6
 382 0098 FFF7FEFF 		bl	test_print
 383              	.LVL15:
 384              		.loc 1 122 0
 385 009c 0020     		movs	r0, #0
 386 009e FFF7FEFF 		bl	test_printn
 387              	.LVL16:
 388              		.loc 1 123 0
 389 00a2 2046     		mov	r0, r4
 390 00a4 FFF7FEFF 		bl	test_println
 391              	.LVL17:
 392              		.loc 1 124 0
 393 00a8 40F20000 		movw	r0, #:lower16:.LC7
 394 00ac C0F20000 		movt	r0, #:upper16:.LC7
 395 00b0 FFF7FEFF 		bl	test_print
 396              	.LVL18:
 397              		.loc 1 125 0
 398 00b4 2846     		mov	r0, r5
 399 00b6 FFF7FEFF 		bl	test_printn
 400              	.LVL19:
 401              		.loc 1 126 0
 402 00ba 2046     		mov	r0, r4
 403 00bc FFF7FEFF 		bl	test_println
 404              	.LVL20:
 405              		.loc 1 127 0
 406 00c0 40F20000 		movw	r0, #:lower16:.LC8
 407 00c4 C0F20000 		movt	r0, #:upper16:.LC8
ARM GAS  /tmp/ccXlDfva.s 			page 24


 408 00c8 FFF7FEFF 		bl	test_print
 409              	.LVL21:
 410              		.loc 1 128 0
 411 00cc 2846     		mov	r0, r5
 412 00ce FFF7FEFF 		bl	test_printn
 413              	.LVL22:
 414              		.loc 1 129 0
 415 00d2 2046     		mov	r0, r4
 416 00d4 FFF7FEFF 		bl	test_println
 417              	.LVL23:
 418              		.loc 1 130 0
 419 00d8 40F20000 		movw	r0, #:lower16:.LC9
 420 00dc C0F20000 		movt	r0, #:upper16:.LC9
 421 00e0 FFF7FEFF 		bl	test_print
 422              	.LVL24:
 423              		.loc 1 131 0
 424 00e4 2846     		mov	r0, r5
 425 00e6 FFF7FEFF 		bl	test_printn
 426              	.LVL25:
 427              		.loc 1 132 0
 428 00ea 2046     		mov	r0, r4
 429 00ec FFF7FEFF 		bl	test_println
 430              	.LVL26:
 431              		.loc 1 133 0
 432 00f0 40F20000 		movw	r0, #:lower16:.LC10
 433 00f4 C0F20000 		movt	r0, #:upper16:.LC10
 434 00f8 FFF7FEFF 		bl	test_print
 435              	.LVL27:
 436              		.loc 1 134 0
 437 00fc 2846     		mov	r0, r5
 438 00fe FFF7FEFF 		bl	test_printn
 439              	.LVL28:
 440              		.loc 1 135 0
 441 0102 2046     		mov	r0, r4
 442 0104 FFF7FEFF 		bl	test_println
 443              	.LVL29:
 444              		.loc 1 136 0
 445 0108 40F20000 		movw	r0, #:lower16:.LC11
 446 010c C0F20000 		movt	r0, #:upper16:.LC11
 447 0110 FFF7FEFF 		bl	test_print
 448              	.LVL30:
 449              		.loc 1 137 0
 450 0114 2846     		mov	r0, r5
 451 0116 FFF7FEFF 		bl	test_printn
 452              	.LVL31:
 453              		.loc 1 138 0
 454 011a 2046     		mov	r0, r4
 455 011c FFF7FEFF 		bl	test_println
 456              	.LVL32:
 457              		.loc 1 139 0
 458 0120 40F20000 		movw	r0, #:lower16:.LC12
 459 0124 C0F20000 		movt	r0, #:upper16:.LC12
 460 0128 FFF7FEFF 		bl	test_print
 461              	.LVL33:
 462              		.loc 1 140 0
 463 012c 0020     		movs	r0, #0
 464 012e FFF7FEFF 		bl	test_printn
ARM GAS  /tmp/ccXlDfva.s 			page 25


 465              	.LVL34:
 466              		.loc 1 141 0
 467 0132 2046     		mov	r0, r4
 468 0134 FFF7FEFF 		bl	test_println
 469              	.LVL35:
 470              		.loc 1 142 0
 471 0138 40F20000 		movw	r0, #:lower16:.LC13
 472 013c C0F20000 		movt	r0, #:upper16:.LC13
 473 0140 FFF7FEFF 		bl	test_print
 474              	.LVL36:
 475              		.loc 1 143 0
 476 0144 2846     		mov	r0, r5
 477 0146 FFF7FEFF 		bl	test_printn
 478              	.LVL37:
 479              		.loc 1 144 0
 480 014a 2046     		mov	r0, r4
 481 014c FFF7FEFF 		bl	test_println
 482              	.LVL38:
 483              		.loc 1 145 0
 484 0150 40F20000 		movw	r0, #:lower16:.LC14
 485 0154 C0F20000 		movt	r0, #:upper16:.LC14
 486 0158 FFF7FEFF 		bl	test_print
 487              	.LVL39:
 488              		.loc 1 146 0
 489 015c 0020     		movs	r0, #0
 490 015e FFF7FEFF 		bl	test_printn
 491              	.LVL40:
 492              		.loc 1 147 0
 493 0162 2046     		mov	r0, r4
 494 0164 FFF7FEFF 		bl	test_println
 495              	.LVL41:
 496              		.loc 1 148 0
 497 0168 40F20000 		movw	r0, #:lower16:.LC15
 498 016c C0F20000 		movt	r0, #:upper16:.LC15
 499 0170 FFF7FEFF 		bl	test_print
 500              	.LVL42:
 501              		.loc 1 149 0
 502 0174 2846     		mov	r0, r5
 503 0176 FFF7FEFF 		bl	test_printn
 504              	.LVL43:
 505              		.loc 1 150 0
 506 017a 2046     		mov	r0, r4
 507 017c FFF7FEFF 		bl	test_println
 508              	.LVL44:
 509              		.loc 1 151 0
 510 0180 40F20000 		movw	r0, #:lower16:.LC16
 511 0184 C0F20000 		movt	r0, #:upper16:.LC16
 512 0188 FFF7FEFF 		bl	test_print
 513              	.LVL45:
 514              		.loc 1 152 0
 515 018c 2846     		mov	r0, r5
 516 018e FFF7FEFF 		bl	test_printn
 517              	.LVL46:
 518              		.loc 1 153 0
 519 0192 2046     		mov	r0, r4
 520 0194 FFF7FEFF 		bl	test_println
 521              	.LVL47:
ARM GAS  /tmp/ccXlDfva.s 			page 26


 522              		.loc 1 154 0
 523 0198 40F20000 		movw	r0, #:lower16:.LC17
 524 019c C0F20000 		movt	r0, #:upper16:.LC17
 525 01a0 FFF7FEFF 		bl	test_print
 526              	.LVL48:
 527              		.loc 1 155 0
 528 01a4 2846     		mov	r0, r5
 529 01a6 FFF7FEFF 		bl	test_printn
 530              	.LVL49:
 531              		.loc 1 156 0
 532 01aa 2046     		mov	r0, r4
 533 01ac FFF7FEFF 		bl	test_println
 534              	.LVL50:
 535              		.loc 1 157 0
 536 01b0 40F20000 		movw	r0, #:lower16:.LC18
 537 01b4 C0F20000 		movt	r0, #:upper16:.LC18
 538 01b8 FFF7FEFF 		bl	test_print
 539              	.LVL51:
 540              		.loc 1 158 0
 541 01bc 2846     		mov	r0, r5
 542 01be FFF7FEFF 		bl	test_printn
 543              	.LVL52:
 544              		.loc 1 159 0
 545 01c2 2046     		mov	r0, r4
 546 01c4 FFF7FEFF 		bl	test_println
 547              	.LVL53:
 548              		.loc 1 160 0
 549 01c8 40F20000 		movw	r0, #:lower16:.LC19
 550 01cc C0F20000 		movt	r0, #:upper16:.LC19
 551 01d0 FFF7FEFF 		bl	test_print
 552              	.LVL54:
 553              		.loc 1 161 0
 554 01d4 2846     		mov	r0, r5
 555 01d6 FFF7FEFF 		bl	test_printn
 556              	.LVL55:
 557              		.loc 1 162 0
 558 01da 2046     		mov	r0, r4
 559 01dc FFF7FEFF 		bl	test_println
 560              	.LVL56:
 561              		.loc 1 163 0
 562 01e0 40F20000 		movw	r0, #:lower16:.LC20
 563 01e4 C0F20000 		movt	r0, #:upper16:.LC20
 564 01e8 FFF7FEFF 		bl	test_print
 565              	.LVL57:
 566              		.loc 1 164 0
 567 01ec 0020     		movs	r0, #0
 568 01ee FFF7FEFF 		bl	test_printn
 569              	.LVL58:
 570              		.loc 1 165 0
 571 01f2 2046     		mov	r0, r4
 572 01f4 FFF7FEFF 		bl	test_println
 573              	.LVL59:
 574              		.loc 1 166 0
 575 01f8 40F20000 		movw	r0, #:lower16:.LC21
 576 01fc C0F20000 		movt	r0, #:upper16:.LC21
 577 0200 FFF7FEFF 		bl	test_print
 578              	.LVL60:
ARM GAS  /tmp/ccXlDfva.s 			page 27


 579              		.loc 1 167 0
 580 0204 2846     		mov	r0, r5
 581 0206 FFF7FEFF 		bl	test_printn
 582              	.LVL61:
 583              		.loc 1 168 0
 584 020a 2046     		mov	r0, r4
 585 020c FFF7FEFF 		bl	test_println
 586              	.LVL62:
 587              		.loc 1 169 0
 588 0210 40F20000 		movw	r0, #:lower16:.LC22
 589 0214 C0F20000 		movt	r0, #:upper16:.LC22
 590 0218 FFF7FEFF 		bl	test_print
 591              	.LVL63:
 592              		.loc 1 170 0
 593 021c 2846     		mov	r0, r5
 594 021e FFF7FEFF 		bl	test_printn
 595              	.LVL64:
 596              		.loc 1 171 0
 597 0222 2046     		mov	r0, r4
 598 0224 FFF7FEFF 		bl	test_println
 599              	.LVL65:
 600              		.loc 1 172 0
 601 0228 40F20000 		movw	r0, #:lower16:.LC23
 602 022c C0F20000 		movt	r0, #:upper16:.LC23
 603 0230 FFF7FEFF 		bl	test_print
 604              	.LVL66:
 605              		.loc 1 173 0
 606 0234 2846     		mov	r0, r5
 607 0236 FFF7FEFF 		bl	test_printn
 608              	.LVL67:
 609              		.loc 1 174 0
 610 023a 2046     		mov	r0, r4
 611 023c FFF7FEFF 		bl	test_println
 612              	.LVL68:
 613              		.loc 1 175 0
 614 0240 40F20000 		movw	r0, #:lower16:.LC24
 615 0244 C0F20000 		movt	r0, #:upper16:.LC24
 616 0248 FFF7FEFF 		bl	test_print
 617              	.LVL69:
 618              		.loc 1 176 0
 619 024c 2846     		mov	r0, r5
 620 024e FFF7FEFF 		bl	test_printn
 621              	.LVL70:
 622              		.loc 1 177 0
 623 0252 2046     		mov	r0, r4
 624 0254 FFF7FEFF 		bl	test_println
 625              	.LVL71:
 626              		.loc 1 178 0
 627 0258 40F20000 		movw	r0, #:lower16:.LC25
 628 025c C0F20000 		movt	r0, #:upper16:.LC25
 629 0260 FFF7FEFF 		bl	test_print
 630              	.LVL72:
 631              		.loc 1 179 0
 632 0264 2846     		mov	r0, r5
 633 0266 FFF7FEFF 		bl	test_printn
 634              	.LVL73:
 635              		.loc 1 180 0
ARM GAS  /tmp/ccXlDfva.s 			page 28


 636 026a 2046     		mov	r0, r4
 637 026c FFF7FEFF 		bl	test_println
 638              	.LVL74:
 639              		.loc 1 181 0
 640 0270 40F20000 		movw	r0, #:lower16:.LC26
 641 0274 C0F20000 		movt	r0, #:upper16:.LC26
 642 0278 FFF7FEFF 		bl	test_print
 643              	.LVL75:
 644              		.loc 1 182 0
 645 027c 0020     		movs	r0, #0
 646 027e FFF7FEFF 		bl	test_printn
 647              	.LVL76:
 648              		.loc 1 183 0
 649 0282 2046     		mov	r0, r4
 650 0284 FFF7FEFF 		bl	test_println
 651              	.LVL77:
 652              		.loc 1 184 0
 653 0288 40F20000 		movw	r0, #:lower16:.LC27
 654 028c C0F20000 		movt	r0, #:upper16:.LC27
 655 0290 FFF7FEFF 		bl	test_print
 656              	.LVL78:
 657              		.loc 1 185 0
 658 0294 0020     		movs	r0, #0
 659 0296 FFF7FEFF 		bl	test_printn
 660              	.LVL79:
 661              		.loc 1 186 0
 662 029a 2046     		mov	r0, r4
 663 029c FFF7FEFF 		bl	test_println
 664              	.LVL80:
 665              		.loc 1 187 0
 666 02a0 40F20000 		movw	r0, #:lower16:.LC28
 667 02a4 C0F20000 		movt	r0, #:upper16:.LC28
 668 02a8 FFF7FEFF 		bl	test_print
 669              	.LVL81:
 670              		.loc 1 188 0
 671 02ac 0020     		movs	r0, #0
 672 02ae FFF7FEFF 		bl	test_printn
 673              	.LVL82:
 674              		.loc 1 189 0
 675 02b2 2046     		mov	r0, r4
 676 02b4 FFF7FEFF 		bl	test_println
 677              	.LVL83:
 678              		.loc 1 190 0
 679 02b8 40F20000 		movw	r0, #:lower16:.LC29
 680 02bc C0F20000 		movt	r0, #:upper16:.LC29
 681 02c0 FFF7FEFF 		bl	test_print
 682              	.LVL84:
 683              		.loc 1 191 0
 684 02c4 0020     		movs	r0, #0
 685 02c6 FFF7FEFF 		bl	test_printn
 686              	.LVL85:
 687              		.loc 1 192 0
 688 02ca 2046     		mov	r0, r4
 689 02cc FFF7FEFF 		bl	test_println
 690              	.LVL86:
 691              		.loc 1 193 0
 692 02d0 40F20000 		movw	r0, #:lower16:.LC30
ARM GAS  /tmp/ccXlDfva.s 			page 29


 693 02d4 C0F20000 		movt	r0, #:upper16:.LC30
 694 02d8 FFF7FEFF 		bl	test_print
 695              	.LVL87:
 696              		.loc 1 194 0
 697 02dc FF20     		movs	r0, #255
 698 02de FFF7FEFF 		bl	test_printn
 699              	.LVL88:
 700              		.loc 1 195 0
 701 02e2 2046     		mov	r0, r4
 702 02e4 FFF7FEFF 		bl	test_println
 703              	.LVL89:
 704              		.loc 1 196 0
 705 02e8 40F20000 		movw	r0, #:lower16:.LC31
 706 02ec C0F20000 		movt	r0, #:upper16:.LC31
 707 02f0 FFF7FEFF 		bl	test_print
 708              	.LVL90:
 709              		.loc 1 197 0
 710 02f4 8020     		movs	r0, #128
 711 02f6 FFF7FEFF 		bl	test_printn
 712              	.LVL91:
 713              		.loc 1 198 0
 714 02fa 2046     		mov	r0, r4
 715 02fc FFF7FEFF 		bl	test_println
 716              	.LVL92:
 717              		.loc 1 199 0
 718 0300 40F20000 		movw	r0, #:lower16:.LC32
 719 0304 C0F20000 		movt	r0, #:upper16:.LC32
 720 0308 FFF7FEFF 		bl	test_print
 721              	.LVL93:
 722              		.loc 1 200 0
 723 030c 0020     		movs	r0, #0
 724 030e FFF7FEFF 		bl	test_printn
 725              	.LVL94:
 726              		.loc 1 201 0
 727 0312 2046     		mov	r0, r4
 728 0314 FFF7FEFF 		bl	test_println
 729              	.LVL95:
 730              		.loc 1 202 0
 731 0318 40F20000 		movw	r0, #:lower16:.LC33
 732 031c C0F20000 		movt	r0, #:upper16:.LC33
 733 0320 FFF7FEFF 		bl	test_print
 734              	.LVL96:
 735              		.loc 1 203 0
 736 0324 0020     		movs	r0, #0
 737 0326 FFF7FEFF 		bl	test_printn
 738              	.LVL97:
 739              		.loc 1 204 0
 740 032a 2046     		mov	r0, r4
 741 032c FFF7FEFF 		bl	test_println
 742              	.LVL98:
 743              		.loc 1 205 0
 744 0330 40F20000 		movw	r0, #:lower16:.LC34
 745 0334 C0F20000 		movt	r0, #:upper16:.LC34
 746 0338 FFF7FEFF 		bl	test_print
 747              	.LVL99:
 748              		.loc 1 206 0
 749 033c 0020     		movs	r0, #0
ARM GAS  /tmp/ccXlDfva.s 			page 30


 750 033e FFF7FEFF 		bl	test_printn
 751              	.LVL100:
 752              		.loc 1 207 0
 753 0342 2046     		mov	r0, r4
 754              		.loc 1 209 0
 755 0344 BDE83840 		pop	{r3, r4, r5, lr}
 756              		.loc 1 207 0
 757 0348 FFF7FEBF 		b	test_println
 758              	.LVL101:
 759              		.cfi_endproc
 760              	.LFE218:
 761              		.size	test_001_002_execute, .-test_001_002_execute
 762 034c AFF30080 		.section	.text.test_001_001_execute,"ax",%progbits
 763              		.align	2
 764              		.p2align 4,,15
 765              		.thumb
 766              		.thumb_func
 767              		.type	test_001_001_execute, %function
 768              	test_001_001_execute:
 769              	.LFB217:
 770              		.loc 1 60 0
 771              		.cfi_startproc
 772              		@ args = 0, pretend = 0, frame = 0
 773              		@ frame_needed = 0, uses_anonymous_args = 0
 774 0000 38B5     		push	{r3, r4, r5, lr}
 775              		.cfi_def_cfa_offset 16
 776              		.cfi_offset 3, -16
 777              		.cfi_offset 4, -12
 778              		.cfi_offset 5, -8
 779              		.cfi_offset 14, -4
 780              		.loc 1 65 0
 781 0002 40F20000 		movw	r0, #:lower16:.LC35
 782              		.loc 1 63 0
 783 0006 40F20003 		movw	r3, #:lower16:test_step
 784 000a C0F20003 		movt	r3, #:upper16:test_step
 785 000e 0125     		movs	r5, #1
 786              		.loc 1 65 0
 787 0010 C0F20000 		movt	r0, #:upper16:.LC35
 788              		.loc 1 63 0
 789 0014 1D60     		str	r5, [r3]
 790              		.loc 1 65 0
 791 0016 FFF7FEFF 		bl	test_println
 792              	.LVL102:
 793              		.loc 1 66 0
 794 001a 40F20000 		movw	r0, #:lower16:.LC36
 795 001e C0F20000 		movt	r0, #:upper16:.LC36
 796              		.loc 1 68 0
 797 0022 40F20004 		movw	r4, #:lower16:.LC1
 798 0026 C0F20004 		movt	r4, #:upper16:.LC1
 799              		.loc 1 66 0
 800 002a FFF7FEFF 		bl	test_print
 801              	.LVL103:
 802              		.loc 1 67 0
 803 002e 2846     		mov	r0, r5
 804 0030 FFF7FEFF 		bl	test_printn
 805              	.LVL104:
 806              		.loc 1 68 0
ARM GAS  /tmp/ccXlDfva.s 			page 31


 807 0034 2046     		mov	r0, r4
 808 0036 FFF7FEFF 		bl	test_println
 809              	.LVL105:
 810              		.loc 1 69 0
 811 003a 40F20000 		movw	r0, #:lower16:.LC37
 812 003e C0F20000 		movt	r0, #:upper16:.LC37
 813 0042 FFF7FEFF 		bl	test_print
 814              	.LVL106:
 815              		.loc 1 70 0
 816 0046 40F20000 		movw	r0, #:lower16:.LC38
 817 004a C0F20000 		movt	r0, #:upper16:.LC38
 818 004e FFF7FEFF 		bl	test_println
 819              	.LVL107:
 820              		.loc 1 71 0
 821 0052 40F20000 		movw	r0, #:lower16:.LC39
 822 0056 C0F20000 		movt	r0, #:upper16:.LC39
 823 005a FFF7FEFF 		bl	test_print
 824              	.LVL108:
 825              		.loc 1 72 0
 826 005e 0420     		movs	r0, #4
 827 0060 FFF7FEFF 		bl	test_printn
 828              	.LVL109:
 829              		.loc 1 73 0
 830 0064 2046     		mov	r0, r4
 831 0066 FFF7FEFF 		bl	test_println
 832              	.LVL110:
 833              		.loc 1 74 0
 834 006a 40F20000 		movw	r0, #:lower16:.LC40
 835 006e C0F20000 		movt	r0, #:upper16:.LC40
 836 0072 FFF7FEFF 		bl	test_print
 837              	.LVL111:
 838              		.loc 1 75 0
 839 0076 0020     		movs	r0, #0
 840 0078 FFF7FEFF 		bl	test_printn
 841              	.LVL112:
 842              		.loc 1 76 0
 843 007c 2046     		mov	r0, r4
 844 007e FFF7FEFF 		bl	test_println
 845              	.LVL113:
 846              		.loc 1 77 0
 847 0082 40F20000 		movw	r0, #:lower16:.LC41
 848 0086 C0F20000 		movt	r0, #:upper16:.LC41
 849 008a FFF7FEFF 		bl	test_print
 850              	.LVL114:
 851              		.loc 1 78 0
 852 008e 2846     		mov	r0, r5
 853 0090 FFF7FEFF 		bl	test_printn
 854              	.LVL115:
 855              		.loc 1 79 0
 856 0094 2046     		mov	r0, r4
 857              		.loc 1 81 0
 858 0096 BDE83840 		pop	{r3, r4, r5, lr}
 859              		.loc 1 79 0
 860 009a FFF7FEBF 		b	test_println
 861              	.LVL116:
 862              		.cfi_endproc
 863              	.LFE217:
ARM GAS  /tmp/ccXlDfva.s 			page 32


 864              		.size	test_001_001_execute, .-test_001_001_execute
 865              		.global	test_sequence_001
 866 009e 00BF     		.section	.rodata.test_sequence_001,"a",%progbits
 867              		.align	2
 868              		.type	test_sequence_001, %object
 869              		.size	test_sequence_001, 12
 870              	test_sequence_001:
 871 0000 00000000 		.word	test_001_001
 872 0004 00000000 		.word	test_001_002
 873 0008 00000000 		.word	0
 874              		.section	.rodata.test_001_001,"a",%progbits
 875              		.align	2
 876              		.type	test_001_001, %object
 877              		.size	test_001_001, 16
 878              	test_001_001:
 879 0000 28050000 		.word	.LC43
 880 0004 00000000 		.word	0
 881 0008 00000000 		.word	0
 882 000c 00000000 		.word	test_001_001_execute
 883              		.section	.rodata.test_001_002,"a",%progbits
 884              		.align	2
 885              		.type	test_001_002, %object
 886              		.size	test_001_002, 16
 887              	test_001_002:
 888 0000 18050000 		.word	.LC42
 889 0004 00000000 		.word	0
 890 0008 00000000 		.word	0
 891 000c 00000000 		.word	test_001_002_execute
 892              		.section	.rodata.str1.4,"aMS",%progbits,1
 893              		.align	2
 894              	.LC0:
 895 0000 2D2D2D20 		.ascii	"--- CH_CFG_ST_RESOLUTION:      \000"
 895      43485F43 
 895      46475F53 
 895      545F5245 
 895      534F4C55 
 896              	.LC1:
 897 0020 00       		.ascii	"\000"
 898 0021 000000   		.space	3
 899              	.LC2:
 900 0024 2D2D2D20 		.ascii	"--- CH_CFG_ST_FREQUENCY:       \000"
 900      43485F43 
 900      46475F53 
 900      545F4652 
 900      45515545 
 901              	.LC3:
 902 0044 2D2D2D20 		.ascii	"--- CH_CFG_ST_TIMEDELTA:       \000"
 902      43485F43 
 902      46475F53 
 902      545F5449 
 902      4D454445 
 903              	.LC4:
 904 0064 2D2D2D20 		.ascii	"--- CH_CFG_TIME_QUANTUM:       \000"
 904      43485F43 
 904      46475F54 
 904      494D455F 
 904      5155414E 
ARM GAS  /tmp/ccXlDfva.s 			page 33


 905              	.LC5:
 906 0084 2D2D2D20 		.ascii	"--- CH_CFG_MEMCORE_SIZE:       \000"
 906      43485F43 
 906      46475F4D 
 906      454D434F 
 906      52455F53 
 907              	.LC6:
 908 00a4 2D2D2D20 		.ascii	"--- CH_CFG_NO_IDLE_THREAD:     \000"
 908      43485F43 
 908      46475F4E 
 908      4F5F4944 
 908      4C455F54 
 909              	.LC7:
 910 00c4 2D2D2D20 		.ascii	"--- CH_CFG_OPTIMIZE_SPEED:     \000"
 910      43485F43 
 910      46475F4F 
 910      5054494D 
 910      495A455F 
 911              	.LC8:
 912 00e4 2D2D2D20 		.ascii	"--- CH_CFG_USE_TM:             \000"
 912      43485F43 
 912      46475F55 
 912      53455F54 
 912      4D3A2020 
 913              	.LC9:
 914 0104 2D2D2D20 		.ascii	"--- CH_CFG_USE_REGISTRY:       \000"
 914      43485F43 
 914      46475F55 
 914      53455F52 
 914      45474953 
 915              	.LC10:
 916 0124 2D2D2D20 		.ascii	"--- CH_CFG_USE_WAITEXIT:       \000"
 916      43485F43 
 916      46475F55 
 916      53455F57 
 916      41495445 
 917              	.LC11:
 918 0144 2D2D2D20 		.ascii	"--- CH_CFG_USE_SEMAPHORES:     \000"
 918      43485F43 
 918      46475F55 
 918      53455F53 
 918      454D4150 
 919              	.LC12:
 920 0164 2D2D2D20 		.ascii	"--- CH_CFG_USE_SEMAPHORES_PRI: \000"
 920      43485F43 
 920      46475F55 
 920      53455F53 
 920      454D4150 
 921              	.LC13:
 922 0184 2D2D2D20 		.ascii	"--- CH_CFG_USE_MUTEXES:        \000"
 922      43485F43 
 922      46475F55 
 922      53455F4D 
 922      55544558 
 923              	.LC14:
 924 01a4 2D2D2D20 		.ascii	"--- CH_CFG_USE_MUTEXES_RECURS: \000"
 924      43485F43 
ARM GAS  /tmp/ccXlDfva.s 			page 34


 924      46475F55 
 924      53455F4D 
 924      55544558 
 925              	.LC15:
 926 01c4 2D2D2D20 		.ascii	"--- CH_CFG_USE_CONDVARS:       \000"
 926      43485F43 
 926      46475F55 
 926      53455F43 
 926      4F4E4456 
 927              	.LC16:
 928 01e4 2D2D2D20 		.ascii	"--- CH_CFG_USE_CONDVARS_TIMEO: \000"
 928      43485F43 
 928      46475F55 
 928      53455F43 
 928      4F4E4456 
 929              	.LC17:
 930 0204 2D2D2D20 		.ascii	"--- CH_CFG_USE_EVENTS:         \000"
 930      43485F43 
 930      46475F55 
 930      53455F45 
 930      56454E54 
 931              	.LC18:
 932 0224 2D2D2D20 		.ascii	"--- CH_CFG_USE_EVENTS_TIMEOUT: \000"
 932      43485F43 
 932      46475F55 
 932      53455F45 
 932      56454E54 
 933              	.LC19:
 934 0244 2D2D2D20 		.ascii	"--- CH_CFG_USE_MESSAGES:       \000"
 934      43485F43 
 934      46475F55 
 934      53455F4D 
 934      45535341 
 935              	.LC20:
 936 0264 2D2D2D20 		.ascii	"--- CH_CFG_USE_MESSAGES_PRI:   \000"
 936      43485F43 
 936      46475F55 
 936      53455F4D 
 936      45535341 
 937              	.LC21:
 938 0284 2D2D2D20 		.ascii	"--- CH_CFG_USE_MAILBOXES:      \000"
 938      43485F43 
 938      46475F55 
 938      53455F4D 
 938      41494C42 
 939              	.LC22:
 940 02a4 2D2D2D20 		.ascii	"--- CH_CFG_USE_MEMCORE:        \000"
 940      43485F43 
 940      46475F55 
 940      53455F4D 
 940      454D434F 
 941              	.LC23:
 942 02c4 2D2D2D20 		.ascii	"--- CH_CFG_USE_HEAP:           \000"
 942      43485F43 
 942      46475F55 
 942      53455F48 
 942      4541503A 
ARM GAS  /tmp/ccXlDfva.s 			page 35


 943              	.LC24:
 944 02e4 2D2D2D20 		.ascii	"--- CH_CFG_USE_MEMPOOLS:       \000"
 944      43485F43 
 944      46475F55 
 944      53455F4D 
 944      454D504F 
 945              	.LC25:
 946 0304 2D2D2D20 		.ascii	"--- CH_CFG_USE_DYNAMIC:        \000"
 946      43485F43 
 946      46475F55 
 946      53455F44 
 946      594E414D 
 947              	.LC26:
 948 0324 2D2D2D20 		.ascii	"--- CH_DBG_STATISTICS:         \000"
 948      43485F44 
 948      42475F53 
 948      54415449 
 948      53544943 
 949              	.LC27:
 950 0344 2D2D2D20 		.ascii	"--- CH_DBG_SYSTEM_STATE_CHECK: \000"
 950      43485F44 
 950      42475F53 
 950      59535445 
 950      4D5F5354 
 951              	.LC28:
 952 0364 2D2D2D20 		.ascii	"--- CH_DBG_ENABLE_CHECKS:      \000"
 952      43485F44 
 952      42475F45 
 952      4E41424C 
 952      455F4348 
 953              	.LC29:
 954 0384 2D2D2D20 		.ascii	"--- CH_DBG_ENABLE_ASSERTS:     \000"
 954      43485F44 
 954      42475F45 
 954      4E41424C 
 954      455F4153 
 955              	.LC30:
 956 03a4 2D2D2D20 		.ascii	"--- CH_DBG_TRACE_MASK:         \000"
 956      43485F44 
 956      42475F54 
 956      52414345 
 956      5F4D4153 
 957              	.LC31:
 958 03c4 2D2D2D20 		.ascii	"--- CH_DBG_TRACE_BUFFER_SIZE:  \000"
 958      43485F44 
 958      42475F54 
 958      52414345 
 958      5F425546 
 959              	.LC32:
 960 03e4 2D2D2D20 		.ascii	"--- CH_DBG_ENABLE_STACK_CHECK: \000"
 960      43485F44 
 960      42475F45 
 960      4E41424C 
 960      455F5354 
 961              	.LC33:
 962 0404 2D2D2D20 		.ascii	"--- CH_DBG_FILL_THREADS:       \000"
 962      43485F44 
ARM GAS  /tmp/ccXlDfva.s 			page 36


 962      42475F46 
 962      494C4C5F 
 962      54485245 
 963              	.LC34:
 964 0424 2D2D2D20 		.ascii	"--- CH_DBG_THREADS_PROFILING:  \000"
 964      43485F44 
 964      42475F54 
 964      48524541 
 964      44535F50 
 965              	.LC35:
 966 0444 2D2D2D20 		.ascii	"--- Product:                   ChibiOS/RT\000"
 966      50726F64 
 966      7563743A 
 966      20202020 
 966      20202020 
 967 046e 0000     		.space	2
 968              	.LC36:
 969 0470 2D2D2D20 		.ascii	"--- Stable Flag:               \000"
 969      53746162 
 969      6C652046 
 969      6C61673A 
 969      20202020 
 970              	.LC37:
 971 0490 2D2D2D20 		.ascii	"--- Version String:            \000"
 971      56657273 
 971      696F6E20 
 971      53747269 
 971      6E673A20 
 972              	.LC38:
 973 04b0 342E302E 		.ascii	"4.0.1\000"
 973      3100
 974 04b6 0000     		.space	2
 975              	.LC39:
 976 04b8 2D2D2D20 		.ascii	"--- Major Number:              \000"
 976      4D616A6F 
 976      72204E75 
 976      6D626572 
 976      3A202020 
 977              	.LC40:
 978 04d8 2D2D2D20 		.ascii	"--- Minor Number:              \000"
 978      4D696E6F 
 978      72204E75 
 978      6D626572 
 978      3A202020 
 979              	.LC41:
 980 04f8 2D2D2D20 		.ascii	"--- Patch Number:              \000"
 980      50617463 
 980      68204E75 
 980      6D626572 
 980      3A202020 
 981              	.LC42:
 982 0518 4B65726E 		.ascii	"Kernel Settings\000"
 982      656C2053 
 982      65747469 
 982      6E677300 
 983              	.LC43:
 984 0528 4B65726E 		.ascii	"Kernel Info\000"
ARM GAS  /tmp/ccXlDfva.s 			page 37


 984      656C2049 
 984      6E666F00 
 985              		.text
 986              	.Letext0:
 987              		.file 2 "/home/alex/MentorGraphics/Sourcery_CodeBench_Lite_for_ARM_EABI/lib/gcc/arm-none-eabi/4.8.
 988              		.file 3 "/home/alex/MentorGraphics/Sourcery_CodeBench_Lite_for_ARM_EABI/arm-none-eabi/include/stdi
 989              		.file 4 "../../../os/common/ports/ARMCMx/compilers/GCC/chtypes.h"
 990              		.file 5 "../../../os/rt/include/chsystypes.h"
 991              		.file 6 "../../../os/rt/include/chschd.h"
 992              		.file 7 "../../../os/common/ports/ARMCMx/chcore.h"
 993              		.file 8 "../../../os/common/ports/ARMCMx/chcore_v7m.h"
 994              		.file 9 "../../../os/rt/include/chtm.h"
 995              		.file 10 "../../../os/rt/include/chsem.h"
 996              		.file 11 "../../../os/rt/include/chmtx.h"
 997              		.file 12 "../../../test/lib/ch_test.h"
 998              		.file 13 "../../../os/common/ext/CMSIS/include/core_cm3.h"
 999              		.section	.debug_info,"",%progbits
 1000              	.Ldebug_info0:
 1001 0000 90100000 		.4byte	0x1090
 1002 0004 0400     		.2byte	0x4
 1003 0006 00000000 		.4byte	.Ldebug_abbrev0
 1004 000a 04       		.byte	0x4
 1005 000b 01       		.uleb128 0x1
 1006 000c 64020000 		.4byte	.LASF101
 1007 0010 01       		.byte	0x1
 1008 0011 EC030000 		.4byte	.LASF102
 1009 0015 67000000 		.4byte	.LASF103
 1010 0019 00000000 		.4byte	.Ldebug_ranges0+0
 1011 001d 00000000 		.4byte	0
 1012 0021 00000000 		.4byte	.Ldebug_line0
 1013 0025 02       		.uleb128 0x2
 1014 0026 04       		.byte	0x4
 1015 0027 05       		.byte	0x5
 1016 0028 696E7400 		.ascii	"int\000"
 1017 002c 03       		.uleb128 0x3
 1018 002d 60000000 		.4byte	.LASF2
 1019 0031 02       		.byte	0x2
 1020 0032 D4       		.byte	0xd4
 1021 0033 37000000 		.4byte	0x37
 1022 0037 04       		.uleb128 0x4
 1023 0038 04       		.byte	0x4
 1024 0039 07       		.byte	0x7
 1025 003a 2E030000 		.4byte	.LASF0
 1026 003e 04       		.uleb128 0x4
 1027 003f 01       		.byte	0x1
 1028 0040 06       		.byte	0x6
 1029 0041 13030000 		.4byte	.LASF1
 1030 0045 03       		.uleb128 0x3
 1031 0046 6E010000 		.4byte	.LASF3
 1032 004a 03       		.byte	0x3
 1033 004b 2A       		.byte	0x2a
 1034 004c 50000000 		.4byte	0x50
 1035 0050 04       		.uleb128 0x4
 1036 0051 01       		.byte	0x1
 1037 0052 08       		.byte	0x8
 1038 0053 50020000 		.4byte	.LASF4
 1039 0057 04       		.uleb128 0x4
ARM GAS  /tmp/ccXlDfva.s 			page 38


 1040 0058 02       		.byte	0x2
 1041 0059 05       		.byte	0x5
 1042 005a 56000000 		.4byte	.LASF5
 1043 005e 03       		.uleb128 0x3
 1044 005f 52030000 		.4byte	.LASF6
 1045 0063 03       		.byte	0x3
 1046 0064 36       		.byte	0x36
 1047 0065 69000000 		.4byte	0x69
 1048 0069 04       		.uleb128 0x4
 1049 006a 02       		.byte	0x2
 1050 006b 07       		.byte	0x7
 1051 006c 81030000 		.4byte	.LASF7
 1052 0070 03       		.uleb128 0x3
 1053 0071 C2030000 		.4byte	.LASF8
 1054 0075 03       		.byte	0x3
 1055 0076 4F       		.byte	0x4f
 1056 0077 7B000000 		.4byte	0x7b
 1057 007b 04       		.uleb128 0x4
 1058 007c 04       		.byte	0x4
 1059 007d 05       		.byte	0x5
 1060 007e DA010000 		.4byte	.LASF9
 1061 0082 03       		.uleb128 0x3
 1062 0083 92010000 		.4byte	.LASF10
 1063 0087 03       		.byte	0x3
 1064 0088 50       		.byte	0x50
 1065 0089 8D000000 		.4byte	0x8d
 1066 008d 04       		.uleb128 0x4
 1067 008e 04       		.byte	0x4
 1068 008f 07       		.byte	0x7
 1069 0090 30040000 		.4byte	.LASF11
 1070 0094 04       		.uleb128 0x4
 1071 0095 08       		.byte	0x8
 1072 0096 05       		.byte	0x5
 1073 0097 BD010000 		.4byte	.LASF12
 1074 009b 03       		.uleb128 0x3
 1075 009c 42000000 		.4byte	.LASF13
 1076 00a0 03       		.byte	0x3
 1077 00a1 78       		.byte	0x78
 1078 00a2 A6000000 		.4byte	0xa6
 1079 00a6 04       		.uleb128 0x4
 1080 00a7 08       		.byte	0x8
 1081 00a8 07       		.byte	0x7
 1082 00a9 CF000000 		.4byte	.LASF14
 1083 00ad 03       		.uleb128 0x3
 1084 00ae 31010000 		.4byte	.LASF15
 1085 00b2 04       		.byte	0x4
 1086 00b3 39       		.byte	0x39
 1087 00b4 82000000 		.4byte	0x82
 1088 00b8 03       		.uleb128 0x3
 1089 00b9 14010000 		.4byte	.LASF16
 1090 00bd 04       		.byte	0x4
 1091 00be 3C       		.byte	0x3c
 1092 00bf 45000000 		.4byte	0x45
 1093 00c3 03       		.uleb128 0x3
 1094 00c4 85040000 		.4byte	.LASF17
 1095 00c8 04       		.byte	0x4
 1096 00c9 3D       		.byte	0x3d
ARM GAS  /tmp/ccXlDfva.s 			page 39


 1097 00ca 45000000 		.4byte	0x45
 1098 00ce 03       		.uleb128 0x3
 1099 00cf 09000000 		.4byte	.LASF18
 1100 00d3 04       		.byte	0x4
 1101 00d4 3E       		.byte	0x3e
 1102 00d5 45000000 		.4byte	0x45
 1103 00d9 03       		.uleb128 0x3
 1104 00da D2010000 		.4byte	.LASF19
 1105 00de 04       		.byte	0x4
 1106 00df 40       		.byte	0x40
 1107 00e0 82000000 		.4byte	0x82
 1108 00e4 03       		.uleb128 0x3
 1109 00e5 23050000 		.4byte	.LASF20
 1110 00e9 04       		.byte	0x4
 1111 00ea 41       		.byte	0x41
 1112 00eb 70000000 		.4byte	0x70
 1113 00ef 03       		.uleb128 0x3
 1114 00f0 08010000 		.4byte	.LASF21
 1115 00f4 04       		.byte	0x4
 1116 00f5 43       		.byte	0x43
 1117 00f6 82000000 		.4byte	0x82
 1118 00fa 03       		.uleb128 0x3
 1119 00fb CA030000 		.4byte	.LASF22
 1120 00ff 04       		.byte	0x4
 1121 0100 45       		.byte	0x45
 1122 0101 70000000 		.4byte	0x70
 1123 0105 03       		.uleb128 0x3
 1124 0106 94030000 		.4byte	.LASF23
 1125 010a 05       		.byte	0x5
 1126 010b 35       		.byte	0x35
 1127 010c 5E000000 		.4byte	0x5e
 1128 0110 03       		.uleb128 0x3
 1129 0111 00000000 		.4byte	.LASF24
 1130 0115 05       		.byte	0x5
 1131 0116 3F       		.byte	0x3f
 1132 0117 1B010000 		.4byte	0x11b
 1133 011b 05       		.uleb128 0x5
 1134 011c 9B010000 		.4byte	.LASF42
 1135 0120 44       		.byte	0x44
 1136 0121 06       		.byte	0x6
 1137 0122 9A       		.byte	0x9a
 1138 0123 F9010000 		.4byte	0x1f9
 1139 0127 06       		.uleb128 0x6
 1140 0128 2B020000 		.4byte	.LASF25
 1141 012c 06       		.byte	0x6
 1142 012d 9B       		.byte	0x9b
 1143 012e 2E020000 		.4byte	0x22e
 1144 0132 00       		.byte	0
 1145 0133 06       		.uleb128 0x6
 1146 0134 29050000 		.4byte	.LASF26
 1147 0138 06       		.byte	0x6
 1148 0139 9C       		.byte	0x9c
 1149 013a D9000000 		.4byte	0xd9
 1150 013e 08       		.byte	0x8
 1151 013f 07       		.uleb128 0x7
 1152 0140 63747800 		.ascii	"ctx\000"
 1153 0144 06       		.byte	0x6
ARM GAS  /tmp/ccXlDfva.s 			page 40


 1154 0145 9D       		.byte	0x9d
 1155 0146 26040000 		.4byte	0x426
 1156 014a 0C       		.byte	0xc
 1157 014b 06       		.uleb128 0x6
 1158 014c 25020000 		.4byte	.LASF27
 1159 0150 06       		.byte	0x6
 1160 0151 9F       		.byte	0x9f
 1161 0152 04020000 		.4byte	0x204
 1162 0156 10       		.byte	0x10
 1163 0157 06       		.uleb128 0x6
 1164 0158 A5010000 		.4byte	.LASF28
 1165 015c 06       		.byte	0x6
 1166 015d A0       		.byte	0xa0
 1167 015e 04020000 		.4byte	0x204
 1168 0162 14       		.byte	0x14
 1169 0163 06       		.uleb128 0x6
 1170 0164 31020000 		.4byte	.LASF29
 1171 0168 06       		.byte	0x6
 1172 0169 A7       		.byte	0xa7
 1173 016a AB050000 		.4byte	0x5ab
 1174 016e 18       		.byte	0x18
 1175 016f 06       		.uleb128 0x6
 1176 0170 AB010000 		.4byte	.LASF30
 1177 0174 06       		.byte	0x6
 1178 0175 B0       		.byte	0xb0
 1179 0176 BD050000 		.4byte	0x5bd
 1180 017a 1C       		.byte	0x1c
 1181 017b 06       		.uleb128 0x6
 1182 017c 3C000000 		.4byte	.LASF31
 1183 0180 06       		.byte	0x6
 1184 0181 B5       		.byte	0xb5
 1185 0182 C3000000 		.4byte	0xc3
 1186 0186 20       		.byte	0x20
 1187 0187 06       		.uleb128 0x6
 1188 0188 1F030000 		.4byte	.LASF32
 1189 018c 06       		.byte	0x6
 1190 018d B9       		.byte	0xb9
 1191 018e B8000000 		.4byte	0xb8
 1192 0192 21       		.byte	0x21
 1193 0193 06       		.uleb128 0x6
 1194 0194 D9040000 		.4byte	.LASF33
 1195 0198 06       		.byte	0x6
 1196 0199 BE       		.byte	0xbe
 1197 019a CE000000 		.4byte	0xce
 1198 019e 22       		.byte	0x22
 1199 019f 08       		.uleb128 0x8
 1200 01a0 7500     		.ascii	"u\000"
 1201 01a2 06       		.byte	0x6
 1202 01a3 0F01     		.2byte	0x10f
 1203 01a5 E0040000 		.4byte	0x4e0
 1204 01a9 24       		.byte	0x24
 1205 01aa 09       		.uleb128 0x9
 1206 01ab DE040000 		.4byte	.LASF34
 1207 01af 06       		.byte	0x6
 1208 01b0 1401     		.2byte	0x114
 1209 01b2 0A020000 		.4byte	0x20a
 1210 01b6 28       		.byte	0x28
ARM GAS  /tmp/ccXlDfva.s 			page 41


 1211 01b7 09       		.uleb128 0x9
 1212 01b8 56010000 		.4byte	.LASF35
 1213 01bc 06       		.byte	0x6
 1214 01bd 1A01     		.2byte	0x11a
 1215 01bf 2E020000 		.4byte	0x22e
 1216 01c3 2C       		.byte	0x2c
 1217 01c4 09       		.uleb128 0x9
 1218 01c5 33000000 		.4byte	.LASF36
 1219 01c9 06       		.byte	0x6
 1220 01ca 2001     		.2byte	0x120
 1221 01cc EF000000 		.4byte	0xef
 1222 01d0 34       		.byte	0x34
 1223 01d1 09       		.uleb128 0x9
 1224 01d2 01050000 		.4byte	.LASF37
 1225 01d6 06       		.byte	0x6
 1226 01d7 2701     		.2byte	0x127
 1227 01d9 A5050000 		.4byte	0x5a5
 1228 01dd 38       		.byte	0x38
 1229 01de 09       		.uleb128 0x9
 1230 01df D0030000 		.4byte	.LASF38
 1231 01e3 06       		.byte	0x6
 1232 01e4 2B01     		.2byte	0x12b
 1233 01e6 D9000000 		.4byte	0xd9
 1234 01ea 3C       		.byte	0x3c
 1235 01eb 09       		.uleb128 0x9
 1236 01ec A2040000 		.4byte	.LASF39
 1237 01f0 06       		.byte	0x6
 1238 01f1 3201     		.2byte	0x132
 1239 01f3 E1020000 		.4byte	0x2e1
 1240 01f7 40       		.byte	0x40
 1241 01f8 00       		.byte	0
 1242 01f9 03       		.uleb128 0x3
 1243 01fa 6B040000 		.4byte	.LASF40
 1244 01fe 05       		.byte	0x5
 1245 01ff 44       		.byte	0x44
 1246 0200 04020000 		.4byte	0x204
 1247 0204 0A       		.uleb128 0xa
 1248 0205 04       		.byte	0x4
 1249 0206 10010000 		.4byte	0x110
 1250 020a 03       		.uleb128 0x3
 1251 020b 3A050000 		.4byte	.LASF41
 1252 020f 05       		.byte	0x5
 1253 0210 49       		.byte	0x49
 1254 0211 15020000 		.4byte	0x215
 1255 0215 05       		.uleb128 0x5
 1256 0216 0C020000 		.4byte	.LASF43
 1257 021a 04       		.byte	0x4
 1258 021b 06       		.byte	0x6
 1259 021c 88       		.byte	0x88
 1260 021d 2E020000 		.4byte	0x22e
 1261 0221 06       		.uleb128 0x6
 1262 0222 2E050000 		.4byte	.LASF44
 1263 0226 06       		.byte	0x6
 1264 0227 89       		.byte	0x89
 1265 0228 04020000 		.4byte	0x204
 1266 022c 00       		.byte	0
 1267 022d 00       		.byte	0
ARM GAS  /tmp/ccXlDfva.s 			page 42


 1268 022e 03       		.uleb128 0x3
 1269 022f 71030000 		.4byte	.LASF45
 1270 0233 05       		.byte	0x5
 1271 0234 50       		.byte	0x50
 1272 0235 39020000 		.4byte	0x239
 1273 0239 05       		.uleb128 0x5
 1274 023a 76010000 		.4byte	.LASF46
 1275 023e 08       		.byte	0x8
 1276 023f 06       		.byte	0x6
 1277 0240 8F       		.byte	0x8f
 1278 0241 5E020000 		.4byte	0x25e
 1279 0245 06       		.uleb128 0x6
 1280 0246 2E050000 		.4byte	.LASF44
 1281 024a 06       		.byte	0x6
 1282 024b 90       		.byte	0x90
 1283 024c 04020000 		.4byte	0x204
 1284 0250 00       		.byte	0
 1285 0251 06       		.uleb128 0x6
 1286 0252 0E030000 		.4byte	.LASF47
 1287 0256 06       		.byte	0x6
 1288 0257 91       		.byte	0x91
 1289 0258 04020000 		.4byte	0x204
 1290 025c 04       		.byte	0x4
 1291 025d 00       		.byte	0
 1292 025e 03       		.uleb128 0x3
 1293 025f B1040000 		.4byte	.LASF48
 1294 0263 05       		.byte	0x5
 1295 0264 57       		.byte	0x57
 1296 0265 69020000 		.4byte	0x269
 1297 0269 0B       		.uleb128 0xb
 1298 026a E6040000 		.4byte	.LASF49
 1299 026e 1C       		.byte	0x1c
 1300 026f 06       		.byte	0x6
 1301 0270 6A01     		.2byte	0x16a
 1302 0272 C5020000 		.4byte	0x2c5
 1303 0276 09       		.uleb128 0x9
 1304 0277 2B020000 		.4byte	.LASF25
 1305 027b 06       		.byte	0x6
 1306 027c 6B01     		.2byte	0x16b
 1307 027e 2E020000 		.4byte	0x22e
 1308 0282 00       		.byte	0
 1309 0283 09       		.uleb128 0x9
 1310 0284 29050000 		.4byte	.LASF26
 1311 0288 06       		.byte	0x6
 1312 0289 6C01     		.2byte	0x16c
 1313 028b D9000000 		.4byte	0xd9
 1314 028f 08       		.byte	0x8
 1315 0290 08       		.uleb128 0x8
 1316 0291 63747800 		.ascii	"ctx\000"
 1317 0295 06       		.byte	0x6
 1318 0296 6E01     		.2byte	0x16e
 1319 0298 26040000 		.4byte	0x426
 1320 029c 0C       		.byte	0xc
 1321 029d 09       		.uleb128 0x9
 1322 029e 25020000 		.4byte	.LASF27
 1323 02a2 06       		.byte	0x6
 1324 02a3 7101     		.2byte	0x171
ARM GAS  /tmp/ccXlDfva.s 			page 43


 1325 02a5 04020000 		.4byte	0x204
 1326 02a9 10       		.byte	0x10
 1327 02aa 09       		.uleb128 0x9
 1328 02ab A5010000 		.4byte	.LASF28
 1329 02af 06       		.byte	0x6
 1330 02b0 7201     		.2byte	0x172
 1331 02b2 04020000 		.4byte	0x204
 1332 02b6 14       		.byte	0x14
 1333 02b7 09       		.uleb128 0x9
 1334 02b8 D1040000 		.4byte	.LASF50
 1335 02bc 06       		.byte	0x6
 1336 02bd 7501     		.2byte	0x175
 1337 02bf 04020000 		.4byte	0x204
 1338 02c3 18       		.byte	0x18
 1339 02c4 00       		.byte	0
 1340 02c5 03       		.uleb128 0x3
 1341 02c6 A8040000 		.4byte	.LASF51
 1342 02ca 05       		.byte	0x5
 1343 02cb 5C       		.byte	0x5c
 1344 02cc D0020000 		.4byte	0x2d0
 1345 02d0 0A       		.uleb128 0xa
 1346 02d1 04       		.byte	0x4
 1347 02d2 D6020000 		.4byte	0x2d6
 1348 02d6 0C       		.uleb128 0xc
 1349 02d7 E1020000 		.4byte	0x2e1
 1350 02db 0D       		.uleb128 0xd
 1351 02dc E1020000 		.4byte	0x2e1
 1352 02e0 00       		.byte	0
 1353 02e1 0E       		.uleb128 0xe
 1354 02e2 04       		.byte	0x4
 1355 02e3 03       		.uleb128 0x3
 1356 02e4 F4010000 		.4byte	.LASF52
 1357 02e8 05       		.byte	0x5
 1358 02e9 61       		.byte	0x61
 1359 02ea EE020000 		.4byte	0x2ee
 1360 02ee 0B       		.uleb128 0xb
 1361 02ef B1030000 		.4byte	.LASF53
 1362 02f3 14       		.byte	0x14
 1363 02f4 06       		.byte	0x6
 1364 02f5 4501     		.2byte	0x145
 1365 02f7 3D030000 		.4byte	0x33d
 1366 02fb 09       		.uleb128 0x9
 1367 02fc 2E050000 		.4byte	.LASF44
 1368 0300 06       		.byte	0x6
 1369 0301 4601     		.2byte	0x146
 1370 0303 C3050000 		.4byte	0x5c3
 1371 0307 00       		.byte	0
 1372 0308 09       		.uleb128 0x9
 1373 0309 0E030000 		.4byte	.LASF47
 1374 030d 06       		.byte	0x6
 1375 030e 4701     		.2byte	0x147
 1376 0310 C3050000 		.4byte	0x5c3
 1377 0314 04       		.byte	0x4
 1378 0315 09       		.uleb128 0x9
 1379 0316 68010000 		.4byte	.LASF54
 1380 031a 06       		.byte	0x6
 1381 031b 4801     		.2byte	0x148
ARM GAS  /tmp/ccXlDfva.s 			page 44


 1382 031d 05010000 		.4byte	0x105
 1383 0321 08       		.byte	0x8
 1384 0322 09       		.uleb128 0x9
 1385 0323 B8010000 		.4byte	.LASF55
 1386 0327 06       		.byte	0x6
 1387 0328 4901     		.2byte	0x149
 1388 032a C5020000 		.4byte	0x2c5
 1389 032e 0C       		.byte	0xc
 1390 032f 08       		.uleb128 0x8
 1391 0330 70617200 		.ascii	"par\000"
 1392 0334 06       		.byte	0x6
 1393 0335 4B01     		.2byte	0x14b
 1394 0337 E1020000 		.4byte	0x2e1
 1395 033b 10       		.byte	0x10
 1396 033c 00       		.byte	0
 1397 033d 03       		.uleb128 0x3
 1398 033e 5B030000 		.4byte	.LASF56
 1399 0342 05       		.byte	0x5
 1400 0343 66       		.byte	0x66
 1401 0344 48030000 		.4byte	0x348
 1402 0348 0B       		.uleb128 0xb
 1403 0349 3B030000 		.4byte	.LASF57
 1404 034d 0C       		.byte	0xc
 1405 034e 06       		.byte	0x6
 1406 034f 5501     		.2byte	0x155
 1407 0351 8A030000 		.4byte	0x38a
 1408 0355 09       		.uleb128 0x9
 1409 0356 2E050000 		.4byte	.LASF44
 1410 035a 06       		.byte	0x6
 1411 035b 5601     		.2byte	0x156
 1412 035d C3050000 		.4byte	0x5c3
 1413 0361 00       		.byte	0
 1414 0362 09       		.uleb128 0x9
 1415 0363 0E030000 		.4byte	.LASF47
 1416 0367 06       		.byte	0x6
 1417 0368 5801     		.2byte	0x158
 1418 036a C3050000 		.4byte	0x5c3
 1419 036e 04       		.byte	0x4
 1420 036f 09       		.uleb128 0x9
 1421 0370 68010000 		.4byte	.LASF54
 1422 0374 06       		.byte	0x6
 1423 0375 5A01     		.2byte	0x15a
 1424 0377 05010000 		.4byte	0x105
 1425 037b 08       		.byte	0x8
 1426 037c 09       		.uleb128 0x9
 1427 037d 27040000 		.4byte	.LASF58
 1428 0381 06       		.byte	0x6
 1429 0382 6201     		.2byte	0x162
 1430 0384 05010000 		.4byte	0x105
 1431 0388 0A       		.byte	0xa
 1432 0389 00       		.byte	0
 1433 038a 03       		.uleb128 0x3
 1434 038b C0000000 		.4byte	.LASF59
 1435 038f 05       		.byte	0x5
 1436 0390 6B       		.byte	0x6b
 1437 0391 95030000 		.4byte	0x395
 1438 0395 0B       		.uleb128 0xb
ARM GAS  /tmp/ccXlDfva.s 			page 45


 1439 0396 23000000 		.4byte	.LASF60
 1440 039a 04       		.byte	0x4
 1441 039b 06       		.byte	0x6
 1442 039c 7C01     		.2byte	0x17c
 1443 039e B0030000 		.4byte	0x3b0
 1444 03a2 09       		.uleb128 0x9
 1445 03a3 42040000 		.4byte	.LASF61
 1446 03a7 06       		.byte	0x6
 1447 03a8 8401     		.2byte	0x184
 1448 03aa C9050000 		.4byte	0x5c9
 1449 03ae 00       		.byte	0
 1450 03af 00       		.byte	0
 1451 03b0 03       		.uleb128 0x3
 1452 03b1 4A010000 		.4byte	.LASF62
 1453 03b5 05       		.byte	0x5
 1454 03b6 70       		.byte	0x70
 1455 03b7 BB030000 		.4byte	0x3bb
 1456 03bb 0B       		.uleb128 0xb
 1457 03bc E3010000 		.4byte	.LASF63
 1458 03c0 74       		.byte	0x74
 1459 03c1 06       		.byte	0x6
 1460 03c2 9C01     		.2byte	0x19c
 1461 03c4 09040000 		.4byte	0x409
 1462 03c8 09       		.uleb128 0x9
 1463 03c9 9E030000 		.4byte	.LASF64
 1464 03cd 06       		.byte	0x6
 1465 03ce A001     		.2byte	0x1a0
 1466 03d0 5E020000 		.4byte	0x25e
 1467 03d4 00       		.byte	0
 1468 03d5 09       		.uleb128 0x9
 1469 03d6 1C050000 		.4byte	.LASF65
 1470 03da 06       		.byte	0x6
 1471 03db A401     		.2byte	0x1a4
 1472 03dd 3D030000 		.4byte	0x33d
 1473 03e1 1C       		.byte	0x1c
 1474 03e2 08       		.uleb128 0x8
 1475 03e3 64626700 		.ascii	"dbg\000"
 1476 03e7 06       		.byte	0x6
 1477 03e8 A801     		.2byte	0x1a8
 1478 03ea 8A030000 		.4byte	0x38a
 1479 03ee 28       		.byte	0x28
 1480 03ef 09       		.uleb128 0x9
 1481 03f0 4B000000 		.4byte	.LASF66
 1482 03f4 06       		.byte	0x6
 1483 03f5 AC01     		.2byte	0x1ac
 1484 03f7 10010000 		.4byte	0x110
 1485 03fb 2C       		.byte	0x2c
 1486 03fc 08       		.uleb128 0x8
 1487 03fd 746D00   		.ascii	"tm\000"
 1488 0400 06       		.byte	0x6
 1489 0401 B101     		.2byte	0x1b1
 1490 0403 D5040000 		.4byte	0x4d5
 1491 0407 70       		.byte	0x70
 1492 0408 00       		.byte	0
 1493 0409 04       		.uleb128 0x4
 1494 040a 04       		.byte	0x4
 1495 040b 07       		.byte	0x7
ARM GAS  /tmp/ccXlDfva.s 			page 46


 1496 040c B7000000 		.4byte	.LASF67
 1497 0410 03       		.uleb128 0x3
 1498 0411 5F010000 		.4byte	.LASF68
 1499 0415 07       		.byte	0x7
 1500 0416 65       		.byte	0x65
 1501 0417 E1020000 		.4byte	0x2e1
 1502 041b 03       		.uleb128 0x3
 1503 041c 8E040000 		.4byte	.LASF69
 1504 0420 07       		.byte	0x7
 1505 0421 6D       		.byte	0x6d
 1506 0422 9B000000 		.4byte	0x9b
 1507 0426 05       		.uleb128 0x5
 1508 0427 D9030000 		.4byte	.LASF70
 1509 042b 04       		.byte	0x4
 1510 042c 07       		.byte	0x7
 1511 042d 89       		.byte	0x89
 1512 042e 3E040000 		.4byte	0x43e
 1513 0432 07       		.uleb128 0x7
 1514 0433 737000   		.ascii	"sp\000"
 1515 0436 07       		.byte	0x7
 1516 0437 8A       		.byte	0x8a
 1517 0438 BA040000 		.4byte	0x4ba
 1518 043c 00       		.byte	0
 1519 043d 00       		.byte	0
 1520 043e 0B       		.uleb128 0xb
 1521 043f 5F040000 		.4byte	.LASF71
 1522 0443 24       		.byte	0x24
 1523 0444 08       		.byte	0x8
 1524 0445 5901     		.2byte	0x159
 1525 0447 BA040000 		.4byte	0x4ba
 1526 044b 08       		.uleb128 0x8
 1527 044c 723400   		.ascii	"r4\000"
 1528 044f 08       		.byte	0x8
 1529 0450 6C01     		.2byte	0x16c
 1530 0452 10040000 		.4byte	0x410
 1531 0456 00       		.byte	0
 1532 0457 08       		.uleb128 0x8
 1533 0458 723500   		.ascii	"r5\000"
 1534 045b 08       		.byte	0x8
 1535 045c 6D01     		.2byte	0x16d
 1536 045e 10040000 		.4byte	0x410
 1537 0462 04       		.byte	0x4
 1538 0463 08       		.uleb128 0x8
 1539 0464 723600   		.ascii	"r6\000"
 1540 0467 08       		.byte	0x8
 1541 0468 6E01     		.2byte	0x16e
 1542 046a 10040000 		.4byte	0x410
 1543 046e 08       		.byte	0x8
 1544 046f 08       		.uleb128 0x8
 1545 0470 723700   		.ascii	"r7\000"
 1546 0473 08       		.byte	0x8
 1547 0474 6F01     		.2byte	0x16f
 1548 0476 10040000 		.4byte	0x410
 1549 047a 0C       		.byte	0xc
 1550 047b 08       		.uleb128 0x8
 1551 047c 723800   		.ascii	"r8\000"
 1552 047f 08       		.byte	0x8
ARM GAS  /tmp/ccXlDfva.s 			page 47


 1553 0480 7001     		.2byte	0x170
 1554 0482 10040000 		.4byte	0x410
 1555 0486 10       		.byte	0x10
 1556 0487 08       		.uleb128 0x8
 1557 0488 723900   		.ascii	"r9\000"
 1558 048b 08       		.byte	0x8
 1559 048c 7101     		.2byte	0x171
 1560 048e 10040000 		.4byte	0x410
 1561 0492 14       		.byte	0x14
 1562 0493 08       		.uleb128 0x8
 1563 0494 72313000 		.ascii	"r10\000"
 1564 0498 08       		.byte	0x8
 1565 0499 7201     		.2byte	0x172
 1566 049b 10040000 		.4byte	0x410
 1567 049f 18       		.byte	0x18
 1568 04a0 08       		.uleb128 0x8
 1569 04a1 72313100 		.ascii	"r11\000"
 1570 04a5 08       		.byte	0x8
 1571 04a6 7301     		.2byte	0x173
 1572 04a8 10040000 		.4byte	0x410
 1573 04ac 1C       		.byte	0x1c
 1574 04ad 08       		.uleb128 0x8
 1575 04ae 6C7200   		.ascii	"lr\000"
 1576 04b1 08       		.byte	0x8
 1577 04b2 7401     		.2byte	0x174
 1578 04b4 10040000 		.4byte	0x410
 1579 04b8 20       		.byte	0x20
 1580 04b9 00       		.byte	0
 1581 04ba 0A       		.uleb128 0xa
 1582 04bb 04       		.byte	0x4
 1583 04bc 3E040000 		.4byte	0x43e
 1584 04c0 0F       		.uleb128 0xf
 1585 04c1 04       		.byte	0x4
 1586 04c2 09       		.byte	0x9
 1587 04c3 38       		.byte	0x38
 1588 04c4 D5040000 		.4byte	0x4d5
 1589 04c8 06       		.uleb128 0x6
 1590 04c9 ED010000 		.4byte	.LASF72
 1591 04cd 09       		.byte	0x9
 1592 04ce 3C       		.byte	0x3c
 1593 04cf AD000000 		.4byte	0xad
 1594 04d3 00       		.byte	0
 1595 04d4 00       		.byte	0
 1596 04d5 03       		.uleb128 0x3
 1597 04d6 39010000 		.4byte	.LASF73
 1598 04da 09       		.byte	0x9
 1599 04db 3D       		.byte	0x3d
 1600 04dc C0040000 		.4byte	0x4c0
 1601 04e0 10       		.uleb128 0x10
 1602 04e1 04       		.byte	0x4
 1603 04e2 06       		.byte	0x6
 1604 04e3 D2       		.byte	0xd2
 1605 04e4 43050000 		.4byte	0x543
 1606 04e8 11       		.uleb128 0x11
 1607 04e9 15050000 		.4byte	.LASF74
 1608 04ed 06       		.byte	0x6
 1609 04ee D9       		.byte	0xd9
ARM GAS  /tmp/ccXlDfva.s 			page 48


 1610 04ef E4000000 		.4byte	0xe4
 1611 04f3 11       		.uleb128 0x11
 1612 04f4 99040000 		.4byte	.LASF75
 1613 04f8 06       		.byte	0x6
 1614 04f9 E0       		.byte	0xe0
 1615 04fa E4000000 		.4byte	0xe4
 1616 04fe 11       		.uleb128 0x11
 1617 04ff 7E040000 		.4byte	.LASF76
 1618 0503 06       		.byte	0x6
 1619 0504 E7       		.byte	0xe7
 1620 0505 E1020000 		.4byte	0x2e1
 1621 0509 11       		.uleb128 0x11
 1622 050a 4C040000 		.4byte	.LASF77
 1623 050e 06       		.byte	0x6
 1624 050f EE       		.byte	0xee
 1625 0510 43050000 		.4byte	0x543
 1626 0514 11       		.uleb128 0x11
 1627 0515 04020000 		.4byte	.LASF78
 1628 0519 06       		.byte	0x6
 1629 051a F3       		.byte	0xf3
 1630 051b E4000000 		.4byte	0xe4
 1631 051f 11       		.uleb128 0x11
 1632 0520 CB010000 		.4byte	.LASF79
 1633 0524 06       		.byte	0x6
 1634 0525 FC       		.byte	0xfc
 1635 0526 6E050000 		.4byte	0x56e
 1636 052a 12       		.uleb128 0x12
 1637 052b 33050000 		.4byte	.LASF80
 1638 052f 06       		.byte	0x6
 1639 0530 0501     		.2byte	0x105
 1640 0532 A5050000 		.4byte	0x5a5
 1641 0536 12       		.uleb128 0x12
 1642 0537 07030000 		.4byte	.LASF81
 1643 053b 06       		.byte	0x6
 1644 053c 0D01     		.2byte	0x10d
 1645 053e EF000000 		.4byte	0xef
 1646 0542 00       		.byte	0
 1647 0543 0A       		.uleb128 0xa
 1648 0544 04       		.byte	0x4
 1649 0545 F9010000 		.4byte	0x1f9
 1650 0549 05       		.uleb128 0x5
 1651 054a 52040000 		.4byte	.LASF82
 1652 054e 0C       		.byte	0xc
 1653 054f 0A       		.byte	0xa
 1654 0550 34       		.byte	0x34
 1655 0551 6E050000 		.4byte	0x56e
 1656 0555 06       		.uleb128 0x6
 1657 0556 2B020000 		.4byte	.LASF25
 1658 055a 0A       		.byte	0xa
 1659 055b 35       		.byte	0x35
 1660 055c 2E020000 		.4byte	0x22e
 1661 0560 00       		.byte	0
 1662 0561 07       		.uleb128 0x7
 1663 0562 636E7400 		.ascii	"cnt\000"
 1664 0566 0A       		.byte	0xa
 1665 0567 37       		.byte	0x37
 1666 0568 FA000000 		.4byte	0xfa
ARM GAS  /tmp/ccXlDfva.s 			page 49


 1667 056c 08       		.byte	0x8
 1668 056d 00       		.byte	0
 1669 056e 0A       		.uleb128 0xa
 1670 056f 04       		.byte	0x4
 1671 0570 49050000 		.4byte	0x549
 1672 0574 05       		.uleb128 0x5
 1673 0575 25030000 		.4byte	.LASF83
 1674 0579 10       		.byte	0x10
 1675 057a 0B       		.byte	0xb
 1676 057b 39       		.byte	0x39
 1677 057c A5050000 		.4byte	0x5a5
 1678 0580 06       		.uleb128 0x6
 1679 0581 2B020000 		.4byte	.LASF25
 1680 0585 0B       		.byte	0xb
 1681 0586 3A       		.byte	0x3a
 1682 0587 2E020000 		.4byte	0x22e
 1683 058b 00       		.byte	0
 1684 058c 06       		.uleb128 0x6
 1685 058d 5E020000 		.4byte	.LASF84
 1686 0591 0B       		.byte	0xb
 1687 0592 3C       		.byte	0x3c
 1688 0593 04020000 		.4byte	0x204
 1689 0597 08       		.byte	0x8
 1690 0598 06       		.uleb128 0x6
 1691 0599 2E050000 		.4byte	.LASF44
 1692 059d 0B       		.byte	0xb
 1693 059e 3E       		.byte	0x3e
 1694 059f D9050000 		.4byte	0x5d9
 1695 05a3 0C       		.byte	0xc
 1696 05a4 00       		.byte	0
 1697 05a5 0A       		.uleb128 0xa
 1698 05a6 04       		.byte	0x4
 1699 05a7 74050000 		.4byte	0x574
 1700 05ab 0A       		.uleb128 0xa
 1701 05ac 04       		.byte	0x4
 1702 05ad B1050000 		.4byte	0x5b1
 1703 05b1 13       		.uleb128 0x13
 1704 05b2 B6050000 		.4byte	0x5b6
 1705 05b6 04       		.uleb128 0x4
 1706 05b7 01       		.byte	0x1
 1707 05b8 08       		.byte	0x8
 1708 05b9 A4030000 		.4byte	.LASF85
 1709 05bd 0A       		.uleb128 0xa
 1710 05be 04       		.byte	0x4
 1711 05bf 1B040000 		.4byte	0x41b
 1712 05c3 0A       		.uleb128 0xa
 1713 05c4 04       		.byte	0x4
 1714 05c5 E3020000 		.4byte	0x2e3
 1715 05c9 14       		.uleb128 0x14
 1716 05ca AB050000 		.4byte	0x5ab
 1717 05ce 03       		.uleb128 0x3
 1718 05cf A9030000 		.4byte	.LASF86
 1719 05d3 0B       		.byte	0xb
 1720 05d4 34       		.byte	0x34
 1721 05d5 74050000 		.4byte	0x574
 1722 05d9 0A       		.uleb128 0xa
 1723 05da 04       		.byte	0x4
ARM GAS  /tmp/ccXlDfva.s 			page 50


 1724 05db CE050000 		.4byte	0x5ce
 1725 05df 04       		.uleb128 0x4
 1726 05e0 01       		.byte	0x1
 1727 05e1 02       		.byte	0x2
 1728 05e2 E6030000 		.4byte	.LASF87
 1729 05e6 0A       		.uleb128 0xa
 1730 05e7 04       		.byte	0x4
 1731 05e8 EC050000 		.4byte	0x5ec
 1732 05ec 15       		.uleb128 0x15
 1733 05ed 0F       		.uleb128 0xf
 1734 05ee 10       		.byte	0x10
 1735 05ef 0C       		.byte	0xc
 1736 05f0 3D       		.byte	0x3d
 1737 05f1 26060000 		.4byte	0x626
 1738 05f5 06       		.uleb128 0x6
 1739 05f6 31020000 		.4byte	.LASF29
 1740 05fa 0C       		.byte	0xc
 1741 05fb 3E       		.byte	0x3e
 1742 05fc AB050000 		.4byte	0x5ab
 1743 0600 00       		.byte	0
 1744 0601 06       		.uleb128 0x6
 1745 0602 B2010000 		.4byte	.LASF88
 1746 0606 0C       		.byte	0xc
 1747 0607 3F       		.byte	0x3f
 1748 0608 E6050000 		.4byte	0x5e6
 1749 060c 04       		.byte	0x4
 1750 060d 06       		.uleb128 0x6
 1751 060e 1C020000 		.4byte	.LASF89
 1752 0612 0C       		.byte	0xc
 1753 0613 40       		.byte	0x40
 1754 0614 E6050000 		.4byte	0x5e6
 1755 0618 08       		.byte	0x8
 1756 0619 06       		.uleb128 0x6
 1757 061a C9040000 		.4byte	.LASF90
 1758 061e 0C       		.byte	0xc
 1759 061f 41       		.byte	0x41
 1760 0620 E6050000 		.4byte	0x5e6
 1761 0624 0C       		.byte	0xc
 1762 0625 00       		.byte	0
 1763 0626 03       		.uleb128 0x3
 1764 0627 BE040000 		.4byte	.LASF91
 1765 062b 0C       		.byte	0xc
 1766 062c 42       		.byte	0x42
 1767 062d ED050000 		.4byte	0x5ed
 1768 0631 16       		.uleb128 0x16
 1769 0632 1C010000 		.4byte	.LASF92
 1770 0636 01       		.byte	0x1
 1771 0637 65       		.byte	0x65
 1772 0638 00000000 		.4byte	.LFB218
 1773 063c 4C030000 		.4byte	.LFE218-.LFB218
 1774 0640 01       		.uleb128 0x1
 1775 0641 9C       		.byte	0x9c
 1776 0642 960E0000 		.4byte	0xe96
 1777 0646 17       		.uleb128 0x17
 1778 0647 22000000 		.4byte	.LVL0
 1779 064b 64100000 		.4byte	0x1064
 1780 064f 5D060000 		.4byte	0x65d
ARM GAS  /tmp/ccXlDfva.s 			page 51


 1781 0653 18       		.uleb128 0x18
 1782 0654 01       		.uleb128 0x1
 1783 0655 50       		.byte	0x50
 1784 0656 05       		.uleb128 0x5
 1785 0657 03       		.byte	0x3
 1786 0658 00000000 		.4byte	.LC0
 1787 065c 00       		.byte	0
 1788 065d 17       		.uleb128 0x17
 1789 065e 28000000 		.4byte	.LVL1
 1790 0662 75100000 		.4byte	0x1075
 1791 0666 70060000 		.4byte	0x670
 1792 066a 18       		.uleb128 0x18
 1793 066b 01       		.uleb128 0x1
 1794 066c 50       		.byte	0x50
 1795 066d 01       		.uleb128 0x1
 1796 066e 40       		.byte	0x40
 1797 066f 00       		.byte	0
 1798 0670 17       		.uleb128 0x17
 1799 0671 2E000000 		.4byte	.LVL2
 1800 0675 86100000 		.4byte	0x1086
 1801 0679 84060000 		.4byte	0x684
 1802 067d 18       		.uleb128 0x18
 1803 067e 01       		.uleb128 0x1
 1804 067f 50       		.byte	0x50
 1805 0680 02       		.uleb128 0x2
 1806 0681 74       		.byte	0x74
 1807 0682 00       		.sleb128 0
 1808 0683 00       		.byte	0
 1809 0684 17       		.uleb128 0x17
 1810 0685 3A000000 		.4byte	.LVL3
 1811 0689 64100000 		.4byte	0x1064
 1812 068d 9B060000 		.4byte	0x69b
 1813 0691 18       		.uleb128 0x18
 1814 0692 01       		.uleb128 0x1
 1815 0693 50       		.byte	0x50
 1816 0694 05       		.uleb128 0x5
 1817 0695 03       		.byte	0x3
 1818 0696 24000000 		.4byte	.LC2
 1819 069a 00       		.byte	0
 1820 069b 17       		.uleb128 0x17
 1821 069c 42000000 		.4byte	.LVL4
 1822 06a0 75100000 		.4byte	0x1075
 1823 06a4 B0060000 		.4byte	0x6b0
 1824 06a8 18       		.uleb128 0x18
 1825 06a9 01       		.uleb128 0x1
 1826 06aa 50       		.byte	0x50
 1827 06ab 03       		.uleb128 0x3
 1828 06ac 0A       		.byte	0xa
 1829 06ad 1027     		.2byte	0x2710
 1830 06af 00       		.byte	0
 1831 06b0 17       		.uleb128 0x17
 1832 06b1 48000000 		.4byte	.LVL5
 1833 06b5 86100000 		.4byte	0x1086
 1834 06b9 C4060000 		.4byte	0x6c4
 1835 06bd 18       		.uleb128 0x18
 1836 06be 01       		.uleb128 0x1
 1837 06bf 50       		.byte	0x50
ARM GAS  /tmp/ccXlDfva.s 			page 52


 1838 06c0 02       		.uleb128 0x2
 1839 06c1 74       		.byte	0x74
 1840 06c2 00       		.sleb128 0
 1841 06c3 00       		.byte	0
 1842 06c4 17       		.uleb128 0x17
 1843 06c5 54000000 		.4byte	.LVL6
 1844 06c9 64100000 		.4byte	0x1064
 1845 06cd DB060000 		.4byte	0x6db
 1846 06d1 18       		.uleb128 0x18
 1847 06d2 01       		.uleb128 0x1
 1848 06d3 50       		.byte	0x50
 1849 06d4 05       		.uleb128 0x5
 1850 06d5 03       		.byte	0x3
 1851 06d6 44000000 		.4byte	.LC3
 1852 06da 00       		.byte	0
 1853 06db 17       		.uleb128 0x17
 1854 06dc 5A000000 		.4byte	.LVL7
 1855 06e0 75100000 		.4byte	0x1075
 1856 06e4 EE060000 		.4byte	0x6ee
 1857 06e8 18       		.uleb128 0x18
 1858 06e9 01       		.uleb128 0x1
 1859 06ea 50       		.byte	0x50
 1860 06eb 01       		.uleb128 0x1
 1861 06ec 32       		.byte	0x32
 1862 06ed 00       		.byte	0
 1863 06ee 17       		.uleb128 0x17
 1864 06ef 60000000 		.4byte	.LVL8
 1865 06f3 86100000 		.4byte	0x1086
 1866 06f7 02070000 		.4byte	0x702
 1867 06fb 18       		.uleb128 0x18
 1868 06fc 01       		.uleb128 0x1
 1869 06fd 50       		.byte	0x50
 1870 06fe 02       		.uleb128 0x2
 1871 06ff 74       		.byte	0x74
 1872 0700 00       		.sleb128 0
 1873 0701 00       		.byte	0
 1874 0702 17       		.uleb128 0x17
 1875 0703 6C000000 		.4byte	.LVL9
 1876 0707 64100000 		.4byte	0x1064
 1877 070b 19070000 		.4byte	0x719
 1878 070f 18       		.uleb128 0x18
 1879 0710 01       		.uleb128 0x1
 1880 0711 50       		.byte	0x50
 1881 0712 05       		.uleb128 0x5
 1882 0713 03       		.byte	0x3
 1883 0714 64000000 		.4byte	.LC4
 1884 0718 00       		.byte	0
 1885 0719 17       		.uleb128 0x17
 1886 071a 72000000 		.4byte	.LVL10
 1887 071e 75100000 		.4byte	0x1075
 1888 0722 2C070000 		.4byte	0x72c
 1889 0726 18       		.uleb128 0x18
 1890 0727 01       		.uleb128 0x1
 1891 0728 50       		.byte	0x50
 1892 0729 01       		.uleb128 0x1
 1893 072a 30       		.byte	0x30
 1894 072b 00       		.byte	0
ARM GAS  /tmp/ccXlDfva.s 			page 53


 1895 072c 17       		.uleb128 0x17
 1896 072d 78000000 		.4byte	.LVL11
 1897 0731 86100000 		.4byte	0x1086
 1898 0735 40070000 		.4byte	0x740
 1899 0739 18       		.uleb128 0x18
 1900 073a 01       		.uleb128 0x1
 1901 073b 50       		.byte	0x50
 1902 073c 02       		.uleb128 0x2
 1903 073d 74       		.byte	0x74
 1904 073e 00       		.sleb128 0
 1905 073f 00       		.byte	0
 1906 0740 17       		.uleb128 0x17
 1907 0741 84000000 		.4byte	.LVL12
 1908 0745 64100000 		.4byte	0x1064
 1909 0749 57070000 		.4byte	0x757
 1910 074d 18       		.uleb128 0x18
 1911 074e 01       		.uleb128 0x1
 1912 074f 50       		.byte	0x50
 1913 0750 05       		.uleb128 0x5
 1914 0751 03       		.byte	0x3
 1915 0752 84000000 		.4byte	.LC5
 1916 0756 00       		.byte	0
 1917 0757 17       		.uleb128 0x17
 1918 0758 8A000000 		.4byte	.LVL13
 1919 075c 75100000 		.4byte	0x1075
 1920 0760 6A070000 		.4byte	0x76a
 1921 0764 18       		.uleb128 0x18
 1922 0765 01       		.uleb128 0x1
 1923 0766 50       		.byte	0x50
 1924 0767 01       		.uleb128 0x1
 1925 0768 30       		.byte	0x30
 1926 0769 00       		.byte	0
 1927 076a 17       		.uleb128 0x17
 1928 076b 90000000 		.4byte	.LVL14
 1929 076f 86100000 		.4byte	0x1086
 1930 0773 7E070000 		.4byte	0x77e
 1931 0777 18       		.uleb128 0x18
 1932 0778 01       		.uleb128 0x1
 1933 0779 50       		.byte	0x50
 1934 077a 02       		.uleb128 0x2
 1935 077b 74       		.byte	0x74
 1936 077c 00       		.sleb128 0
 1937 077d 00       		.byte	0
 1938 077e 17       		.uleb128 0x17
 1939 077f 9C000000 		.4byte	.LVL15
 1940 0783 64100000 		.4byte	0x1064
 1941 0787 95070000 		.4byte	0x795
 1942 078b 18       		.uleb128 0x18
 1943 078c 01       		.uleb128 0x1
 1944 078d 50       		.byte	0x50
 1945 078e 05       		.uleb128 0x5
 1946 078f 03       		.byte	0x3
 1947 0790 A4000000 		.4byte	.LC6
 1948 0794 00       		.byte	0
 1949 0795 17       		.uleb128 0x17
 1950 0796 A2000000 		.4byte	.LVL16
 1951 079a 75100000 		.4byte	0x1075
ARM GAS  /tmp/ccXlDfva.s 			page 54


 1952 079e A8070000 		.4byte	0x7a8
 1953 07a2 18       		.uleb128 0x18
 1954 07a3 01       		.uleb128 0x1
 1955 07a4 50       		.byte	0x50
 1956 07a5 01       		.uleb128 0x1
 1957 07a6 30       		.byte	0x30
 1958 07a7 00       		.byte	0
 1959 07a8 17       		.uleb128 0x17
 1960 07a9 A8000000 		.4byte	.LVL17
 1961 07ad 86100000 		.4byte	0x1086
 1962 07b1 BC070000 		.4byte	0x7bc
 1963 07b5 18       		.uleb128 0x18
 1964 07b6 01       		.uleb128 0x1
 1965 07b7 50       		.byte	0x50
 1966 07b8 02       		.uleb128 0x2
 1967 07b9 74       		.byte	0x74
 1968 07ba 00       		.sleb128 0
 1969 07bb 00       		.byte	0
 1970 07bc 17       		.uleb128 0x17
 1971 07bd B4000000 		.4byte	.LVL18
 1972 07c1 64100000 		.4byte	0x1064
 1973 07c5 D3070000 		.4byte	0x7d3
 1974 07c9 18       		.uleb128 0x18
 1975 07ca 01       		.uleb128 0x1
 1976 07cb 50       		.byte	0x50
 1977 07cc 05       		.uleb128 0x5
 1978 07cd 03       		.byte	0x3
 1979 07ce C4000000 		.4byte	.LC7
 1980 07d2 00       		.byte	0
 1981 07d3 17       		.uleb128 0x17
 1982 07d4 BA000000 		.4byte	.LVL19
 1983 07d8 75100000 		.4byte	0x1075
 1984 07dc E7070000 		.4byte	0x7e7
 1985 07e0 18       		.uleb128 0x18
 1986 07e1 01       		.uleb128 0x1
 1987 07e2 50       		.byte	0x50
 1988 07e3 02       		.uleb128 0x2
 1989 07e4 75       		.byte	0x75
 1990 07e5 00       		.sleb128 0
 1991 07e6 00       		.byte	0
 1992 07e7 17       		.uleb128 0x17
 1993 07e8 C0000000 		.4byte	.LVL20
 1994 07ec 86100000 		.4byte	0x1086
 1995 07f0 FB070000 		.4byte	0x7fb
 1996 07f4 18       		.uleb128 0x18
 1997 07f5 01       		.uleb128 0x1
 1998 07f6 50       		.byte	0x50
 1999 07f7 02       		.uleb128 0x2
 2000 07f8 74       		.byte	0x74
 2001 07f9 00       		.sleb128 0
 2002 07fa 00       		.byte	0
 2003 07fb 17       		.uleb128 0x17
 2004 07fc CC000000 		.4byte	.LVL21
 2005 0800 64100000 		.4byte	0x1064
 2006 0804 12080000 		.4byte	0x812
 2007 0808 18       		.uleb128 0x18
 2008 0809 01       		.uleb128 0x1
ARM GAS  /tmp/ccXlDfva.s 			page 55


 2009 080a 50       		.byte	0x50
 2010 080b 05       		.uleb128 0x5
 2011 080c 03       		.byte	0x3
 2012 080d E4000000 		.4byte	.LC8
 2013 0811 00       		.byte	0
 2014 0812 17       		.uleb128 0x17
 2015 0813 D2000000 		.4byte	.LVL22
 2016 0817 75100000 		.4byte	0x1075
 2017 081b 26080000 		.4byte	0x826
 2018 081f 18       		.uleb128 0x18
 2019 0820 01       		.uleb128 0x1
 2020 0821 50       		.byte	0x50
 2021 0822 02       		.uleb128 0x2
 2022 0823 75       		.byte	0x75
 2023 0824 00       		.sleb128 0
 2024 0825 00       		.byte	0
 2025 0826 17       		.uleb128 0x17
 2026 0827 D8000000 		.4byte	.LVL23
 2027 082b 86100000 		.4byte	0x1086
 2028 082f 3A080000 		.4byte	0x83a
 2029 0833 18       		.uleb128 0x18
 2030 0834 01       		.uleb128 0x1
 2031 0835 50       		.byte	0x50
 2032 0836 02       		.uleb128 0x2
 2033 0837 74       		.byte	0x74
 2034 0838 00       		.sleb128 0
 2035 0839 00       		.byte	0
 2036 083a 17       		.uleb128 0x17
 2037 083b E4000000 		.4byte	.LVL24
 2038 083f 64100000 		.4byte	0x1064
 2039 0843 51080000 		.4byte	0x851
 2040 0847 18       		.uleb128 0x18
 2041 0848 01       		.uleb128 0x1
 2042 0849 50       		.byte	0x50
 2043 084a 05       		.uleb128 0x5
 2044 084b 03       		.byte	0x3
 2045 084c 04010000 		.4byte	.LC9
 2046 0850 00       		.byte	0
 2047 0851 17       		.uleb128 0x17
 2048 0852 EA000000 		.4byte	.LVL25
 2049 0856 75100000 		.4byte	0x1075
 2050 085a 65080000 		.4byte	0x865
 2051 085e 18       		.uleb128 0x18
 2052 085f 01       		.uleb128 0x1
 2053 0860 50       		.byte	0x50
 2054 0861 02       		.uleb128 0x2
 2055 0862 75       		.byte	0x75
 2056 0863 00       		.sleb128 0
 2057 0864 00       		.byte	0
 2058 0865 17       		.uleb128 0x17
 2059 0866 F0000000 		.4byte	.LVL26
 2060 086a 86100000 		.4byte	0x1086
 2061 086e 79080000 		.4byte	0x879
 2062 0872 18       		.uleb128 0x18
 2063 0873 01       		.uleb128 0x1
 2064 0874 50       		.byte	0x50
 2065 0875 02       		.uleb128 0x2
ARM GAS  /tmp/ccXlDfva.s 			page 56


 2066 0876 74       		.byte	0x74
 2067 0877 00       		.sleb128 0
 2068 0878 00       		.byte	0
 2069 0879 17       		.uleb128 0x17
 2070 087a FC000000 		.4byte	.LVL27
 2071 087e 64100000 		.4byte	0x1064
 2072 0882 90080000 		.4byte	0x890
 2073 0886 18       		.uleb128 0x18
 2074 0887 01       		.uleb128 0x1
 2075 0888 50       		.byte	0x50
 2076 0889 05       		.uleb128 0x5
 2077 088a 03       		.byte	0x3
 2078 088b 24010000 		.4byte	.LC10
 2079 088f 00       		.byte	0
 2080 0890 17       		.uleb128 0x17
 2081 0891 02010000 		.4byte	.LVL28
 2082 0895 75100000 		.4byte	0x1075
 2083 0899 A4080000 		.4byte	0x8a4
 2084 089d 18       		.uleb128 0x18
 2085 089e 01       		.uleb128 0x1
 2086 089f 50       		.byte	0x50
 2087 08a0 02       		.uleb128 0x2
 2088 08a1 75       		.byte	0x75
 2089 08a2 00       		.sleb128 0
 2090 08a3 00       		.byte	0
 2091 08a4 17       		.uleb128 0x17
 2092 08a5 08010000 		.4byte	.LVL29
 2093 08a9 86100000 		.4byte	0x1086
 2094 08ad B8080000 		.4byte	0x8b8
 2095 08b1 18       		.uleb128 0x18
 2096 08b2 01       		.uleb128 0x1
 2097 08b3 50       		.byte	0x50
 2098 08b4 02       		.uleb128 0x2
 2099 08b5 74       		.byte	0x74
 2100 08b6 00       		.sleb128 0
 2101 08b7 00       		.byte	0
 2102 08b8 17       		.uleb128 0x17
 2103 08b9 14010000 		.4byte	.LVL30
 2104 08bd 64100000 		.4byte	0x1064
 2105 08c1 CF080000 		.4byte	0x8cf
 2106 08c5 18       		.uleb128 0x18
 2107 08c6 01       		.uleb128 0x1
 2108 08c7 50       		.byte	0x50
 2109 08c8 05       		.uleb128 0x5
 2110 08c9 03       		.byte	0x3
 2111 08ca 44010000 		.4byte	.LC11
 2112 08ce 00       		.byte	0
 2113 08cf 17       		.uleb128 0x17
 2114 08d0 1A010000 		.4byte	.LVL31
 2115 08d4 75100000 		.4byte	0x1075
 2116 08d8 E3080000 		.4byte	0x8e3
 2117 08dc 18       		.uleb128 0x18
 2118 08dd 01       		.uleb128 0x1
 2119 08de 50       		.byte	0x50
 2120 08df 02       		.uleb128 0x2
 2121 08e0 75       		.byte	0x75
 2122 08e1 00       		.sleb128 0
ARM GAS  /tmp/ccXlDfva.s 			page 57


 2123 08e2 00       		.byte	0
 2124 08e3 17       		.uleb128 0x17
 2125 08e4 20010000 		.4byte	.LVL32
 2126 08e8 86100000 		.4byte	0x1086
 2127 08ec F7080000 		.4byte	0x8f7
 2128 08f0 18       		.uleb128 0x18
 2129 08f1 01       		.uleb128 0x1
 2130 08f2 50       		.byte	0x50
 2131 08f3 02       		.uleb128 0x2
 2132 08f4 74       		.byte	0x74
 2133 08f5 00       		.sleb128 0
 2134 08f6 00       		.byte	0
 2135 08f7 17       		.uleb128 0x17
 2136 08f8 2C010000 		.4byte	.LVL33
 2137 08fc 64100000 		.4byte	0x1064
 2138 0900 0E090000 		.4byte	0x90e
 2139 0904 18       		.uleb128 0x18
 2140 0905 01       		.uleb128 0x1
 2141 0906 50       		.byte	0x50
 2142 0907 05       		.uleb128 0x5
 2143 0908 03       		.byte	0x3
 2144 0909 64010000 		.4byte	.LC12
 2145 090d 00       		.byte	0
 2146 090e 17       		.uleb128 0x17
 2147 090f 32010000 		.4byte	.LVL34
 2148 0913 75100000 		.4byte	0x1075
 2149 0917 21090000 		.4byte	0x921
 2150 091b 18       		.uleb128 0x18
 2151 091c 01       		.uleb128 0x1
 2152 091d 50       		.byte	0x50
 2153 091e 01       		.uleb128 0x1
 2154 091f 30       		.byte	0x30
 2155 0920 00       		.byte	0
 2156 0921 17       		.uleb128 0x17
 2157 0922 38010000 		.4byte	.LVL35
 2158 0926 86100000 		.4byte	0x1086
 2159 092a 35090000 		.4byte	0x935
 2160 092e 18       		.uleb128 0x18
 2161 092f 01       		.uleb128 0x1
 2162 0930 50       		.byte	0x50
 2163 0931 02       		.uleb128 0x2
 2164 0932 74       		.byte	0x74
 2165 0933 00       		.sleb128 0
 2166 0934 00       		.byte	0
 2167 0935 17       		.uleb128 0x17
 2168 0936 44010000 		.4byte	.LVL36
 2169 093a 64100000 		.4byte	0x1064
 2170 093e 4C090000 		.4byte	0x94c
 2171 0942 18       		.uleb128 0x18
 2172 0943 01       		.uleb128 0x1
 2173 0944 50       		.byte	0x50
 2174 0945 05       		.uleb128 0x5
 2175 0946 03       		.byte	0x3
 2176 0947 84010000 		.4byte	.LC13
 2177 094b 00       		.byte	0
 2178 094c 17       		.uleb128 0x17
 2179 094d 4A010000 		.4byte	.LVL37
ARM GAS  /tmp/ccXlDfva.s 			page 58


 2180 0951 75100000 		.4byte	0x1075
 2181 0955 60090000 		.4byte	0x960
 2182 0959 18       		.uleb128 0x18
 2183 095a 01       		.uleb128 0x1
 2184 095b 50       		.byte	0x50
 2185 095c 02       		.uleb128 0x2
 2186 095d 75       		.byte	0x75
 2187 095e 00       		.sleb128 0
 2188 095f 00       		.byte	0
 2189 0960 17       		.uleb128 0x17
 2190 0961 50010000 		.4byte	.LVL38
 2191 0965 86100000 		.4byte	0x1086
 2192 0969 74090000 		.4byte	0x974
 2193 096d 18       		.uleb128 0x18
 2194 096e 01       		.uleb128 0x1
 2195 096f 50       		.byte	0x50
 2196 0970 02       		.uleb128 0x2
 2197 0971 74       		.byte	0x74
 2198 0972 00       		.sleb128 0
 2199 0973 00       		.byte	0
 2200 0974 17       		.uleb128 0x17
 2201 0975 5C010000 		.4byte	.LVL39
 2202 0979 64100000 		.4byte	0x1064
 2203 097d 8B090000 		.4byte	0x98b
 2204 0981 18       		.uleb128 0x18
 2205 0982 01       		.uleb128 0x1
 2206 0983 50       		.byte	0x50
 2207 0984 05       		.uleb128 0x5
 2208 0985 03       		.byte	0x3
 2209 0986 A4010000 		.4byte	.LC14
 2210 098a 00       		.byte	0
 2211 098b 17       		.uleb128 0x17
 2212 098c 62010000 		.4byte	.LVL40
 2213 0990 75100000 		.4byte	0x1075
 2214 0994 9E090000 		.4byte	0x99e
 2215 0998 18       		.uleb128 0x18
 2216 0999 01       		.uleb128 0x1
 2217 099a 50       		.byte	0x50
 2218 099b 01       		.uleb128 0x1
 2219 099c 30       		.byte	0x30
 2220 099d 00       		.byte	0
 2221 099e 17       		.uleb128 0x17
 2222 099f 68010000 		.4byte	.LVL41
 2223 09a3 86100000 		.4byte	0x1086
 2224 09a7 B2090000 		.4byte	0x9b2
 2225 09ab 18       		.uleb128 0x18
 2226 09ac 01       		.uleb128 0x1
 2227 09ad 50       		.byte	0x50
 2228 09ae 02       		.uleb128 0x2
 2229 09af 74       		.byte	0x74
 2230 09b0 00       		.sleb128 0
 2231 09b1 00       		.byte	0
 2232 09b2 17       		.uleb128 0x17
 2233 09b3 74010000 		.4byte	.LVL42
 2234 09b7 64100000 		.4byte	0x1064
 2235 09bb C9090000 		.4byte	0x9c9
 2236 09bf 18       		.uleb128 0x18
ARM GAS  /tmp/ccXlDfva.s 			page 59


 2237 09c0 01       		.uleb128 0x1
 2238 09c1 50       		.byte	0x50
 2239 09c2 05       		.uleb128 0x5
 2240 09c3 03       		.byte	0x3
 2241 09c4 C4010000 		.4byte	.LC15
 2242 09c8 00       		.byte	0
 2243 09c9 17       		.uleb128 0x17
 2244 09ca 7A010000 		.4byte	.LVL43
 2245 09ce 75100000 		.4byte	0x1075
 2246 09d2 DD090000 		.4byte	0x9dd
 2247 09d6 18       		.uleb128 0x18
 2248 09d7 01       		.uleb128 0x1
 2249 09d8 50       		.byte	0x50
 2250 09d9 02       		.uleb128 0x2
 2251 09da 75       		.byte	0x75
 2252 09db 00       		.sleb128 0
 2253 09dc 00       		.byte	0
 2254 09dd 17       		.uleb128 0x17
 2255 09de 80010000 		.4byte	.LVL44
 2256 09e2 86100000 		.4byte	0x1086
 2257 09e6 F1090000 		.4byte	0x9f1
 2258 09ea 18       		.uleb128 0x18
 2259 09eb 01       		.uleb128 0x1
 2260 09ec 50       		.byte	0x50
 2261 09ed 02       		.uleb128 0x2
 2262 09ee 74       		.byte	0x74
 2263 09ef 00       		.sleb128 0
 2264 09f0 00       		.byte	0
 2265 09f1 17       		.uleb128 0x17
 2266 09f2 8C010000 		.4byte	.LVL45
 2267 09f6 64100000 		.4byte	0x1064
 2268 09fa 080A0000 		.4byte	0xa08
 2269 09fe 18       		.uleb128 0x18
 2270 09ff 01       		.uleb128 0x1
 2271 0a00 50       		.byte	0x50
 2272 0a01 05       		.uleb128 0x5
 2273 0a02 03       		.byte	0x3
 2274 0a03 E4010000 		.4byte	.LC16
 2275 0a07 00       		.byte	0
 2276 0a08 17       		.uleb128 0x17
 2277 0a09 92010000 		.4byte	.LVL46
 2278 0a0d 75100000 		.4byte	0x1075
 2279 0a11 1C0A0000 		.4byte	0xa1c
 2280 0a15 18       		.uleb128 0x18
 2281 0a16 01       		.uleb128 0x1
 2282 0a17 50       		.byte	0x50
 2283 0a18 02       		.uleb128 0x2
 2284 0a19 75       		.byte	0x75
 2285 0a1a 00       		.sleb128 0
 2286 0a1b 00       		.byte	0
 2287 0a1c 17       		.uleb128 0x17
 2288 0a1d 98010000 		.4byte	.LVL47
 2289 0a21 86100000 		.4byte	0x1086
 2290 0a25 300A0000 		.4byte	0xa30
 2291 0a29 18       		.uleb128 0x18
 2292 0a2a 01       		.uleb128 0x1
 2293 0a2b 50       		.byte	0x50
ARM GAS  /tmp/ccXlDfva.s 			page 60


 2294 0a2c 02       		.uleb128 0x2
 2295 0a2d 74       		.byte	0x74
 2296 0a2e 00       		.sleb128 0
 2297 0a2f 00       		.byte	0
 2298 0a30 17       		.uleb128 0x17
 2299 0a31 A4010000 		.4byte	.LVL48
 2300 0a35 64100000 		.4byte	0x1064
 2301 0a39 470A0000 		.4byte	0xa47
 2302 0a3d 18       		.uleb128 0x18
 2303 0a3e 01       		.uleb128 0x1
 2304 0a3f 50       		.byte	0x50
 2305 0a40 05       		.uleb128 0x5
 2306 0a41 03       		.byte	0x3
 2307 0a42 04020000 		.4byte	.LC17
 2308 0a46 00       		.byte	0
 2309 0a47 17       		.uleb128 0x17
 2310 0a48 AA010000 		.4byte	.LVL49
 2311 0a4c 75100000 		.4byte	0x1075
 2312 0a50 5B0A0000 		.4byte	0xa5b
 2313 0a54 18       		.uleb128 0x18
 2314 0a55 01       		.uleb128 0x1
 2315 0a56 50       		.byte	0x50
 2316 0a57 02       		.uleb128 0x2
 2317 0a58 75       		.byte	0x75
 2318 0a59 00       		.sleb128 0
 2319 0a5a 00       		.byte	0
 2320 0a5b 17       		.uleb128 0x17
 2321 0a5c B0010000 		.4byte	.LVL50
 2322 0a60 86100000 		.4byte	0x1086
 2323 0a64 6F0A0000 		.4byte	0xa6f
 2324 0a68 18       		.uleb128 0x18
 2325 0a69 01       		.uleb128 0x1
 2326 0a6a 50       		.byte	0x50
 2327 0a6b 02       		.uleb128 0x2
 2328 0a6c 74       		.byte	0x74
 2329 0a6d 00       		.sleb128 0
 2330 0a6e 00       		.byte	0
 2331 0a6f 17       		.uleb128 0x17
 2332 0a70 BC010000 		.4byte	.LVL51
 2333 0a74 64100000 		.4byte	0x1064
 2334 0a78 860A0000 		.4byte	0xa86
 2335 0a7c 18       		.uleb128 0x18
 2336 0a7d 01       		.uleb128 0x1
 2337 0a7e 50       		.byte	0x50
 2338 0a7f 05       		.uleb128 0x5
 2339 0a80 03       		.byte	0x3
 2340 0a81 24020000 		.4byte	.LC18
 2341 0a85 00       		.byte	0
 2342 0a86 17       		.uleb128 0x17
 2343 0a87 C2010000 		.4byte	.LVL52
 2344 0a8b 75100000 		.4byte	0x1075
 2345 0a8f 9A0A0000 		.4byte	0xa9a
 2346 0a93 18       		.uleb128 0x18
 2347 0a94 01       		.uleb128 0x1
 2348 0a95 50       		.byte	0x50
 2349 0a96 02       		.uleb128 0x2
 2350 0a97 75       		.byte	0x75
ARM GAS  /tmp/ccXlDfva.s 			page 61


 2351 0a98 00       		.sleb128 0
 2352 0a99 00       		.byte	0
 2353 0a9a 17       		.uleb128 0x17
 2354 0a9b C8010000 		.4byte	.LVL53
 2355 0a9f 86100000 		.4byte	0x1086
 2356 0aa3 AE0A0000 		.4byte	0xaae
 2357 0aa7 18       		.uleb128 0x18
 2358 0aa8 01       		.uleb128 0x1
 2359 0aa9 50       		.byte	0x50
 2360 0aaa 02       		.uleb128 0x2
 2361 0aab 74       		.byte	0x74
 2362 0aac 00       		.sleb128 0
 2363 0aad 00       		.byte	0
 2364 0aae 17       		.uleb128 0x17
 2365 0aaf D4010000 		.4byte	.LVL54
 2366 0ab3 64100000 		.4byte	0x1064
 2367 0ab7 C50A0000 		.4byte	0xac5
 2368 0abb 18       		.uleb128 0x18
 2369 0abc 01       		.uleb128 0x1
 2370 0abd 50       		.byte	0x50
 2371 0abe 05       		.uleb128 0x5
 2372 0abf 03       		.byte	0x3
 2373 0ac0 44020000 		.4byte	.LC19
 2374 0ac4 00       		.byte	0
 2375 0ac5 17       		.uleb128 0x17
 2376 0ac6 DA010000 		.4byte	.LVL55
 2377 0aca 75100000 		.4byte	0x1075
 2378 0ace D90A0000 		.4byte	0xad9
 2379 0ad2 18       		.uleb128 0x18
 2380 0ad3 01       		.uleb128 0x1
 2381 0ad4 50       		.byte	0x50
 2382 0ad5 02       		.uleb128 0x2
 2383 0ad6 75       		.byte	0x75
 2384 0ad7 00       		.sleb128 0
 2385 0ad8 00       		.byte	0
 2386 0ad9 17       		.uleb128 0x17
 2387 0ada E0010000 		.4byte	.LVL56
 2388 0ade 86100000 		.4byte	0x1086
 2389 0ae2 ED0A0000 		.4byte	0xaed
 2390 0ae6 18       		.uleb128 0x18
 2391 0ae7 01       		.uleb128 0x1
 2392 0ae8 50       		.byte	0x50
 2393 0ae9 02       		.uleb128 0x2
 2394 0aea 74       		.byte	0x74
 2395 0aeb 00       		.sleb128 0
 2396 0aec 00       		.byte	0
 2397 0aed 17       		.uleb128 0x17
 2398 0aee EC010000 		.4byte	.LVL57
 2399 0af2 64100000 		.4byte	0x1064
 2400 0af6 040B0000 		.4byte	0xb04
 2401 0afa 18       		.uleb128 0x18
 2402 0afb 01       		.uleb128 0x1
 2403 0afc 50       		.byte	0x50
 2404 0afd 05       		.uleb128 0x5
 2405 0afe 03       		.byte	0x3
 2406 0aff 64020000 		.4byte	.LC20
 2407 0b03 00       		.byte	0
ARM GAS  /tmp/ccXlDfva.s 			page 62


 2408 0b04 17       		.uleb128 0x17
 2409 0b05 F2010000 		.4byte	.LVL58
 2410 0b09 75100000 		.4byte	0x1075
 2411 0b0d 170B0000 		.4byte	0xb17
 2412 0b11 18       		.uleb128 0x18
 2413 0b12 01       		.uleb128 0x1
 2414 0b13 50       		.byte	0x50
 2415 0b14 01       		.uleb128 0x1
 2416 0b15 30       		.byte	0x30
 2417 0b16 00       		.byte	0
 2418 0b17 17       		.uleb128 0x17
 2419 0b18 F8010000 		.4byte	.LVL59
 2420 0b1c 86100000 		.4byte	0x1086
 2421 0b20 2B0B0000 		.4byte	0xb2b
 2422 0b24 18       		.uleb128 0x18
 2423 0b25 01       		.uleb128 0x1
 2424 0b26 50       		.byte	0x50
 2425 0b27 02       		.uleb128 0x2
 2426 0b28 74       		.byte	0x74
 2427 0b29 00       		.sleb128 0
 2428 0b2a 00       		.byte	0
 2429 0b2b 17       		.uleb128 0x17
 2430 0b2c 04020000 		.4byte	.LVL60
 2431 0b30 64100000 		.4byte	0x1064
 2432 0b34 420B0000 		.4byte	0xb42
 2433 0b38 18       		.uleb128 0x18
 2434 0b39 01       		.uleb128 0x1
 2435 0b3a 50       		.byte	0x50
 2436 0b3b 05       		.uleb128 0x5
 2437 0b3c 03       		.byte	0x3
 2438 0b3d 84020000 		.4byte	.LC21
 2439 0b41 00       		.byte	0
 2440 0b42 17       		.uleb128 0x17
 2441 0b43 0A020000 		.4byte	.LVL61
 2442 0b47 75100000 		.4byte	0x1075
 2443 0b4b 560B0000 		.4byte	0xb56
 2444 0b4f 18       		.uleb128 0x18
 2445 0b50 01       		.uleb128 0x1
 2446 0b51 50       		.byte	0x50
 2447 0b52 02       		.uleb128 0x2
 2448 0b53 75       		.byte	0x75
 2449 0b54 00       		.sleb128 0
 2450 0b55 00       		.byte	0
 2451 0b56 17       		.uleb128 0x17
 2452 0b57 10020000 		.4byte	.LVL62
 2453 0b5b 86100000 		.4byte	0x1086
 2454 0b5f 6A0B0000 		.4byte	0xb6a
 2455 0b63 18       		.uleb128 0x18
 2456 0b64 01       		.uleb128 0x1
 2457 0b65 50       		.byte	0x50
 2458 0b66 02       		.uleb128 0x2
 2459 0b67 74       		.byte	0x74
 2460 0b68 00       		.sleb128 0
 2461 0b69 00       		.byte	0
 2462 0b6a 17       		.uleb128 0x17
 2463 0b6b 1C020000 		.4byte	.LVL63
 2464 0b6f 64100000 		.4byte	0x1064
ARM GAS  /tmp/ccXlDfva.s 			page 63


 2465 0b73 810B0000 		.4byte	0xb81
 2466 0b77 18       		.uleb128 0x18
 2467 0b78 01       		.uleb128 0x1
 2468 0b79 50       		.byte	0x50
 2469 0b7a 05       		.uleb128 0x5
 2470 0b7b 03       		.byte	0x3
 2471 0b7c A4020000 		.4byte	.LC22
 2472 0b80 00       		.byte	0
 2473 0b81 17       		.uleb128 0x17
 2474 0b82 22020000 		.4byte	.LVL64
 2475 0b86 75100000 		.4byte	0x1075
 2476 0b8a 950B0000 		.4byte	0xb95
 2477 0b8e 18       		.uleb128 0x18
 2478 0b8f 01       		.uleb128 0x1
 2479 0b90 50       		.byte	0x50
 2480 0b91 02       		.uleb128 0x2
 2481 0b92 75       		.byte	0x75
 2482 0b93 00       		.sleb128 0
 2483 0b94 00       		.byte	0
 2484 0b95 17       		.uleb128 0x17
 2485 0b96 28020000 		.4byte	.LVL65
 2486 0b9a 86100000 		.4byte	0x1086
 2487 0b9e A90B0000 		.4byte	0xba9
 2488 0ba2 18       		.uleb128 0x18
 2489 0ba3 01       		.uleb128 0x1
 2490 0ba4 50       		.byte	0x50
 2491 0ba5 02       		.uleb128 0x2
 2492 0ba6 74       		.byte	0x74
 2493 0ba7 00       		.sleb128 0
 2494 0ba8 00       		.byte	0
 2495 0ba9 17       		.uleb128 0x17
 2496 0baa 34020000 		.4byte	.LVL66
 2497 0bae 64100000 		.4byte	0x1064
 2498 0bb2 C00B0000 		.4byte	0xbc0
 2499 0bb6 18       		.uleb128 0x18
 2500 0bb7 01       		.uleb128 0x1
 2501 0bb8 50       		.byte	0x50
 2502 0bb9 05       		.uleb128 0x5
 2503 0bba 03       		.byte	0x3
 2504 0bbb C4020000 		.4byte	.LC23
 2505 0bbf 00       		.byte	0
 2506 0bc0 17       		.uleb128 0x17
 2507 0bc1 3A020000 		.4byte	.LVL67
 2508 0bc5 75100000 		.4byte	0x1075
 2509 0bc9 D40B0000 		.4byte	0xbd4
 2510 0bcd 18       		.uleb128 0x18
 2511 0bce 01       		.uleb128 0x1
 2512 0bcf 50       		.byte	0x50
 2513 0bd0 02       		.uleb128 0x2
 2514 0bd1 75       		.byte	0x75
 2515 0bd2 00       		.sleb128 0
 2516 0bd3 00       		.byte	0
 2517 0bd4 17       		.uleb128 0x17
 2518 0bd5 40020000 		.4byte	.LVL68
 2519 0bd9 86100000 		.4byte	0x1086
 2520 0bdd E80B0000 		.4byte	0xbe8
 2521 0be1 18       		.uleb128 0x18
ARM GAS  /tmp/ccXlDfva.s 			page 64


 2522 0be2 01       		.uleb128 0x1
 2523 0be3 50       		.byte	0x50
 2524 0be4 02       		.uleb128 0x2
 2525 0be5 74       		.byte	0x74
 2526 0be6 00       		.sleb128 0
 2527 0be7 00       		.byte	0
 2528 0be8 17       		.uleb128 0x17
 2529 0be9 4C020000 		.4byte	.LVL69
 2530 0bed 64100000 		.4byte	0x1064
 2531 0bf1 FF0B0000 		.4byte	0xbff
 2532 0bf5 18       		.uleb128 0x18
 2533 0bf6 01       		.uleb128 0x1
 2534 0bf7 50       		.byte	0x50
 2535 0bf8 05       		.uleb128 0x5
 2536 0bf9 03       		.byte	0x3
 2537 0bfa E4020000 		.4byte	.LC24
 2538 0bfe 00       		.byte	0
 2539 0bff 17       		.uleb128 0x17
 2540 0c00 52020000 		.4byte	.LVL70
 2541 0c04 75100000 		.4byte	0x1075
 2542 0c08 130C0000 		.4byte	0xc13
 2543 0c0c 18       		.uleb128 0x18
 2544 0c0d 01       		.uleb128 0x1
 2545 0c0e 50       		.byte	0x50
 2546 0c0f 02       		.uleb128 0x2
 2547 0c10 75       		.byte	0x75
 2548 0c11 00       		.sleb128 0
 2549 0c12 00       		.byte	0
 2550 0c13 17       		.uleb128 0x17
 2551 0c14 58020000 		.4byte	.LVL71
 2552 0c18 86100000 		.4byte	0x1086
 2553 0c1c 270C0000 		.4byte	0xc27
 2554 0c20 18       		.uleb128 0x18
 2555 0c21 01       		.uleb128 0x1
 2556 0c22 50       		.byte	0x50
 2557 0c23 02       		.uleb128 0x2
 2558 0c24 74       		.byte	0x74
 2559 0c25 00       		.sleb128 0
 2560 0c26 00       		.byte	0
 2561 0c27 17       		.uleb128 0x17
 2562 0c28 64020000 		.4byte	.LVL72
 2563 0c2c 64100000 		.4byte	0x1064
 2564 0c30 3E0C0000 		.4byte	0xc3e
 2565 0c34 18       		.uleb128 0x18
 2566 0c35 01       		.uleb128 0x1
 2567 0c36 50       		.byte	0x50
 2568 0c37 05       		.uleb128 0x5
 2569 0c38 03       		.byte	0x3
 2570 0c39 04030000 		.4byte	.LC25
 2571 0c3d 00       		.byte	0
 2572 0c3e 17       		.uleb128 0x17
 2573 0c3f 6A020000 		.4byte	.LVL73
 2574 0c43 75100000 		.4byte	0x1075
 2575 0c47 520C0000 		.4byte	0xc52
 2576 0c4b 18       		.uleb128 0x18
 2577 0c4c 01       		.uleb128 0x1
 2578 0c4d 50       		.byte	0x50
ARM GAS  /tmp/ccXlDfva.s 			page 65


 2579 0c4e 02       		.uleb128 0x2
 2580 0c4f 75       		.byte	0x75
 2581 0c50 00       		.sleb128 0
 2582 0c51 00       		.byte	0
 2583 0c52 17       		.uleb128 0x17
 2584 0c53 70020000 		.4byte	.LVL74
 2585 0c57 86100000 		.4byte	0x1086
 2586 0c5b 660C0000 		.4byte	0xc66
 2587 0c5f 18       		.uleb128 0x18
 2588 0c60 01       		.uleb128 0x1
 2589 0c61 50       		.byte	0x50
 2590 0c62 02       		.uleb128 0x2
 2591 0c63 74       		.byte	0x74
 2592 0c64 00       		.sleb128 0
 2593 0c65 00       		.byte	0
 2594 0c66 17       		.uleb128 0x17
 2595 0c67 7C020000 		.4byte	.LVL75
 2596 0c6b 64100000 		.4byte	0x1064
 2597 0c6f 7D0C0000 		.4byte	0xc7d
 2598 0c73 18       		.uleb128 0x18
 2599 0c74 01       		.uleb128 0x1
 2600 0c75 50       		.byte	0x50
 2601 0c76 05       		.uleb128 0x5
 2602 0c77 03       		.byte	0x3
 2603 0c78 24030000 		.4byte	.LC26
 2604 0c7c 00       		.byte	0
 2605 0c7d 17       		.uleb128 0x17
 2606 0c7e 82020000 		.4byte	.LVL76
 2607 0c82 75100000 		.4byte	0x1075
 2608 0c86 900C0000 		.4byte	0xc90
 2609 0c8a 18       		.uleb128 0x18
 2610 0c8b 01       		.uleb128 0x1
 2611 0c8c 50       		.byte	0x50
 2612 0c8d 01       		.uleb128 0x1
 2613 0c8e 30       		.byte	0x30
 2614 0c8f 00       		.byte	0
 2615 0c90 17       		.uleb128 0x17
 2616 0c91 88020000 		.4byte	.LVL77
 2617 0c95 86100000 		.4byte	0x1086
 2618 0c99 A40C0000 		.4byte	0xca4
 2619 0c9d 18       		.uleb128 0x18
 2620 0c9e 01       		.uleb128 0x1
 2621 0c9f 50       		.byte	0x50
 2622 0ca0 02       		.uleb128 0x2
 2623 0ca1 74       		.byte	0x74
 2624 0ca2 00       		.sleb128 0
 2625 0ca3 00       		.byte	0
 2626 0ca4 17       		.uleb128 0x17
 2627 0ca5 94020000 		.4byte	.LVL78
 2628 0ca9 64100000 		.4byte	0x1064
 2629 0cad BB0C0000 		.4byte	0xcbb
 2630 0cb1 18       		.uleb128 0x18
 2631 0cb2 01       		.uleb128 0x1
 2632 0cb3 50       		.byte	0x50
 2633 0cb4 05       		.uleb128 0x5
 2634 0cb5 03       		.byte	0x3
 2635 0cb6 44030000 		.4byte	.LC27
ARM GAS  /tmp/ccXlDfva.s 			page 66


 2636 0cba 00       		.byte	0
 2637 0cbb 17       		.uleb128 0x17
 2638 0cbc 9A020000 		.4byte	.LVL79
 2639 0cc0 75100000 		.4byte	0x1075
 2640 0cc4 CE0C0000 		.4byte	0xcce
 2641 0cc8 18       		.uleb128 0x18
 2642 0cc9 01       		.uleb128 0x1
 2643 0cca 50       		.byte	0x50
 2644 0ccb 01       		.uleb128 0x1
 2645 0ccc 30       		.byte	0x30
 2646 0ccd 00       		.byte	0
 2647 0cce 17       		.uleb128 0x17
 2648 0ccf A0020000 		.4byte	.LVL80
 2649 0cd3 86100000 		.4byte	0x1086
 2650 0cd7 E20C0000 		.4byte	0xce2
 2651 0cdb 18       		.uleb128 0x18
 2652 0cdc 01       		.uleb128 0x1
 2653 0cdd 50       		.byte	0x50
 2654 0cde 02       		.uleb128 0x2
 2655 0cdf 74       		.byte	0x74
 2656 0ce0 00       		.sleb128 0
 2657 0ce1 00       		.byte	0
 2658 0ce2 17       		.uleb128 0x17
 2659 0ce3 AC020000 		.4byte	.LVL81
 2660 0ce7 64100000 		.4byte	0x1064
 2661 0ceb F90C0000 		.4byte	0xcf9
 2662 0cef 18       		.uleb128 0x18
 2663 0cf0 01       		.uleb128 0x1
 2664 0cf1 50       		.byte	0x50
 2665 0cf2 05       		.uleb128 0x5
 2666 0cf3 03       		.byte	0x3
 2667 0cf4 64030000 		.4byte	.LC28
 2668 0cf8 00       		.byte	0
 2669 0cf9 17       		.uleb128 0x17
 2670 0cfa B2020000 		.4byte	.LVL82
 2671 0cfe 75100000 		.4byte	0x1075
 2672 0d02 0C0D0000 		.4byte	0xd0c
 2673 0d06 18       		.uleb128 0x18
 2674 0d07 01       		.uleb128 0x1
 2675 0d08 50       		.byte	0x50
 2676 0d09 01       		.uleb128 0x1
 2677 0d0a 30       		.byte	0x30
 2678 0d0b 00       		.byte	0
 2679 0d0c 17       		.uleb128 0x17
 2680 0d0d B8020000 		.4byte	.LVL83
 2681 0d11 86100000 		.4byte	0x1086
 2682 0d15 200D0000 		.4byte	0xd20
 2683 0d19 18       		.uleb128 0x18
 2684 0d1a 01       		.uleb128 0x1
 2685 0d1b 50       		.byte	0x50
 2686 0d1c 02       		.uleb128 0x2
 2687 0d1d 74       		.byte	0x74
 2688 0d1e 00       		.sleb128 0
 2689 0d1f 00       		.byte	0
 2690 0d20 17       		.uleb128 0x17
 2691 0d21 C4020000 		.4byte	.LVL84
 2692 0d25 64100000 		.4byte	0x1064
ARM GAS  /tmp/ccXlDfva.s 			page 67


 2693 0d29 370D0000 		.4byte	0xd37
 2694 0d2d 18       		.uleb128 0x18
 2695 0d2e 01       		.uleb128 0x1
 2696 0d2f 50       		.byte	0x50
 2697 0d30 05       		.uleb128 0x5
 2698 0d31 03       		.byte	0x3
 2699 0d32 84030000 		.4byte	.LC29
 2700 0d36 00       		.byte	0
 2701 0d37 17       		.uleb128 0x17
 2702 0d38 CA020000 		.4byte	.LVL85
 2703 0d3c 75100000 		.4byte	0x1075
 2704 0d40 4A0D0000 		.4byte	0xd4a
 2705 0d44 18       		.uleb128 0x18
 2706 0d45 01       		.uleb128 0x1
 2707 0d46 50       		.byte	0x50
 2708 0d47 01       		.uleb128 0x1
 2709 0d48 30       		.byte	0x30
 2710 0d49 00       		.byte	0
 2711 0d4a 17       		.uleb128 0x17
 2712 0d4b D0020000 		.4byte	.LVL86
 2713 0d4f 86100000 		.4byte	0x1086
 2714 0d53 5E0D0000 		.4byte	0xd5e
 2715 0d57 18       		.uleb128 0x18
 2716 0d58 01       		.uleb128 0x1
 2717 0d59 50       		.byte	0x50
 2718 0d5a 02       		.uleb128 0x2
 2719 0d5b 74       		.byte	0x74
 2720 0d5c 00       		.sleb128 0
 2721 0d5d 00       		.byte	0
 2722 0d5e 17       		.uleb128 0x17
 2723 0d5f DC020000 		.4byte	.LVL87
 2724 0d63 64100000 		.4byte	0x1064
 2725 0d67 750D0000 		.4byte	0xd75
 2726 0d6b 18       		.uleb128 0x18
 2727 0d6c 01       		.uleb128 0x1
 2728 0d6d 50       		.byte	0x50
 2729 0d6e 05       		.uleb128 0x5
 2730 0d6f 03       		.byte	0x3
 2731 0d70 A4030000 		.4byte	.LC30
 2732 0d74 00       		.byte	0
 2733 0d75 17       		.uleb128 0x17
 2734 0d76 E2020000 		.4byte	.LVL88
 2735 0d7a 75100000 		.4byte	0x1075
 2736 0d7e 890D0000 		.4byte	0xd89
 2737 0d82 18       		.uleb128 0x18
 2738 0d83 01       		.uleb128 0x1
 2739 0d84 50       		.byte	0x50
 2740 0d85 02       		.uleb128 0x2
 2741 0d86 08       		.byte	0x8
 2742 0d87 FF       		.byte	0xff
 2743 0d88 00       		.byte	0
 2744 0d89 17       		.uleb128 0x17
 2745 0d8a E8020000 		.4byte	.LVL89
 2746 0d8e 86100000 		.4byte	0x1086
 2747 0d92 9D0D0000 		.4byte	0xd9d
 2748 0d96 18       		.uleb128 0x18
 2749 0d97 01       		.uleb128 0x1
ARM GAS  /tmp/ccXlDfva.s 			page 68


 2750 0d98 50       		.byte	0x50
 2751 0d99 02       		.uleb128 0x2
 2752 0d9a 74       		.byte	0x74
 2753 0d9b 00       		.sleb128 0
 2754 0d9c 00       		.byte	0
 2755 0d9d 17       		.uleb128 0x17
 2756 0d9e F4020000 		.4byte	.LVL90
 2757 0da2 64100000 		.4byte	0x1064
 2758 0da6 B40D0000 		.4byte	0xdb4
 2759 0daa 18       		.uleb128 0x18
 2760 0dab 01       		.uleb128 0x1
 2761 0dac 50       		.byte	0x50
 2762 0dad 05       		.uleb128 0x5
 2763 0dae 03       		.byte	0x3
 2764 0daf C4030000 		.4byte	.LC31
 2765 0db3 00       		.byte	0
 2766 0db4 17       		.uleb128 0x17
 2767 0db5 FA020000 		.4byte	.LVL91
 2768 0db9 75100000 		.4byte	0x1075
 2769 0dbd C80D0000 		.4byte	0xdc8
 2770 0dc1 18       		.uleb128 0x18
 2771 0dc2 01       		.uleb128 0x1
 2772 0dc3 50       		.byte	0x50
 2773 0dc4 02       		.uleb128 0x2
 2774 0dc5 08       		.byte	0x8
 2775 0dc6 80       		.byte	0x80
 2776 0dc7 00       		.byte	0
 2777 0dc8 17       		.uleb128 0x17
 2778 0dc9 00030000 		.4byte	.LVL92
 2779 0dcd 86100000 		.4byte	0x1086
 2780 0dd1 DC0D0000 		.4byte	0xddc
 2781 0dd5 18       		.uleb128 0x18
 2782 0dd6 01       		.uleb128 0x1
 2783 0dd7 50       		.byte	0x50
 2784 0dd8 02       		.uleb128 0x2
 2785 0dd9 74       		.byte	0x74
 2786 0dda 00       		.sleb128 0
 2787 0ddb 00       		.byte	0
 2788 0ddc 17       		.uleb128 0x17
 2789 0ddd 0C030000 		.4byte	.LVL93
 2790 0de1 64100000 		.4byte	0x1064
 2791 0de5 F30D0000 		.4byte	0xdf3
 2792 0de9 18       		.uleb128 0x18
 2793 0dea 01       		.uleb128 0x1
 2794 0deb 50       		.byte	0x50
 2795 0dec 05       		.uleb128 0x5
 2796 0ded 03       		.byte	0x3
 2797 0dee E4030000 		.4byte	.LC32
 2798 0df2 00       		.byte	0
 2799 0df3 17       		.uleb128 0x17
 2800 0df4 12030000 		.4byte	.LVL94
 2801 0df8 75100000 		.4byte	0x1075
 2802 0dfc 060E0000 		.4byte	0xe06
 2803 0e00 18       		.uleb128 0x18
 2804 0e01 01       		.uleb128 0x1
 2805 0e02 50       		.byte	0x50
 2806 0e03 01       		.uleb128 0x1
ARM GAS  /tmp/ccXlDfva.s 			page 69


 2807 0e04 30       		.byte	0x30
 2808 0e05 00       		.byte	0
 2809 0e06 17       		.uleb128 0x17
 2810 0e07 18030000 		.4byte	.LVL95
 2811 0e0b 86100000 		.4byte	0x1086
 2812 0e0f 1A0E0000 		.4byte	0xe1a
 2813 0e13 18       		.uleb128 0x18
 2814 0e14 01       		.uleb128 0x1
 2815 0e15 50       		.byte	0x50
 2816 0e16 02       		.uleb128 0x2
 2817 0e17 74       		.byte	0x74
 2818 0e18 00       		.sleb128 0
 2819 0e19 00       		.byte	0
 2820 0e1a 17       		.uleb128 0x17
 2821 0e1b 24030000 		.4byte	.LVL96
 2822 0e1f 64100000 		.4byte	0x1064
 2823 0e23 310E0000 		.4byte	0xe31
 2824 0e27 18       		.uleb128 0x18
 2825 0e28 01       		.uleb128 0x1
 2826 0e29 50       		.byte	0x50
 2827 0e2a 05       		.uleb128 0x5
 2828 0e2b 03       		.byte	0x3
 2829 0e2c 04040000 		.4byte	.LC33
 2830 0e30 00       		.byte	0
 2831 0e31 17       		.uleb128 0x17
 2832 0e32 2A030000 		.4byte	.LVL97
 2833 0e36 75100000 		.4byte	0x1075
 2834 0e3a 440E0000 		.4byte	0xe44
 2835 0e3e 18       		.uleb128 0x18
 2836 0e3f 01       		.uleb128 0x1
 2837 0e40 50       		.byte	0x50
 2838 0e41 01       		.uleb128 0x1
 2839 0e42 30       		.byte	0x30
 2840 0e43 00       		.byte	0
 2841 0e44 17       		.uleb128 0x17
 2842 0e45 30030000 		.4byte	.LVL98
 2843 0e49 86100000 		.4byte	0x1086
 2844 0e4d 580E0000 		.4byte	0xe58
 2845 0e51 18       		.uleb128 0x18
 2846 0e52 01       		.uleb128 0x1
 2847 0e53 50       		.byte	0x50
 2848 0e54 02       		.uleb128 0x2
 2849 0e55 74       		.byte	0x74
 2850 0e56 00       		.sleb128 0
 2851 0e57 00       		.byte	0
 2852 0e58 17       		.uleb128 0x17
 2853 0e59 3C030000 		.4byte	.LVL99
 2854 0e5d 64100000 		.4byte	0x1064
 2855 0e61 6F0E0000 		.4byte	0xe6f
 2856 0e65 18       		.uleb128 0x18
 2857 0e66 01       		.uleb128 0x1
 2858 0e67 50       		.byte	0x50
 2859 0e68 05       		.uleb128 0x5
 2860 0e69 03       		.byte	0x3
 2861 0e6a 24040000 		.4byte	.LC34
 2862 0e6e 00       		.byte	0
 2863 0e6f 17       		.uleb128 0x17
ARM GAS  /tmp/ccXlDfva.s 			page 70


 2864 0e70 42030000 		.4byte	.LVL100
 2865 0e74 75100000 		.4byte	0x1075
 2866 0e78 820E0000 		.4byte	0xe82
 2867 0e7c 18       		.uleb128 0x18
 2868 0e7d 01       		.uleb128 0x1
 2869 0e7e 50       		.byte	0x50
 2870 0e7f 01       		.uleb128 0x1
 2871 0e80 30       		.byte	0x30
 2872 0e81 00       		.byte	0
 2873 0e82 19       		.uleb128 0x19
 2874 0e83 4C030000 		.4byte	.LVL101
 2875 0e87 86100000 		.4byte	0x1086
 2876 0e8b 18       		.uleb128 0x18
 2877 0e8c 01       		.uleb128 0x1
 2878 0e8d 50       		.byte	0x50
 2879 0e8e 05       		.uleb128 0x5
 2880 0e8f 03       		.byte	0x3
 2881 0e90 20000000 		.4byte	.LC1
 2882 0e94 00       		.byte	0
 2883 0e95 00       		.byte	0
 2884 0e96 16       		.uleb128 0x16
 2885 0e97 E6000000 		.4byte	.LASF93
 2886 0e9b 01       		.byte	0x1
 2887 0e9c 3C       		.byte	0x3c
 2888 0e9d 00000000 		.4byte	.LFB217
 2889 0ea1 9E000000 		.4byte	.LFE217-.LFB217
 2890 0ea5 01       		.uleb128 0x1
 2891 0ea6 9C       		.byte	0x9c
 2892 0ea7 EA0F0000 		.4byte	0xfea
 2893 0eab 17       		.uleb128 0x17
 2894 0eac 1A000000 		.4byte	.LVL102
 2895 0eb0 86100000 		.4byte	0x1086
 2896 0eb4 C20E0000 		.4byte	0xec2
 2897 0eb8 18       		.uleb128 0x18
 2898 0eb9 01       		.uleb128 0x1
 2899 0eba 50       		.byte	0x50
 2900 0ebb 05       		.uleb128 0x5
 2901 0ebc 03       		.byte	0x3
 2902 0ebd 44040000 		.4byte	.LC35
 2903 0ec1 00       		.byte	0
 2904 0ec2 17       		.uleb128 0x17
 2905 0ec3 2E000000 		.4byte	.LVL103
 2906 0ec7 64100000 		.4byte	0x1064
 2907 0ecb D90E0000 		.4byte	0xed9
 2908 0ecf 18       		.uleb128 0x18
 2909 0ed0 01       		.uleb128 0x1
 2910 0ed1 50       		.byte	0x50
 2911 0ed2 05       		.uleb128 0x5
 2912 0ed3 03       		.byte	0x3
 2913 0ed4 70040000 		.4byte	.LC36
 2914 0ed8 00       		.byte	0
 2915 0ed9 17       		.uleb128 0x17
 2916 0eda 34000000 		.4byte	.LVL104
 2917 0ede 75100000 		.4byte	0x1075
 2918 0ee2 ED0E0000 		.4byte	0xeed
 2919 0ee6 18       		.uleb128 0x18
 2920 0ee7 01       		.uleb128 0x1
ARM GAS  /tmp/ccXlDfva.s 			page 71


 2921 0ee8 50       		.byte	0x50
 2922 0ee9 02       		.uleb128 0x2
 2923 0eea 75       		.byte	0x75
 2924 0eeb 00       		.sleb128 0
 2925 0eec 00       		.byte	0
 2926 0eed 17       		.uleb128 0x17
 2927 0eee 3A000000 		.4byte	.LVL105
 2928 0ef2 86100000 		.4byte	0x1086
 2929 0ef6 010F0000 		.4byte	0xf01
 2930 0efa 18       		.uleb128 0x18
 2931 0efb 01       		.uleb128 0x1
 2932 0efc 50       		.byte	0x50
 2933 0efd 02       		.uleb128 0x2
 2934 0efe 74       		.byte	0x74
 2935 0eff 00       		.sleb128 0
 2936 0f00 00       		.byte	0
 2937 0f01 17       		.uleb128 0x17
 2938 0f02 46000000 		.4byte	.LVL106
 2939 0f06 64100000 		.4byte	0x1064
 2940 0f0a 180F0000 		.4byte	0xf18
 2941 0f0e 18       		.uleb128 0x18
 2942 0f0f 01       		.uleb128 0x1
 2943 0f10 50       		.byte	0x50
 2944 0f11 05       		.uleb128 0x5
 2945 0f12 03       		.byte	0x3
 2946 0f13 90040000 		.4byte	.LC37
 2947 0f17 00       		.byte	0
 2948 0f18 17       		.uleb128 0x17
 2949 0f19 52000000 		.4byte	.LVL107
 2950 0f1d 86100000 		.4byte	0x1086
 2951 0f21 2F0F0000 		.4byte	0xf2f
 2952 0f25 18       		.uleb128 0x18
 2953 0f26 01       		.uleb128 0x1
 2954 0f27 50       		.byte	0x50
 2955 0f28 05       		.uleb128 0x5
 2956 0f29 03       		.byte	0x3
 2957 0f2a B0040000 		.4byte	.LC38
 2958 0f2e 00       		.byte	0
 2959 0f2f 17       		.uleb128 0x17
 2960 0f30 5E000000 		.4byte	.LVL108
 2961 0f34 64100000 		.4byte	0x1064
 2962 0f38 460F0000 		.4byte	0xf46
 2963 0f3c 18       		.uleb128 0x18
 2964 0f3d 01       		.uleb128 0x1
 2965 0f3e 50       		.byte	0x50
 2966 0f3f 05       		.uleb128 0x5
 2967 0f40 03       		.byte	0x3
 2968 0f41 B8040000 		.4byte	.LC39
 2969 0f45 00       		.byte	0
 2970 0f46 17       		.uleb128 0x17
 2971 0f47 64000000 		.4byte	.LVL109
 2972 0f4b 75100000 		.4byte	0x1075
 2973 0f4f 590F0000 		.4byte	0xf59
 2974 0f53 18       		.uleb128 0x18
 2975 0f54 01       		.uleb128 0x1
 2976 0f55 50       		.byte	0x50
 2977 0f56 01       		.uleb128 0x1
ARM GAS  /tmp/ccXlDfva.s 			page 72


 2978 0f57 34       		.byte	0x34
 2979 0f58 00       		.byte	0
 2980 0f59 17       		.uleb128 0x17
 2981 0f5a 6A000000 		.4byte	.LVL110
 2982 0f5e 86100000 		.4byte	0x1086
 2983 0f62 6D0F0000 		.4byte	0xf6d
 2984 0f66 18       		.uleb128 0x18
 2985 0f67 01       		.uleb128 0x1
 2986 0f68 50       		.byte	0x50
 2987 0f69 02       		.uleb128 0x2
 2988 0f6a 74       		.byte	0x74
 2989 0f6b 00       		.sleb128 0
 2990 0f6c 00       		.byte	0
 2991 0f6d 17       		.uleb128 0x17
 2992 0f6e 76000000 		.4byte	.LVL111
 2993 0f72 64100000 		.4byte	0x1064
 2994 0f76 840F0000 		.4byte	0xf84
 2995 0f7a 18       		.uleb128 0x18
 2996 0f7b 01       		.uleb128 0x1
 2997 0f7c 50       		.byte	0x50
 2998 0f7d 05       		.uleb128 0x5
 2999 0f7e 03       		.byte	0x3
 3000 0f7f D8040000 		.4byte	.LC40
 3001 0f83 00       		.byte	0
 3002 0f84 17       		.uleb128 0x17
 3003 0f85 7C000000 		.4byte	.LVL112
 3004 0f89 75100000 		.4byte	0x1075
 3005 0f8d 970F0000 		.4byte	0xf97
 3006 0f91 18       		.uleb128 0x18
 3007 0f92 01       		.uleb128 0x1
 3008 0f93 50       		.byte	0x50
 3009 0f94 01       		.uleb128 0x1
 3010 0f95 30       		.byte	0x30
 3011 0f96 00       		.byte	0
 3012 0f97 17       		.uleb128 0x17
 3013 0f98 82000000 		.4byte	.LVL113
 3014 0f9c 86100000 		.4byte	0x1086
 3015 0fa0 AB0F0000 		.4byte	0xfab
 3016 0fa4 18       		.uleb128 0x18
 3017 0fa5 01       		.uleb128 0x1
 3018 0fa6 50       		.byte	0x50
 3019 0fa7 02       		.uleb128 0x2
 3020 0fa8 74       		.byte	0x74
 3021 0fa9 00       		.sleb128 0
 3022 0faa 00       		.byte	0
 3023 0fab 17       		.uleb128 0x17
 3024 0fac 8E000000 		.4byte	.LVL114
 3025 0fb0 64100000 		.4byte	0x1064
 3026 0fb4 C20F0000 		.4byte	0xfc2
 3027 0fb8 18       		.uleb128 0x18
 3028 0fb9 01       		.uleb128 0x1
 3029 0fba 50       		.byte	0x50
 3030 0fbb 05       		.uleb128 0x5
 3031 0fbc 03       		.byte	0x3
 3032 0fbd F8040000 		.4byte	.LC41
 3033 0fc1 00       		.byte	0
 3034 0fc2 17       		.uleb128 0x17
ARM GAS  /tmp/ccXlDfva.s 			page 73


 3035 0fc3 94000000 		.4byte	.LVL115
 3036 0fc7 75100000 		.4byte	0x1075
 3037 0fcb D60F0000 		.4byte	0xfd6
 3038 0fcf 18       		.uleb128 0x18
 3039 0fd0 01       		.uleb128 0x1
 3040 0fd1 50       		.byte	0x50
 3041 0fd2 02       		.uleb128 0x2
 3042 0fd3 75       		.byte	0x75
 3043 0fd4 00       		.sleb128 0
 3044 0fd5 00       		.byte	0
 3045 0fd6 19       		.uleb128 0x19
 3046 0fd7 9E000000 		.4byte	.LVL116
 3047 0fdb 86100000 		.4byte	0x1086
 3048 0fdf 18       		.uleb128 0x18
 3049 0fe0 01       		.uleb128 0x1
 3050 0fe1 50       		.byte	0x50
 3051 0fe2 05       		.uleb128 0x5
 3052 0fe3 03       		.byte	0x3
 3053 0fe4 20000000 		.4byte	.LC1
 3054 0fe8 00       		.byte	0
 3055 0fe9 00       		.byte	0
 3056 0fea 1A       		.uleb128 0x1a
 3057 0feb 36020000 		.4byte	.LASF94
 3058 0fef 01       		.byte	0x1
 3059 0ff0 53       		.byte	0x53
 3060 0ff1 FB0F0000 		.4byte	0xffb
 3061 0ff5 05       		.uleb128 0x5
 3062 0ff6 03       		.byte	0x3
 3063 0ff7 00000000 		.4byte	test_001_001
 3064 0ffb 13       		.uleb128 0x13
 3065 0ffc 26060000 		.4byte	0x626
 3066 1000 1A       		.uleb128 0x1a
 3067 1001 43020000 		.4byte	.LASF95
 3068 1005 01       		.byte	0x1
 3069 1006 D3       		.byte	0xd3
 3070 1007 FB0F0000 		.4byte	0xffb
 3071 100b 05       		.uleb128 0x5
 3072 100c 03       		.byte	0x3
 3073 100d 00000000 		.4byte	test_001_002
 3074 1011 1B       		.uleb128 0x1b
 3075 1012 F4040000 		.4byte	.LASF96
 3076 1016 0D       		.byte	0xd
 3077 1017 9606     		.2byte	0x696
 3078 1019 1D100000 		.4byte	0x101d
 3079 101d 14       		.uleb128 0x14
 3080 101e 70000000 		.4byte	0x70
 3081 1022 1C       		.uleb128 0x1c
 3082 1023 636800   		.ascii	"ch\000"
 3083 1026 06       		.byte	0x6
 3084 1027 D201     		.2byte	0x1d2
 3085 1029 B0030000 		.4byte	0x3b0
 3086 102d 1D       		.uleb128 0x1d
 3087 102e 1D040000 		.4byte	.LASF97
 3088 1032 0C       		.byte	0xc
 3089 1033 9E       		.byte	0x9e
 3090 1034 37000000 		.4byte	0x37
 3091 1038 1E       		.uleb128 0x1e
ARM GAS  /tmp/ccXlDfva.s 			page 74


 3092 1039 48100000 		.4byte	0x1048
 3093 103d 48100000 		.4byte	0x1048
 3094 1041 1F       		.uleb128 0x1f
 3095 1042 09040000 		.4byte	0x409
 3096 1046 02       		.byte	0x2
 3097 1047 00       		.byte	0
 3098 1048 0A       		.uleb128 0xa
 3099 1049 04       		.byte	0x4
 3100 104a FB0F0000 		.4byte	0xffb
 3101 104e 20       		.uleb128 0x20
 3102 104f 11000000 		.4byte	.LASF98
 3103 1053 01       		.byte	0x1
 3104 1054 E1       		.byte	0xe1
 3105 1055 5F100000 		.4byte	0x105f
 3106 1059 05       		.uleb128 0x5
 3107 105a 03       		.byte	0x3
 3108 105b 00000000 		.4byte	test_sequence_001
 3109 105f 13       		.uleb128 0x13
 3110 1060 38100000 		.4byte	0x1038
 3111 1064 21       		.uleb128 0x21
 3112 1065 87010000 		.4byte	.LASF99
 3113 1069 0C       		.byte	0xc
 3114 106a AC       		.byte	0xac
 3115 106b 75100000 		.4byte	0x1075
 3116 106f 0D       		.uleb128 0xd
 3117 1070 AB050000 		.4byte	0x5ab
 3118 1074 00       		.byte	0
 3119 1075 21       		.uleb128 0x21
 3120 1076 09050000 		.4byte	.LASF100
 3121 107a 0C       		.byte	0xc
 3122 107b AB       		.byte	0xab
 3123 107c 86100000 		.4byte	0x1086
 3124 1080 0D       		.uleb128 0xd
 3125 1081 82000000 		.4byte	0x82
 3126 1085 00       		.byte	0
 3127 1086 22       		.uleb128 0x22
 3128 1087 FB000000 		.4byte	.LASF104
 3129 108b 0C       		.byte	0xc
 3130 108c AD       		.byte	0xad
 3131 108d 0D       		.uleb128 0xd
 3132 108e AB050000 		.4byte	0x5ab
 3133 1092 00       		.byte	0
 3134 1093 00       		.byte	0
 3135              		.section	.debug_abbrev,"",%progbits
 3136              	.Ldebug_abbrev0:
 3137 0000 01       		.uleb128 0x1
 3138 0001 11       		.uleb128 0x11
 3139 0002 01       		.byte	0x1
 3140 0003 25       		.uleb128 0x25
 3141 0004 0E       		.uleb128 0xe
 3142 0005 13       		.uleb128 0x13
 3143 0006 0B       		.uleb128 0xb
 3144 0007 03       		.uleb128 0x3
 3145 0008 0E       		.uleb128 0xe
 3146 0009 1B       		.uleb128 0x1b
 3147 000a 0E       		.uleb128 0xe
 3148 000b 55       		.uleb128 0x55
ARM GAS  /tmp/ccXlDfva.s 			page 75


 3149 000c 17       		.uleb128 0x17
 3150 000d 11       		.uleb128 0x11
 3151 000e 01       		.uleb128 0x1
 3152 000f 10       		.uleb128 0x10
 3153 0010 17       		.uleb128 0x17
 3154 0011 00       		.byte	0
 3155 0012 00       		.byte	0
 3156 0013 02       		.uleb128 0x2
 3157 0014 24       		.uleb128 0x24
 3158 0015 00       		.byte	0
 3159 0016 0B       		.uleb128 0xb
 3160 0017 0B       		.uleb128 0xb
 3161 0018 3E       		.uleb128 0x3e
 3162 0019 0B       		.uleb128 0xb
 3163 001a 03       		.uleb128 0x3
 3164 001b 08       		.uleb128 0x8
 3165 001c 00       		.byte	0
 3166 001d 00       		.byte	0
 3167 001e 03       		.uleb128 0x3
 3168 001f 16       		.uleb128 0x16
 3169 0020 00       		.byte	0
 3170 0021 03       		.uleb128 0x3
 3171 0022 0E       		.uleb128 0xe
 3172 0023 3A       		.uleb128 0x3a
 3173 0024 0B       		.uleb128 0xb
 3174 0025 3B       		.uleb128 0x3b
 3175 0026 0B       		.uleb128 0xb
 3176 0027 49       		.uleb128 0x49
 3177 0028 13       		.uleb128 0x13
 3178 0029 00       		.byte	0
 3179 002a 00       		.byte	0
 3180 002b 04       		.uleb128 0x4
 3181 002c 24       		.uleb128 0x24
 3182 002d 00       		.byte	0
 3183 002e 0B       		.uleb128 0xb
 3184 002f 0B       		.uleb128 0xb
 3185 0030 3E       		.uleb128 0x3e
 3186 0031 0B       		.uleb128 0xb
 3187 0032 03       		.uleb128 0x3
 3188 0033 0E       		.uleb128 0xe
 3189 0034 00       		.byte	0
 3190 0035 00       		.byte	0
 3191 0036 05       		.uleb128 0x5
 3192 0037 13       		.uleb128 0x13
 3193 0038 01       		.byte	0x1
 3194 0039 03       		.uleb128 0x3
 3195 003a 0E       		.uleb128 0xe
 3196 003b 0B       		.uleb128 0xb
 3197 003c 0B       		.uleb128 0xb
 3198 003d 3A       		.uleb128 0x3a
 3199 003e 0B       		.uleb128 0xb
 3200 003f 3B       		.uleb128 0x3b
 3201 0040 0B       		.uleb128 0xb
 3202 0041 01       		.uleb128 0x1
 3203 0042 13       		.uleb128 0x13
 3204 0043 00       		.byte	0
 3205 0044 00       		.byte	0
ARM GAS  /tmp/ccXlDfva.s 			page 76


 3206 0045 06       		.uleb128 0x6
 3207 0046 0D       		.uleb128 0xd
 3208 0047 00       		.byte	0
 3209 0048 03       		.uleb128 0x3
 3210 0049 0E       		.uleb128 0xe
 3211 004a 3A       		.uleb128 0x3a
 3212 004b 0B       		.uleb128 0xb
 3213 004c 3B       		.uleb128 0x3b
 3214 004d 0B       		.uleb128 0xb
 3215 004e 49       		.uleb128 0x49
 3216 004f 13       		.uleb128 0x13
 3217 0050 38       		.uleb128 0x38
 3218 0051 0B       		.uleb128 0xb
 3219 0052 00       		.byte	0
 3220 0053 00       		.byte	0
 3221 0054 07       		.uleb128 0x7
 3222 0055 0D       		.uleb128 0xd
 3223 0056 00       		.byte	0
 3224 0057 03       		.uleb128 0x3
 3225 0058 08       		.uleb128 0x8
 3226 0059 3A       		.uleb128 0x3a
 3227 005a 0B       		.uleb128 0xb
 3228 005b 3B       		.uleb128 0x3b
 3229 005c 0B       		.uleb128 0xb
 3230 005d 49       		.uleb128 0x49
 3231 005e 13       		.uleb128 0x13
 3232 005f 38       		.uleb128 0x38
 3233 0060 0B       		.uleb128 0xb
 3234 0061 00       		.byte	0
 3235 0062 00       		.byte	0
 3236 0063 08       		.uleb128 0x8
 3237 0064 0D       		.uleb128 0xd
 3238 0065 00       		.byte	0
 3239 0066 03       		.uleb128 0x3
 3240 0067 08       		.uleb128 0x8
 3241 0068 3A       		.uleb128 0x3a
 3242 0069 0B       		.uleb128 0xb
 3243 006a 3B       		.uleb128 0x3b
 3244 006b 05       		.uleb128 0x5
 3245 006c 49       		.uleb128 0x49
 3246 006d 13       		.uleb128 0x13
 3247 006e 38       		.uleb128 0x38
 3248 006f 0B       		.uleb128 0xb
 3249 0070 00       		.byte	0
 3250 0071 00       		.byte	0
 3251 0072 09       		.uleb128 0x9
 3252 0073 0D       		.uleb128 0xd
 3253 0074 00       		.byte	0
 3254 0075 03       		.uleb128 0x3
 3255 0076 0E       		.uleb128 0xe
 3256 0077 3A       		.uleb128 0x3a
 3257 0078 0B       		.uleb128 0xb
 3258 0079 3B       		.uleb128 0x3b
 3259 007a 05       		.uleb128 0x5
 3260 007b 49       		.uleb128 0x49
 3261 007c 13       		.uleb128 0x13
 3262 007d 38       		.uleb128 0x38
ARM GAS  /tmp/ccXlDfva.s 			page 77


 3263 007e 0B       		.uleb128 0xb
 3264 007f 00       		.byte	0
 3265 0080 00       		.byte	0
 3266 0081 0A       		.uleb128 0xa
 3267 0082 0F       		.uleb128 0xf
 3268 0083 00       		.byte	0
 3269 0084 0B       		.uleb128 0xb
 3270 0085 0B       		.uleb128 0xb
 3271 0086 49       		.uleb128 0x49
 3272 0087 13       		.uleb128 0x13
 3273 0088 00       		.byte	0
 3274 0089 00       		.byte	0
 3275 008a 0B       		.uleb128 0xb
 3276 008b 13       		.uleb128 0x13
 3277 008c 01       		.byte	0x1
 3278 008d 03       		.uleb128 0x3
 3279 008e 0E       		.uleb128 0xe
 3280 008f 0B       		.uleb128 0xb
 3281 0090 0B       		.uleb128 0xb
 3282 0091 3A       		.uleb128 0x3a
 3283 0092 0B       		.uleb128 0xb
 3284 0093 3B       		.uleb128 0x3b
 3285 0094 05       		.uleb128 0x5
 3286 0095 01       		.uleb128 0x1
 3287 0096 13       		.uleb128 0x13
 3288 0097 00       		.byte	0
 3289 0098 00       		.byte	0
 3290 0099 0C       		.uleb128 0xc
 3291 009a 15       		.uleb128 0x15
 3292 009b 01       		.byte	0x1
 3293 009c 27       		.uleb128 0x27
 3294 009d 19       		.uleb128 0x19
 3295 009e 01       		.uleb128 0x1
 3296 009f 13       		.uleb128 0x13
 3297 00a0 00       		.byte	0
 3298 00a1 00       		.byte	0
 3299 00a2 0D       		.uleb128 0xd
 3300 00a3 05       		.uleb128 0x5
 3301 00a4 00       		.byte	0
 3302 00a5 49       		.uleb128 0x49
 3303 00a6 13       		.uleb128 0x13
 3304 00a7 00       		.byte	0
 3305 00a8 00       		.byte	0
 3306 00a9 0E       		.uleb128 0xe
 3307 00aa 0F       		.uleb128 0xf
 3308 00ab 00       		.byte	0
 3309 00ac 0B       		.uleb128 0xb
 3310 00ad 0B       		.uleb128 0xb
 3311 00ae 00       		.byte	0
 3312 00af 00       		.byte	0
 3313 00b0 0F       		.uleb128 0xf
 3314 00b1 13       		.uleb128 0x13
 3315 00b2 01       		.byte	0x1
 3316 00b3 0B       		.uleb128 0xb
 3317 00b4 0B       		.uleb128 0xb
 3318 00b5 3A       		.uleb128 0x3a
 3319 00b6 0B       		.uleb128 0xb
ARM GAS  /tmp/ccXlDfva.s 			page 78


 3320 00b7 3B       		.uleb128 0x3b
 3321 00b8 0B       		.uleb128 0xb
 3322 00b9 01       		.uleb128 0x1
 3323 00ba 13       		.uleb128 0x13
 3324 00bb 00       		.byte	0
 3325 00bc 00       		.byte	0
 3326 00bd 10       		.uleb128 0x10
 3327 00be 17       		.uleb128 0x17
 3328 00bf 01       		.byte	0x1
 3329 00c0 0B       		.uleb128 0xb
 3330 00c1 0B       		.uleb128 0xb
 3331 00c2 3A       		.uleb128 0x3a
 3332 00c3 0B       		.uleb128 0xb
 3333 00c4 3B       		.uleb128 0x3b
 3334 00c5 0B       		.uleb128 0xb
 3335 00c6 01       		.uleb128 0x1
 3336 00c7 13       		.uleb128 0x13
 3337 00c8 00       		.byte	0
 3338 00c9 00       		.byte	0
 3339 00ca 11       		.uleb128 0x11
 3340 00cb 0D       		.uleb128 0xd
 3341 00cc 00       		.byte	0
 3342 00cd 03       		.uleb128 0x3
 3343 00ce 0E       		.uleb128 0xe
 3344 00cf 3A       		.uleb128 0x3a
 3345 00d0 0B       		.uleb128 0xb
 3346 00d1 3B       		.uleb128 0x3b
 3347 00d2 0B       		.uleb128 0xb
 3348 00d3 49       		.uleb128 0x49
 3349 00d4 13       		.uleb128 0x13
 3350 00d5 00       		.byte	0
 3351 00d6 00       		.byte	0
 3352 00d7 12       		.uleb128 0x12
 3353 00d8 0D       		.uleb128 0xd
 3354 00d9 00       		.byte	0
 3355 00da 03       		.uleb128 0x3
 3356 00db 0E       		.uleb128 0xe
 3357 00dc 3A       		.uleb128 0x3a
 3358 00dd 0B       		.uleb128 0xb
 3359 00de 3B       		.uleb128 0x3b
 3360 00df 05       		.uleb128 0x5
 3361 00e0 49       		.uleb128 0x49
 3362 00e1 13       		.uleb128 0x13
 3363 00e2 00       		.byte	0
 3364 00e3 00       		.byte	0
 3365 00e4 13       		.uleb128 0x13
 3366 00e5 26       		.uleb128 0x26
 3367 00e6 00       		.byte	0
 3368 00e7 49       		.uleb128 0x49
 3369 00e8 13       		.uleb128 0x13
 3370 00e9 00       		.byte	0
 3371 00ea 00       		.byte	0
 3372 00eb 14       		.uleb128 0x14
 3373 00ec 35       		.uleb128 0x35
 3374 00ed 00       		.byte	0
 3375 00ee 49       		.uleb128 0x49
 3376 00ef 13       		.uleb128 0x13
ARM GAS  /tmp/ccXlDfva.s 			page 79


 3377 00f0 00       		.byte	0
 3378 00f1 00       		.byte	0
 3379 00f2 15       		.uleb128 0x15
 3380 00f3 15       		.uleb128 0x15
 3381 00f4 00       		.byte	0
 3382 00f5 27       		.uleb128 0x27
 3383 00f6 19       		.uleb128 0x19
 3384 00f7 00       		.byte	0
 3385 00f8 00       		.byte	0
 3386 00f9 16       		.uleb128 0x16
 3387 00fa 2E       		.uleb128 0x2e
 3388 00fb 01       		.byte	0x1
 3389 00fc 03       		.uleb128 0x3
 3390 00fd 0E       		.uleb128 0xe
 3391 00fe 3A       		.uleb128 0x3a
 3392 00ff 0B       		.uleb128 0xb
 3393 0100 3B       		.uleb128 0x3b
 3394 0101 0B       		.uleb128 0xb
 3395 0102 27       		.uleb128 0x27
 3396 0103 19       		.uleb128 0x19
 3397 0104 11       		.uleb128 0x11
 3398 0105 01       		.uleb128 0x1
 3399 0106 12       		.uleb128 0x12
 3400 0107 06       		.uleb128 0x6
 3401 0108 40       		.uleb128 0x40
 3402 0109 18       		.uleb128 0x18
 3403 010a 9742     		.uleb128 0x2117
 3404 010c 19       		.uleb128 0x19
 3405 010d 01       		.uleb128 0x1
 3406 010e 13       		.uleb128 0x13
 3407 010f 00       		.byte	0
 3408 0110 00       		.byte	0
 3409 0111 17       		.uleb128 0x17
 3410 0112 898201   		.uleb128 0x4109
 3411 0115 01       		.byte	0x1
 3412 0116 11       		.uleb128 0x11
 3413 0117 01       		.uleb128 0x1
 3414 0118 31       		.uleb128 0x31
 3415 0119 13       		.uleb128 0x13
 3416 011a 01       		.uleb128 0x1
 3417 011b 13       		.uleb128 0x13
 3418 011c 00       		.byte	0
 3419 011d 00       		.byte	0
 3420 011e 18       		.uleb128 0x18
 3421 011f 8A8201   		.uleb128 0x410a
 3422 0122 00       		.byte	0
 3423 0123 02       		.uleb128 0x2
 3424 0124 18       		.uleb128 0x18
 3425 0125 9142     		.uleb128 0x2111
 3426 0127 18       		.uleb128 0x18
 3427 0128 00       		.byte	0
 3428 0129 00       		.byte	0
 3429 012a 19       		.uleb128 0x19
 3430 012b 898201   		.uleb128 0x4109
 3431 012e 01       		.byte	0x1
 3432 012f 11       		.uleb128 0x11
 3433 0130 01       		.uleb128 0x1
ARM GAS  /tmp/ccXlDfva.s 			page 80


 3434 0131 9542     		.uleb128 0x2115
 3435 0133 19       		.uleb128 0x19
 3436 0134 31       		.uleb128 0x31
 3437 0135 13       		.uleb128 0x13
 3438 0136 00       		.byte	0
 3439 0137 00       		.byte	0
 3440 0138 1A       		.uleb128 0x1a
 3441 0139 34       		.uleb128 0x34
 3442 013a 00       		.byte	0
 3443 013b 03       		.uleb128 0x3
 3444 013c 0E       		.uleb128 0xe
 3445 013d 3A       		.uleb128 0x3a
 3446 013e 0B       		.uleb128 0xb
 3447 013f 3B       		.uleb128 0x3b
 3448 0140 0B       		.uleb128 0xb
 3449 0141 49       		.uleb128 0x49
 3450 0142 13       		.uleb128 0x13
 3451 0143 02       		.uleb128 0x2
 3452 0144 18       		.uleb128 0x18
 3453 0145 00       		.byte	0
 3454 0146 00       		.byte	0
 3455 0147 1B       		.uleb128 0x1b
 3456 0148 34       		.uleb128 0x34
 3457 0149 00       		.byte	0
 3458 014a 03       		.uleb128 0x3
 3459 014b 0E       		.uleb128 0xe
 3460 014c 3A       		.uleb128 0x3a
 3461 014d 0B       		.uleb128 0xb
 3462 014e 3B       		.uleb128 0x3b
 3463 014f 05       		.uleb128 0x5
 3464 0150 49       		.uleb128 0x49
 3465 0151 13       		.uleb128 0x13
 3466 0152 3F       		.uleb128 0x3f
 3467 0153 19       		.uleb128 0x19
 3468 0154 3C       		.uleb128 0x3c
 3469 0155 19       		.uleb128 0x19
 3470 0156 00       		.byte	0
 3471 0157 00       		.byte	0
 3472 0158 1C       		.uleb128 0x1c
 3473 0159 34       		.uleb128 0x34
 3474 015a 00       		.byte	0
 3475 015b 03       		.uleb128 0x3
 3476 015c 08       		.uleb128 0x8
 3477 015d 3A       		.uleb128 0x3a
 3478 015e 0B       		.uleb128 0xb
 3479 015f 3B       		.uleb128 0x3b
 3480 0160 05       		.uleb128 0x5
 3481 0161 49       		.uleb128 0x49
 3482 0162 13       		.uleb128 0x13
 3483 0163 3F       		.uleb128 0x3f
 3484 0164 19       		.uleb128 0x19
 3485 0165 3C       		.uleb128 0x3c
 3486 0166 19       		.uleb128 0x19
 3487 0167 00       		.byte	0
 3488 0168 00       		.byte	0
 3489 0169 1D       		.uleb128 0x1d
 3490 016a 34       		.uleb128 0x34
ARM GAS  /tmp/ccXlDfva.s 			page 81


 3491 016b 00       		.byte	0
 3492 016c 03       		.uleb128 0x3
 3493 016d 0E       		.uleb128 0xe
 3494 016e 3A       		.uleb128 0x3a
 3495 016f 0B       		.uleb128 0xb
 3496 0170 3B       		.uleb128 0x3b
 3497 0171 0B       		.uleb128 0xb
 3498 0172 49       		.uleb128 0x49
 3499 0173 13       		.uleb128 0x13
 3500 0174 3F       		.uleb128 0x3f
 3501 0175 19       		.uleb128 0x19
 3502 0176 3C       		.uleb128 0x3c
 3503 0177 19       		.uleb128 0x19
 3504 0178 00       		.byte	0
 3505 0179 00       		.byte	0
 3506 017a 1E       		.uleb128 0x1e
 3507 017b 01       		.uleb128 0x1
 3508 017c 01       		.byte	0x1
 3509 017d 49       		.uleb128 0x49
 3510 017e 13       		.uleb128 0x13
 3511 017f 01       		.uleb128 0x1
 3512 0180 13       		.uleb128 0x13
 3513 0181 00       		.byte	0
 3514 0182 00       		.byte	0
 3515 0183 1F       		.uleb128 0x1f
 3516 0184 21       		.uleb128 0x21
 3517 0185 00       		.byte	0
 3518 0186 49       		.uleb128 0x49
 3519 0187 13       		.uleb128 0x13
 3520 0188 2F       		.uleb128 0x2f
 3521 0189 0B       		.uleb128 0xb
 3522 018a 00       		.byte	0
 3523 018b 00       		.byte	0
 3524 018c 20       		.uleb128 0x20
 3525 018d 34       		.uleb128 0x34
 3526 018e 00       		.byte	0
 3527 018f 03       		.uleb128 0x3
 3528 0190 0E       		.uleb128 0xe
 3529 0191 3A       		.uleb128 0x3a
 3530 0192 0B       		.uleb128 0xb
 3531 0193 3B       		.uleb128 0x3b
 3532 0194 0B       		.uleb128 0xb
 3533 0195 49       		.uleb128 0x49
 3534 0196 13       		.uleb128 0x13
 3535 0197 3F       		.uleb128 0x3f
 3536 0198 19       		.uleb128 0x19
 3537 0199 02       		.uleb128 0x2
 3538 019a 18       		.uleb128 0x18
 3539 019b 00       		.byte	0
 3540 019c 00       		.byte	0
 3541 019d 21       		.uleb128 0x21
 3542 019e 2E       		.uleb128 0x2e
 3543 019f 01       		.byte	0x1
 3544 01a0 3F       		.uleb128 0x3f
 3545 01a1 19       		.uleb128 0x19
 3546 01a2 03       		.uleb128 0x3
 3547 01a3 0E       		.uleb128 0xe
ARM GAS  /tmp/ccXlDfva.s 			page 82


 3548 01a4 3A       		.uleb128 0x3a
 3549 01a5 0B       		.uleb128 0xb
 3550 01a6 3B       		.uleb128 0x3b
 3551 01a7 0B       		.uleb128 0xb
 3552 01a8 27       		.uleb128 0x27
 3553 01a9 19       		.uleb128 0x19
 3554 01aa 3C       		.uleb128 0x3c
 3555 01ab 19       		.uleb128 0x19
 3556 01ac 01       		.uleb128 0x1
 3557 01ad 13       		.uleb128 0x13
 3558 01ae 00       		.byte	0
 3559 01af 00       		.byte	0
 3560 01b0 22       		.uleb128 0x22
 3561 01b1 2E       		.uleb128 0x2e
 3562 01b2 01       		.byte	0x1
 3563 01b3 3F       		.uleb128 0x3f
 3564 01b4 19       		.uleb128 0x19
 3565 01b5 03       		.uleb128 0x3
 3566 01b6 0E       		.uleb128 0xe
 3567 01b7 3A       		.uleb128 0x3a
 3568 01b8 0B       		.uleb128 0xb
 3569 01b9 3B       		.uleb128 0x3b
 3570 01ba 0B       		.uleb128 0xb
 3571 01bb 27       		.uleb128 0x27
 3572 01bc 19       		.uleb128 0x19
 3573 01bd 3C       		.uleb128 0x3c
 3574 01be 19       		.uleb128 0x19
 3575 01bf 00       		.byte	0
 3576 01c0 00       		.byte	0
 3577 01c1 00       		.byte	0
 3578              		.section	.debug_aranges,"",%progbits
 3579 0000 24000000 		.4byte	0x24
 3580 0004 0200     		.2byte	0x2
 3581 0006 00000000 		.4byte	.Ldebug_info0
 3582 000a 04       		.byte	0x4
 3583 000b 00       		.byte	0
 3584 000c 0000     		.2byte	0
 3585 000e 0000     		.2byte	0
 3586 0010 00000000 		.4byte	.LFB218
 3587 0014 4C030000 		.4byte	.LFE218-.LFB218
 3588 0018 00000000 		.4byte	.LFB217
 3589 001c 9E000000 		.4byte	.LFE217-.LFB217
 3590 0020 00000000 		.4byte	0
 3591 0024 00000000 		.4byte	0
 3592              		.section	.debug_ranges,"",%progbits
 3593              	.Ldebug_ranges0:
 3594 0000 00000000 		.4byte	.LFB218
 3595 0004 4C030000 		.4byte	.LFE218
 3596 0008 00000000 		.4byte	.LFB217
 3597 000c 9E000000 		.4byte	.LFE217
 3598 0010 00000000 		.4byte	0
 3599 0014 00000000 		.4byte	0
 3600              		.section	.debug_line,"",%progbits
 3601              	.Ldebug_line0:
 3602 0000 DD020000 		.section	.debug_str,"MS",%progbits,1
 3602      02003302 
 3602      00000201 
ARM GAS  /tmp/ccXlDfva.s 			page 83


 3602      FB0E0D00 
 3602      01010101 
 3603              	.LASF24:
 3604 0000 74687265 		.ascii	"thread_t\000"
 3604      61645F74 
 3604      00
 3605              	.LASF18:
 3606 0009 74726566 		.ascii	"trefs_t\000"
 3606      735F7400 
 3607              	.LASF98:
 3608 0011 74657374 		.ascii	"test_sequence_001\000"
 3608      5F736571 
 3608      75656E63 
 3608      655F3030 
 3608      3100
 3609              	.LASF60:
 3610 0023 63685F73 		.ascii	"ch_system_debug\000"
 3610      79737465 
 3610      6D5F6465 
 3610      62756700 
 3611              	.LASF36:
 3612 0033 6570656E 		.ascii	"epending\000"
 3612      64696E67 
 3612      00
 3613              	.LASF31:
 3614 003c 73746174 		.ascii	"state\000"
 3614      6500
 3615              	.LASF13:
 3616 0042 75696E74 		.ascii	"uint64_t\000"
 3616      36345F74 
 3616      00
 3617              	.LASF66:
 3618 004b 6D61696E 		.ascii	"mainthread\000"
 3618      74687265 
 3618      616400
 3619              	.LASF5:
 3620 0056 73686F72 		.ascii	"short int\000"
 3620      7420696E 
 3620      7400
 3621              	.LASF2:
 3622 0060 73697A65 		.ascii	"size_t\000"
 3622      5F7400
 3623              	.LASF103:
 3624 0067 2F686F6D 		.ascii	"/home/alex/Embebidos Proyecto/ChibiOS_17.6.1/demos/"
 3624      652F616C 
 3624      65782F45 
 3624      6D626562 
 3624      69646F73 
 3625 009a 53544D33 		.ascii	"STM32/RT-STM32F100-DISCOVERY\000"
 3625      322F5254 
 3625      2D53544D 
 3625      33324631 
 3625      30302D44 
 3626              	.LASF67:
 3627 00b7 73697A65 		.ascii	"sizetype\000"
 3627      74797065 
 3627      00
ARM GAS  /tmp/ccXlDfva.s 			page 84


 3628              	.LASF59:
 3629 00c0 73797374 		.ascii	"system_debug_t\000"
 3629      656D5F64 
 3629      65627567 
 3629      5F7400
 3630              	.LASF14:
 3631 00cf 6C6F6E67 		.ascii	"long long unsigned int\000"
 3631      206C6F6E 
 3631      6720756E 
 3631      7369676E 
 3631      65642069 
 3632              	.LASF93:
 3633 00e6 74657374 		.ascii	"test_001_001_execute\000"
 3633      5F303031 
 3633      5F303031 
 3633      5F657865 
 3633      63757465 
 3634              	.LASF104:
 3635 00fb 74657374 		.ascii	"test_println\000"
 3635      5F707269 
 3635      6E746C6E 
 3635      00
 3636              	.LASF21:
 3637 0108 6576656E 		.ascii	"eventmask_t\000"
 3637      746D6173 
 3637      6B5F7400 
 3638              	.LASF16:
 3639 0114 746D6F64 		.ascii	"tmode_t\000"
 3639      655F7400 
 3640              	.LASF92:
 3641 011c 74657374 		.ascii	"test_001_002_execute\000"
 3641      5F303031 
 3641      5F303032 
 3641      5F657865 
 3641      63757465 
 3642              	.LASF15:
 3643 0131 7274636E 		.ascii	"rtcnt_t\000"
 3643      745F7400 
 3644              	.LASF73:
 3645 0139 746D5F63 		.ascii	"tm_calibration_t\000"
 3645      616C6962 
 3645      72617469 
 3645      6F6E5F74 
 3645      00
 3646              	.LASF62:
 3647 014a 63685F73 		.ascii	"ch_system_t\000"
 3647      79737465 
 3647      6D5F7400 
 3648              	.LASF35:
 3649 0156 6D736771 		.ascii	"msgqueue\000"
 3649      75657565 
 3649      00
 3650              	.LASF68:
 3651 015f 72656761 		.ascii	"regarm_t\000"
 3651      726D5F74 
 3651      00
 3652              	.LASF54:
ARM GAS  /tmp/ccXlDfva.s 			page 85


 3653 0168 64656C74 		.ascii	"delta\000"
 3653      6100
 3654              	.LASF3:
 3655 016e 75696E74 		.ascii	"uint8_t\000"
 3655      385F7400 
 3656              	.LASF46:
 3657 0176 63685F74 		.ascii	"ch_threads_queue\000"
 3657      68726561 
 3657      64735F71 
 3657      75657565 
 3657      00
 3658              	.LASF99:
 3659 0187 74657374 		.ascii	"test_print\000"
 3659      5F707269 
 3659      6E7400
 3660              	.LASF10:
 3661 0192 75696E74 		.ascii	"uint32_t\000"
 3661      33325F74 
 3661      00
 3662              	.LASF42:
 3663 019b 63685F74 		.ascii	"ch_thread\000"
 3663      68726561 
 3663      6400
 3664              	.LASF28:
 3665 01a5 6F6C6465 		.ascii	"older\000"
 3665      7200
 3666              	.LASF30:
 3667 01ab 77616261 		.ascii	"wabase\000"
 3667      736500
 3668              	.LASF88:
 3669 01b2 73657475 		.ascii	"setup\000"
 3669      7000
 3670              	.LASF55:
 3671 01b8 66756E63 		.ascii	"func\000"
 3671      00
 3672              	.LASF12:
 3673 01bd 6C6F6E67 		.ascii	"long long int\000"
 3673      206C6F6E 
 3673      6720696E 
 3673      7400
 3674              	.LASF79:
 3675 01cb 77747365 		.ascii	"wtsemp\000"
 3675      6D7000
 3676              	.LASF19:
 3677 01d2 74707269 		.ascii	"tprio_t\000"
 3677      6F5F7400 
 3678              	.LASF9:
 3679 01da 6C6F6E67 		.ascii	"long int\000"
 3679      20696E74 
 3679      00
 3680              	.LASF63:
 3681 01e3 63685F73 		.ascii	"ch_system\000"
 3681      79737465 
 3681      6D00
 3682              	.LASF72:
 3683 01ed 6F666673 		.ascii	"offset\000"
 3683      657400
ARM GAS  /tmp/ccXlDfva.s 			page 86


 3684              	.LASF52:
 3685 01f4 76697274 		.ascii	"virtual_timer_t\000"
 3685      75616C5F 
 3685      74696D65 
 3685      725F7400 
 3686              	.LASF78:
 3687 0204 73656E74 		.ascii	"sentmsg\000"
 3687      6D736700 
 3688              	.LASF43:
 3689 020c 63685F74 		.ascii	"ch_threads_list\000"
 3689      68726561 
 3689      64735F6C 
 3689      69737400 
 3690              	.LASF89:
 3691 021c 74656172 		.ascii	"teardown\000"
 3691      646F776E 
 3691      00
 3692              	.LASF27:
 3693 0225 6E657765 		.ascii	"newer\000"
 3693      7200
 3694              	.LASF25:
 3695 022b 71756575 		.ascii	"queue\000"
 3695      6500
 3696              	.LASF29:
 3697 0231 6E616D65 		.ascii	"name\000"
 3697      00
 3698              	.LASF94:
 3699 0236 74657374 		.ascii	"test_001_001\000"
 3699      5F303031 
 3699      5F303031 
 3699      00
 3700              	.LASF95:
 3701 0243 74657374 		.ascii	"test_001_002\000"
 3701      5F303031 
 3701      5F303032 
 3701      00
 3702              	.LASF4:
 3703 0250 756E7369 		.ascii	"unsigned char\000"
 3703      676E6564 
 3703      20636861 
 3703      7200
 3704              	.LASF84:
 3705 025e 6F776E65 		.ascii	"owner\000"
 3705      7200
 3706              	.LASF101:
 3707 0264 474E5520 		.ascii	"GNU C 4.8.1 -mcpu=cortex-m3 -mno-thumb-interwork -m"
 3707      4320342E 
 3707      382E3120 
 3707      2D6D6370 
 3707      753D636F 
 3708 0297 7468756D 		.ascii	"thumb -ggdb -O2 -fomit-frame-pointer -falign-functi"
 3708      62202D67 
 3708      67646220 
 3708      2D4F3220 
 3708      2D666F6D 
 3709 02ca 6F6E733D 		.ascii	"ons=16 -ffunction-sections -fdata-sections -fno-com"
 3709      3136202D 
ARM GAS  /tmp/ccXlDfva.s 			page 87


 3709      6666756E 
 3709      6374696F 
 3709      6E2D7365 
 3710 02fd 6D6F6E20 		.ascii	"mon -flto\000"
 3710      2D666C74 
 3710      6F00
 3711              	.LASF81:
 3712 0307 65776D61 		.ascii	"ewmask\000"
 3712      736B00
 3713              	.LASF47:
 3714 030e 70726576 		.ascii	"prev\000"
 3714      00
 3715              	.LASF1:
 3716 0313 7369676E 		.ascii	"signed char\000"
 3716      65642063 
 3716      68617200 
 3717              	.LASF32:
 3718 031f 666C6167 		.ascii	"flags\000"
 3718      7300
 3719              	.LASF83:
 3720 0325 63685F6D 		.ascii	"ch_mutex\000"
 3720      75746578 
 3720      00
 3721              	.LASF0:
 3722 032e 756E7369 		.ascii	"unsigned int\000"
 3722      676E6564 
 3722      20696E74 
 3722      00
 3723              	.LASF57:
 3724 033b 63685F76 		.ascii	"ch_virtual_timers_list\000"
 3724      69727475 
 3724      616C5F74 
 3724      696D6572 
 3724      735F6C69 
 3725              	.LASF6:
 3726 0352 75696E74 		.ascii	"uint16_t\000"
 3726      31365F74 
 3726      00
 3727              	.LASF56:
 3728 035b 76697274 		.ascii	"virtual_timers_list_t\000"
 3728      75616C5F 
 3728      74696D65 
 3728      72735F6C 
 3728      6973745F 
 3729              	.LASF45:
 3730 0371 74687265 		.ascii	"threads_queue_t\000"
 3730      6164735F 
 3730      71756575 
 3730      655F7400 
 3731              	.LASF7:
 3732 0381 73686F72 		.ascii	"short unsigned int\000"
 3732      7420756E 
 3732      7369676E 
 3732      65642069 
 3732      6E7400
 3733              	.LASF23:
 3734 0394 73797374 		.ascii	"systime_t\000"
ARM GAS  /tmp/ccXlDfva.s 			page 88


 3734      696D655F 
 3734      7400
 3735              	.LASF64:
 3736 039e 726C6973 		.ascii	"rlist\000"
 3736      7400
 3737              	.LASF85:
 3738 03a4 63686172 		.ascii	"char\000"
 3738      00
 3739              	.LASF86:
 3740 03a9 6D757465 		.ascii	"mutex_t\000"
 3740      785F7400 
 3741              	.LASF53:
 3742 03b1 63685F76 		.ascii	"ch_virtual_timer\000"
 3742      69727475 
 3742      616C5F74 
 3742      696D6572 
 3742      00
 3743              	.LASF8:
 3744 03c2 696E7433 		.ascii	"int32_t\000"
 3744      325F7400 
 3745              	.LASF22:
 3746 03ca 636E745F 		.ascii	"cnt_t\000"
 3746      7400
 3747              	.LASF38:
 3748 03d0 7265616C 		.ascii	"realprio\000"
 3748      7072696F 
 3748      00
 3749              	.LASF70:
 3750 03d9 706F7274 		.ascii	"port_context\000"
 3750      5F636F6E 
 3750      74657874 
 3750      00
 3751              	.LASF87:
 3752 03e6 5F426F6F 		.ascii	"_Bool\000"
 3752      6C00
 3753              	.LASF102:
 3754 03ec 2E2E2F2E 		.ascii	"../../../test/rt/source/test/test_sequence_001.c\000"
 3754      2E2F2E2E 
 3754      2F746573 
 3754      742F7274 
 3754      2F736F75 
 3755              	.LASF97:
 3756 041d 74657374 		.ascii	"test_step\000"
 3756      5F737465 
 3756      7000
 3757              	.LASF58:
 3758 0427 6C617374 		.ascii	"lasttime\000"
 3758      74696D65 
 3758      00
 3759              	.LASF11:
 3760 0430 6C6F6E67 		.ascii	"long unsigned int\000"
 3760      20756E73 
 3760      69676E65 
 3760      6420696E 
 3760      7400
 3761              	.LASF61:
 3762 0442 70616E69 		.ascii	"panic_msg\000"
ARM GAS  /tmp/ccXlDfva.s 			page 89


 3762      635F6D73 
 3762      6700
 3763              	.LASF77:
 3764 044c 77747472 		.ascii	"wttrp\000"
 3764      7000
 3765              	.LASF82:
 3766 0452 63685F73 		.ascii	"ch_semaphore\000"
 3766      656D6170 
 3766      686F7265 
 3766      00
 3767              	.LASF71:
 3768 045f 706F7274 		.ascii	"port_intctx\000"
 3768      5F696E74 
 3768      63747800 
 3769              	.LASF40:
 3770 046b 74687265 		.ascii	"thread_reference_t\000"
 3770      61645F72 
 3770      65666572 
 3770      656E6365 
 3770      5F7400
 3771              	.LASF76:
 3772 047e 77746F62 		.ascii	"wtobjp\000"
 3772      6A7000
 3773              	.LASF17:
 3774 0485 74737461 		.ascii	"tstate_t\000"
 3774      74655F74 
 3774      00
 3775              	.LASF69:
 3776 048e 73746B61 		.ascii	"stkalign_t\000"
 3776      6C69676E 
 3776      5F7400
 3777              	.LASF75:
 3778 0499 65786974 		.ascii	"exitcode\000"
 3778      636F6465 
 3778      00
 3779              	.LASF39:
 3780 04a2 6D706F6F 		.ascii	"mpool\000"
 3780      6C00
 3781              	.LASF51:
 3782 04a8 76746675 		.ascii	"vtfunc_t\000"
 3782      6E635F74 
 3782      00
 3783              	.LASF48:
 3784 04b1 72656164 		.ascii	"ready_list_t\000"
 3784      795F6C69 
 3784      73745F74 
 3784      00
 3785              	.LASF91:
 3786 04be 74657374 		.ascii	"testcase_t\000"
 3786      63617365 
 3786      5F7400
 3787              	.LASF90:
 3788 04c9 65786563 		.ascii	"execute\000"
 3788      75746500 
 3789              	.LASF50:
 3790 04d1 63757272 		.ascii	"current\000"
 3790      656E7400 
ARM GAS  /tmp/ccXlDfva.s 			page 90


 3791              	.LASF33:
 3792 04d9 72656673 		.ascii	"refs\000"
 3792      00
 3793              	.LASF34:
 3794 04de 77616974 		.ascii	"waiting\000"
 3794      696E6700 
 3795              	.LASF49:
 3796 04e6 63685F72 		.ascii	"ch_ready_list\000"
 3796      65616479 
 3796      5F6C6973 
 3796      7400
 3797              	.LASF96:
 3798 04f4 49544D5F 		.ascii	"ITM_RxBuffer\000"
 3798      52784275 
 3798      66666572 
 3798      00
 3799              	.LASF37:
 3800 0501 6D74786C 		.ascii	"mtxlist\000"
 3800      69737400 
 3801              	.LASF100:
 3802 0509 74657374 		.ascii	"test_printn\000"
 3802      5F707269 
 3802      6E746E00 
 3803              	.LASF74:
 3804 0515 7264796D 		.ascii	"rdymsg\000"
 3804      736700
 3805              	.LASF65:
 3806 051c 76746C69 		.ascii	"vtlist\000"
 3806      737400
 3807              	.LASF20:
 3808 0523 6D73675F 		.ascii	"msg_t\000"
 3808      7400
 3809              	.LASF26:
 3810 0529 7072696F 		.ascii	"prio\000"
 3810      00
 3811              	.LASF44:
 3812 052e 6E657874 		.ascii	"next\000"
 3812      00
 3813              	.LASF80:
 3814 0533 77746D74 		.ascii	"wtmtxp\000"
 3814      787000
 3815              	.LASF41:
 3816 053a 74687265 		.ascii	"threads_list_t\000"
 3816      6164735F 
 3816      6C697374 
 3816      5F7400
 3817              		.comm	__gnu_lto_v1,1,1
 3818              		.ident	"GCC: (Sourcery CodeBench Lite 2013.11-24) 4.8.1"
ARM GAS  /tmp/ccXlDfva.s 			page 91


DEFINED SYMBOLS
                            *ABS*:00000000 test_sequence_001.c
     /tmp/ccXlDfva.s:284    .text.test_001_002_execute:00000000 $t
     /tmp/ccXlDfva.s:289    .text.test_001_002_execute:00000000 test_001_002_execute
     /tmp/ccXlDfva.s:894    .rodata.str1.4:00000000 .LC0
     /tmp/ccXlDfva.s:896    .rodata.str1.4:00000020 .LC1
     /tmp/ccXlDfva.s:899    .rodata.str1.4:00000024 .LC2
     /tmp/ccXlDfva.s:901    .rodata.str1.4:00000044 .LC3
     /tmp/ccXlDfva.s:903    .rodata.str1.4:00000064 .LC4
     /tmp/ccXlDfva.s:905    .rodata.str1.4:00000084 .LC5
     /tmp/ccXlDfva.s:907    .rodata.str1.4:000000a4 .LC6
     /tmp/ccXlDfva.s:909    .rodata.str1.4:000000c4 .LC7
     /tmp/ccXlDfva.s:911    .rodata.str1.4:000000e4 .LC8
     /tmp/ccXlDfva.s:913    .rodata.str1.4:00000104 .LC9
     /tmp/ccXlDfva.s:915    .rodata.str1.4:00000124 .LC10
     /tmp/ccXlDfva.s:917    .rodata.str1.4:00000144 .LC11
     /tmp/ccXlDfva.s:919    .rodata.str1.4:00000164 .LC12
     /tmp/ccXlDfva.s:921    .rodata.str1.4:00000184 .LC13
     /tmp/ccXlDfva.s:923    .rodata.str1.4:000001a4 .LC14
     /tmp/ccXlDfva.s:925    .rodata.str1.4:000001c4 .LC15
     /tmp/ccXlDfva.s:927    .rodata.str1.4:000001e4 .LC16
     /tmp/ccXlDfva.s:929    .rodata.str1.4:00000204 .LC17
     /tmp/ccXlDfva.s:931    .rodata.str1.4:00000224 .LC18
     /tmp/ccXlDfva.s:933    .rodata.str1.4:00000244 .LC19
     /tmp/ccXlDfva.s:935    .rodata.str1.4:00000264 .LC20
     /tmp/ccXlDfva.s:937    .rodata.str1.4:00000284 .LC21
     /tmp/ccXlDfva.s:939    .rodata.str1.4:000002a4 .LC22
     /tmp/ccXlDfva.s:941    .rodata.str1.4:000002c4 .LC23
     /tmp/ccXlDfva.s:943    .rodata.str1.4:000002e4 .LC24
     /tmp/ccXlDfva.s:945    .rodata.str1.4:00000304 .LC25
     /tmp/ccXlDfva.s:947    .rodata.str1.4:00000324 .LC26
     /tmp/ccXlDfva.s:949    .rodata.str1.4:00000344 .LC27
     /tmp/ccXlDfva.s:951    .rodata.str1.4:00000364 .LC28
     /tmp/ccXlDfva.s:953    .rodata.str1.4:00000384 .LC29
     /tmp/ccXlDfva.s:955    .rodata.str1.4:000003a4 .LC30
     /tmp/ccXlDfva.s:957    .rodata.str1.4:000003c4 .LC31
     /tmp/ccXlDfva.s:959    .rodata.str1.4:000003e4 .LC32
     /tmp/ccXlDfva.s:961    .rodata.str1.4:00000404 .LC33
     /tmp/ccXlDfva.s:963    .rodata.str1.4:00000424 .LC34
     /tmp/ccXlDfva.s:763    .text.test_001_001_execute:00000000 $t
     /tmp/ccXlDfva.s:768    .text.test_001_001_execute:00000000 test_001_001_execute
     /tmp/ccXlDfva.s:965    .rodata.str1.4:00000444 .LC35
     /tmp/ccXlDfva.s:968    .rodata.str1.4:00000470 .LC36
     /tmp/ccXlDfva.s:970    .rodata.str1.4:00000490 .LC37
     /tmp/ccXlDfva.s:972    .rodata.str1.4:000004b0 .LC38
     /tmp/ccXlDfva.s:975    .rodata.str1.4:000004b8 .LC39
     /tmp/ccXlDfva.s:977    .rodata.str1.4:000004d8 .LC40
     /tmp/ccXlDfva.s:979    .rodata.str1.4:000004f8 .LC41
     /tmp/ccXlDfva.s:870    .rodata.test_sequence_001:00000000 test_sequence_001
     /tmp/ccXlDfva.s:867    .rodata.test_sequence_001:00000000 $d
     /tmp/ccXlDfva.s:878    .rodata.test_001_001:00000000 test_001_001
     /tmp/ccXlDfva.s:887    .rodata.test_001_002:00000000 test_001_002
     /tmp/ccXlDfva.s:875    .rodata.test_001_001:00000000 $d
     /tmp/ccXlDfva.s:884    .rodata.test_001_002:00000000 $d
     /tmp/ccXlDfva.s:893    .rodata.str1.4:00000000 $d
                            *COM*:00000001 __gnu_lto_v1
                     .debug_frame:00000010 $d
ARM GAS  /tmp/ccXlDfva.s 			page 92



UNDEFINED SYMBOLS
test_step
test_print
test_printn
test_println
