ARM GAS  /tmp/ccMtk9eq.s 			page 1


   1              		.syntax unified
   2              		.cpu cortex-m3
   3              		.fpu softvfp
   4              		.eabi_attribute 20, 1
   5              		.eabi_attribute 21, 1
   6              		.eabi_attribute 23, 3
   7              		.eabi_attribute 24, 1
   8              		.eabi_attribute 25, 1
   9              		.eabi_attribute 26, 1
  10              		.eabi_attribute 30, 2
  11              		.eabi_attribute 34, 1
  12              		.eabi_attribute 18, 4
  13              		.thumb
  14              		.file	"test_sequence_004.c"
  15              		.text
  16              	.Ltext0:
  17              		.section	.gnu.lto_.jmpfuncs.5db50581e9f490a9,"",%progbits
  18 0000 789C6362 		.ascii	"x\234cb`b\300\006L\031\031\030,\2014\013\003\003\023"
  18      6062C006 
  18      4C191918 
  18      2C81340B 
  18      030313
  19 0013 2390CDC0 		.ascii	"#\220\315\300\304T\315\360\253\241\243A \223\221!\227"
  19      C454CDF0 
  19      ABA1A341 
  19      20939121 
  19      97
  20 0024 11AC8629 		.ascii	"\021\254\206)\2021\023,\307\214[\232i\202\037X\036\310"
  20      8231132C 
  20      C78C5B9A 
  20      69821F58 
  20      1EC8
  21 0036 05299801 		.ascii	"\005)\230\001R\300,\307\3008\267a\206C&#\013D!\262$"
  21      52C02CC7 
  21      C038B761 
  21      86432623 
  21      0B4421B2 
  22 004b AB1C8328 		.ascii	"\253\034\203(D\222\015S\222]\216A\036\"\311\001\226"
  22      44920D53 
  22      925D8E41 
  22      1E22C901 
  22      96
  23 005c 6425208F 		.ascii	"d% \217\337d\\N\376\377\237\031b4\210\307y\202\011\356"
  23      DF645C4E 
  23      FEFF9F19 
  23      623488C7 
  23      798209EE 
  24 0070 7AB05AAE 		.ascii	"z\260Z\256d\250Z\270\301\334r\014\346\020\203y \201"
  24      64A85AB8 
  24      C1DC720C 
  24      E6108379 
  24      2081
  25 0082 279C5F5A 		.ascii	"'\234_Z\242\220\237\246P\222\231\233\252P\236\231\227"
  25      A2909FA6 
  25      5092999B 
  25      AA509E99 
  25      97
ARM GAS  /tmp/ccMtk9eq.s 			page 2


  26 0093 925FCEC0 		.ascii	"\222_\316\300\231\227_\242\340\027\352\343\303 ^^\224"
  26      99975FA2 
  26      E017EAE3 
  26      C3205E5E 
  26      94
  27 00a4 9F97AE50 		.ascii	"\237\227\256P\224ZRZ\224\227\232\242\220\233Z\\\234"
  27      945A525A 
  27      94979AA2 
  27      909B5A5C 
  27      9C
  28 00b5 989ECAC0 		.ascii	"\230\236\312\300\344\310\000\000\210wN\310"
  28      E4C80000 
  28      88774EC8 
  29              		.text
  30              		.section	.gnu.lto_.inline.5db50581e9f490a9,"",%progbits
  31 0000 789C6362 		.ascii	"x\234cb`b\300\0066Ai\026 bfd`b\272\300\317\300\266@"
  31      6062C006 
  31      36416916 
  31      20626664 
  31      6062BAC0 
  32 0018 1EAC9889 		.ascii	"\036\254\230\211\201G\015(\304\332\241\316\300\336\241"
  32      81470D28 
  32      C4DAA1CE 
  32      C0DEA1
  33 0027 0E11E266 		.ascii	"\016\021\342f``\234\340\307\310\005d3\363\200\22400"
  33      60609CE0 
  33      C7C80564 
  33      33F38094 
  33      3030
  34 0039 33285A00 		.ascii	"3(Z\000UI]\233\316\010\327\011\226g\341\005\313\263"
  34      55495D9B 
  34      CE08D709 
  34      9667E105 
  34      CBB3
  35 004b F201D54C 		.ascii	"\362\001\325L\360\233\340\007\021\000\322`\215@\232"
  35      F09BE007 
  35      1100D260 
  35      8D409A
  36 005a 9541ED00 		.ascii	"\225A\355\000\003P\253\334\275\263\330\264\"\351\200"
  36      0350ABDC 
  36      BDB3D8B4 
  36      22E980
  37 0069 1AC52E00 		.ascii	"\032\305.\0004\016\310\005\"\006\006\000hZ\022\355"
  37      340EC805 
  37      22060600 
  37      685A12ED 
  38              		.text
  39              		.section	.gnu.lto_.pureconst.5db50581e9f490a9,"",%progbits
  40 0000 789C6362 		.ascii	"x\234cb`b\340d\200\000\026\006\011&+f+V+\000\003\366"
  40      6062E064 
  40      80001606 
  40      09262B66 
  40      2B562B00 
  41 0016 00E2     		.ascii	"\000\342"
  42              		.text
  43              		.section	.gnu.lto_test_004_001_setup.5db50581e9f490a9,"",%progbits
  44 0000 789C6362 		.ascii	"x\234cb`b@\007\222@<\001\210\215\201\230\221\231\201"
ARM GAS  /tmp/ccMtk9eq.s 			page 3


  44      60624007 
  44      92403C01 
  44      888D8198 
  44      919981
  45 0013 9169C239 		.ascii	"\221i\3029\006\206F\016&FF\020\203\201\221\241\236\211"
  45      0686460E 
  45      26464610 
  45      838191A1 
  45      9E89
  46 0025 B13E9211 		.ascii	"\261>\222\021\254v=\323\201\007\377\377\257\333\322"
  46      AC763DD3 
  46      8107FFFF 
  46      AFDBD2
  47 0034 B6FC0CE3 		.ascii	"\266\374\014\343L&f\240\010+CKC\303\004\005\006\206"
  47      4C2666A0 
  47      082B434B 
  47      43C30405 
  47      0686
  48 0046 64B08A10 		.ascii	"d\260\212\020 \011\322\026\312\310\004\242\231\3172"
  48      2009D216 
  48      CAC804A2 
  48      99CF32
  49 0055 34EDF8F1 		.ascii	"4\355\370\361\314\"\221q!#+\303l\206Y\215\015\015\002"
  49      CC229171 
  49      21232BC3 
  49      6C86598D 
  49      0D0D02
  50 0068 998C0CD5 		.ascii	"\231\214\014\325\014\277\032:@,\306\\\260\266\010F "
  50      0CBF1A3A 
  50      402CC65C 
  50      B0B60846 
  50      20
  51 0079 9301C602 		.ascii	"\223\001\306\0023.24>\230\243\014\321\010\003!@E@SA"
  51      332E3234 
  51      3E98A30C 
  51      D1080321 
  51      40454053 
  52 008e 7E30D4D3 		.ascii	"~0\324\323\323\207\240\222\324\342\022\375\242\022\375"
  52      D387A092 
  52      D4E212FD 
  52      A212FD
  53 009d E2FCD2A2 		.ascii	"\342\374\322\242\344T\010\027D\304\027\247\026\226\246"
  53      E4540817 
  53      44C417A7 
  53      1696A6
  54 00ac E625A7C6 		.ascii	"\346%\247\306\033\030\230\350%3\000\000\306\2027\323"
  54      1B1898E8 
  54      25330000 
  54      C68237D3 
  55              		.text
  56              		.section	.gnu.lto_thread1.5db50581e9f490a9,"",%progbits
  57 0000 789C8552 		.ascii	"x\234\205RMh\023A\024~o6\177\032+\275*\222\206\202\340"
  57      4D681341 
  57      147E6F36 
  57      7F1A2BBD 
  57      2A928682 
  58 0015 41332914 		.ascii	"A3)\024\274I\245'\017\2714U\364\024\266\343\320\014"
ARM GAS  /tmp/ccMtk9eq.s 			page 4


  58      BC49A527 
  58      0FB93455 
  58      F414B6E3 
  58      D00C
  59 0027 76B37537 		.ascii	"v\263u7)-=t\233\264\240\267R\020\304R\244\212BQT\360"
  59      292D3D74 
  59      9BB4A0B7 
  59      5210C452 
  59      A48A4251 
  60 003d 223DC55B 		.ascii	"\"=\305[\2134\"E\320\223\301\223\222\2237\361\022\337"
  60      8B342245 
  60      D093C193 
  60      929337F1 
  60      12DF
  61 004f EC26DBA6 		.ascii	"\354&\333\246-:\354\314\274y\357}\357{\363\3152`px\234"
  61      2D3AECCC 
  61      BC79EF7D 
  61      EF7BF3CD 
  61      32607078 
  62 0064 A1B94DEE 		.ascii	"\241\271M\356\317\264\243\001\310V\032\000\213\011\206"
  62      CFB4A301 
  62      C8561A00 
  62      8B0986
  63 0073 A80D4058 		.ascii	"\250\015@X`\270p\013\375\334\327\254\336l\267_\275{"
  63      60B8700B 
  63      FDDCD7AC 
  63      DE6CB75F 
  63      BD7B
  64 0085 F6FD0E26 		.ascii	"\366\375\016&ch!\304A\371\241(,y\336J\032@\370\307q"
  64      636821C4 
  64      41F9A128 
  64      2C79DE4A 
  64      1A40F8C7 
  65 009a 5A35FC3A 		.ascii	"Z5\374:2\275\033;PM\000\014\302\206\347\2556\277n\356"
  65      32BD1B3B 
  65      504D000C 
  65      C286E7AD 
  65      36BF6EEE 
  66 00ae BEC7D59A 		.ascii	"\276\307\325\232\267\355-\325\333m\034PHY\023\250\241"
  66      B7ED2DD5 
  66      DB6D1C50 
  66      485913A8 
  66      A1
  67 00bf 3751214B 		.ascii	"7Q!K\373\233\021\351\355S\373\220\010\240\001\325__"
  67      FB9B11E9 
  67      ED53FB90 
  67      08A001D5 
  67      5F5F
  68 00d1 6ACFCF86 		.ascii	"j\317\317\206\224\201Q\177\273\267f\\0\361\011\016\206"
  68      9481517F 
  68      BBB7665C 
  68      30F1090E 
  68      86
  69 00e2 FDD45B0F 		.ascii	"\375\324[\017~'\317\205\247\373\034\300\304\015\214"
  69      7E27CF85 
  69      A7FB1CC0 
  69      C40D8C
ARM GAS  /tmp/ccMtk9eq.s 			page 5


  70 00f1 1295A663 		.ascii	"\022\225\246c4\015\360/\211\260E&\311`\004\022\245\340"
  70      340DF02F 
  70      89B04526 
  70      C9600412 
  70      A5E0
  71 0103 03AE7B0F 		.ascii	"\003\256{\017G\024Fz\310\367\343\215N<\032\264\367\021"
  71      4714467A 
  71      C8F7E38D 
  71      4E3C1AB4 
  71      F711
  72 0115 969BDFAE 		.ascii	"\226\233\337\256\004\325\001\346\341\217w\317\353W\030"
  72      04D501E6 
  72      E18F77CF 
  72      EB5718
  73 0124 134101DF 		.ascii	"\023A\001\337\223P\030\267\020;I\272&\211\242\360\204"
  73      935018B7 
  73      103B49BA 
  73      2689A2F0 
  73      84
  74 0135 46D79A3F 		.ascii	"F\327\232?n\034A\237\024\235\362\012\223\000\275\"\376"
  74      6E1C419F 
  74      149DF20A 
  74      9300BD22 
  74      FE
  75 0146 6C1C16D1 		.ascii	"l\034\026\321\304\247\376\225\376\253\"\374K\305\326"
  75      C4A7FE95 
  75      FEAB22FC 
  75      4BC5D6
  76 0155 BA56F14D 		.ascii	"\272V\361M\257\212\217\373R\007\336\270\343\336\031"
  76      AF8A8FFB 
  76      5207DEB8 
  76      E3DE19
  77 0164 DE9733A6 		.ascii	"\336\2273\246k\012\214\037\243\250\211\233d\204\304"
  77      6B0A8C1F 
  77      A3A8899B 
  77      6484C4
  78 0173 5D054D7C 		.ascii	"]\005M|\211\251\240\251]\250n-\277\330cA\261I\214\257"
  78      89A9A0A9 
  78      5DA86E2D 
  78      BFD86341 
  78      B1498CAF 
  79 0187 C1234A27 		.ascii	"\301#J'+\246a\247\240+q\344\210B}BkH\203P\012O\003|"
  79      2BA661A7 
  79      A02B71E4 
  79      88427D42 
  79      6B488350 
  80 019f 82C5668B 		.ascii	"\202\305f\213u\363\2021N\314\364\027j\332\241L\206\007"
  80      75F38231 
  80      4ECCF417 
  80      6ADAA14C 
  80      8607
  81 01b1 5F59BA65 		.ascii	"_Y\272e\356\224\271kW\034!\203\243^\012\256\274[\221"
  81      EE94B96B 
  81      571C2183 
  81      A35E0AAE 
  81      BC5B91
  82 01c4 25210BD9 		.ascii	"%!\013\331\354pF\300\245\020a\273\\\330\226e\227\370"
ARM GAS  /tmp/ccMtk9eq.s 			page 6


  82      EC7046C0 
  82      A51061BB 
  82      5CD89665 
  82      97F8
  83 01d6 B4ED945D 		.ascii	"\264\355\224]~u,7\232\233\345\242(lG\026f.[\231\"Dg"
  83      7E752C37 
  83      9A9BE5A2 
  83      286C4716 
  83      662E5B99 
  84 01ed CCA98A1C 		.ascii	"\314\251\212\034:\006#g\313|4\227\277\226\347\252$\246"
  84      3A062367 
  84      CB7C3497 
  84      BF96E7AA 
  84      24A6
  85 01ff 2AB72517 		.ascii	"*\267%\027\226\253\334\302\244\020\204\0338\210\240"
  85      96ABDCC2 
  85      A410841B 
  85      3888A0
  86 020e AEC29CA2 		.ascii	"\256\302\234\242;\347R\274?\227\037KO\230\256\234v\324"
  86      3BE752BC 
  86      3F971F4B 
  86      4F98AE9C 
  86      76D4
  87 0220 C5F4F92C 		.ascii	"\305\364\371,0\007\342\226\264lg\016\376\002\011\"\345"
  87      3007E296 
  87      B46C670E 
  87      FE020922 
  87      E5
  88 0231 C4       		.ascii	"\304"
  89              		.text
  90              		.section	.gnu.lto_test_004_001_execute.part.0.5db50581e9f490a9,"",%progbits
  91 0000 789C8D55 		.ascii	"x\234\215U]h\034U\024>gfg\177\22366\255Mb\335\216\005"
  91      5D681C55 
  91      143E6766 
  91      677F9336 
  91      36AD4D62 
  92 0017 9FD44C62 		.ascii	"\237\324Lb\013\372\"(\365%\220\315C\223\200>\205\351"
  92      0BFA2228 
  92      F52590CD 
  92      4393803E 
  92      85E9
  93 0029 64DC0C64 		.ascii	"d\334\014dw\332\231\335\244\305\207\334\315\306\022"
  93      77DA99DD 
  93      A4C587DC 
  93      CDC612
  94 0038 B1941045 		.ascii	"\261\224\020EKK0\241T\255T\013Ah\033\024\027\305`\224"
  94      4B4B30A1 
  94      54AD540B 
  94      41681B14 
  94      17C56094 
  95 004c 26F4411F 		.ascii	"&\364A\037*\205U\320T\250\266*\322(\305\365\334\371"
  95      2A8555D0 
  95      54A8B62A 
  95      D228C5F5 
  95      DCF9
  96 005e DBCD124D 		.ascii	"\333\315\022M\356\356\334\271\347\236\237\373\235\357"
  96      EEEEDCB9 
ARM GAS  /tmp/ccMtk9eq.s 			page 7


  96      E79E9FFB 
  96      9DEF
  97 006c 9CBB2B80 		.ascii	"\234\273+\200\000\365\243\213\236\3710\300\014\002`"
  97      00F5A38B 
  97      9EF930C0 
  97      0C0260
  98 007b 04303CB5 		.ascii	"\0040<\265L\2130\012\316[\020\244o\025`qq!\011\254A"
  98      4C8B300A 
  98      CE5B10A4 
  98      6F156071 
  98      712109AC 
  99 0090 F4A49023 		.ascii	"\364\244\220#\205P\3426\205\250\204\310\027\2000\026"
  99      8550E236 
  99      85A884C8 
  99      17803016 
 100 00a0 16C49084 		.ascii	"\026\304\220\204c/\"\017-\355\2039\306\316\224\277X"
 100      632F220F 
 100      2DED8339 
 100      C6CE94BF 
 100      58
 101 00b1 BD85A7DF 		.ascii	"\275\205\247\337(\215\317\262\373\225\012\242\301\225"
 101      288DCFB2 
 101      FB950AA2 
 101      C195
 102 00bf 1AC20BB4 		.ascii	"\032\302\013\264\302&\347%\324\341r\035\331\374{,\346"
 102      C226E725 
 102      D4E1721D 
 102      D9FC7B2C 
 102      E6
 103 00d0 3889068A 		.ascii	"8\211\006\212U\037\331\365\011m\3403U\272\276x\262\225"
 103      551FD9F5 
 103      096DE033 
 103      55BABE78 
 103      B295
 104 00e2 CD8E4FB1 		.ascii	"\315\216O\261\177\350,\003C\002\034\300\255xN\227>]"
 104      7FE82C03 
 104      43021CC0 
 104      AD784E97 
 104      3E5D
 105 00f4 3CD5C266 		.ascii	"<\325\302f\013\276'q\3654n\005\347t\351\336\342Ws\310"
 105      0BBE2771 
 105      F5346E05 
 105      E774E9DE 
 105      E25773C8 
 106 0108 A659E16E 		.ascii	"\246Y\341n\245\262\335@I\200g6;\363\222\300\312\225"
 106      A5B2DD40 
 106      49806736 
 106      3BF392C0 
 106      CA95
 107 011a CA5FF7A2 		.ascii	"\312_\367\242\273\020\014\014\0134\201\010*\236\303"
 107      BB100C0C 
 107      0B348108 
 107      2A9EC3
 108 0129 7D102221 		.ascii	"}\020\"!\"\361)LS4B\333\357\322v\224\0131>\305\371\304"
 108      22F1294C 
 108      533442DB 
 108      EFD27694 
ARM GAS  /tmp/ccMtk9eq.s 			page 8


 108      0B313EC5 
 109 013f 0986094A 		.ascii	"\011\206\011JYV\361<\251]_\207%\032}4\363\242\364a\230"
 109      5956F13C 
 109      A95D5F87 
 109      251A7D34 
 109      F3A2F461 
 110 0154 BFC57E14 		.ascii	"\277\305~\024\234\367\012\024\313\237|\236P\361\002"
 110      9CF70A14 
 110      CB9F7C9E 
 110      50F102
 111 0163 4A64F632 		.ascii	"Jd\3662\374\315&Y\223\2011\015\035?\212\034\007\270"
 111      FCCD2659 
 111      9381310D 
 111      1D3F8A1C 
 111      07B8
 112 0175 06E357D6 		.ascii	"\006\343W\326~oq\255\316\302\231\002\3436\211\300\272"
 112      7E6F71AD 
 112      CEC29902 
 112      E33689C0 
 112      BA
 113 0186 21E318F3 		.ascii	"!\343\030\363\304\032\300_%89K0\036\365y)\277u\342\233"
 113      C41AC05F 
 113      2538394B 
 113      301EF579 
 113      29BF75E2 
 114 019b D68BF38C 		.ascii	"\326\213\363\214\275Zbk\025\344Ul\024\340\350f\324\360"
 114      BD5A626B 
 114      15E4556C 
 114      14E0E866 
 114      D4F0
 115 01ad BD469916 		.ascii	"\275F\231\026\3130\376\333\235\342;m^\232~\276\245K"
 115      CB30FEDB 
 115      9DE23B6D 
 115      5E9A7EBE 
 115      A54B
 116 01bf 27179A0B 		.ascii	"'\027\232\013\222\212\0378\371z\233\253o\256%\366\004"
 116      928A1F38 
 116      F97A9BAB 
 116      6FAE25F6 
 116      04
 117 01d0 D2D73F7D 		.ascii	"\322\327?}O\015\343\342\327(u\215\372GC\347 \244\317"
 117      4F0DE3E2 
 117      D728758D 
 117      FA4743E7 
 117      20A4CF
 118 01e3 12898456 		.ascii	"\022\211\204Vt\357C\022n\340\014;\375\254\201\333\326"
 118      74EF4312 
 118      6EE00C3B 
 118      FDAC81DB 
 118      D6
 119 01f4 9D5FD5DF 		.ascii	"\235_\325\337\364\364\333]\204\327\340\263\033\037\377"
 119      F4F4DB5D 
 119      84D7E0B3 
 119      1B1FFF
 120 0203 F1F38569 		.ascii	"\361\363\205i\254\207\266z\376;Q\014\244\037/\3164\006"
 120      AC87B67A 
 120      FE3B510C 
ARM GAS  /tmp/ccMtk9eq.s 			page 9


 120      A41F2FCE 
 120      3406
 121 0215 C26BAB73 		.ascii	"\302k\253s5\220\370\023\246'\302\343\245\021\037\203"
 121      3590F813 
 121      A627C2E3 
 121      A5111F83 
 122 0225 F7D944A1 		.ascii	"\367\331D\241|vey\032C\0066q\322\2478\325\017p8;\030"
 122      7C766579 
 122      1A430636 
 122      71D2A738 
 122      D50F7038 
 123 023b 8D90836C 		.ascii	"\215\220\203l\207\203\3400\347_\305\253N\021y\271~-"
 123      8783E030 
 123      E75FC5AB 
 123      4E1179B9 
 123      7E2D
 124 024d 6E53F10A 		.ascii	"nS\361\012\211i\024\322\274\224T\210\273?\\\035r\317"
 124      896914D2 
 124      BC945488 
 124      BB3F5C1D 
 124      72CF
 125 025f 733B848F 		.ascii	"s;\204\217\025x\245\274r.\354n\247Q\014J\332\2549-\345"
 125      1578A5BC 
 125      722EEC6E 
 125      A7510C4A 
 125      DAAC392D 
 126 0274 B7041B33 		.ascii	"\267\004\0333pg\006\321k\024~rd\252\207\272c\227\023"
 126      706706D1 
 126      6B147E72 
 126      64AA87BA 
 126      639713
 127 0287 BAD4EA07 		.ascii	"\272\324\352\007\346M\227\346\267\263\256\362\277\324"
 127      E64D97E6 
 127      B7B3AEF2 
 127      BFD4
 128 0295 575EC50F 		.ascii	"W^\305\017\235BlZz\370\337\322\337tJ_Z_\372\267\033"
 128      9D426C5A 
 128      7AF8DFD2 
 128      DF744A5F 
 128      5A5FFAB7 
 129 02aa 93C16DA8 		.ascii	"\223\301m\250\022~\273 U\011\217\201s7\342\033\264\201"
 129      127EBB20 
 129      55098F81 
 129      7337E21B 
 129      B481
 130 02bc 8A1FD122 		.ascii	"\212\037\321\"8\333/\273\212\2271\351\027\2748Y\\=%"
 130      38DB2FBB 
 130      8A9731E9 
 130      17BC3859 
 130      5C3D25
 131 02cf F9B48588 		.ascii	"\371\264\205\210en\017D\211\253\025}\225\344\253^\357"
 131      656E0F44 
 131      89AB157D 
 131      95E4AB5E 
 131      EF
 132 02e0 71E80EA8 		.ascii	"q\350\016\250\016\007T?\250a\002\334\272S \211\357\267"
 132      0E07543F 
ARM GAS  /tmp/ccMtk9eq.s 			page 10


 132      A86102DC 
 132      BA532089 
 132      EFB7
 133 02f2 18B83B09 		.ascii	"\030\270;\011\267\004\267\315Z<\324Dw+\300\2270q\033"
 133      B704B7CD 
 133      5A3CD444 
 133      772BC097 
 133      30711B
 134 0305 83283C76 		.ascii	"\203(<v\264\226\263~\302\276\220\024\251\007\226&G}"
 134      B496B37E 
 134      C2BE9014 
 134      A9079626 
 134      477D
 135 0317 B3487069 		.ascii	"\263Hpi\333\202cy9=\216wB\220\327J\200<Jn\\\331\346"
 135      DB826379 
 135      393D8E77 
 135      4290D74A 
 135      803C4A6E 
 136 032e F649906C 		.ascii	"\366I\220l,\210\360\220\346]w2\366P\357I\302}\017\365"
 136      2C88F090 
 136      E65D7732 
 136      F650EF49 
 136      C27D0FF5 
 137 0342 C355D4C9 		.ascii	"\303U\324\311:\324\261\015P\207\340NB\344\000\212\177"
 137      3AD4B10D 
 137      5087E04E 
 137      42E4008A 
 137      7F
 138 0353 6EF3EDE2 		.ascii	"n\363\355\342\324I\334to\305\0378V\203\245\346\367\252"
 138      D449DC74 
 138      6FC51F38 
 138      5683A5E6 
 138      F7AA
 139 0365 064ADC83 		.ascii	"\006J\334\203\"'\341\204\350Byd\035\024\367<\311\371"
 139      2227E184 
 139      E8427964 
 139      1D14F73C 
 139      C9F9
 140 0377 FDBB4EFF 		.ascii	"\375\273N\377WU\024}\304\010\355\362rw\266\267+\356"
 140      5755147D 
 140      C408EDF2 
 140      7277B6B7 
 140      2BEE
 141 0389 37A7DB39 		.ascii	"7\247\3339\305\312)\266\231\2674\335\025\3714`\353G"
 141      C5CA29B6 
 141      99B734DD 
 141      15F93460 
 141      EB47
 142 039b F37A56D3 		.ascii	"\363zV\323\007::\016\264k f\354t(gdt)gu\266w<\021\004"
 142      073A3A0E 
 142      B46B2066 
 142      EC742867 
 142      64742967 
 143 03b5 306D4533 		.ascii	"0mE33\0313\253\0341\255\234\255<w(u0uL\321\2064\323"
 143      331933AB 
 143      1C31AD9C 
 143      AD3C7728 
ARM GAS  /tmp/ccMtk9eq.s 			page 11


 143      7530754C 
 144 03cd D207469E 		.ascii	"\322\007F\236\312\264\017\2014\242\016\347\365\316\015"
 144      CAB40F81 
 144      34A20EE7 
 144      F5CE0D
 145 03dc 7CF46339 		.ascii	"|\364c9\345`\252\267\253W1\262\332p~PW\264\214m\330"
 145      E560AAB7 
 145      AB5731B2 
 145      DA707E50 
 145      57B48C6D 
 146 03f1 03694D23 		.ascii	"\003iM#\277\275\265\036\0042\260\031\262\217\333\244"
 146      BFBDB51E 
 146      0432B019 
 146      B28FDBA4 
 147 0401 6F4AF51E 		.ascii	"oJ\365\036\222\017\253\266~\3042\036\227\037\355\000"
 147      920FABB6 
 147      7EC4321E 
 147      971FED00 
 148 0411 C1824846 		.ascii	"\301\202HF\317\230\326q\330_\353;\244\016{\360z\373"
 148      CF98D671 
 148      D85FEB3B 
 148      A40E7BF0 
 148      7AFB
 149 0423 52FB9F54 		.ascii	"R\373\237T\272\273\237W\372\272R#\235\\3@\331\016\017"
 149      BABB9F57 
 149      FABA5223 
 149      9D5C3340 
 149      D90E0F
 150 0436 0F523C65 		.ascii	"\017R<e\213Yq\036,\262O\376'\276\221\034\251\233\315"
 150      8B59711E 
 150      2CB24FFE 
 150      27BE911C 
 150      A99BCD
 151 0449 7C4E365F 		.ascii	"|N6_\222\271\271<jd\007\315Q\210e\315\234\334\323\337"
 151      92B9B93C 
 151      6A6407CD 
 151      518865CD 
 151      9CDCD3DF 
 152 045d DD0DBB47 		.ascii	"\335\015\273G-3\233\226-=\227\267\262\372\240\234\321"
 152      2D339B96 
 152      2D3D97B7 
 152      B2FAA09C 
 152      D1
 153 046e 6D5B4DEB 		.ascii	"m[M\353\360//B\035\264"
 153      F02F2F42 
 153      1DB4
 154              		.text
 155              		.section	.gnu.lto_test_004_001_execute.5db50581e9f490a9,"",%progbits
 156 0000 789C8D55 		.ascii	"x\234\215U_lSe\024?\347\336\336\322v\255\353\206J;G"
 156      5F6C5365 
 156      143FE7DE 
 156      DED276AD 
 156      EB864A3B 
 157 0015 A94314A3 		.ascii	"\251C\024\243[\267\204\304\350\203\201\360d\302|`,\321"
 157      5BB784C4 
 157      E88381F0 
 157      64C27C60 
ARM GAS  /tmp/ccMtk9eq.s 			page 12


 157      2CD1
 158 0027 A7E57277 		.ascii	"\247\345rw\323\335\204\333\342\275\267\010\361a\267"
 158      D3DD84DB 
 158      E2BDB708 
 158      F161B7
 159 0036 DB501442 		.ascii	"\333P\024B\032\036t\321\020!Sb\014\021\321hp\017\320"
 159      1A1E74D1 
 159      10215362 
 159      0C11D168 
 159      700FD0
 160 0049 C448B62C 		.ascii	"\304H\266,\262\354A1\006B%\361i\310\237\267\306\030"
 160      B2EC4131 
 160      064225F1 
 160      69C89FB7 
 160      C618
 161 005b EB39F75F 		.ascii	"\3539\367_G-\342M\357\367\367\234\337\367;\277\363\235"
 161      472DE24D 
 161      EFF7F79C 
 161      DFF73BBF 
 161      F39D
 162 006d 5B010468 		.ascii	"[\001\004h}\266\323\333\010\003\364#\000\206\001\205"
 162      7DB6D3DB 
 162      0803F423 
 162      00860185 
 163 007d CA158072 		.ascii	"\312\025\200rD\020\244\237s`\307\304\371\014\330q\321"
 163      4410A49F 
 163      7360C7C4 
 163      F90CD871 
 163      D1
 164 008e 9B859C59 		.ascii	"\233\205\234Y\010%6B\011\221{@\230\024\304\220\204\223"
 164      08253642 
 164      09917B40 
 164      9814C490 
 164      8493
 165 00a0 AF23230A 		.ascii	"\257##\012}p\332\266O\324~\277\375Y\372\275SS\025\373"
 165      7D70DAB6 
 165      4FD47EBF 
 165      FD59FABD 
 165      535315FB 
 166 00b4 EF460335 		.ascii	"\357F\0035\244\263\267!(\010\257\321\004\263N'\204\356"
 166      A4B3B721 
 166      2808AFD1 
 166      04B34E27 
 166      84EE
 167 00c6 27E37856 		.ascii	"'\343xV\252+\227\217\245\355\246\247(\300K\017\363<"
 167      AA2B978F 
 167      A5EDA6A7 
 167      28C04B0F 
 167      F33C
 168 00d8 27546B8D 		.ascii	"'Tk\215\306\255\257k7o`W\257\010\032\206B\324Haj \006"
 168      C6ADAF6B 
 168      376F6057 
 168      AF081A86 
 168      42D44861 
 169 00ef 32CE611F 		.ascii	"2\316a\037\304\251?M}\202\026\303\235\334$\271\351\346"
 169      C4A93F4D 
 169      7D8216C3 
ARM GAS  /tmp/ccMtk9eq.s 			page 13


 169      9DDC24B9 
 169      E9E6
 170 0101 26C58669 		.ascii	"&\305\206ij\326\021\232\0043\304#\353\006R\275t\371"
 170      6AD6119A 
 170      0433C423 
 170      EB0652BD 
 170      74F9
 171 0113 78CA3E55 		.ascii	"x\312>U\366\351D\004x\271I'\351\322i\021\326=\017\330"
 171      F6E94404 
 171      78B94927 
 171      E9D26911 
 171      D63D0FD8 
 172 0127 8A9E3DD4 		.ascii	"\212\236=\324\262R\243(p/\376\010S\027.\254\246d\374"
 172      B252A328 
 172      702FFE08 
 172      53172EAC 
 172      A664FC
 173 013a 1425F808 		.ascii	"\024%\370\010>,\333vR\303\350[\360\247}\204G1\335qc"
 173      3E2CDB76 
 173      52C3E85B 
 173      F0A77D84 
 173      4731DD71 
 174 014f E018F8A3 		.ascii	"\340\030\370\243(\257\221\347\265\372\352/!\3275\217"
 174      28AF91E7 
 174      B5FAEA2F 
 174      21D7358F 
 175 015f 623F9C65 		.ascii	"b?\234e\217\016F\251\360(\316(\263<J\350\210\236o\""
 175      8F0E46A9 
 175      F028CE28 
 175      B33C4AE8 
 175      889E6F22 
 176 0173 4079640D 		.ascii	"@yd\015I\002\373\365\257\233w\227\302^\270~\334\366"
 176      4902FBF5 
 176      AF9B7797 
 176      C25EB87E 
 176      DCF6
 177 0185 9D33B940 		.ascii	"\2353\271@\003\177P]\272\272\322\205\034\031\237\254"
 177      037F505D 
 177      BABAD285 
 177      1C199FAC 
 178 0195 38D0D439 		.ascii	"8\320\3249q\3471\365\034|n\333v\355\203\267o|\202\002"
 178      71E731F5 
 178      1C7C6EDB 
 178      76ED83B7 
 178      6F7C8202 
 179 01a9 29E9CEED 		.ascii	")\351\316\355\0275\354\014\002L\006\001v\351\216#\023"
 179      1735EC0C 
 179      024C0601 
 179      76E98E23 
 179      13
 180 01ba EA72A8EC 		.ascii	"\352r\250\354EG\264/\010\232\306\030\214]\222\365o{"
 180      4547B42F 
 180      089AC618 
 180      8C5D92F5 
 180      6F7B
 181 01cc 643CE704 		.ascii	"d<\347\004\234\366\200MJT\000\334M\004\030\013<,\201"
 181      9CF6804D 
ARM GAS  /tmp/ccMtk9eq.s 			page 14


 181      4A5400DC 
 181      4D04180B 
 181      3C2C81
 182 01df FDBFF4FD 		.ascii	"\375\277\364\375\247\217|\277t\365|\324\227,D l,5\350"
 182      A78F7CBF 
 182      74F57CD4 
 182      972C4420 
 182      6C2C35E8 
 183 01f3 E9248B65 		.ascii	"\351$\213eH\371{\341\200\341z\005Epc\023\035\365\027"
 183      48F97BE1 
 183      80E17A05 
 183      45706313 
 183      1DF517
 184 0206 04F6E5FD 		.ascii	"\004\366\345\375\210\206\217*\350\245\000x%\245\341"
 184      88868F2A 
 184      E8A50078 
 184      25A5E1
 185 0215 6319C89F 		.ascii	"c\031\310\237\264g\267k\370\270'\021]\245\015\016\375"
 185      B467B76B 
 185      F8B82711 
 185      5DA50D0E 
 185      FD
 186 0226 C54ACC5D 		.ascii	"\305J\314]\341\\\271\2324\223\236\012NL\353\316\211"
 186      E15CB99A 
 186      34939E0A 
 186      4E4CEBCE 
 186      89
 187 0237 7C58BA4D 		.ascii	"|X\272M\272\210\034\300\"LE\274*9Q\373\346\235\237\322"
 187      BA881CC0 
 187      224C45BC 
 187      2A3951FB 
 187      E69D9FD2 
 188 024b 67BFB2ED 		.ascii	"g\277\262\355w\253v\275\201\015Q\303\036\001f\361a\225"
 188      77AB76BD 
 188      810D51C3 
 188      1E0166F1 
 188      6195
 189 025d C26B3D94 		.ascii	"\302k=\224V\270\002S\367.\036>\323\323\232\350\325\343"
 189      56B80253 
 189      F72E1E3E 
 189      D3D39AE8 
 189      D5E3
 190 026f F3EBCB92 		.ascii	"\363\353\313\222\214\027\235\033\354-\316\235\254w\364"
 190      8C179D1B 
 190      EC2DCE9D 
 190      AC77F4
 191 027e 06B3A3D7 		.ascii	"\006\263\243\327~\023\233W\201\3370\275\\9\3641@\270"
 191      7E139B57 
 191      81DF30BD 
 191      5C39F431 
 191      40B8
 192 0290 4B91500E 		.ascii	"K\221P\016D\367s\223\201\262\340K\263\366\374\346\376"
 192      44F77393 
 192      81B2E04B 
 192      B3F6FCE6 
 192      FE
 193 02a1 8CB7FF84 		.ascii	"\214\267\377\204\313p\031\016\327\276\233\013\373I\211"
ARM GAS  /tmp/ccMtk9eq.s 			page 15


 193      CB70190E 
 193      D7BE9B0B 
 193      FB4989
 194 02b0 0512F52A 		.ascii	"\005\022\365*\030q,\334\025{R\303\215z\220\011\006\316"
 194      18712CDC 
 194      157B52C3 
 194      8D7A9009 
 194      06CE
 195 02c2 341A5CFB 		.ascii	"4\032\\\373\233\034\251\252iw\307-\306<\327R\213\200"
 195      9B1CA9AA 
 195      6977C72D 
 195      C63CD752 
 195      8B80
 196 02d4 7FB40A28 		.ascii	"\177\264\012(\343%\272=\377C@\370O\001\257;\002.\335"
 196      E325BA3D 
 196      FF4340F8 
 196      4F01AF3B 
 196      022EDD
 197 02e7 2FE0C789 		.ascii	"/\340\307\211\314\277\253\352\350\365\262\324T2\352"
 197      CCBFABEA 
 197      E8F5B2D4 
 197      5432EA
 198 02f6 1655AC8D 		.ascii	"\026U\254\215\2302\376@\203\340l_<\031\0270\023\224"
 198      9832FE40 
 198      83E06C5F 
 198      3C191730 
 198      1394
 199 0308 F362FDF6 		.ascii	"\363b\375\366V_\266xp\307\262\201\200\254\226\027\301"
 199      565FB678 
 199      70C7B281 
 199      80AC9617 
 199      C1
 200 0319 C6E02330 		.ascii	"\306\340#0\275,\372>\011r\343\315\254\233\006\311_\357"
 200      BD2CFA3E 
 200      0972E3CD 
 200      AC9B06C9 
 200      5FEF
 201 032b 0C109E54 		.ascii	"\014\020\236T\260\303\273\217\011\357\352\367e\340\230"
 201      B0C3BB8F 
 201      09EFEAF7 
 201      65E098
 202 033a 97C0CDCD 		.ascii	"\227\300\315\315\273\377\024\300\002\314\334\302\000"
 202      BBFF14C0 
 202      02CCDCC2 
 202      00
 203 0347 8271C36B 		.ascii	"\202q\303ku\034\245x\3463\"\023\230\276\227\360\355"
 203      751CA578 
 203      E6332213 
 203      98BE97F0 
 203      ED
 204 0358 92942736 		.ascii	"\222\224'6\335\322B\241\273\035\205\244G\341\351\014"
 204      DDD242A1 
 204      BB1D85A4 
 204      47E1E90C 
 205 0368 BCEF5178 		.ascii	"\274\357Qx\346\301\024\272\333P\010\301\235\016q\031"
 205      E6C114BA 
 205      DB5008C1 
ARM GAS  /tmp/ccMtk9eq.s 			page 16


 205      9D0E7119 
 206 0378 A6239E17 		.ascii	"\246#\236\027\004\307lU0\356\030i\370\254o-9\237\357"
 206      04C76C55 
 206      30EE1869 
 206      F8AC6F2D 
 206      399FEF
 207 038b 15FA7F6C 		.ascii	"\025\372\177lb\354\241\212\243U\316\306\320\300@\316"
 207      62ECA18A 
 207      A355CEC6 
 207      D0C040CE 
 208 039b FD59AA69 		.ascii	"\375Y\252i\345\014+g\026K\206\242\272Sn\306L\365\215"
 208      E50C2B67 
 208      164B86A2 
 208      BA536EC6 
 208      4CF58D
 209 03ae 925A50D4 		.ascii	"\222ZP\324\261\301\301m\003\012H\226140(\352f>di\272"
 209      B1C1C16D 
 209      030A4896 
 209      31343028 
 209      EA663E64 
 210 03c4 BA390028 		.ascii	"\2729\000(\232\354\256\025\224}\245q5\247LX\023\206"
 210      9AECAE15 
 210      947DA571 
 210      35A74C58 
 210      1386
 211 03d6 2A8F9B03 		.ascii	"*\217\233\003\023 \354\200\376\265fJQ\327\213\205\334"
 211      1320EC80 
 211      FEB5664A 
 211      51D78B85 
 211      DC
 212 03e7 FEA26199 		.ascii	"\376\242a\231\271\035\273\207w\016\037${\245h\250c\007"
 212      B91DBB87 
 212      770E1F24 
 212      7BA568A8 
 212      6307
 213 03f9 5ED0C941 		.ascii	"^\320\311A: \357+\251Cm|\324\203Vn\347\360\310+#\315"
 213      3A20EF2B 
 213      A9436D7C 
 213      D483566E 
 213      E7F0C82B 
 214 040f 83745333 		.ascii	"\203tS3\307\362\212B~\233\036H\306<\304D\222\303#\273"
 214      C7F28A42 
 214      7E9B1E48 
 214      C63CC444 
 214      92C323BB 
 215 0423 B37B6553 		.ascii	"\263{eS\335oh\317g\267\014\202`\300:]\325\213\306!\210"
 215      DD6F68CF 
 215      67B70C82 
 215      60C03A5D 
 215      D58BC621 
 216 0438 168A56F6 		.ascii	"\026\212V\366\325\321]\273`\303\233F\261\220\317\032"
 216      D5D15DBB 
 216      60C39B46 
 216      B190CF1A 
 217 0448 AA55320A 		.ascii	"\252U2\012\352xVWMS\316\253\360\017\203{\001\005"
 217      EA785657 
 217      4D53CEAB 
ARM GAS  /tmp/ccMtk9eq.s 			page 17


 217      F00F837B 
 217      0105
 218              		.text
 219              		.section	.gnu.lto_.symbol_nodes.5db50581e9f490a9,"",%progbits
 220 0000 789C4D8C 		.ascii	"x\234M\214AN\002Q\020D\253\272\247\007qT\300\013x\034"
 220      414E0251 
 220      1044ABBA 
 220      A7077154 
 220      C00B781C 
 221 0014 CFE1497A 		.ascii	"\317\341Iz\002\011\350\316\003\300j\216B\342B\023\267"
 221      0209E8CE 
 221      03C06A8E 
 221      42E24213 
 221      B7
 222 0025 46450507 		.ascii	"FE\005\007E\214\033.@\374\237!~{\363\362\252\273Z 8"
 222      458C1B2E 
 222      40FC9F21 
 222      7E7BF3F2 
 222      AABB5A20 
 223 003a 279A9167 		.ascii	"'\232\221g:q}\017\270\217\257.\354\221\310\\\345\211"
 223      3A717D0F 
 223      B88FAF2E 
 223      EC91C85C 
 223      E589
 224 004c 8E94CA86 		.ascii	"\216\224\312\206.{\235\\\322\336H8dF\327\177\3259%\244"
 224      2E7B9D5C 
 224      D2DE4838 
 224      6446D77F 
 224      D53925A4 
 225 0060 F64D8D78 		.ascii	"\366M\215xg\026\361J\263\200\027\346\341-\327\364\254"
 225      6716F14A 
 225      B38017E6 
 225      E12DD7F4 
 225      AC
 226 0071 699425F9 		.ascii	"i\224%\371E\267d+z\236\354\203\336JV\323\017\222}\322"
 226      45B7642B 
 226      7A9EEC83 
 226      DE4A56D3 
 226      0F927DD2 
 227 0085 DBC996F4 		.ascii	"\333\311\226\364\303d\013z\361g*\307\230\316\267\201"
 227      C3640B7A 
 227      F1672AC7 
 227      98CEB781 
 228 0095 47A8772C 		.ascii	"G\250w,P/\002\265\207\301\335\203DV\2677\271j\027\325"
 228      502F02B5 
 228      87C1DD83 
 228      4456B737 
 228      B96A17D5 
 229 00a9 E8E74CB5 		.ascii	"\350\347L\265\263\337\237`\020\357\355\024Ut\353\240"
 229      B3DF9F60 
 229      10EFED14 
 229      5574EBA0 
 230 00b9 1A86BDF5 		.ascii	"\032\206\275\365P\217\032Nc\317\024\375\360\007\277"
 230      508F1A4E 
 230      63CF14FD 
 230      F007BF
 231 00c8 F64361E8 		.ascii	"\366Ca\350"
ARM GAS  /tmp/ccMtk9eq.s 			page 18


 232              		.text
 233              		.section	.gnu.lto_.refs.5db50581e9f490a9,"",%progbits
 234 0000 789C2588 		.ascii	"x\234%\210\321\025\000\020\014\304.G\025\253\330\177"
 234      D1150010 
 234      0CC42E47 
 234      15ABD87F 
 235 0010 3FF5245F 		.ascii	"?\365$_\211e\035}\020`\323\032\335\025\031t\015e\255"
 235      89651D7D 
 235      1060D31A 
 235      DD151974 
 235      0D65AD
 236 0023 F99AE55D 		.ascii	"\371\232\345]\312\241\013\021\353\000\242"
 236      CAA10B11 
 236      EB00A2
 237              		.text
 238              		.section	.gnu.lto_.decls.5db50581e9f490a9,"",%progbits
 239 0000 789CAD5B 		.ascii	"x\234\255[\011t\024\325\232\256\245;IKX\304ep\324G\360"
 239      097414D5 
 239      9AAEA53B 
 239      494B58C4 
 239      6570D447 
 240 0015 E98CBE39 		.ascii	"\351\214\2769\022\242\214\362\346\234Q0z\204s\304a\022"
 240      12A28CF2 
 240      E69C5130 
 240      7A8473C4 
 240      6112
 241 0027 7C87598E 		.ascii	"|\207Y\216m\321)H\217\235\356\274\356\012\001\337\274"
 241      6DD12948 
 241      8F9DEEBC 
 241      EE0A01DF 
 241      BC
 242 0038 B1081091 		.ascii	"\261\010\020\221\243\030\023DP\226@\004#.@\020\011\022"
 242      A3181344 
 242      50964004 
 242      232E4010 
 242      0912
 243 004a B060302C 		.ascii	"\260`0,\"\204\000a\211b\024\002\003\212\202y\212 \320"
 243      22840061 
 243      89621402 
 243      038A8279 
 243      8A20D0
 244 005d F3DFFF56 		.ascii	"\363\337\377VuWUWuW\301\253\223{\273\226{\277\373\257"
 244      75575557 
 244      7557C1AB 
 244      937BBB96 
 244      7BBFFBAF 
 245 0071 F7FE7709 		.ascii	"\367\376w\011\307p\3143<\303\304\341\312{\222a\212}"
 245      C770CC33 
 245      3CC3C4E1 
 245      CA7B9261 
 245      8A7D
 246 0083 0CE36518 		.ascii	"\014\343e\030\346!H\275!-\201\224\005\011\2120\243Y"
 246      E62148BD 
 246      212D8194 
 246      05098A30 
 246      A359
 247 0095 867912D2 		.ascii	"\206y\022\322\030H\377\012\251\030\322X\226\226\377"
ARM GAS  /tmp/ccMtk9eq.s 			page 19


 247      1848FF0A 
 247      A918D258 
 247      9696FF
 248 00a4 03FCFE1B 		.ascii	"\003\374\376\033\244\177\207D\256\\H\377\011\367\002"
 248      A47F8744 
 248      AE5C48FF 
 248      09F702
 249 00b3 24115210 		.ascii	"$\021R\020R\010R9\244(\244JHS M\207\3642\244ZH\331P"
 249      52085239 
 249      A428A44A 
 249      4853204D 
 249      87F432A4 
 250 00cb A71E7E97 		.ascii	"\247\036~\227Bz\013\322\012H\027 ]\202t\003\307\030"
 250      427A0BD2 
 250      0A481720 
 250      5D827403 
 250      C718
 251 00dd 2E824B5E 		.ascii	".\202K^-Ui$\027\253\276gU\034\375Eh\351\013\277'!m\200"
 251      2D556924 
 251      17ABBE67 
 251      551CFD45 
 251      68E90BBF 
 252 00f5 D447A591 		.ascii	"\324G\245\221\320{;\000\015\344\222\274\306\340]\026"
 252      D07B3B00 
 252      0DE492BC 
 252      C6E05D16 
 253 0105 3C8F87DF 		.ascii	"<\217\207\337<\370\035\004\251L\305\363\251Xw\300\273"
 253      3CF81D04 
 253      A94CC5F3 
 253      A95877C0 
 253      BB
 254 0116 BB20DDCD 		.ascii	"\273 \335\315Q~\010_\005p?\224\243|\022\332\236fS\351"
 254      517E085F 
 254      05703F94 
 254      A37C12DA 
 254      9E6653E9 
 255 012a 20B2B803 		.ascii	" \262\270\003~\377\314&ih&\270\360\334\304P\031\020"
 255      7EFFCC26 
 255      696826B8 
 255      F0DCC450 
 255      1910
 256 013c 5957EB68 		.ascii	"YW\353h \362}\220\243tk\364\016\203\364{H\317\222\366"
 256      20F27D90 
 256      A3746BF4 
 256      0E83F47B 
 256      48CF92F6 
 257 0150 54DA9F83 		.ascii	"T\332\237\203oe\\RO3X*\2370\227\324\331l\226\362\250"
 257      6F655C52 
 257      4F33582A 
 257      9F3097D4 
 257      D96C96F2 
 258 0165 E98E9037 		.ascii	"\351\216\2207\206\243\272\026U\275\350y\213@\212A\232"
 258      86A3BA16 
 258      55BDE879 
 258      8B408A41 
 258      9A
 259 0176 C4517D69 		.ascii	"\304Q}i<jzC\035X\360I\364\375;\206\362\244\361Ix|X\345"
ARM GAS  /tmp/ccMtk9eq.s 			page 20


 259      3C6A7A43 
 259      1D58F049 
 259      F4FD3B86 
 259      F2A4F149 
 260 018e 91F0D7AC 		.ascii	"\221\360\327\254\312A\343o9\334/#v\001\367\036R\027"
 260      CA41E36F 
 260      39DC2F23 
 260      7601F71E 
 260      5217
 261 01a0 EEDF85F4 		.ascii	"\356\337\205\364\034<7\300\363\2378\243\235\325A\272"
 261      1C3C37C0 
 261      F39F38A3 
 261      9DD541BA 
 262 01b0 08E9BF55 		.ascii	"\010\351\277U\331\334\256\223\005\257\312#\023\377\177"
 262      D9DCAE93 
 262      05AFCA23 
 262      13FF7F
 263 01bf 866F1358 		.ascii	"\206o\023XZ~5\374n\204\264N\265}\302\303\377\300\367"
 263      5A7E35FC 
 263      6E84B44E 
 263      B57DC2C3 
 263      FFC0F7
 264 01d2 2A8EDAA7 		.ascii	"*\216\332\247Y\357zy\274\254\332\271\227I\265_\263l"
 264      59EF7A79 
 264      BCACDAB9 
 264      9749B55F 
 264      B36C
 265 01e4 7A31B364 		.ascii	"z1\263d\271J\256\257\226Gn\357cx\350\317\274*\303\225"
 265      B94AAEAF 
 265      96476EEF 
 265      6378E8CF 
 265      BC2AC395 
 266 01f8 B71D4436 		.ascii	"\267\035D6\216\025\330>>\246\336\203w\271>\346Q\250"
 266      8E15D83E 
 266      3EA6DE83 
 266      77B93EE6 
 266      51A8
 267 020a 7A17F396 		.ascii	"z\027\363\226,\327tu/\276]\366\010l\003\333\037\024"
 267      2CD77475 
 267      2FBE5DF6 
 267      086C03DB 
 267      1F14
 268 021c F0F72C48 		.ascii	"\360\367,H\372\035\250V\003@\177\313\244^\031Q9\346"
 268      FA1DA856 
 268      03407FCB 
 268      A45E1951 
 268      39E6
 269 022e 41163CE7 		.ascii	"A\026<\347m\200\023\330\345\354\357h3rW]\365\227U\354"
 269      6D8013D8 
 269      E5ECEF68 
 269      3372575D 
 269      F59755EC 
 270 0242 545966E9 		.ascii	"TYf\3517F\375jq\015b\352\241\202r~\347\002V\256\337"
 270      3746FD6A 
 270      710D62EA 
 270      A182727E 
 270      E70256AE 
ARM GAS  /tmp/ccMtk9eq.s 			page 21


 271 0257 C25AB438 		.ascii	"\302Z\2648\\k0'\311\306\214\323\333=\262\234#\260\357"
 271      5C6B3027 
 271      C9C68CD3 
 271      DB3DB29C 
 271      23B0EF
 272 026a 2223E359 		.ascii	"\"#\343YC\003*H\375p;\024\216x\236\300~\220Bv\353\036"
 272      43032A48 
 272      FD703B14 
 272      8E789EC0 
 272      7E904276 
 273 0280 8DEC0F1C 		.ascii	"\215\354\017\034\220]\245\354\235\265\360\026B\266A"
 273      905DA5EC 
 273      9DB5F016 
 273      42B641
 274 028f 1754BC6A 		.ascii	"\027T\274j\273yZ\273\036\254'\260MPX\007\3131\323X\215"
 274      BB795ABB 
 274      1EAC27B0 
 274      4D505807 
 274      CB31D358 
 275 02a4 16AB2AEA 		.ascii	"\026\253*\352-\275\324\002F\032\332w\346\326\010\024"
 275      2DBDD402 
 275      461ADA77 
 275      E6D60814 
 276 02b4 976366BA 		.ascii	"\227cf\272\006\313\263b\217Q\211MJH`W\261wA\276\232"
 276      06CBB362 
 276      8F51894D 
 276      4A486057 
 276      B17741BE 
 277 02c9 1D04F987 		.ascii	"\035\004\371\207\220'.\016lX\263\002+igf\341\302\316"
 277      90272E0E 
 277      6C58B302 
 277      2B696766 
 277      E1C2CE
 278 02dc 0528461F 		.ascii	"\005(F\03733)F\306\222\005\325\000\016\316\332\272\227"
 278      33332946 
 278      C69205D5 
 278      000ECEDA 
 278      BA97
 279 02ee 9D869A6A 		.ascii	"\235\206\232j\206j\034\263\2135\332\200s\250\303\263"
 279      866A1CB3 
 279      8B35DA80 
 279      73A8C3B3 
 280 02fe F79F63AB 		.ascii	"\367\237c\253\020j\003B\255\341\214P\002\233\355ct\027"
 280      106A0342 
 280      ADE18C50 
 280      029BED63 
 280      7417
 281 0310 3E6B0508 		.ascii	">k\005\010\036~Vo\310p\330\227q[\234cZ8\223\010\255"
 281      1E7E566F 
 281      C870D897 
 281      715B9C63 
 281      5A389308 
 282 0325 14976327 		.ascii	"\024\227c'Bb\272Gk\331\272i\362\366!\232\365g\331\361"
 282      4262BA47 
 282      6BD9BA69 
 282      F2F6219A 
 282      F567D9F1 
ARM GAS  /tmp/ccMtk9eq.s 			page 22


 283 0339 CD319BB1 		.ascii	"\3151\233\2611\305l\376\033;vi\346\25782\377\265;_O"
 283      31C56CFE 
 283      1B3B7669 
 283      E6AF3832 
 283      FFB53B5F 
 284 034e 357FAB4E 		.ascii	"5\177\253N\203\323\332\277\023\333\377\005\333\377\324"
 284      83D3DABF 
 284      13DBFF05 
 284      DBFFD4
 285 035d DCFEFC23 		.ascii	"\334\376\374#_\314P\333\377\324Q\373\353\017\316\261"
 285      5FCC50DB 
 285      FFD451FB 
 285      EB0FCEB1 
 286 036d 72BF876E 		.ascii	"r\277\207nJ\247\357\215\035'\316\251\255\354@\237i\342"
 286      4AA7EF8D 
 286      1D27CEA9 
 286      ADEC409F 
 286      69E2
 287 037f CDFA7EB8 		.ascii	"\315\372~\270\227Q\201\017\233\\v\003\257\321\177U."
 287      9751810F 
 287      9B5C7603 
 287      AFD17F55 
 287      2E
 288 0390 0B8C7EFF 		.ascii	"\013\214~\377\032[K\224\245\321\260\3115b\236A\022-"
 288      1A5B4B94 
 288      A5D1B0C9 
 288      35629E41 
 288      122D
 289 03a2 07B113A0 		.ascii	"\007\261\023\240`\233\235\200\331\332R\225\262I\017"
 289      609B9D80 
 289      D9DA5295 
 289      B2490F
 290 03b1 B6D53598 		.ascii	"\266\3255\230\221\2626=\3306'`\375\354)k\327\203\355"
 290      91B2363D 
 290      D8362760 
 290      FDEC296B 
 290      D783ED
 291 03c4 740D66A4 		.ascii	"t\015f\244l\277\036\354s'`\003\354)\353\320\203\355"
 291      6CBF1EEC 
 291      73276003 
 291      EC29EBD0 
 291      83ED
 292 03d6 750D66A4 		.ascii	"u\015f\244\354\220\036\354\200\023\260<\013\312\022"
 292      EC901EEC 
 292      8013B03C 
 292      0BCA12
 293 03e5 97DD50B4 		.ascii	"\227\335P\264\225M\3309\307\034\342\265>\301\245M3I"
 293      954DD839 
 293      C71CE2B5 
 293      3EC1A54D 
 293      3349
 294 03f7 8C4EDE6D 		.ascii	"\214N\336m'f\340\033:\261\257\226\322NL\033\317\276"
 294      2766E01B 
 294      3AB1AF96 
 294      D24E4C1B 
 294      CFBE
 295 0409 728298C6 		.ascii	"r\202\230\306`j>\323\015\216\335\256\301\214jYD\300"
ARM GAS  /tmp/ccMtk9eq.s 			page 23


 295      606A3ED3 
 295      0D8EDDAE 
 295      C18C6A59 
 295      44C0
 296 041b 0C7D8D3A 		.ascii	"\014}\215:\312t-S\006\314Kvw9\032\026\011\337h\337\006"
 296      CA742D53 
 296      06CC4B76 
 296      77391A16 
 296      09DF68DF 
 297 0430 11169728 		.ascii	"\021\026\227(,\017\030`]V`O\340 {\222\365%\250\240\367"
 297      2C0F1860 
 297      5D56604F 
 297      E0207B92 
 297      F525A8A0 
 298 0445 DA5D1C23 		.ascii	"\332]\034#\347oyS`\250]\231\252\332Y\302q\275%\234u"
 298      E76F7953 
 298      60A85D99 
 298      AADA59C2 
 298      71BD259C 
 299 045a 22A634AE 		.ascii	"\"\2464\256\320f'&\245Z\236\311N]}[\332\320nc\307\367"
 299      D0662726 
 299      A55A9EC9 
 299      4E5D7D5B 
 299      DAD06E63 
 300 0470 4BD4E1F8 		.ascii	"K\324\341\370;\034\216\177\342-GvG`\207g_\332\254\206"
 300      3B1C8E7F 
 300      E22D4776 
 300      47608767 
 300      5FDAAC86 
 301 0484 093F2098 		.ascii	"\011? \230\3541\367\365>\323\330\3563\016\326>_\362"
 301      EC31F7F5 
 301      3ED3D8EE 
 301      330ED63E 
 301      5FF2
 302 0496 26AE5D46 		.ascii	"&\256]F\351;\256c'\375o\365\322\177\321\343V\372f\037"
 302      E93BAE63 
 302      27FD6FF5 
 302      D27FD1E3 
 302      56FA661F 
 303 04aa FAB996ED 		.ascii	"\372\271\226\355\251\222\347\015\321\331[Z\343\204h"
 303      A992E70D 
 303      D1D95B5A 
 303      E38468
 304 04b9 6AE7A67F 		.ascii	"j\347\246\177\306p\372/(\244\032\217\245\304\035\000"
 304      C670FA2F 
 304      28A41A8F 
 304      A5C41D00 
 305 04c9 1D9EFD7E 		.ascii	"\035\236\375~>\002\235G\240\371)\322fM\322f\215\222"
 305      3E029D47 
 305      A0F929D2 
 305      664DD266 
 305      8D92
 306 04db 4B18AC6A 		.ascii	"K\030\254j\257n\312r\314\022\263\350\014$\246\351)\023"
 306      AF6ECA72 
 306      CC12B3E8 
 306      0C24A6E9 
 306      2913
ARM GAS  /tmp/ccMtk9eq.s 			page 24


 307 04ed A2BBE45E 		.ascii	"\242\273\344^t\263T\321]B\216\337N\341\370\274K\226"
 307      74B354D1 
 307      5D428EDF 
 307      4EE1F8BC 
 307      4B96
 308 04ff 3966A56B 		.ascii	"9f\245k6r\214lT\307\257\202\215O(\033S9\302\306\332"
 308      36728C6C 
 308      54C7AF82 
 308      8D4F281B 
 308      5339C2C6 
 309 0514 BF021B1B 		.ascii	"\277\002\033\033]\263\321O\307\006N\306\346\320\301"
 309      5DB3D14F 
 309      C7064EC6 
 309      E6D0C1
 310 0523 E006A636 		.ascii	"\340\006\2466}DK\350\251\346n0D\223\312\201\335l\036"
 310      7D444BE8 
 310      A9E66E30 
 310      4493CA81 
 310      DD6C1E
 311 0536 7D9D79FA 		.ascii	"}\235y\372\331\263[7\001\221\035M@v&& /\242\310\266"
 311      D9B35B37 
 311      01911D4D 
 311      40762626 
 311      202FA2C8 
 312 054b 58398D23 		.ascii	"X9\215#\250\303\273\367\354U{\274\227\020j{\212\364"
 312      A8C3BBF7 
 312      EC557BBC 
 312      97106A7B 
 312      8AF4
 313 055d B34CC2CF 		.ascii	"\263L\302\3172\012\037\036I[\277`?\363\274\372\206<"
 313      320A1F1E 
 313      495BBF60 
 313      3FF3BCFA 
 313      863C
 314 056f 6433575D 		.ascii	"d3W]\217c\332\220\014\"\300\253\211r\311\"\300\361:"
 314      8F63DA90 
 314      0C22C0AB 
 314      8972C922 
 314      C0F13A
 315 0582 6D34A732 		.ascii	"m4\2472:xM\210U\312\342W\350t\033#r\216\351\272F\270"
 315      3A784D88 
 315      55CAE257 
 315      E8741B23 
 315      728EE9BA 
 316 0598 963D181C 		.ascii	"\226=\030\034,\301\340\340\344\265q\253\034\334\263"
 316      2CC1E0E0 
 316      E4B571AB 
 316      1CDCB3
 317 05a7 40A58DF2 		.ascii	"@\245\215\362z\346\032\211\273\360\212\305\322\202\305"
 317      7AE61A89 
 317      BBF08AC5 
 317      D282C5
 318 05b6 DCEA190D 		.ascii	"\334\352\031\015\213,\224\301h\211\315\276\301\231\246"
 318      8B2C94C1 
 318      6889CDBE 
 318      C199A6
 319 05c5 56AF9DEE 		.ascii	"V\257\235\356\252Vm\214|\313\354\021\235\335>\2716\227"
ARM GAS  /tmp/ccMtk9eq.s 			page 25


 319      AA566D8C 
 319      7CCBEC11 
 319      9DDD3EB9 
 319      3697
 320 05d7 2EB008EC 		.ascii	".\260\010\354G,\247\242Z\015\266\231\205sT\334>\304"
 320      472CA7A2 
 320      5A0DB699 
 320      857354DC 
 320      3EC4
 321 05e9 8D6FB56A 		.ascii	"\215o\265j\276\265\030e\271\324kv\010\342(Wo\331\215"
 321      BEB51865 
 321      B9D46B76 
 321      08E22857 
 321      6FD98D
 322 05fc 5ED6C88E 		.ascii	"^\326\310\216\323\011R\342\262\353\205\346s\272\241"
 322      D30952E2 
 322      B2EB85E6 
 322      73BAA1
 323 060b FC3DEF35 		.ascii	"\374=\3575\231\000\364\200\255oQ\007\312d\0042\253\017"
 323      9900F480 
 323      AD6F5107 
 323      CA640432 
 323      AB0F
 324 061d 5F39660D 		.ascii	"_9f\015\025\230\331\012.|\273\375\005u\352\273\334\221"
 324      1598D90A 
 324      2E7CBBFD 
 324      0575EABB 
 324      DC91
 325 062f 15FC6461 		.ascii	"\025\374da\005\313\257\322\012\300\244O\355`\021\216"
 325      05CBAFD2 
 325      0AC0A44F 
 325      ED60118E 
 326 063f 86E35F24 		.ascii	"\206\343_$\210t\251\005\025\356\222\350V0\324\276\224"
 326      8874A905 
 326      15EE92E8 
 326      5630D4BE 
 326      94
 327 0650 C3DD6464 		.ascii	"\303\335dd\370\200#K\207\337\244\230\026\225\214\316"
 327      F880234B 
 327      87DFA498 
 327      16958CCE 
 328 0660 B4926214 		.ascii	"\264\222b\024\330F\216\304\347\357pd\021l\005\346\357"
 328      D8468EC4 
 328      E7EF7064 
 328      116C05E6 
 328      EF
 329 0671 71BAA530 		.ascii	"q\272\2450;\263x?i\026\002\273\306,F\247\263\244\214"
 329      3BB3783F 
 329      691602BB 
 329      C62C46A7 
 329      B3A48C
 330 0684 CD2CD35B 		.ascii	"\315,\323[\337\351k\264\276\332\326\335\236\371\262"
 330      DFE96BB4 
 330      BEDAD6DD 
 330      9EF9B2
 331 0693 329D77B1 		.ascii	"2\235w\261*\267\363S\315q\327\240\343\236K\221\356\006"
 331      2AB7F353 
ARM GAS  /tmp/ccMtk9eq.s 			page 26


 331      CD71D7A0 
 331      E39E4B91 
 331      EE06
 332 06a5 731CE164 		.ascii	"s\034\341dq\354\362\325\262\222\2708fz\226\203\270:"
 332      71ECF2D5 
 332      B292B838 
 332      667A9683 
 332      B83A
 333 06b7 CF42EA89 		.ascii	"\317B\352\211\321\254c\216\303\0056U\032\313N(t\221"
 333      D1AC638E 
 333      C3053655 
 333      1ACB4E28 
 333      7491
 334 06c9 7A3D5A5A 		.ascii	"z=ZZu\226\365*u\232u\272\327\260J\213\331\215\353\252"
 334      7596F52A 
 334      759A75BA 
 334      D7B04A8B 
 334      D98DEBAA 
 335 06dd 13EB742D 		.ascii	"\023\353t-\016\334\270JY3K\0337\351\3523\265\300\226"
 335      0EDCB84A 
 335      59334B1B 
 335      37E9EA33 
 335      B5C096
 336 06f0 F4169856 		.ascii	"\364\026\230V\236\006\025\266\350\034d\023:\310'z\247"
 336      9E0615B6 
 336      E81C6413 
 336      3AC8277A 
 336      A7
 337 0701 E098654E 		.ascii	"\340\230eNd\177\267\235)B7\324Nw\007\264\365\376\367"
 337      647FB79D 
 337      294237D4 
 337      4E7707B4 
 337      F5FEF7
 338 0714 CD78561D 		.ascii	"\315xV\035\221\001O\257\313*\245f\037\016\374\324F?"
 338      91014FAF 
 338      CB2AA566 
 338      1F0EFCD4 
 338      463F
 339 0726 7242DC10 		.ascii	"rB\334\020{\260\305u\232p\211\373q\314'N\360\206\331"
 339      7BB0C575 
 339      9A7089FB 
 339      71CC274E 
 339      F086D9
 340 0739 315BA5AC 		.ascii	"1[\245\254\333\247\005\022te{\233k<#}\007\352\014AS"
 340      DBA70512 
 340      74657B9B 
 340      6B3C237D 
 340      07EA0C41 
 341 074e 9B13B8E1 		.ascii	"\233\023\270\341\216u\237\334\372\201n\021\027/V\340"
 341      8E759FDC 
 341      FA816E11 
 341      172F56E0 
 342 075e 0EC13ACC 		.ascii	"\016\301:\314?\301\374+\314\277\306\374\030\346\247"
 342      3FC1FC2B 
 342      CCBFC6FC 
 342      18E6A7
 343 076d 31EFC1FC 		.ascii	"1\357\301\374W\314e\354Lg`\336\214\371f\314\377\027"
ARM GAS  /tmp/ccMtk9eq.s 			page 27


 343      57CC65EC 
 343      4C6760DE 
 343      8CF966CC 
 343      FF17
 344 077f F34F31DF 		.ascii	"\363O1\337\206\371\216L\035\256\266Gt\254\213C\367["
 344      86F98E4C 
 344      1DAEB647 
 344      74AC8B43 
 344      F75B
 345 0791 8AA34D47 		.ascii	"\212\243MG\226\271+jbM\313\274\246\255\031\273^vI\262"
 345      96B92B6A 
 345      624DCBBC 
 345      A6AD19BB 
 345      5E7649B2 
 346 07a5 9E61F8B9 		.ascii	"\236a\370\271\236\251\301\341g^\037\272\340\242\326"
 346      9EA9C1E1 
 346      675E1FBA 
 346      E0A2D6
 347 07b4 9F971882 		.ascii	"\237\227\030\202nP\001vs\327\343\235!\"\302\022vM\356"
 347      6E500176 
 347      73D7E39D 
 347      2122C212 
 347      764DEE
 348 07c7 E192AB3A 		.ascii	"\341\222\253:\271\276\344\2156"
 348      B9BEE48D 
 348      36
 349 07d0 52D9D5FB 		.ascii	"R\331\325\373\234sE\352H\255\276O\255\277\3275\245\355"
 349      9C7345EA 
 349      48ADBE4F 
 349      ADBFD735 
 349      A5ED
 350 07e2 3694E664 		.ascii	"6\224\346d\240\264\315\035\245\315\011\241\376\215\012"
 350      A0B4CD1D 
 350      A5CD09A1 
 350      FE8D0A
 351 07f1 B0DF35A9 		.ascii	"\260\3375\251\007lH\2759\003\251\373lH\275\231yMmYf"
 351      076C48BD 
 351      3903A9FB 
 351      6C48BD99 
 351      794D6D59 
 352 0806 25DB5D08 		.ascii	"%\333]\010\202p\220\243m\360\270\013\316\250\033\014"
 352      827090A3 
 352      6DF0B80B 
 352      CEA81B0C 
 353 0816 4FF169CD 		.ascii	"O\361i\315\232\224\353\340\014\026j%\251\372\341&Q\365"
 353      9A94EBE0 
 353      0C166A25 
 353      A9FAE126 
 353      51F5
 354 0828 D3403815 		.ascii	"\323@8\025\344\210kIu\332H\212\315@\356\341\244\244"
 354      E4886B49 
 354      75DA488A 
 354      CD40EEE1 
 354      A4A4
 355 083a 06328B64 		.ascii	"\0062\213d\345l\327\232\363]3\330Wa\024\225\317\222"
 355      E56CD79A 
 355      F35D33D8 
ARM GAS  /tmp/ccMtk9eq.s 			page 28


 355      57611495 
 355      CF92
 356 084c B19D8A82 		.ascii	"\261\235\212\202c\336\3146:\347\235L\203,\327\312M\262"
 356      63DECC36 
 356      3AE79D4C 
 356      832CD7CA 
 356      4DB2
 357 085e EC53BBAD 		.ascii	"\354S\273\255\006,\361\0057\320\2621m\313\346\357\230"
 357      062CF105 
 357      37D0B231 
 357      6DCBE6EF 
 357      98
 358 086f 658425B9 		.ascii	"e\204%\271Q\346Q\001\214ZGw\011\354\227\234\341H\010"
 358      51E65101 
 358      8C5A4777 
 358      09EC979C 
 358      E14808
 359 0882 A54C59DB 		.ascii	"\245LY\333:\033\272\311*%\036\177\230q\256\311oTM&\265"
 359      3A1BBAC9 
 359      2A251E7F 
 359      9871AEC9 
 359      6F544D26 
 360 0897 07A39D89 		.ascii	"\007\243\235\211\031k\262\2766\223u\314\222\254\226"
 360      196BB2BE 
 360      369375CC 
 360      92AC96
 361 08a6 D697726A 		.ascii	"\326\227rj\246v\305\343\003\235\023u\302\202\250fk\242"
 361      A676C5E3 
 361      039D1375 
 361      C282A866 
 361      6BA2
 362 08b8 6A8C4475 		.ascii	"j\214Du\233\211:iE\024\352E\206\340L\346\250\0048f\277"
 362      9B893A69 
 362      4514EA45 
 362      86E04CE6 
 362      A8043866 
 363 08cd 239E4F99 		.ascii	"#\236O\231\341O\247\302w\325t\255\211\237\275w^\223"
 363      E14FA7C2 
 363      77D574AD 
 363      899FBD77 
 363      5E93
 364 08df 3CFD45F9 		.ascii	"<\375E\371J\374y\3269\337g\314nu\022\027\251t~\005Q"
 364      4AFC79D6 
 364      39DF67CC 
 364      6E751217 
 364      A9747E05 
 365 08f4 588E9950 		.ascii	"X\216\231PZ\364\007KJj[\217g\317\227\267L\007f\237g"
 365      5AF4074B 
 365      4A6A5B8F 
 365      67CF97B7 
 365      4C07669F 
 366 0909 345EE7DA 		.ascii	"4^\347\332@\234\263\204X\324pxd\002\3029/=f^\310\250"
 366      409CB384 
 366      58D47078 
 366      6402C239 
 366      2F3D665E 
 367 091f 93787891 		.ascii	"\223xx\221:\244\211\267\317l\010\373\331\222\260s\313"
ARM GAS  /tmp/ccMtk9eq.s 			page 29


 367      3AA489B7 
 367      CF6C08FB 
 367      D992B073 
 367      CB
 368 0930 77DC3677 		.ascii	"w\3346wZ}\302\023)sU>k\214_,1\0267\354\0359\337NS\204"
 368      5A7DC213 
 368      2973553E 
 368      6B8C5F2C 
 368      311637EC 
 369 094a 483BF62E 		.ascii	"H;\366.\246aO\235o\310\325\362\335\215\311\320\330\320"
 369      A6614F9D 
 369      6FC8D5F2 
 369      DD8DC9D0 
 369      D8D0
 370 095c 8D6911F6 		.ascii	"\215i\021\366\2337\221\323,\2271\216\233c\242\3349\314"
 370      9B3791D3 
 370      2C97318E 
 370      9B63A2DC 
 370      39CC
 371 096e E1D9EB86 		.ascii	"\341\331\353\206a\244 \363\344\375\"\2379R\340Ms\026"
 371      61A420F3 
 371      E4FD229F 
 371      3952E04D 
 371      7316
 372 0980 DE3867E1 		.ascii	"\3368g\341}\311\233x\234g\\\0276\351\361m\033\035L\343"
 372      7DC99B78 
 372      9C675C17 
 372      36E9F16D 
 372      1B1D4CE3 
 373 0994 ADBD45B1 		.ascii	"\255\275E\261\363\226\034\346\005\\\377\235!Oe\377\230"
 373      F3961CE6 
 373      055CFF9D 
 373      214F65FF 
 373      98
 374 09a5 1081CDF6 		.ascii	"\020\201\315\366\024L\260\370\034r\022\301g\273\271"
 374      144CB0F8 
 374      1C7212C1 
 374      67BBB9
 375 09b4 440A302A 		.ascii	"D\0120*\371\364^\273K\263\2731\2037\251\232\250\313"
 375      F9F45EBB 
 375      4BB3BB31 
 375      8337A99A 
 375      A8CB
 376 09c6 F0A0FFA8 		.ascii	"\360\240\377\250\356D\231$\262\305F\"/YIDY\360\331K"
 376      EE449924 
 376      B2C54622 
 376      2F594944 
 376      59F0D94B 
 377 09da 326BD969 		.ascii	"2k\331i\022R\355\350\234m\246\223\024\316@W\247\015"
 377      1252EDE8 
 377      9C6DA693 
 377      14CE4057 
 377      A70D
 378 09ec 5DAF5A6A 		.ascii	"]\257Zjjq\303\341\207\026\332y\013\011>\355H\2533\223"
 378      6A71C3E1 
 378      8716DA79 
 378      0B093EED 
ARM GAS  /tmp/ccMtk9eq.s 			page 30


 378      48AB3393 
 379 0a00 F6B0D959 		.ascii	"\366\260\331Y\034L\316W\257\374\372\237V\312r?\201\235"
 379      1C4CCE57 
 379      AFFCFA9F 
 379      56CA723F 
 379      819D
 380 0a12 8B667EE0 		.ascii	"\213f~\340:\263\231{Mf\3565Z\256\327\227\274I\036sI"
 380      3AB3997B 
 380      4D66EE35 
 380      5AAED797 
 380      BC491E73 
 381 0a27 D0D4CCEA 		.ascii	"\320\324\314\3525i:\222A\206\3714\264-n\330<\240\021"
 381      35693A92 
 381      4186F934 
 381      B42D6ED8 
 381      3CA011
 382 0a3a 697B93C7 		.ascii	"i{\223\307\245\241\024\332:8S\260n\012\205L\322IU\325"
 382      A5A114DA 
 382      3A3853B0 
 382      6E0A854C 
 382      D24955D5 
 383 0a4e F1EBAC55 		.ascii	"\361\353\254U\265\330\250\252;\230%\262\322\016qJ\333"
 383      B5D8A8AA 
 383      3B9825B2 
 383      D20E714A 
 383      DB
 384 0a5f 5A9CEDC3 		.ascii	"Z\234\355\303\3543\036g\007j\263\210\237\023(\266\263"
 384      EC331E67 
 384      076AB388 
 384      9F1328B6 
 384      B3
 385 0a70 83241EC1 		.ascii	"\203$\036\301\252\257%\303\331?\274\203j\227\177\211"
 385      AAAF25C3 
 385      D93FBC83 
 385      6A977F89 
 386 0a80 B3711E05 		.ascii	"\263q\036\005\3101\0273B5\030\241V\221>\373\324\255"
 386      C8311733 
 386      423518A1 
 386      56913EFB 
 386      D4AD
 387 0a92 CD554928 		.ascii	"\315UI(-:\326\235\006T\322\035\201I=\314\242\226\252"
 387      2D3AD69D 
 387      0654D21D 
 387      81493DCC 
 387      A296AA
 388 0aa5 4FC4D337 		.ascii	"O\304\3237\342\353$0V\260)\005\323?\336m,\331\310[\307"
 388      E2EB2430 
 388      56B02905 
 388      D33FDE6D 
 388      2CD9C85B 
 389 0aba 921E8356 		.ascii	"\222\036\203V\264Rd\341\246\227IN\251T\274c\024\024"
 389      B45264E1 
 389      A697494E 
 389      A954BC63 
 389      1414
 390 0acc B85A5DF5 		.ascii	"\270Z]\365\201ml\255\\\257\351\317\352PR\266\006#%\015"
 390      816D6CAD 
ARM GAS  /tmp/ccMtk9eq.s 			page 31


 390      5CAFE9CF 
 390      EA5052B6 
 390      0623250D 
 391 0ae0 71C6C536 		.ascii	"q\306\3056\236\036,\344\311B\303\013\275\214F\223\021"
 391      9E1E2CE4 
 391      C942C30B 
 391      BD8C4693 
 391      11
 392 0af1 8663EAB0 		.ascii	"\206c\352\260\312\007|\312\232\315\321j\355h!\357d\351"
 392      CA077CCA 
 392      9ACDD16A 
 392      ED6821EF 
 392      64E9
 393 0b03 F5D54EDB 		.ascii	"\365\325N\333\023\221]\011\001\334\226\244\274\373\333"
 393      13915D09 
 393      01DC96A4 
 393      BCFBDB
 394 0b12 B394F226 		.ascii	"\263\224\362&\244|af\312\2150\034\263\002\253\254M\245"
 394      A47C6166 
 394      CA8D301C 
 394      B302ABAC 
 394      4DA5
 395 0b24 FC8C762A 		.ascii	"\374\214v*k\255#\312\327\035\324\257\326h\313\306\244"
 395      6BAD23CA 
 395      D71DD4AF 
 395      D668CBC6 
 395      A4
 396 0b35 6E9AD51A 		.ascii	"n\232\325\032\2035\352\361\252\224fz\032\246\031\203"
 396      8335EAF1 
 396      AA94667A 
 396      1AA61983 
 397 0b45 B94D6630 		.ascii	"\271Mf0W\213\306\262vP\212\236};\352\032,\317@\331\276"
 397      578BC6B2 
 397      76508A9E 
 397      7D3BEA1A 
 397      2CCF40D9 
 398 0b5a D78DEB6A 		.ascii	"\327\215\353j]N\360\322\234VQO$Q\260o\\\203\031\211"
 398      5D4EF0D2 
 398      9C56514F 
 398      2451B06F 
 398      5C831989 
 399 0b6e 3B725077 		.ascii	";rPw\364\2459\241\3334`Vg:\254.\275\221\010\354:\236"
 399      F4A539A1 
 399      DB346056 
 399      673AAC2E 
 399      BD9108EC 
 400 0b84 ACFA34F3 		.ascii	"\254\3724\363dmf=\346\037c\276\001\363\026\3147\362"
 400      646D663D 
 400      E61F63BE 
 400      01F316CC 
 400      37F2
 401 0b96 86F54025 		.ascii	"\206\365@%\341#\226\246\230\311$de\276\275s<\243U\317"
 401      E12396A6 
 401      98C92464 
 401      65BEBD73 
 401      3CA355CF 
 402 0baa 4DFAC6A7 		.ascii	"M\372\306\247=\212\027}c3\372Fkf\3370\240\300x\2045"
ARM GAS  /tmp/ccMtk9eq.s 			page 32


 402      3D8A177D 
 402      6333FA46 
 402      6B66DF30 
 402      A0C07884 
 403 0bbf B6A6B846 		.ascii	"\266\246\270Fk\207\346\032[\035\270F\225\362\345\\g"
 403      6B87E61A 
 403      5B1DB846 
 403      95F2E55C 
 403      67
 404 0bd0 9B7AC62E 		.ascii	"\233z\306.N\213v\177T\017=\357@.z\034\364M\006\030\216"
 404      4E8B767F 
 404      540F3DEF 
 404      402E7A1C 
 404      F44D0618 
 405 0be5 99964BAA 		.ascii	"\231\226K\252\354Je\243Ucc\227#6\026\316\325\354~;\237"
 405      EC4A65A3 
 405      55636397 
 405      233616CE 
 405      D5EC7E3B 
 406 0bfa 5C4FDE95 		.ascii	"\\O\336\225\336\272l\325Y\245,\352@S\245`k]\203\031"
 406      DEBA6CD5 
 406      59A52CEA 
 406      4053A560 
 406      6B5D8319 
 407 0c0e ED7E75C7 		.ascii	"\355~u\307\202\001r\375f61/H0m5\005\310\324cT)M\035"
 407      820172FD 
 407      6636312F 
 407      48306D35 
 407      05C8D463 
 408 0c26 E6E34C19 		.ascii	"\346\343L\031\303\231\031?(t\351q?F3o\344\272\215f8"
 408      C399193F 
 408      2874E971 
 408      3F46336F 
 408      E4BA8D66 
 409 0c3b A6C14CB5 		.ascii	"\246\301L\265\273\256\011t\372\3712m\363\035\027P\032"
 409      BBAE0974 
 409      FAF9326D 
 409      F31D1750 
 409      1A
 410 0c4c 9D005AF5 		.ascii	"\235\000Z\365MV\227\336\210\004v7\366\000{\320\323\333"
 410      4D5697DE 
 410      88047637 
 410      F6007BD0 
 410      D3DB
 411 0c5e 30DF8BF9 		.ascii	"0\337\213\371>\314\017\351}\337.* \252O`Ss\332z\325"
 411      3ECC0FE9 
 411      7DDF2E2A 
 411      20AA4F60 
 411      5373DA7A 
 412 0c73 E67436D5 		.ascii	"\346t6\325\234\334\200\031\315\351'\2039\011l;o\302"
 412      9CDC8019 
 412      CDE92783 
 412      39096C3B 
 412      6FC2
 413 0c85 73694E73 		.ascii	"siNs^\317m{F\263\315\367rY\227`\375\322)e\253N)\255"
 413      5ECF6D7B 
 413      46B3CDF7 
ARM GAS  /tmp/ccMtk9eq.s 			page 33


 413      72599760 
 413      FDD22965 
 414 0c9d A8946DA8 		.ascii	"\250\224m\250\202#\230wb\376\205\261+^\233k\352\212"
 414      82239877 
 414      62FE85B1 
 414      2B5E9B6B 
 414      EA8A
 415 0caf 0D3D9FD5 		.ascii	"\015=\237\325\300\240\027\217\254\254\352\004Y;\335"
 415      C0A0178F 
 415      ACACEA04 
 415      593BDD
 416 0cbe 11EBFE59 		.ascii	"\021\353\376Y\241=X\027\366`-\271\226=X\272\035\261"
 416      A13D5817 
 416      F6602DB9 
 416      963D58BA 
 416      1DB1
 417 0cd0 CFB0CAB1 		.ascii	"\317\260\312\261\324\030\345\212\326\203\035\313\334"
 417      D418E58A 
 417      D6831DCB 
 417      DC
 418 0cdd 834D9FA6 		.ascii	"\203M\237\246\314\177cy\262#\236\226\360\353n\326>p"
 418      CC7F6379 
 418      B2239E96 
 418      F0EB6ED6 
 418      3E70
 419 0cef 359C91EC 		.ascii	"5\234\221\354L\320\341\322D\255\025wL\247\270nT\334"
 419      4CD0E1D2 
 419      44AD1577 
 419      4CA7B86E 
 419      54DC
 420 0d01 09A39ABA 		.ascii	"\011\243\232\272\315j\262j/\315\016\332\372N-&\243\377"
 420      CD6AB26A 
 420      2FCD0EDA 
 420      FA4E2D26 
 420      A3FF
 421 0d13 FA73CA8C 		.ascii	"\372s\312\214Wo\370\277\036+@\243\336\333\335\350\375"
 421      576FF8BF 
 421      1E2B40A3 
 421      DEDBDDE8 
 421      FD
 422 0d24 F0C9530F 		.ascii	"\360\311S\017\242\336\317\240\336\353z\273\324;\021"
 422      A2DECFA0 
 422      DEEB7ABB 
 422      D43B11
 423 0d33 D15993CE 		.ascii	"\321Y\223\316\225sb\036}\233y\274\272\320\215\007\017"
 423      9573621E 
 423      7D9B79BC 
 423      BAD08D07 
 423      0F
 424 0d44 DC6C64B7 		.ascii	"\334ld\267\320\343p=8U~\253\267\271\003\277\252m\354"
 424      D0E3703D 
 424      38557EAB 
 424      B7B903BF 
 424      AA6DEC
 425 0d57 F710E6EC 		.ascii	"\367\020\346\354_\313h\316\352\214\346\034\032\315\217"
 425      5FCB68CE 
 425      EA8CE61C 
ARM GAS  /tmp/ccMtk9eq.s 			page 34


 425      1ACD8F
 426 0d66 46A359D3 		.ascii	"F\243Y\323\333\201\321\224;n\357\003]{\253\260\275\325"
 426      DB81D194 
 426      3B6EEF03 
 426      5D7BABB0 
 426      BDD5
 427 0d78 D8A32898 		.ascii	"\330\243(\230\177\205\371i\314\2773\322\361QB|\226s"
 427      7F85F969 
 427      CCBF33D2 
 427      F151427C 
 427      9673
 428 0d8a 265C5E34 		.ascii	"&\\^4\315\232\311T\367\353[WXNu\015k%\251\223\301\213"
 428      CD9AC954 
 428      F7EB5B57 
 428      584E750D 
 428      6B25A993 
 429 0da0 EA94D430 		.ascii	"\352\224\3240\211\\\237BBJ\275_M\263m\245k\315\371_"
 429      895C9F42 
 429      424ABD5F 
 429      4DB36DA5 
 429      6BCDF95F 
 430 0db4 067E5C25 		.ascii	"\006~\\%\313&\022\310\377\225\031\246\333\232\375B\377"
 430      CB2612C8 
 430      FF9519A6 
 430      DB9AFD42 
 430      FF
 431 0dc5 93E1E849 		.ascii	"\223\341\350I\327\232x\333\000r@\"\343Q\025\201\225"
 431      D79A78DB 
 431      00724022 
 431      E3511581 
 431      95
 432 0dd6 3D7759C5 		.ascii	"=wY\305t\306b\244`\225\307\344\031\277\022\317 o3{\306"
 432      74C662A4 
 432      6095C7E4 
 432      19BF12CF 
 432      206F337B 
 433 0deb E5CBDBE9 		.ascii	"\345\313\333\351\221\234\3438\3478\205\203%\251zu#o"
 433      919CE338 
 433      E7388583 
 433      25A97A75 
 433      236F
 434 0dfd FC14C299 		.ascii	"\374\024\302\231\242\245ol\242%\\d\363\230\002\237\315"
 434      A2A56F6C 
 434      A2255C64 
 434      F398029F 
 434      CD
 435 0e0e A8293724 		.ascii	"\250)7$\344\031H\250i\305\301\237\340r\3146'`i\006\353"
 435      E41948A8 
 435      69C5C19F 
 435      E072CC36 
 435      27606906 
 436 0e23 5A3D589B 		.ascii	"Z=X\233k\260\274\024\037\242\3363\315C\274g\272\007"
 436      6BB0BC14 
 436      1FA2DE33 
 436      CD43BC67 
 436      BA07
 437 0e35 B7BC319F 		.ascii	"\267\2741\237\211\371,\217\301o\016\245t;T\251:\274"
ARM GAS  /tmp/ccMtk9eq.s 			page 35


 437      89F92C8F 
 437      C16F0EA5 
 437      743B54A9 
 437      3ABC
 438 0e47 A4EE99CC 		.ascii	"\244\356\231\314\210\326:0)+n\323]\020\374\227=\206"
 438      88D63A30 
 438      292B6ED3 
 438      5D10FC97 
 438      3D86
 439 0e59 B0350939 		.ascii	"\2605\0119\334\310\276\316Qh%\353b\002;\333\243\371"
 439      DCC8BECE 
 439      516825EB 
 439      62023BDB 
 439      A3F9
 440 0e6b 6AA7FE40 		.ascii	"j\247\376@\237\356\221c\216\231]7\005\345\025\017\307"
 440      9FEE9163 
 440      8E995D37 
 440      05E5150F 
 440      C7
 441 0e7c FC86F9A9 		.ascii	"\374\206\371\251\367B\231\276\031\312\254\221g*\340"
 441      F74299BE 
 441      19CAAC91 
 441      672AE0
 442 0e8b 0397C165 		.ascii	"\003\227\301e\023z\375\023sQ\236'\203S+w\363\224*\342"
 442      137AFD13 
 442      73519E27 
 442      83532B77 
 442      F3942AE2 
 443 0e9f E66D6DCA 		.ascii	"\346mm\312\276mdl\004?\277\022\217\263T\000\034\363"
 443      BE6D646C 
 443      043FBF12 
 443      8FB35400 
 443      1CF3
 444 0eb1 4A1F53AB 		.ascii	"J\037S\253\251~7\307\303\351\232\033NkR%\320\266\224"
 444      A97E37C7 
 444      C3E99A1B 
 444      4E6B5225 
 444      D0B694
 445 0ec4 03DB5827 		.ascii	"\003\333X'\233\3313\023\377\0367H\205\236\347q\273\254"
 445      9BD93313 
 445      FF1E3748 
 445      859EE771 
 445      BBAC
 446 0ed6 36DF63BD 		.ascii	"6\337c\275\254\246\231\240]\275\327\223*\375\015\263"
 446      ACA699A0 
 446      5DBDD793 
 446      2AFD0DB3 
 447 0ee6 A0CF4279 		.ascii	"\240\317By\336\360d\363\324\226\01033e\245#[\363Vu\353"
 447      DEF064F3 
 447      D4960833 
 447      3365A523 
 447      5BF35675 
 448 0efb 92DA18C1 		.ascii	"\222\332\030\301\253F\020jmj\351#\211\322\372M?\225"
 448      AB46106A 
 448      6D6AE923 
 448      89D2FA4D 
 448      3F95
ARM GAS  /tmp/ccMtk9eq.s 			page 36


 449 0f0d 0A2A4ACD 		.ascii	"\012*J\315\232l\2442L#5[\245e\241k\241,\262\021J\226"
 449      9A6CA432 
 449      4C23355B 
 449      A565A16B 
 449      A12CB211 
 450 0f23 4A8EC9F4 		.ascii	"J\216\311\364{\322\364S\213=\326\233\376\006\222Sj\325"
 450      7BD2F453 
 450      8B3DD69B 
 450      FE069253 
 450      6AD5
 451 0f35 DBD63A93 		.ascii	"\333\326:\223\246\255%\036\363\266\371\345\236sO\277"
 451      A6AD251E 
 451      F3B6F9E5 
 451      9E734FBF 
 452 0f45 D74446A2 		.ascii	"\327DF\242+\361\347\247Ng\265\335\272\243}\214=\204"
 452      2BF1E7A7 
 452      4E67B5DD 
 452      BAA37D8C 
 452      3D84
 453 0f57 F5B6EB52 		.ascii	"\365\266\353R\217i\333\265\301c\261\253\3335\357\215"
 453      8F69DBB5 
 453      C163B1AB 
 453      DB35EF8D 
 454 0f67 03B79003 		.ascii	"\003\267\220\003\177d\247r\220\326\302\3779ja\231\271"
 454      7F64A772 
 454      90D6C2FF 
 454      396A6199 
 454      B9
 455 0f78 85E5962D 		.ascii	"\205\345\226-\0348\177n\344\205$\033\203\234o\207\276"
 455      1C387F6E 
 455      E485241B 
 455      839C6F87 
 455      BE
 456 0f89 E331ED80 		.ascii	"\3431\355\200lH\335\332}\253\257\236T,\3111M}\325\335"
 456      6C48DDDA 
 456      7DABAF9E 
 456      542CC931 
 456      4D7DD5DD 
 457 0f9d 2CF548   		.ascii	",\365H"
 458 0fa0 C15EE8D1 		.ascii	"\301^\350\321Y\355?}\025\254\321\350\261;T\240Fy*\307"
 458      59ED3F7D 
 458      15ACD1E8 
 458      B13B54A0 
 458      46792AC7 
 459 0fb4 3D53C70C 		.ascii	"=S\307\014Hp\334h\346\370]K\216/\367\354-\265R\\k_'"
 459      4870DC68 
 459      E6F85D4B 
 459      8E2FF7EC 
 459      2DB5525C 
 460 0fcb 625D6D6E 		.ascii	"b]mn\244\311FqgR\025\327\356\250\205\017\315-\2545\266"
 460      A4C94671 
 460      675215D7 
 460      EEA8850F 
 460      CD2DAC35 
 461 0fe0 60B25AAF 		.ascii	"`\262Z\257\275\251\257K\032-:\350\264\264q\266\300\266"
 461      BDA9AF4B 
 461      1A2D3AE8 
ARM GAS  /tmp/ccMtk9eq.s 			page 37


 461      B4B471B6 
 461      C0B6
 462 0ff2 E061B1CC 		.ascii	"\340a\261\314a\263U\010\224\245A=\303$"
 462      61B35508 
 462      94A5413D 
 462      C324
 463 1000 22ABCB57 		.ascii	"\"\253\313W\316\205\351\321\323\365\036\322\201\277"
 463      CE85E9D1 
 463      D3F51ED2 
 463      81BF
 464 100e DA2FE3F2 		.ascii	"\332/\343\362\230\021\007\2112\207Ru\235\271d\207\271"
 464      98110789 
 464      32875275 
 464      9DB96487 
 464      B9
 465 101f 25733005 		.ascii	"%s0\005\223\312\327:\023'\367<\304\274\026\"\011-W\027"
 465      93CAD73A 
 465      1327F73C 
 465      C4BC1622 
 465      092D5717 
 466 1033 4D01DEDC 		.ascii	"M\001\336\334N\272\360\215`K\\\203\345\031\300\346\351"
 466      4EBAF08D 
 466      604B5C83 
 466      E519C0E6 
 466      E9
 467 1044 C1963901 		.ascii	"\301\2269\001\263\213\213\000\354\015=\330\012\327`"
 467      B38B8B00 
 467      EC0D3DD8 
 467      0AD760
 468 1053 46CA16E8 		.ascii	"F\312\026\350\301V:\001\263[B\007\260Ez\260&\327`F\312"
 468      C1563A01 
 468      B35B4207 
 468      B0457AB0 
 468      26D76046 
 469 1068 56E9C13E 		.ascii	"V\351\301>r\002f\367o\221\000\326\244\007kq\015f\244"
 469      720266F7 
 469      6F9100D6 
 469      A4076B71 
 469      0D66A4
 470 107b EC433DD8 		.ascii	"\354C=\330\026'`y\366\224}\244\007\333\346\032\314H"
 470      16276079 
 470      F6947DA4 
 470      07DBE61A 
 470      CC48
 471 108d 59B31EEC 		.ascii	"Y\263\036\3543'`v\313\026\000\366\261\036l\217k0#e-"
 471      33276076 
 471      CB1600F6 
 471      B11E6C8F 
 471      6B302365 
 472 10a2 7AB07D4E 		.ascii	"z\260}N\300\206\330Q6U\331\364\0375\202~JJPm\"E}\261"
 472      C086D851 
 472      3655D9F4 
 472      1F35827E 
 472      4A4A506D 
 473 10ba 0DAC6D31 		.ascii	"\015\254m1\201=\342:\300\351\264\011p\364gP\222\245"
 473      813DE23A 
 473      C0E9B409 
ARM GAS  /tmp/ccMtk9eq.s 			page 38


 473      70F46750 
 473      92A5
 474 10cc C87F6099 		.ascii	"\310\177`\231\3316Ra\305\267Q\210mz!v:\021\342p{\260"
 474      D9365261 
 474      C5B75188 
 474      6D7A2176 
 474      3A11E270 
 475 10e2 763D5897 		.ascii	"v=X\227\023\260\221\366\266\262_\017v\3345\230\221\262"
 475      13B091F6 
 475      B6B25F0F 
 475      76DC3598 
 475      91B2
 476 10f4 0E3DD829 		.ascii	"\016=\330)'`c\354);\244\007\373\3165\230\236\262\251"
 476      276063EC 
 476      293BA407 
 476      FBCE3598 
 476      9EB2A9
 477 1107 CA91A4E1 		.ascii	"\312\221\244\341\321\371\225\316\362\322M\303t\226\227"
 477      D1F995CE 
 477      F2D24DC3 
 477      749697
 478 1116 32813AE5 		.ascii	"2\201:\345`\032\366\243\231n\003\212z;\316B\010V\227"
 478      601AF6A3 
 478      996E038A 
 478      7A3BCE42 
 478      085697
 479 1129 7EA415D8 		.ascii	"~\244\025\330\2158\035\336\204\023V\005\363-\230o\305"
 479      8D381DDE 
 479      84135605 
 479      F32D986F 
 479      C5
 480 113a BC15F3ED 		.ascii	"\274\025\363\355\230\357\304|\027\346\2731o\303\274"
 480      98EFC47C 
 480      17E6BB31 
 480      6FC3BC
 481 1149 1DF3FD98 		.ascii	"\035\363\375\230w`~\010\363/1\377\012\363\2571?\206"
 481      77607E08 
 481      F32F31FF 
 481      0AF3AF31 
 481      3F86
 482 115b 7937E627 		.ascii	"y7\346'\365\223cS\244\263\336FA\204\366om\243\372\213"
 482      F5936353 
 482      A4B3DE46 
 482      4184F66F 
 482      6DA3FA8B 
 483 116f 69A2FAEF 		.ascii	"i\242\372\357lk\221\023Rv\265\316\330\326\232\235\246"
 483      6C6B9113 
 483      5276B5CE 
 483      D8D69A9D 
 483      A6
 484 1180 D6F72933 		.ascii	"\326\367)3\210\243oo\011&bDS\334}9\315A\275\263\236"
 484      88A36F6F 
 484      09266244 
 484      53DC7D39 
 484      CD41BDB3 
 485 1195 D4B3A473 		.ascii	"\324\263\244s\257\267\014-\253\344U\215\262W;\322%\260"
 485      AFB70C2D 
ARM GAS  /tmp/ccMtk9eq.s 			page 39


 485      ABE4558D 
 485      B2573BD2 
 485      25B0
 486 11a7 3F24E36A 		.ascii	"?$\343j\323\031d\374|\3162\226mzw\347\355\272X\2264"
 486      D31964FC 
 486      7CCE3296 
 486      6D7A77E7 
 486      EDBA5896 
 487 11bc CF31879D 		.ascii	"\3171\207\2355\330\223\276\301\277X6\370\361\312#\367"
 487      35D893BE 
 487      C1BF5836 
 487      F8F1CA23 
 487      F7
 488 11cd A434B8A4 		.ascii	"\2444\270\244\277\243\006\177N\337\340\371\264\261\364"
 488      BFA3067F 
 488      4EDFE0F9 
 488      B4B1F4
 489 11dc B2E4E244 		.ascii	"\262\344\342D\212\324/\330j\375\3354\3133\027mk\325"
 489      8AD42FD8 
 489      6AFDDD34 
 489      CB33176D 
 489      6BD5
 490 11ee A5B1955F 		.ascii	"\245\261\225_\355\2559\015\205\227lk\235H\343\003\227"
 490      EDAD390D 
 490      85976C6B 
 490      9D48E303 
 490      97
 491 11ff 53EC7271 		.ascii	"S\354rq\303\216\321+\223\023\244\021&\323lN3\271\216"
 491      C38ED12B 
 491      9313A411 
 491      26D36C4E 
 491      33B98E
 492 1212 5B98E687 		.ascii	"[\230\346\207v\212kj$G\311\351\0315\201\275b3\345S\361"
 492      768A6B6A 
 492      2447C9E9 
 492      193581BD 
 492      6233E553 
 493 1227 64AFD551 		.ascii	"d\257\325Q\354\013\355\013\324\023\342\237\310\203r"
 493      EC0BED0B 
 493      D413E29F 
 493      C88372
 494 1236 5C1CDF9B 		.ascii	"\\\034\337\233\346M%\2645=\241\364\177S\004\266\312"
 494      E64D25B4 
 494      353DA1F4 
 494      7F5304B6 
 494      CA
 495 1247 9B96D0E9 		.ascii	"\233\226\320\351FB\231;\007\017\316\247\177\221X~T\312"
 495      4642993B 
 495      070FCEA7 
 495      7F91587E 
 495      54CA
 496 1259 0F8603A1 		.ascii	"\017\206\003\241\212\0221?P\032\233\022\223\246\224"
 496      8A12313F 
 496      501A9B12 
 496      93A694
 497 1268 8BB1C1A5 		.ascii	"\213\261\301\245L\216T\032\025\205\022\277\224\365\370"
 497      4C8E541A 
ARM GAS  /tmp/ccMtk9eq.s 			page 40


 497      158512BF 
 497      94F5F8
 498 1277 934FE515 		.ascii	"\223O\345\0252\276@\251\237\276\312\263\257\036(-\201"
 498      32BE40A9 
 498      9FBECAB3 
 498      AF1E282D 
 498      81
 499 1288 AA7D69B9 		.ascii	"\252}i\271\230\377\217\025b\205\350\227\372%\252\252"
 499      98FF8F15 
 499      6285E897 
 499      FA25AAAA 
 500 1298 AF3C6171 		.ascii	"\257<aq\262\344)\217\212\223\274\370<L\217\030\210\224"
 500      B2E4298F 
 500      8A93BCF8 
 500      3C4C8F18 
 500      8894
 501 12aa 9545C2F9 		.ascii	"\225E\302\371\345\221\250\024\313\037Q4\272p\364d\362"
 501      E591A814 
 501      CB1F5134 
 501      BA70F464 
 501      F2
 502 12bb AE3C1812 		.ascii	"\256<\030\022\243\261\374\307\013\013\241!\215\310l"
 502      A3B1FCC7 
 502      0B0BA121 
 502      8DC86C
 503 12ca A93C1A8C 		.ascii	"\251<\032\214\370\245\247\363K#eb\276\020\022'\347\217"
 503      F8A5A7F3 
 503      4B236562 
 503      BE101227 
 503      E78F
 504 12dc 16C35224 		.ascii	"\026\303R$\372xT(/\015\006b\371\305\221\212h@\214N\361"
 504      FA785428 
 504      2F0D0662 
 504      F9C5918A 
 504      68408C4E 
 505 12f1 17464AC4 		.ascii	"\027FJ\304G\3040\320\362DP\022\375\023\"Q?\240\373\037"
 505      47C430D0 
 505      F2445012 
 505      FD132251 
 505      3FA0FB1F 
 506 1305 1BF1C8A8 		.ascii	"\033\361\310\250|!Zvo8\022\026\357\025\205\361\301\004"
 506      7C215A76 
 506      6F381216 
 506      EF1585F1 
 506      C104
 507 1317 4331A924 		.ascii	"C1\251$\030\226\210,*\340\367\376\373\374\204\346`$"
 507      1896882C 
 507      2AE0F7FE 
 507      FBFC84E6 
 507      6024
 508 1329 9790E60F 		.ascii	"\227\220\346\017D\302\022pqOF\322K\003\221\250\010 "
 508      44C21270 
 508      714F46D2 
 508      4B0391A8 
 508      0820
 509 133b BDB01A00 		.ascii	"\275\260\032\000\005\244\311\367:\253\345\237\364`\031"
 509      05A4C9F7 
ARM GAS  /tmp/ccMtk9eq.s 			page 41


 509      3AABE59F 
 509      F46019
 510 134a 693E2A4E 		.ascii	"i>*N\004\012\375\022\027\035\312E\377\221\213>\300E"
 510      040AFD12 
 510      171DCA45 
 510      FF918B3E 
 510      C045
 511 135c 1FE4A2C3 		.ascii	"\037\344\242\303\270\350\357\371h\301\020H\005\\(\312"
 511      B8E8EFF9 
 511      68C11048 
 511      055C28CA 
 512 136c C5CA7980 		.ascii	"\305\312y\200\366\206\305J1\352\215\204J\304\250'P*"
 512      F686C54A 
 512      31EA8D84 
 512      4AC4A827 
 512      502A
 513 137e 443D61A1 		.ascii	"D=a\241L\274.&=+\204\202\023\303~\011\231y`((\266R\030"
 513      4CBC2E26 
 513      3D2B8482 
 513      13C37E09 
 513      99796028 
 514 1396 2FC4C41C 		.ascii	"/\304\304\034)&\011 \020)\233|\030\346\227\274\370\234"
 514      29260920 
 514      10299B7C 
 514      18E697BC 
 514      F89C
 515 13a8 2D9581C0 		.ascii	"-\225\201\300\340iBH\230\030\313\226\242\342\204\030"
 515      E0694248 
 515      9818CB96 
 515      A2E28418 
 516 13b8 0880FC78 		.ascii	"\010\200\374x\313b\023\241\270*\223\254h\311\024x\221"
 516      CB6213A1 
 516      B82A93AC 
 516      68C91478 
 516      91
 517 13c9 234E0E4A 		.ascii	"#N\016J\001\250\222U)E\306\377W\271\267R\222\242\345"
 517      01A89255 
 517      2945C6FF 
 517      57B9B752 
 517      92A2E5
 518 13dc D931D006 		.ascii	"\3311\320\006|\315\005\261\307\3042\320\011\2605\320"
 518      7CCD05B1 
 518      C7C432D0 
 518      09B035D0 
 519 13ec DE8044C2 		.ascii	"\336\200D\302\2577\020\226\374\022\0179`\301\253\362"
 519      AF371096 
 519      FC120F39 
 519      60C1ABF2 
 520 13fc 1CA85D56 		.ascii	"\034\250]V\001\342\266\257Y&M&5#\225a1\232\215e\011"
 520      01E2B6AF 
 520      59264D26 
 520      35239561 
 520      319A8D65 
 521 1411 8312BC2E 		.ascii	"\203\022\274.\357%N\"D\010\261g\341\225XIn\330\212>"
 521      EF254E22 
 521      4408B167 
 521      E1955849 
ARM GAS  /tmp/ccMtk9eq.s 			page 42


 521      6ED88A3E 
 522 1425 9A418682 		.ascii	"\232A\206\2021h\254\257\316D\311\233\354J!(\005\303"
 522      3168ACAF 
 522      CE44C99B 
 522      EC4A2128 
 522      05C3
 523 1437 13738076 		.ascii	"\023s\200v4\321\034\261\\\014\2039L\314\006HR\002\224"
 523      34D11CB1 
 523      5C0C8339 
 523      4CCC0648 
 523      520294
 524 144a 22848839 		.ascii	"\"\204\2109x\313\312#\221P\177\325]@>b\024\254\014$"
 524      78CBCA23 
 524      91507FD5 
 524      5D403E62 
 524      14AC0C24 
 525 145e 57902056 		.ascii	"W\220 V\022c\022!7\206\266H\037I\006\"\001pRx\310\220"
 525      12631221 
 525      3786B648 
 525      1F490622 
 525      01705278 
 526 1474 A1830360 		.ascii	"\241\203\003`\316\010R\300\226\367\307\317\360\026R"
 526      CE0852C0 
 526      96F7C7CF 
 526      F01652
 527 1483 0114932A 		.ascii	"\001\024\223*\312o5\274\022'\213\001\340rp\271\020\225"
 527      CA6F35BC 
 527      12278B01 
 527      E07270B9 
 527      1095
 528 1495 060FB9D1 		.ascii	"\006\017\271\321\352\333m\306\366C\301\361\371\204K"
 528      EADB6DC6 
 528      F643C1F1 
 528      F9844B
 529 14a4 B8471F25 		.ascii	"\270G\037%5\304\262 0\037yV\014\203\217\026\007J\213"
 529      35C4B220 
 529      301F7956 
 529      0C838F16 
 529      074A8B
 530 14b7 447061B1 		.ascii	"Dpa\261\244\"$\026\377\326V\324\252\234\000\004\264"
 530      A4222416 
 530      FFD656D4 
 530      AA9C0004 
 530      B4
 531 14c8 3AB6B404 		.ascii	":\266\264\004*U\224\211\243\356\311\314n4\022!m_\217"
 531      2A559489 
 531      A3EEC9CC 
 531      6E341221 
 531      6D5F8F
 532 14db 0F44C29A 		.ascii	"\017D\302\232\314}\244\343\011\226\211\252u\026<\340"
 532      CC7DA4E3 
 532      099689AA 
 532      75163CE0 
 533 14eb 976E44EC 		.ascii	"\227nD\354\342\212\030\221\373X\370\026\251\220\212"
 533      E28A1891 
 533      FB58F816 
 533      A9908A
ARM GAS  /tmp/ccMtk9eq.s 			page 43


 534 14fa BDFE4740 		.ascii	"\275\376G@\326\003\220\011\277\020\213\211\340QX\257"
 534      D6039009 
 534      BF108B89 
 534      E05158AF 
 535 150a 32182E89 		.ascii	"2\030.\211T\346\352?\204\256\261O \362\232\030\010\230"
 535      54E6EA3F 
 535      84AEB14F 
 535      20F29A18 
 535      0898
 536 151c FA86A183 		.ascii	"\372\206\241\203\207\015.\320\367\020%\342\004`)+\026"
 536      870D2ED0 
 536      F71025E2 
 536      0460292B 
 536      16
 537 152d 7C8EB890 		.ascii	"|\216\270\2204\241\"\034\360K\327#\361\205\300\233$"
 537      34A1221C 
 537      F04BD723 
 537      F185C09B 
 537      24
 538 153e 16833705 		.ascii	"\026\2037\005\003\274\024-\360Q\235Kb9W)\364\"\036\001"
 538      03BC142D 
 538      F0519D4B 
 538      62395729 
 538      F4221E01 
 539 1552 5C8BE0D7 		.ascii	"\\\213\340\327\276\304}.\021\307\024\325({\303\353\344"
 539      BEC47D2E 
 539      11C714D5 
 539      287BC3EB 
 539      E4
 540 1563 7376A022 		.ascii	"sv\240\"\012\226%y\243\344\351\246I\301\250T!\204\220"
 540      0A962579 
 540      A3E4E9A6 
 540      49C1A854 
 540      218490
 541 1576 FDA866C6 		.ascii	"\375\250f\3067C\015\213\017}\015\357h\207lx\345-\021"
 541      37430D8B 
 541      0F7D0DEF 
 541      68876C78 
 541      E52D11
 542 1589 43929033 		.ascii	"C\222\2203I%\337C~x0\255\234\220\020\223H\211\254I\022"
 542      4925DF43 
 542      7E7830AD 
 542      9C901093 
 542      4889AC49 
 543 159e 01EAA352 		.ascii	"\001\352\243R\\\"\216\257\230H\275F\377\306W.\204\203"
 543      5C228EAF 
 543      9848BD46 
 543      FFC6572E 
 543      8483
 544 15b0 013FF80C 		.ascii	"\001?\370\014_2~\342ue\002\350\022\025\374\033{c\"\016"
 544      5F327EE2 
 544      756502E8 
 544      1215FC1B 
 544      7B63220E 
 545 15c4 DF4F2AF3 		.ascii	"\337O*\363\007\240{\032\037\005QE\240\217\312\216J\330"
 545      07A07B1A 
 545      1F055145 
ARM GAS  /tmp/ccMtk9eq.s 			page 44


 545      A08FCA8E 
 545      4AD8
 546 15d6 07644526 		.ascii	"\007dE&L\000\343\347\2442.P\252zG\314\213\356\220#\211"
 546      4C00E3E7 
 546      A4322E50 
 546      AA7A47CC 
 546      8BEE9023 
 547 15eb 4214741E 		.ascii	"B\024t\036\316V\315\375:\"\335\000th \376\024\347\272"
 547      CE56CDFD 
 547      3A22DD00 
 547      746820FE 
 547      14E7BA
 548 15fe 65703452 		.ascii	"ep4R\"H\302\340\224/\271z\327\031\244\332[\236\000\211"
 548      2248C2E0 
 548      942FB97A 
 548      D719A4DA 
 548      5B9E0089 
 549 1612 DA751E91 		.ascii	"\332u\036\221\005\241\012\350\223\2460i\372\256)\304"
 549      05A10AE8 
 549      93A63069 
 549      FAAE29C4 
 550 1622 254095C5 		.ascii	"%@\225\305SbOD\002\317\372\260\277\017\301]\201Eo\017"
 550      53624F44 
 550      02CFFAB0 
 550      BF0FC15D 
 550      81456F0F 
 551 1636 43477EE1 		.ascii	"CG~\341\350\342Q\305I\204\262X0\346\007\213\003\224"
 551      E8E251C5 
 551      4984B258 
 551      30E6078B 
 551      0394
 552 1648 DE7EE2F3 		.ascii	"\336~\342\363\376GF\024?6\246hTo!T)L\211\301\330\021"
 552      FE474614 
 552      3F36A668 
 552      546F2154 
 552      294C89C1 
 553 165e 0A8645EF 		.ascii	"\012\206E\357$!T!\366\302v\236\012\023|:\262T\340\375"
 553      24215421 
 553      F6C2769E 
 553      0A137C3A 
 553      B254E0FD 
 554 1672 7DFAB64A 		.ascii	"}\372\266J\205\220:\254\024\217\035}\377}\371O<\361"
 554      85903AAC 
 554      148F1D7D 
 554      FF7DF94F 
 554      3CF1
 555 1684 68FED851 		.ascii	"h\376\330Q\243'\025\200\341\226\221\276;H\244\337+\361"
 555      A3271580 
 555      E19691BE 
 555      3B48A4DF 
 555      2BF1
 556 1696 009D6E61 		.ascii	"\000\235naQ\001\244\373<\305\243\013\213<\217\216z\254"
 556      5101A4FB 
 556      3CC5A30B 
 556      8B3C8F8E 
 556      7AAC
 557 16a8 882B2EE2 		.ascii	"\210+.\342\037{\274\310[X8\272\250\000\363\373<\205"
ARM GAS  /tmp/ccMtk9eq.s 			page 45


 557      1F7BBCC8 
 557      5B5838BA 
 557      A800F3FB 
 557      3C85
 558 16ba 858F15F1 		.ascii	"\205\217\025\361\205O\216\345\307\024\027\362#\212\212"
 558      854F8EE5 
 558      C71417F2 
 558      238A8A
 559 16c9 F8A24278 		.ascii	"\370\242Bx\206\012\217<:\266\210\177\224\324\034=\242"
 559      860A8F3C 
 559      3AB6887F 
 559      94D41C3D 
 559      A2
 560 16da 88FB175A 		.ascii	"\210\373\027Z\353~(?\256\310\336\004&\221>\241\177\240"
 560      EB7E283F 
 560      AEC8DE04 
 560      26913EA1 
 560      7FA0
 561 16ec F40F631F 		.ascii	"\364\017c\037\027\245b4'\342\357\343\362\035\016\222"
 561      17A56234 
 561      27E2EFE3 
 561      F21D0E92 
 562 16fc 68C10071 		.ascii	"h\301\000q\003\212\201\232\370D\221\336\335\357L\034"
 562      038A819A 
 562      F84491DE 
 562      DDEF4C1C 
 563 170c F005FCD2 		.ascii	"\360\005\374\322\037\012\221\360\245?\275C\214@\244"
 563      1F0A91F0 
 563      A53FBD43 
 563      8C40A4
 564 171b 0286F928 		.ascii	"\002\206\371(\365g o\014t\370Q\260\203q\275\2657\305"
 564      F567206F 
 564      0C74F851 
 564      B08371BD 
 564      B537C5
 565 172e 6268C2B8 		.ascii	"bh\302\270\377\007/\324\265,"
 565      FF072FD4 
 565      B52C
 566              		.text
 567              		.section	.gnu.lto_.symtab.5db50581e9f490a9,"",%progbits
 568 0000 74657374 		.ascii	"test_sequence_004\000\000\000\000\000\000\000\000\000"
 568      5F736571 
 568      75656E63 
 568      655F3030 
 568      34000000 
 569 001a 000000FC 		.ascii	"\000\000\000\374\001\000\000test_step\000\000\002\000"
 569      01000074 
 569      6573745F 
 569      73746570 
 569      00000200 
 570 002e 00000000 		.ascii	"\000\000\000\000\000\000\000\000\242\001\000\000wa\000"
 570      00000000 
 570      A2010000 
 570      776100
 571 003d 00020000 		.ascii	"\000\002\000\000\000\000\000\000\000\000\000\244\001"
 571      00000000 
 571      000000A4 
ARM GAS  /tmp/ccMtk9eq.s 			page 46


 571      01
 572 004a 00006368 		.ascii	"\000\000ch\000\000\002\000\000\000\000\000\000\000\000"
 572      00000200 
 572      00000000 
 572      000000
 573 0059 00AA0100 		.ascii	"\000\252\001\000\000threads\000\000\002\000\000\000"
 573      00746872 
 573      65616473 
 573      00000200 
 573      0000
 574 006b 00000000 		.ascii	"\000\000\000\000\000\000\371\001\000\000test_emit_t"
 574      0000F901 
 574      00007465 
 574      73745F65 
 574      6D69745F 
 575 0080 6F6B656E 		.ascii	"oken\000\000\002\000\000\000\000\000\000\000\000\000"
 575      00000200 
 575      00000000 
 575      00000000 
 576 0090 6C010000 		.ascii	"l\001\000\000chSchRescheduleS\000\000\002\000\000\000"
 576      63685363 
 576      68526573 
 576      63686564 
 576      756C6553 
 577 00aa 00000000 		.ascii	"\000\000\000\000\000\000p\001\000\000chThdResumeI\000"
 577      00007001 
 577      00006368 
 577      54686452 
 577      6573756D 
 578 00c1 00020000 		.ascii	"\000\002\000\000\000\000\000\000\000\000\000r\001\000"
 578      00000000 
 578      00000072 
 578      0100
 579 00cf 00746573 		.ascii	"\000test_wait_threads\000\000\002\000\000\000\000\000"
 579      745F7761 
 579      69745F74 
 579      68726561 
 579      64730000 
 580 00e9 00000000 		.ascii	"\000\000\000\000w\001\000\000chThdSuspendTimeoutS\000"
 580      77010000 
 580      63685468 
 580      64537573 
 580      70656E64 
 581 0106 00020000 		.ascii	"\000\002\000\000\000\000\000\000\000\000\000y\001\000"
 581      00000000 
 581      00000079 
 581      0100
 582 0114 005F7465 		.ascii	"\000_test_assert_time_window\000\000\002\000\000\000"
 582      73745F61 
 582      73736572 
 582      745F7469 
 582      6D655F77 
 583 0133 00000000 		.ascii	"\000\000\000\000\000\000\204\001\000\000_test_asser"
 583      00008401 
 583      00005F74 
 583      6573745F 
 583      61737365 
ARM GAS  /tmp/ccMtk9eq.s 			page 47


 584 0148 74000002 		.ascii	"t\000\000\002\000\000\000\000\000\000\000\000\000\215"
 584      00000000 
 584      00000000 
 584      008D
 585 0156 01000063 		.ascii	"\001\000\000chThdCreateStatic\000\000\002\000\000\000"
 585      68546864 
 585      43726561 
 585      74655374 
 585      61746963 
 586 0170 00000000 		.ascii	"\000\000\000\000\000\000\222\001\000\000"
 586      00009201 
 586      0000
 587              		.text
 588              		.section	.gnu.lto_.opts,"",%progbits
 589 0000 272D6D63 		.ascii	"'-mcpu=cortex-m3' '-mno-thumb-interwork' '-mthumb' "
 589      70753D63 
 589      6F727465 
 589      782D6D33 
 589      2720272D 
 590 0033 272D6767 		.ascii	"'-ggdb' '-O2' '-fomit-frame-pointer' '-falign-funct"
 590      64622720 
 590      272D4F32 
 590      2720272D 
 590      666F6D69 
 591 0066 696F6E73 		.ascii	"ions=16' '-ffunction-sections' '-fdata-sections' '-"
 591      3D313627 
 591      20272D66 
 591      66756E63 
 591      74696F6E 
 592 0099 666E6F2D 		.ascii	"fno-common' '-flto'\000"
 592      636F6D6D 
 592      6F6E2720 
 592      272D666C 
 592      746F2700 
 593              		.text
 594              		.cfi_sections	.debug_frame
 595              		.section	.text.test_004_001_setup,"ax",%progbits
 596              		.align	2
 597              		.p2align 4,,15
 598              		.thumb
 599              		.thumb_func
 600              		.type	test_004_001_setup, %function
 601              	test_004_001_setup:
 602              	.LFB218:
 603              		.file 1 "../../../test/rt/source/test/test_sequence_004.c"
 604              		.loc 1 74 0
 605              		.cfi_startproc
 606              		@ args = 0, pretend = 0, frame = 0
 607              		@ frame_needed = 0, uses_anonymous_args = 0
 608              		@ link register save eliminated.
 609              		.loc 1 75 0
 610 0000 40F20003 		movw	r3, #:lower16:.LANCHOR0
 611 0004 C0F20003 		movt	r3, #:upper16:.LANCHOR0
 612 0008 0022     		movs	r2, #0
 613 000a 1A60     		str	r2, [r3]
 614 000c 7047     		bx	lr
 615              		.cfi_endproc
ARM GAS  /tmp/ccMtk9eq.s 			page 48


 616              	.LFE218:
 617              		.size	test_004_001_setup, .-test_004_001_setup
 618 000e 00BF     		.section	.text.thread1,"ax",%progbits
 619              		.align	2
 620              		.p2align 4,,15
 621              		.thumb
 622              		.thumb_func
 623              		.type	thread1, %function
 624              	thread1:
 625              	.LFB217:
 626              		.loc 1 44 0
 627              		.cfi_startproc
 628              		@ args = 0, pretend = 0, frame = 0
 629              		@ frame_needed = 0, uses_anonymous_args = 0
 630              	.LVL0:
 631 0000 10B5     		push	{r4, lr}
 632              		.cfi_def_cfa_offset 8
 633              		.cfi_offset 4, -8
 634              		.cfi_offset 14, -4
 635              	.LBB87:
 636              	.LBB88:
 637              	.LBB89:
 638              	.LBB90:
 639              		.file 2 "../../../os/common/ext/CMSIS/include/cmsis_gcc.h"
 640              		.loc 2 264 0
 641 0002 2023     		movs	r3, #32
 642              	.LBE90:
 643              	.LBE89:
 644              	.LBE88:
 645              	.LBE87:
 646              		.loc 1 44 0
 647 0004 0446     		mov	r4, r0
 648              	.LBB94:
 649              	.LBB93:
 650              	.LBB92:
 651              	.LBB91:
 652              		.loc 2 264 0
 653              	@ 264 "../../../os/common/ext/CMSIS/include/cmsis_gcc.h" 1
 654 0006 83F31188 		MSR basepri, r3
 655              	@ 0 "" 2
 656              		.thumb
 657              	.LBE91:
 658              	.LBE92:
 659              	.LBE93:
 660              	.LBE94:
 661              		.loc 1 47 0
 662 000a 40F20000 		movw	r0, #:lower16:.LANCHOR0
 663              	.LVL1:
 664 000e C0F20000 		movt	r0, #:upper16:.LANCHOR0
 665 0012 0021     		movs	r1, #0
 666 0014 FFF7FEFF 		bl	chThdResumeI
 667              	.LVL2:
 668              		.loc 1 48 0
 669 0018 FFF7FEFF 		bl	chSchRescheduleS
 670              	.LVL3:
 671              	.LBB95:
 672              	.LBB96:
ARM GAS  /tmp/ccMtk9eq.s 			page 49


 673              	.LBB97:
 674              	.LBB98:
 675              	.LBB99:
 676              		.loc 2 264 0
 677 001c 0023     		movs	r3, #0
 678              	@ 264 "../../../os/common/ext/CMSIS/include/cmsis_gcc.h" 1
 679 001e 83F31188 		MSR basepri, r3
 680              	@ 0 "" 2
 681              		.thumb
 682              	.LBE99:
 683              	.LBE98:
 684              	.LBE97:
 685              	.LBE96:
 686              	.LBE95:
 687              		.loc 1 50 0
 688 0022 2078     		ldrb	r0, [r4]	@ zero_extendqisi2
 689              		.loc 1 51 0
 690 0024 BDE81040 		pop	{r4, lr}
 691              	.LVL4:
 692              		.loc 1 50 0
 693 0028 FFF7FEBF 		b	test_emit_token
 694              	.LVL5:
 695              		.cfi_endproc
 696              	.LFE217:
 697              		.size	thread1, .-thread1
 698 002c AFF30080 		.section	.text.test_004_001_execute,"ax",%progbits
 699              		.align	2
 700              		.p2align 4,,15
 701              		.thumb
 702              		.thumb_func
 703              		.type	test_004_001_execute, %function
 704              	test_004_001_execute:
 705              	.LFB219:
 706              		.loc 1 78 0
 707              		.cfi_startproc
 708              		@ args = 0, pretend = 0, frame = 0
 709              		@ frame_needed = 0, uses_anonymous_args = 0
 710 0000 70B5     		push	{r4, r5, r6, lr}
 711              		.cfi_def_cfa_offset 16
 712              		.cfi_offset 4, -16
 713              		.cfi_offset 5, -12
 714              		.cfi_offset 6, -8
 715              		.cfi_offset 14, -4
 716              	.LBB141:
 717              	.LBB142:
 718              	.LBB143:
 719              	.LBB144:
 720              		.file 3 "../../../os/rt/include/chthreads.h"
 721              		.loc 3 286 0
 722 0002 40F20003 		movw	r3, #:lower16:ch
 723 0006 C0F20003 		movt	r3, #:upper16:ch
 724              	.LBE144:
 725              	.LBE143:
 726              		.loc 3 299 0
 727 000a 9A69     		ldr	r2, [r3, #24]
 728              	.LBE142:
 729              	.LBE141:
ARM GAS  /tmp/ccMtk9eq.s 			page 50


 730              		.loc 1 87 0
 731 000c 40F20003 		movw	r3, #:lower16:wa
 732 0010 9268     		ldr	r2, [r2, #8]
 733 0012 C0F20003 		movt	r3, #:upper16:wa
 734 0016 40F20001 		movw	r1, #:lower16:.LC0
 735              		.loc 1 85 0
 736 001a 40F20004 		movw	r4, #:lower16:test_step
 737              		.loc 1 78 0
 738 001e 82B0     		sub	sp, sp, #8
 739              		.cfi_def_cfa_offset 24
 740              		.loc 1 87 0
 741 0020 1868     		ldr	r0, [r3]
 742 0022 C0F20001 		movt	r1, #:upper16:.LC0
 743              		.loc 1 85 0
 744 0026 C0F20004 		movt	r4, #:upper16:test_step
 745 002a 0125     		movs	r5, #1
 746              		.loc 1 87 0
 747 002c 40F20003 		movw	r3, #:lower16:thread1
 748 0030 0091     		str	r1, [sp]
 749 0032 013A     		subs	r2, r2, #1
 750 0034 C0F20003 		movt	r3, #:upper16:thread1
 751 0038 4FF4A471 		mov	r1, #328
 752              		.loc 1 85 0
 753 003c 2560     		str	r5, [r4]
 754              		.loc 1 87 0
 755 003e FFF7FEFF 		bl	chThdCreateStatic
 756              	.LVL6:
 757 0042 40F20003 		movw	r3, #:lower16:threads
 758 0046 C0F20003 		movt	r3, #:upper16:threads
 759 004a 1860     		str	r0, [r3]
 760              	.LVL7:
 761              	.LBB145:
 762              	.LBB146:
 763              	.LBB147:
 764              	.LBB148:
 765              		.loc 2 264 0
 766 004c 2023     		movs	r3, #32
 767              	@ 264 "../../../os/common/ext/CMSIS/include/cmsis_gcc.h" 1
 768 004e 83F31188 		MSR basepri, r3
 769              	@ 0 "" 2
 770              		.thumb
 771              	.LBE148:
 772              	.LBE147:
 773              	.LBE146:
 774              	.LBE145:
 775              		.loc 1 89 0
 776 0052 40F20000 		movw	r0, #:lower16:.LANCHOR0
 777 0056 4FF6FF71 		movw	r1, #65535
 778 005a C0F20000 		movt	r0, #:upper16:.LANCHOR0
 779 005e FFF7FEFF 		bl	chThdSuspendTimeoutS
 780              	.LVL8:
 781              	.LBB149:
 782              	.LBB150:
 783              	.LBB151:
 784              	.LBB152:
 785              	.LBB153:
 786              		.loc 2 264 0
ARM GAS  /tmp/ccMtk9eq.s 			page 51


 787 0062 0023     		movs	r3, #0
 788              	.LBE153:
 789              	.LBE152:
 790              	.LBE151:
 791              	.LBE150:
 792              	.LBE149:
 793              		.loc 1 89 0
 794 0064 0646     		mov	r6, r0
 795              	.LVL9:
 796              	.LBB158:
 797              	.LBB157:
 798              	.LBB156:
 799              	.LBB155:
 800              	.LBB154:
 801              		.loc 2 264 0
 802              	@ 264 "../../../os/common/ext/CMSIS/include/cmsis_gcc.h" 1
 803 0066 83F31188 		MSR basepri, r3
 804              	@ 0 "" 2
 805              		.thumb
 806              	.LBE154:
 807              	.LBE155:
 808              	.LBE156:
 809              	.LBE157:
 810              	.LBE158:
 811              		.loc 1 91 0
 812 006a 40F20005 		movw	r5, #:lower16:.LANCHOR0
 813 006e C0F20005 		movt	r5, #:upper16:.LANCHOR0
 814 0072 2868     		ldr	r0, [r5]
 815              	.LVL10:
 816 0074 40F20001 		movw	r1, #:lower16:.LC1
 817 0078 D0F10100 		rsbs	r0, r0, #1
 818 007c 38BF     		it	cc
 819 007e 0020     		movcc	r0, #0
 820 0080 C0F20001 		movt	r1, #:upper16:.LC1
 821 0084 FFF7FEFF 		bl	_test_assert
 822              	.LVL11:
 823 0088 08B1     		cbz	r0, .L8
 824              	.LVL12:
 825              	.L3:
 826              		.loc 1 111 0
 827 008a 02B0     		add	sp, sp, #8
 828              		@ sp needed
 829 008c 70BD     		pop	{r4, r5, r6, pc}
 830              	.LVL13:
 831              	.L8:
 832              		.loc 1 92 0
 833 008e D6F10100 		rsbs	r0, r6, #1
 834 0092 40F20001 		movw	r1, #:lower16:.LC2
 835 0096 38BF     		it	cc
 836 0098 0020     		movcc	r0, #0
 837 009a C0F20001 		movt	r1, #:upper16:.LC2
 838 009e FFF7FEFF 		bl	_test_assert
 839              	.LVL14:
 840 00a2 0028     		cmp	r0, #0
 841 00a4 F1D1     		bne	.L3
 842              	.LBB159:
 843              	.LBB160:
ARM GAS  /tmp/ccMtk9eq.s 			page 52


 844              		.loc 1 93 0
 845 00a6 FFF7FEFF 		bl	test_wait_threads
 846              	.LVL15:
 847              		.loc 1 99 0
 848 00aa 0223     		movs	r3, #2
 849 00ac 2360     		str	r3, [r4]
 850              	.LVL16:
 851              	.LBB161:
 852              	.LBB162:
 853              	.LBB163:
 854              	.LBB164:
 855              		.loc 2 264 0
 856 00ae 2023     		movs	r3, #32
 857              	@ 264 "../../../os/common/ext/CMSIS/include/cmsis_gcc.h" 1
 858 00b0 83F31188 		MSR basepri, r3
 859              	@ 0 "" 2
 860              		.thumb
 861              	.LBE164:
 862              	.LBE163:
 863              	.LBE162:
 864              	.LBE161:
 865              		.loc 1 103 0
 866 00b4 40F20000 		movw	r0, #:lower16:.LANCHOR0
 867              	.LBB165:
 868              	.LBB166:
 869              	.LBB167:
 870              	.LBB168:
 871              		.file 4 "../../../os/hal/ports/STM32/LLD/TIMv1/hal_st_lld.h"
 872              		.loc 4 141 0
 873 00b8 4FF08043 		mov	r3, #1073741824
 874              	.LBE168:
 875              	.LBE167:
 876              	.LBE166:
 877              	.LBE165:
 878              		.loc 1 103 0
 879 00bc 42F21071 		movw	r1, #10000
 880 00c0 C0F20000 		movt	r0, #:upper16:.LANCHOR0
 881              	.LBB175:
 882              	.LBB173:
 883              	.LBB171:
 884              	.LBB169:
 885              		.loc 4 141 0
 886 00c4 5C6A     		ldr	r4, [r3, #36]
 887              	.LBE169:
 888              	.LBE171:
 889              	.LBE173:
 890              	.LBE175:
 891              		.loc 1 103 0
 892 00c6 FFF7FEFF 		bl	chThdSuspendTimeoutS
 893              	.LVL17:
 894              	.LBB176:
 895              	.LBB174:
 896              	.LBB172:
 897              	.LBB170:
 898              		.loc 4 141 0
 899 00ca A4B2     		uxth	r4, r4
 900              	.LBE170:
ARM GAS  /tmp/ccMtk9eq.s 			page 53


 901              	.LBE172:
 902              	.LBE174:
 903              	.LBE176:
 904              		.loc 1 103 0
 905 00cc 0646     		mov	r6, r0
 906              	.LVL18:
 907              	.LBB177:
 908              	.LBB178:
 909              	.LBB179:
 910              	.LBB180:
 911              	.LBB181:
 912              		.loc 2 264 0
 913 00ce 0023     		movs	r3, #0
 914              	@ 264 "../../../os/common/ext/CMSIS/include/cmsis_gcc.h" 1
 915 00d0 83F31188 		MSR basepri, r3
 916              	@ 0 "" 2
 917              		.thumb
 918              	.LBE181:
 919              	.LBE180:
 920              	.LBE179:
 921              	.LBE178:
 922              	.LBE177:
 923              		.loc 1 105 0
 924 00d4 04F51C53 		add	r3, r4, #9984
 925 00d8 03F11000 		add	r0, r3, #16
 926              	.LVL19:
 927 00dc 40F20002 		movw	r2, #:lower16:.LC3
 928 00e0 1333     		adds	r3, r3, #19
 929 00e2 80B2     		uxth	r0, r0
 930 00e4 99B2     		uxth	r1, r3
 931 00e6 C0F20002 		movt	r2, #:upper16:.LC3
 932 00ea FFF7FEFF 		bl	_test_assert_time_window
 933              	.LVL20:
 934 00ee 0028     		cmp	r0, #0
 935 00f0 CBD1     		bne	.L3
 936              		.loc 1 108 0
 937 00f2 2868     		ldr	r0, [r5]
 938 00f4 40F20001 		movw	r1, #:lower16:.LC1
 939 00f8 D0F10100 		rsbs	r0, r0, #1
 940 00fc 38BF     		it	cc
 941 00fe 0020     		movcc	r0, #0
 942 0100 C0F20001 		movt	r1, #:upper16:.LC1
 943 0104 FFF7FEFF 		bl	_test_assert
 944              	.LVL21:
 945 0108 0028     		cmp	r0, #0
 946 010a BED1     		bne	.L3
 947              		.loc 1 109 0
 948 010c B6F1FF33 		subs	r3, r6, #-1
 949 0110 5842     		rsbs	r0, r3, #0
 950 0112 40F20001 		movw	r1, #:lower16:.LC2
 951 0116 5841     		adcs	r0, r0, r3
 952 0118 C0F20001 		movt	r1, #:upper16:.LC2
 953              	.LBE160:
 954              	.LBE159:
 955              		.loc 1 111 0
 956 011c 02B0     		add	sp, sp, #8
 957              		@ sp needed
ARM GAS  /tmp/ccMtk9eq.s 			page 54


 958 011e BDE87040 		pop	{r4, r5, r6, lr}
 959              	.LVL22:
 960              	.LBB183:
 961              	.LBB182:
 962              		.loc 1 109 0
 963 0122 FFF7FEBF 		b	_test_assert
 964              	.LVL23:
 965              	.LBE182:
 966              	.LBE183:
 967              		.cfi_endproc
 968              	.LFE219:
 969              		.size	test_004_001_execute, .-test_004_001_execute
 970              		.global	test_sequence_004
 971 0126 00BFAFF3 		.section	.rodata.test_sequence_004,"a",%progbits
 971      0080AFF3 
 971      0080
 972              		.align	2
 973              		.type	test_sequence_004, %object
 974              		.size	test_sequence_004, 8
 975              	test_sequence_004:
 976 0000 00000000 		.word	test_004_001
 977 0004 00000000 		.word	0
 978              		.section	.bss.tr1,"aw",%nobits
 979              		.align	2
 980              		.set	.LANCHOR0,. + 0
 981              		.type	tr1, %object
 982              		.size	tr1, 4
 983              	tr1:
 984 0000 00000000 		.space	4
 985              		.section	.rodata.str1.4,"aMS",%progbits,1
 986              		.align	2
 987              	.LC0:
 988 0000 4100     		.ascii	"A\000"
 989 0002 0000     		.space	2
 990              	.LC1:
 991 0004 6E6F7420 		.ascii	"not NULL\000"
 991      4E554C4C 
 991      00
 992 000d 000000   		.space	3
 993              	.LC2:
 994 0010 77726F6E 		.ascii	"wrong returned message\000"
 994      67207265 
 994      7475726E 
 994      6564206D 
 994      65737361 
 995 0027 00       		.space	1
 996              	.LC3:
 997 0028 6F757420 		.ascii	"out of time window\000"
 997      6F662074 
 997      696D6520 
 997      77696E64 
 997      6F7700
 998 003b 00       		.space	1
 999              	.LC4:
 1000 003c 53757370 		.ascii	"Suspend and Resume functionality\000"
 1000      656E6420 
 1000      616E6420 
ARM GAS  /tmp/ccMtk9eq.s 			page 55


 1000      52657375 
 1000      6D652066 
 1001 005d 000000   		.section	.rodata.test_004_001,"a",%progbits
 1002              		.align	2
 1003              		.type	test_004_001, %object
 1004              		.size	test_004_001, 16
 1005              	test_004_001:
 1006 0000 3C000000 		.word	.LC4
 1007 0004 00000000 		.word	test_004_001_setup
 1008 0008 00000000 		.word	0
 1009 000c 00000000 		.word	test_004_001_execute
 1010              		.text
 1011              	.Letext0:
 1012              		.file 5 "/home/alex/MentorGraphics/Sourcery_CodeBench_Lite_for_ARM_EABI/lib/gcc/arm-none-eabi/4.8.
 1013              		.file 6 "/home/alex/MentorGraphics/Sourcery_CodeBench_Lite_for_ARM_EABI/arm-none-eabi/include/stdi
 1014              		.file 7 "../../../os/common/ports/ARMCMx/compilers/GCC/chtypes.h"
 1015              		.file 8 "../../../os/rt/include/chsystypes.h"
 1016              		.file 9 "../../../os/rt/include/chschd.h"
 1017              		.file 10 "../../../os/common/ports/ARMCMx/chcore.h"
 1018              		.file 11 "../../../os/common/ports/ARMCMx/chcore_v7m.h"
 1019              		.file 12 "../../../os/hal/ports/STM32/LLD/TIMv1/stm32_tim.h"
 1020              		.file 13 "../../../os/rt/include/chtm.h"
 1021              		.file 14 "../../../os/rt/include/chsem.h"
 1022              		.file 15 "../../../os/rt/include/chmtx.h"
 1023              		.file 16 "../../../test/lib/ch_test.h"
 1024              		.file 17 "../../../os/common/ports/ARMCMx/chcore_timer.h"
 1025              		.file 18 "../../../os/rt/include/chsys.h"
 1026              		.file 19 "../../../os/rt/include/chvt.h"
 1027              		.file 20 "../../../os/common/ext/CMSIS/include/core_cm3.h"
 1028              		.file 21 "../../../test/rt/source/test/test_root.h"