ARM GAS  /tmp/cca0jqD2.s 			page 1


   1              		.syntax unified
   2              		.cpu cortex-m3
   3              		.fpu softvfp
   4              		.eabi_attribute 20, 1
   5              		.eabi_attribute 21, 1
   6              		.eabi_attribute 23, 3
   7              		.eabi_attribute 24, 1
   8              		.eabi_attribute 25, 1
   9              		.eabi_attribute 26, 1
  10              		.eabi_attribute 30, 2
  11              		.eabi_attribute 34, 1
  12              		.eabi_attribute 18, 4
  13              		.thumb
  14              		.file	"test_sequence_007.c"
  15              		.text
  16              	.Ltext0:
  17              		.section	.gnu.lto_.jmpfuncs.7935f74bde241716,"",%progbits
  18 0000 789C6362 		.ascii	"x\234cb`b\300\006\326\000\261\004\020\003e\231\230\252"
  18      6062C006 
  18      D600B104 
  18      10036599 
  18      98AA
  19 0012 197E35CC 		.ascii	"\031~5\314h\020\310dd\220c`\234\3330\303!\223\221\021"
  19      6810C864 
  19      64906360 
  19      9CDB30C3 
  19      21939111 
  20 0026 AC0A21C3 		.ascii	"\254\012!\303$\307\300\016\221a\206\030\300\310\000"
  20      24C7C00E 
  20      91618618 
  20      C0C800
  21 0035 359915C8 		.ascii	"5\231\025\310\210`\314dd9\301\004\327\322\001\322\302"
  21      8860CC64 
  21      6439C104 
  21      D7D201D2 
  21      C2
  22 0046 9ACC08B5 		.ascii	"\232\314\010\265\214\205\221\011\244\253\014\252\222"
  22      8C859109 
  22      A4AB0CAA 
  22      92
  23 0053 CD05C840 		.ascii	"\315\005\310@\021pF\027pB\027p\004\331\344\350\344\354"
  23      11704617 
  23      70421770 
  23      04D9E4E8 
  23      E4EC
  24 0065 C2209899 		.ascii	"\302 \230\231W\226\230\223\231\242P\234ZX\232\232\227"
  24      57969893 
  24      99A2509C 
  24      5A589A9A 
  24      97
  25 0076 9CCA0000 		.ascii	"\234\312\000\000\333\023 \013"
  25      DB13200B 
  26              		.text
  27              		.section	.gnu.lto_.inline.7935f74bde241716,"",%progbits
  28 0000 789C6362 		.ascii	"x\234cb`b\300\006\312\2414PV\341$##\003\223\330\205"
  28      6062C006 
  28      CAA13450 
ARM GAS  /tmp/cca0jqD2.s 			page 2


  28      56E12423 
  28      230393D8 
  29 0015 366606B6 		.ascii	"6f\006\266\005\362`\345\314<`\031F.\220\012nF\006\306"
  29      05F260E5 
  29      CC3C6019 
  29      462E900A 
  29      6E4606C6 
  30 0029 097ECC3C 		.ascii	"\011~\314<@E\023\374&\370\201\370\014\354\002\014\014"
  30      404513FC 
  30      26F881F8 
  30      0CEC020C 
  30      0C
  31 003a AC13FC18 		.ascii	"\254\023\374\030\300\210\205\201\337\210\021l\017\212"
  31      C0888581 
  31      DF88116C 
  31      0F8A
  32 0048 7EA01C2E 		.ascii	"~\240\034.\232\001\000ot\016\007"
  32      9A01006F 
  32      740E07
  33              		.text
  34              		.section	.gnu.lto_.pureconst.7935f74bde241716,"",%progbits
  35 0000 789C6362 		.ascii	"x\234cb`b`e\200\000&\006I\026\011\000\001\007\000A"
  35      60626065 
  35      80002606 
  35      49160900 
  35      01070041 
  36              		.text
  37              		.section	.gnu.lto_test_007_001_execute.7935f74bde241716,"",%progbits
  38 0000 789C9554 		.ascii	"x\234\225T[kSY\024^k\237s\3224M\215\321V\353\255\255"
  38      5B6B5359 
  38      145E6B9F 
  38      73D2344D 
  38      8DD156EB 
  39 0016 B7979149 		.ascii	"\267\227\221I\024\004)\210x\373\011\012\372$\3614\244"
  39      14042988 
  39      78FB090A 
  39      FA24F134 
  39      A4
  40 0027 079A3A36 		.ascii	"\007\232:6\351\274\314\203\273M\035}\360\022\364\245"
  40      E9BCCC83 
  40      BB4D1D7D 
  40      F012F4A5 
  41 0037 2AE2A554 		.ascii	"*\342\245TA\304\013\202\212x\211\024$\245j\355\203\240"
  41      41C40B82 
  41      8A788914 
  41      24A56AED 
  41      83A0
  42 0049 224C1807 		.ascii	"\"L\030\007\025\005\025_\2523\203\235\265\366>\373L"
  42      1505155F 
  42      AA33839D 
  42      B5F63EFB 
  42      4C
  43 005a B5E38887 		.ascii	"\265\343\210\207d\237u\326Z\337\267\327e\257-@\300\227"
  43      649F75D6 
  43      5ADFB7D7 
  43      65AF2D40 
  43      C097
ARM GAS  /tmp/cca0jqD2.s 			page 3


  44 006c CF4AFA4F 		.ascii	"\317J\372O\013\001\364\321\033C\200\242x\037\240;,\320"
  44      0B01F4D1 
  44      1B4380A2 
  44      781FA03B 
  44      2CD0
  45 007e D682A585 		.ascii	"\326\202\245\205\333a[X\245U #\316\203\030\310\250\203"
  45      DB615B58 
  45      A5552023 
  45      CE8318C8 
  45      A883
  46 0090 C86A40D8 		.ascii	"\310j@\330!,\333\301\035\233\221\331\304\0028!\345\201"
  46      212CDBC1 
  46      1D9B91D9 
  46      C4023821 
  46      E581
  47 00a2 CAC08B97 		.ascii	"\312\300\213\227xH\226z\217\313\277\307\307\021=\244"
  47      7848967A 
  47      8FCBBFC7 
  47      C7113DA4 
  48 00b2 9D9723B8 		.ascii	"\235\227#\270\010\233\350\003\233\325K\330\237\207\242"
  48      089BE803 
  48      9BD54BD8 
  48      9F87A2
  49 00c1 B1A5B15F 		.ascii	"\261\245\261_\367\317\222\307{\212\362\023A=\264\004"
  49      F7CF92C7 
  49      7B8AF213 
  49      413DB404 
  50 00d1 ACF816F2 		.ascii	"\254\370\026\362\274(U\306\307\357^\252\374~\037\343"
  50      BC2855C6 
  50      C7EF5EAA 
  50      FC7E1FE3 
  51 00e1 331052D8 		.ascii	"3\020R\330\217\013\300\001\017\355\020-N\230\026\210"
  51      8F0BC001 
  51      0FED102D 
  51      4E981688 
  52 00f1 92FA04A9 		.ascii	"\222\372\004\251k\351#\024\243\245*\356;\326\261\271"
  52      6BE92314 
  52      A3A52AEE 
  52      3BD6B1B9 
  53 0101 9E963071 		.ascii	"\236\2260q9\320+e\261Y\373\252\220\212\245\033w\366"
  53      39D02B65 
  53      B159FBAA 
  53      908AA51B 
  53      77F6
  54 0113 4C0CA95A 		.ascii	"L\014\251Z@\313\267B\002\266\323\263\201V\252\330F\024"
  54      40CBB742 
  54      02B6D3B3 
  54      8156AAD8 
  54      4614
  55 0125 F4B2EE41 		.ascii	"\364\262\356A\317\325\253\257\032R8\200\016\034\201"
  55      CFD5ABAF 
  55      1A523880 
  55      0E1C81
  56 0134 C3DD524E 		.ascii	"\303\335RN\245\024\177\201?\345n\226\"Y\005b\302\010"
  56      A5147F81 
  56      3FE56E96 
  56      22590562 
ARM GAS  /tmp/cca0jqD2.s 			page 4


  56      C208
  57 0146 18C9621D 		.ascii	"\030\311b\035!\237~x\365\310\326\320\014:?\302YF\324"
  57      219F7E78 
  57      F5C8D6D0 
  57      0C3A3FC2 
  57      5946D4
  58 0159 304B91A5 		.ascii	"0K\221\245(\263\364\261T\233E\364\261\265\001\313\224"
  58      28B3F4B1 
  58      549B45F4 
  58      B1B501CB 
  58      94
  59 016a 09A111D9 		.ascii	"\011\241\021\331\223\353\307~[\356\347j\222\226oO%\203"
  59      93EBC77E 
  59      5BEEE76A 
  59      92966F4F 
  59      2583
  60 017c 0218A134 		.ascii	"\002\030\2414\374p4NtzcW1\323K\235\244\014\326-\201"
  60      FC70344E 
  60      747A6357 
  60      31D34B9D 
  60      A40CD62D 
  61 0191 3352CACA 		.ascii	"3R\312\312_\037\007~\240\"\352/\331\342a,\310nj\220"
  61      5F1F077E 
  61      A022EA2F 
  61      D9E2612C 
  61      C86E6A90 
  62 01a5 5D3CAB60 		.ascii	"]<\253`\034M\\\305\261\225\311Rx\216\210I\306@\326\021"
  62      1C4D5CC5 
  62      B195C952 
  62      788E8849 
  62      C640D611 
  63 01b9 7EB83C3B 		.ascii	"~\270<;\205\347U\266\365>q\216z\024\020O\243\355\231"
  63      85E755B6 
  63      F53E718E 
  63      7A14104F 
  63      A3ED99
  64 01cc 0B7C2EC1 		.ascii	"\013|.\301\370\013\006_\330=8\374\360b\265\251W\210"
  64      F80B065F 
  64      D83D38FC 
  64      F062B5A9 
  64      5788
  65 01de 48D8D961 		.ascii	"H\330\331a\367\021h0\372p\020\335t\027-\320Y9\252\354"
  65      F7116830 
  65      FA7010DD 
  65      74172DD0 
  65      5939AAEC 
  66 01f2 65C138B6 		.ascii	"e\3018\266\207=\254s\321\257=g\355a\275\212q\250\030"
  66      873DAC73 
  66      D1AF3D67 
  66      ED61BD8A 
  66      71A818
  67 0205 D14AEE86 		.ascii	"\321J\356\206N\374\337\266\316\010\250gf\0255\263\316"
  67      4EFCDFB6 
  67      CE08A867 
  67      661535B3 
  67      CE
  68 0216 FC8F8664 		.ascii	"\374\217\206d\370\340\251\243\361\346{\217\006\327s"
ARM GAS  /tmp/cca0jqD2.s 			page 5


  68      F8E0A9A3 
  68      F1E67B8F 
  68      06D773
  69 0225 087A2A37 		.ascii	"\010z*7\012U\301\301\345#m\372\245\004V(o\263\341F\022"
  69      0A55C1C1 
  69      E5236DFA 
  69      A5045628 
  69      6FB3E146 
  70 023a 4BABAC11 		.ascii	"K\253\254\021(Tn\016\206RxS\225\"\032\354\325\340j("
  70      28546E0E 
  70      86527853 
  70      95221AEC 
  70      D5E06A28 
  71 024e 8DC42CE6 		.ascii	"\215\304,\346\027\332E\317\0049\252h\257\355\034\333"
  71      17DA45CF 
  71      0439AA68 
  71      AFED1CDB 
  72 025e 338F83AF 		.ascii	"3\217\203\257\245hy*\310\240\332\261Ho\302a\335z\346"
  72      A568792A 
  72      C8A0DAB1 
  72      486FC261 
  72      DD7AE6
  73 0271 B367D156 		.ascii	"\263g\321V8R\206\315\244W\016\356\372c\024\017\024d"
  73      385286CD 
  73      A4570EEE 
  73      FA63140F 
  73      1464
  74 0283 59F69668 		.ascii	"Y\366\226h\260\232<\236\334\223\324\307\377\037-\342"
  74      B09A3C9E 
  74      DC93D4C7 
  74      FF1F2DE2 
  75 0293 5244EFDE 		.ascii	"RD\357\336_i7\201\235R9sgwV\312\317\"Z\015\020d4\333"
  75      5F693781 
  75      9D523973 
  75      677756CA 
  75      CF225A0D 
  76 02ab A5CB4DD7 		.ascii	"\245\313M\327:J\021{8G\345\360\272pz_\302\344\037\313"
  76      3A4A117B 
  76      3847E5F0 
  76      BA707A5F 
  76      C2E41FCB 
  77 02bf F0B88C80 		.ascii	"\360\270\214\200=\011=\327\305*\037\035\363p\236>^\205"
  77      3D093DD7 
  77      C52A1F1D 
  77      F3709E3E 
  77      5E85
  78 02d1 B1BD2D06 		.ascii	"\261\275-\006\032\317 \006\243:\241^\375\252^qSu\033"
  78      1ACF2006 
  78      A33AA15E 
  78      FDAA5E71 
  78      53751B
  79 02e4 E8D2B474 		.ascii	"\350\322\264t\015\214\221\020e\350}\336]c\2704Q\320"
  79      0D8C9110 
  79      65E87DDE 
  79      5D63B834 
  79      51D0
  80 02f6 2B780CE8 		.ascii	"+x\014\3507O\224-\"\263\372\252\230\313\341\373\204"
ARM GAS  /tmp/cca0jqD2.s 			page 6


  80      374F942D 
  80      22B3FAAA 
  80      98CBE1FB 
  80      84
  81 0307 3B383C58 		.ascii	";8<X3)\340FW\335e\334\300&]\224\273\3758\311\253\331"
  81      3329E046 
  81      57DD65DC 
  81      C0265D94 
  81      BBFD38C9 
  82 031d C56AE5C5 		.ascii	"\305j\345\305\232\006\017\3477B7\036\225}\253=\212\314"
  82      9A060FE7 
  82      3742371E 
  82      957DAB3D 
  82      8ACC
  83 032f F7F64D0B 		.ascii	"\367\366M\013\033a\227oZdL\036.\006\030\205\200W?\033"
  83      1B61976F 
  83      5A644C1E 
  83      2E061885 
  83      80573F1B 
  84 0343 28A30731 		.ascii	"(\243\0071>\227\313\022\211\244\376\345\323\271|\262"
  84      3E97CB12 
  84      89A4FEE5 
  84      D3B97CB2 
  85 0353 339FCC6D 		.ascii	"3\237\314m\353\352t\323\372\223\227-\271\364\366\256"
  85      EBEA74D3 
  85      FA93972D 
  85      B9F4F6AE 
  86 0363 74879BDE 		.ascii	"t\207\233\336\262t\351\212\204\013\"\377\023zV6\227"
  86      B274E98A 
  86      840B22FF 
  86      137A5636 
  86      97
  87 0374 591840B7 		.ascii	"Y\030@\267\345\030\350u\270\355]\255\351\244\333\226"
  87      E518E875 
  87      B8ED5DAD 
  87      E9A4DB96 
  88 0384 6FEB4CA7 		.ascii	"o\353L\247Zs\2116h\372\252\017\021\220\335Y\263v\335"
  88      5A738936 
  88      68FAAA0F 
  88      1190DD59 
  88      B376DD
  89 0397 7A887B1D 		.ascii	"z\210{\035?\247\332\275\326f\263\025\374\003\271r\232"
  89      3FA7DABD 
  89      D666B315 
  89      FC03B972 
  89      9A
  90 03a8 36       		.ascii	"6"
  91              		.text
  92              		.section	.gnu.lto_msg_thread1.7935f74bde241716,"",%progbits
  93 0000 789C6362 		.ascii	"x\234cb`b@\007\222@,\304\310\300`\014\244\031\231\031"
  93      60624007 
  93      92402CC4 
  93      C8C0600C 
  93      A4199919 
  94 0014 1899269C 		.ascii	"\030\231&\234c`h\344`bd\0041\030\030\031\352\231\030"
  94      636068E4 
  94      60626404 
ARM GAS  /tmp/cca0jqD2.s 			page 7


  94      31181819 
  94      EA9918
  95 0027 EB2319C1 		.ascii	"\353#\031\301j\3273\035x\360\377\377\272+[\037U0\262"
  95      6AD7331D 
  95      78F0FFFF 
  95      BA2B5B1F 
  95      5530B2
  96 003a 3331E682 		.ascii	"31\346\202EY\031Z\032\032&(00$\203\271!@\022\2443\224"
  96      4559195A 
  96      1A1A2628 
  96      30302483 
  96      B9214012 
  97 0051 91094433 		.ascii	"\221\011D3\237gh}\360\306\"\221q!#+P\266\232\341WCG"
  97      9F67687D 
  97      F0C62291 
  97      7121232B 
  97      50B69AE1 
  98 0068 83402623 		.ascii	"\203@&#P5\304\314tF\246\010\306LFFG\206L\240\016\006"
  98      5035C4CC 
  98      7446A608 
  98      C64C4646 
  98      47864CA0 
  99 007e A0F205B9 		.ascii	"\240\362\005\271\204U;!T\347\021V\355\214P\235OX\265"
  99      84553B21 
  99      54E71156 
  99      ED8C509D 
  99      4F58B5
 100 0091 0B44F545 		.ascii	"\013D\365E\206\306\007?\230`\312! \004\250\024\350)"
 100      86C6073F 
 100      9860CA21 
 100      2004A814 
 100      E829
 101 00a3 50281AEA 		.ascii	"P(\032\352\351\351CPIjq\211~Q\211~q~iQr*\204\013\"\342"
 101      E9E94350 
 101      496A7189 
 101      7E51897E 
 101      717E6951 
 102 00bd 8B530B4B 		.ascii	"\213S\013KS\363\222S\343\015\014\314\365\222\031\000"
 102      53F39253 
 102      E30D0CCC 
 102      F5921900 
 103 00cd 7CCE4F65 		.ascii	"|\316Oe"
 104              		.text
 105              		.section	.gnu.lto_.symbol_nodes.7935f74bde241716,"",%progbits
 106 0000 789C4DCA 		.ascii	"x\234M\3129\016\3020\024\204\341\031/\020\326+p6.\302"
 106      390EC230 
 106      1484E119 
 106      2F10D62B 
 106      70362EC2 
 107 0014 8B840402 		.ascii	"\213\204\004\002\032\016@\347\243\244\247gOp\200\206"
 107      1A0E40E7 
 107      A3A4A767 
 107      4F708086 
 108 0024 2320842D 		.ascii	"# \204-\"\214\233\317\277\336((\274\320<\265\247\020"
 108      228C9BCF 
 108      BFDE2828 
 108      BCD03CB5 
ARM GAS  /tmp/cca0jqD2.s 			page 8


 108      A710
 109 0036 EB2D20B2 		.ascii	"\353- \262Y\214\355\211\341\007{&#\017\252\200\332Q"
 109      598CED89 
 109      E1077B26 
 109      230FAA80 
 109      DA51
 110 0048 F0B729A9 		.ascii	"\360\267)\251\343\361Hc\003\007Z#\2327\212\372n\362"
 110      E3F14863 
 110      03075A23 
 110      9A378AFA 
 110      6EF2
 111 005a 9CAC293A 		.ascii	"\234\254):\225\247\230TW\212MUQZ\251.\224v\252;%\373"
 111      95A79854 
 111      578A4D55 
 111      515AA92E 
 111      9476AA3B 
 112 0070 95C600AE 		.ascii	"\225\306\000\256z\007\373p\263z\242\321\203\237G\273"
 112      7A07FB70 
 112      B37AA2D1 
 112      839F47BB 
 113 0080 70CB6807 		.ascii	"p\313h\007\305\3529\322\310\340\243f\210i\031\366A\327"
 113      C5EA39D2 
 113      C8E0A366 
 113      886919F6 
 113      41D7
 114 0092 5834FA20 		.ascii	"X4\372 >l\322L\007"
 114      3E6CD24C 
 114      07
 115              		.text
 116              		.section	.gnu.lto_.refs.7935f74bde241716,"",%progbits
 117 0000 789C6362 		.ascii	"x\234cb`b\020g\200\0006\006FF \227\231\211\205\221\225"
 117      60621067 
 117      80003606 
 117      46462097 
 117      99898591 
 118 0015 9191918D 		.ascii	"\221\221\221\215\211\235\221\235\211\201\001\000\005"
 118      899D919D 
 118      89810100 
 118      05
 119 0022 C70051   		.ascii	"\307\000Q"
 120              		.text
 121              		.section	.gnu.lto_.decls.7935f74bde241716,"",%progbits
 122 0000 789CAD5B 		.ascii	"x\234\255[yp\024Wz\177\3353\243\231A\342\362\032\027"
 122      79701457 
 122      7A7FDD33 
 122      A39941E2 
 122      F21A17
 123 0013 A41C5B4E 		.ascii	"\244\034[N\274\211\355*#\22486\331\252\265\261I\212"
 123      BC89ED2A 
 123      23943836 
 123      D9AAB5B1 
 123      498A
 124 0025 A42AA452 		.ascii	"\244*\244RK\266\342\252T2\333\214\032ibif\266\247\205"
 124      4BB6E2AA 
 124      5432DB8C 
 124      1A696269 
 124      66B6A785 
ARM GAS  /tmp/cca0jqD2.s 			page 9


 125 0039 20F9C38D 		.ascii	" \371\303\215\000Y\006l\353\300H\\\2268\014B\341X.s"
 125      0059066C 
 125      EBC0485C 
 125      96380C42 
 125      E1582E73 
 126 004d 1918AF17 		.ascii	"\031\030\257\027\220\021\213@`\260\000\013\231E\030"
 126      90118B40 
 126      60B0000B 
 126      994518
 127 005c 820F8CC1 		.ascii	"\202\017\214\301\030\214Q\276\367\3651}\316t\213\355"
 127      188C51BE 
 127      F7F5317D 
 127      CE748BED 
 128 006c D27BEAEE 		.ascii	"\322{\352\356y\337\357}\367\273fX\302\222m\014!\003"
 128      79DFEF7D 
 128      F7BB6658 
 128      C2926D0C 
 128      2103
 129 007e 704DF939 		.ascii	"pM\3719!\205AB|\204\220\347\241\300-Y\001e%\224\265"
 129      21854142 
 129      7C8490E7 
 129      A1C02D59 
 129      01652594 
 130 0093 50DAA004 		.ascii	"P\332\240\004\240\264C\331H\344+\014e\033\224]P\366"
 130      A0B443D9 
 130      48E42B0C 
 130      651B945D 
 130      50F6
 131 00a5 42E98072 		.ascii	"B\351\200r\030\312Q()\300\235\016e\016\224<x~\035\376"
 131      18CA5128 
 131      29C09D0E 
 131      650E943C 
 131      787E1DFE 
 132 00b9 CF875207 		.ascii	"\317\207R\007\245\037\312e(\320\275\341\2428\177\001"
 132      A51FCA65 
 132      28D0BDE1 
 132      A2387F01 
 133 00c9 E5389461 		.ascii	"\3458\224aP\012\224>_P\370\2418\253\240\364+<\204\201"
 133      500A943E 
 133      5F50F8A1 
 133      38ABA0F4 
 133      2B3C8481 
 134 00dd FE0DC059 		.ascii	"\376\015\300Y\000e\010\334\373\341]3\334\327C\311\207"
 134      006508DC 
 134      FBE15D33 
 134      DCD743C9 
 134      87
 135 00ee E76E8AC1 		.ascii	"\347n\212\301\312<W\301\273KP\206\302\3630(\"\334\017"
 135      CA3C57C1 
 135      BB4B5086 
 135      C2F33028 
 135      22DC0F
 136 0101 87FF5DF0 		.ascii	"\207\377]\360\331\010\370\337\011\377\257\303\273\335"
 136      D908F8DF 
 136      09FFAFC3 
 136      BBDD
 137 010f F07F246B 		.ascii	"\360\177$k\225}\037\221u\323\004mVA\271\010\367C\024"
ARM GAS  /tmp/cca0jqD2.s 			page 10


 137      957D1F91 
 137      75D3046D 
 137      5641B908 
 137      F74314
 138 0122 9E1F80F6 		.ascii	"\236\037\200\366\017\261\262\274\333\024\331\217*\272"
 138      0FB1B2BC 
 138      DB14D98F 
 138      2ABA
 139 0130 E8507413 		.ascii	"\350Pt\023\260\321\301\030\223\374\333\224>\376\204"
 139      B0D1C118 
 139      93FCDB94 
 139      3EFE84
 140 013f 95E59BCB 		.ascii	"\225\345\233\313\310\357Y\3453\252K\372\352=#\031\311"
 140      C8EF59E5 
 140      33AA4BFA 
 140      EA3D2319 
 140      C9
 141 0150 27F324A9 		.ascii	"'\363$\251Zj\255\221\376\241c\330HR'\301U\330<,Lj\351"
 141      5A6AAD91 
 141      FEA163D8 
 141      485227C1 
 141      55D83C2C 
 142 0167 EBBE77A5 		.ascii	"\353\276w\245\321\243\011y\231\341\030x\025\302\233"
 142      D1A30979 
 142      99E11878 
 142      15C29B
 143 0176 823002FD 		.ascii	"\2020\002\375\224\254\206\246\320\236\345\230UL\030"
 143      94AC86A6 
 143      D09EE598 
 143      554C18
 144 0185 3A621962 		.ascii	":b\031b{\311\237\323\213\222\313\367\352\335\000\243"
 144      7BC99FD3 
 144      8B92CBF7 
 144      EADD00A3 
 145 0195 A13FA1A2 		.ascii	"\241?\241\242\007\024\252\225\314H\305Uj)W2\213\330"
 145      0714AA95 
 145      CC48C555 
 145      6A295732 
 145      8BD8
 146 01a7 42A12854 		.ascii	"B\241(T)\374\012\305\032]?\005\341\314\215_\341\304"
 146      29FC0AC5 
 146      1A5D3F05 
 146      E1CC8D5F 
 146      E1C4
 147 01b9 896E0593 		.ascii	"\211n\005\223\237C\0372\267\012}-\243\002\214T\000\332"
 147      9F431F32 
 147      B70A7D2D 
 147      A3028C54 
 147      00DA
 148 01cb 3CB3BACE 		.ascii	"<\263\272\316\201\325\0219X]\353\300\352C\344m\245g"
 148      81D51139 
 148      585DEBC0 
 148      EA43E46D 
 148      A567
 149 01dd 891139E6 		.ascii	"\211\0219\346\371Q\216\010\377\313<\204w>9\2048\346"
 149      F9518E08 
 149      FFCB3C84 
ARM GAS  /tmp/cca0jqD2.s 			page 11


 149      773E3984 
 149      38E6
 150 01ef 857CA87E 		.ascii	"\205|\250~\351\323\354\345D\330\016]?E\326\311V\277"
 150      E9D3ECE5 
 150      44D80E5D 
 150      3F45D6C9 
 150      56BF
 151 0201 60636C83 		.ascii	"`cl\203\364\3668\3505u}{W/\370\271$\2058f#z\316$\006"
 151      F4F638E8 
 151      35757D7B 
 151      572FF8B9 
 151      24853866 
 152 021a E037304F 		.ascii	"\34070Oy\306\331s\260\3538S\015\"s\314fDZ\317\030\241"
 152      79C6D973 
 152      B0EB3853 
 152      0D2273CC 
 152      66445ACF 
 153 0230 38262F6C 		.ascii	"8&/l\364ExV\033P<x\244}}O\363\030\363\252\362\206>\004"
 153      F4457856 
 153      1B503C78 
 153      A47D7D4F 
 153      F318F3AA 
 154 0248 C9A0E91E 		.ascii	"\311\240\351\036%\357H\351k}=\363\267\217^,\245\347"
 154      25EF48E9 
 154      6B7D3DF3 
 154      B78F5E2C 
 154      A5E7
 155 025a 480303AF 		.ascii	"H\003\003\257*zg!\217\030\031|\234\254\222\244\006i"
 155      2A7A6721 
 155      8F18197C 
 155      9CAC92A4 
 155      0669
 156 026c 8B2485D1 		.ascii	"\213$\205\321\022,d\022\332b\033\363\250\255\340\330"
 156      122C6412 
 156      DA621BF3 
 156      A8ADE0D8 
 157 027c 88D05CF7 		.ascii	"\210\320\\\367.\355_j\223|hm\242\320\030x\336\316\030"
 157      2EED5F6A 
 157      937C686D 
 157      A2D01878 
 157      DECE18
 158 028f B284CC57 		.ascii	"\262\204\314Wz\327\3017\307H\255\325\351\201\201\027"
 158      7AD7C137 
 158      C748ADD5 
 158      E9818117 
 159 029f 887BB7D9 		.ascii	"\210{\267\331\255\270M\306UXr\303$\214=[\273\314l\355"
 159      ADB84DC6 
 159      555872C3 
 159      248C3D5B 
 159      BBCC6CED 
 160 02b3 B1B2D557 		.ascii	"\261\262\325W\327\267\265\373\363j\246~vk\207tm``\270"
 160      D7B7B5FB 
 160      F36AA67E 
 160      766B8774 
 160      6D6060B8 
 161 02c7 91B31079 		.ascii	"\221\263\020y\015\323\321\\i\026\363\353\334\371h?\023"
 161      0DD3D15C 
ARM GAS  /tmp/cca0jqD2.s 			page 12


 161      6916F3EB 
 161      DCF9683F 
 161      13
 162 02d8 02EED638 		.ascii	"\002\356\3268'$\332\200(\226\224\357\325;\306\331\377"
 162      2724DA80 
 162      289694EF 
 162      D53BC6D9 
 162      FF
 163 02e9 F71903C7 		.ascii	"\367\031\003\307\020~\206\374`\241\3740\023\264v\304"
 163      107E86FC 
 163      60A1FC30 
 163      13B476C4 
 164 02f9 5AB24D8F 		.ascii	"Z\262M\217n\036f/\035\307\254f~\3526\223Z\372?\220\351"
 164      6E1E662F 
 164      1DC7AC66 
 164      7EEA3693 
 164      5AFA3F90 
 165 030e DF604134 		.ascii	"\337`A4\342z\326lD\271\321![+\275}\352\"\267X\372\255"
 165      E27AD66C 
 165      44B9D121 
 165      5B2BBD7D 
 165      EA22B758 
 166 0324 EAD4BBD1 		.ascii	"\352\324\273\321\251\277p\200\370\310\336\320\015_;"
 166      A9BF7080 
 166      F8C8DED0 
 166      0D5F3B
 167 0333 1A3AAB0B 		.ascii	"\032:\253\013v\2323\027\225\333$\315=\007V~o\313\312"
 167      769A3317 
 167      95DB24CD 
 167      3D07567E 
 167      6FCBCA
 168 0346 FB4BF68F 		.ascii	"\373K\366\217\221Vx\015\205\256,\216\360\000\251\307"
 168      9156780D 
 168      85AE2C8E 
 168      F000A9C7 
 169 0356 214397B8 		.ascii	"!C\227\270Z\375*\300\337\221L\006<\273\377g\230\001"
 169      5AFD2AC0 
 169      DF914C06 
 169      3CBBFF67 
 169      9801
 170 0368 BB990700 		.ascii	"\273\231\007\000\346\204\317\310vN\030\226\234C\222"
 170      E684CFC8 
 170      764E1896 
 170      9C4392
 171 0377 8F815C26 		.ascii	"\217\201\\&\224\003\240oy\313\247\325\314,L\211\364"
 171      9403A06F 
 171      79CBA7D5 
 171      CC2C4C89 
 171      F4
 172 0388 3362A30D 		.ascii	"3b\243\015\345z\214\264\002A\372\326\341e\214\324\372"
 172      E57A8CB4 
 172      0241FAD6 
 172      E1658CD4 
 172      FA
 173 0399 5BC6A6CB 		.ascii	"[\306\246\313\011j\217!\035\343KO\3263s\020\277\007"
 173      096A8F21 
 173      1DE34B4F 
ARM GAS  /tmp/cca0jqD2.s 			page 13


 173      D6337310 
 173      BF07
 174 03ab 597FCD6F 		.ascii	"Y\177\315o\313z\353\004' \2264!\3119\013\353\347\273"
 174      CB7AEB04 
 174      27209634 
 174      21C9390B 
 174      EBE7BB
 175 03be 54D6CFB9 		.ascii	"T\326\317\271`\275:}|\336\3621\224u\2169\316\320\324"
 175      60BD3A7D 
 175      7CDEF231 
 175      94758E39 
 175      CED0D4
 176 03d1 D9A6E1DA 		.ascii	"\331\246\341\332\231N\033j\011\321\0303\342u\037.\250"
 176      994E1B6A 
 176      09D11833 
 176      E2751F2E 
 176      A8
 177 03e2 E354B00D 		.ascii	"\343T\260\015\236\301\012\355XU\0350#-\307\364b,\237"
 177      9EC10AED 
 177      58551D30 
 177      232DC7F4 
 177      622C9F
 178 03f5 671E83FA 		.ascii	"g\036\203\3723\250\265\213%[\374\252U\355T\227[\204"
 178      33A8B58B 
 178      255BFCAA 
 178      55ED5497 
 178      5B84
 179 0407 DB8797A1 		.ascii	"\333\207\227\241J\224\234\342f,nU\306\342~\034Aw\372"
 179      4A949CE2 
 179      662C6E55 
 179      C6E27E1C 
 179      4177FA
 180 041a 6D066357 		.ascii	"m\006cW@{jN~\243\014\306\227\021*\3557\017\306A\323"
 180      407B6A4E 
 180      7EA30CC6 
 180      97112AED 
 180      370FC641 
 181 042f 601C340E 		.ascii	"`\0344\016\252\301p\346\206\216\245\303\211\327\346"
 181      AAC170E6 
 181      868EA5C3 
 181      89D7E6
 182 043e 2CF9C8AC 		.ascii	",\371\310\254@;\263e\262\277I\201\324\011{\033\230\306"
 182      403BB365 
 182      B2BF4981 
 182      D4097B1B 
 182      98C6
 183 0450 D952C738 		.ascii	"\331R\3078\325\221\363\234\344f\311Q\354\354K\263#\337"
 183      D591F39C 
 183      E466C951 
 183      ECEC4BB3 
 183      23DF
 184 0462 BAD4F164 		.ascii	"\272\324\361d\263$\215\220?\312\355\307\333\0177\241"
 184      B3248D90 
 184      3FCAEDC7 
 184      DB0F37A1 
 185 0472 D1726612 		.ascii	"\321rf\022V\355\376q\354~n\200v\177\335\334\375\211"
 185      56EDFE71 
ARM GAS  /tmp/cca0jqD2.s 			page 14


 185      EC7E6E80 
 185      767FDDDC 
 185      FD89
 186 0484 FFEBF877 		.ascii	"\377\353\370w\271\373\353\256\272\337uz\241\265{\307"
 186      B9FBEBAE 
 186      BADF757A 
 186      A1B57BC7 
 187 0494 0CA858FB 		.ascii	"\014\250X\373\326\245\313\017\267`'\337a\270\354\017"
 187      D6A5CB0F 
 187      B76027DF 
 187      61B8EC0F 
 188 04a4 988DFD82 		.ascii	"\230\215\375\202~\320Q\347\231Z\003\226th\334\017*Z"
 188      7ED051E7 
 188      995A0396 
 188      7468DC0F 
 188      2A5A
 189 04b6 41CCCBFF 		.ascii	"A\314\313\377\261\016&N\257\347\251<tzF,4(\342\375\323"
 189      B10E264E 
 189      AFE7A93C 
 189      747A462C 
 189      3428E2FD 
 190 04cb 18FF32D8 		.ascii	"\030\3772\330Q7`\216\216T\235\336\247\007;\356\031\314"
 190      5137608E 
 190      8E549DDE 
 190      A7073BEE 
 190      19CC
 191 04dd C8D9313D 		.ascii	"\310\3311=\330I7`#\2349\353\326\203\235\366\014f\344"
 191      D8493760 
 191      239C39EB 
 191      D6839DF6 
 191      0C66E4
 192 04f0 ECA41EEC 		.ascii	"\354\244\036\354\214\033\260\321\316\234\235\322\203"
 192      8C1BB0D1 
 192      CE9C9DD2 
 192      83
 193 04fd F57A0633 		.ascii	"\365z\0063r\366\211\036\354\202\033\260B\033\316\264"
 193      72F6891E 
 193      EC821BB0 
 193      421BCEB4 
 194 050d CB6936F0 		.ascii	"\313i6\360Mfr\305\222\376\200\232\020<\3724\311`\\\016"
 194      4D6672C5 
 194      92FE809A 
 194      103CFA34 
 194      C9605C0E 
 195 0521 78CD6006 		.ascii	"x\315`\006\271!\203\235_)g0u(\373\302\015b\026\207\251"
 195      B921839D 
 195      5F296730 
 195      7528FBC2 
 195      0D621687 
 196 0536 EBD48D8B 		.ascii	"\353\324\215\213\327=\203\031\315\362\216\014v\000\301"
 196      D73D8319 
 196      CDF28E0C 
 196      7600C1
 197 0545 BE770396 		.ascii	"\276w\003\226\305a\216Q0\273\311t\272F\252efm~8\353"
 197      C5618E51 
 197      30BBC974 
 197      BA46AA65 
ARM GAS  /tmp/cca0jqD2.s 			page 15


 197      666D7E38 
 198 055a 5C0672D8 		.ascii	"\\\006r\330\237\266c\016[\310\322\001\353\307\200\355"
 198      9FB6630E 
 198      5BC8D201 
 198      EBC780ED 
 199 056a D8E70A6B 		.ascii	"\330\347\012kO\315\335\017\230\3318\3725!Xm\2369!\206"
 199      4FCDDD0F 
 199      98D938FA 
 199      3521586D 
 199      9E392186 
 200 057e 4DA35FD8 		.ascii	"M\243_\3308\234\205\303\231\233\001\3652.a\\\32389k"
 200      389C85C3 
 200      999B01F5 
 200      322E615C 
 200      D338396B 
 201 0592 23AB73D6 		.ascii	"#\253s\326\372<\257\3127;\332w\015\314\267\325R\363"
 201      FA3CAFCA 
 201      373BDA77 
 201      0DCCB7D5 
 201      52F3
 202 05a4 38DD7691 		.ascii	"8\335v\221\323\012F\235m\334\270\352\303\331\3062TR"
 202      D30A469D 
 202      6DDCB8EA 
 202      C3D9C632 
 202      5452
 203 05b6 739EADC6 		.ascii	"s\236\255\306]\000\355\251\331P\204@-\010\264\302\242"
 203      5D00EDA9 
 203      D9508440 
 203      2D08B4C2 
 203      A2
 204 05c7 6DC6A46D 		.ascii	"m\306\244m\306\2509m\361\244\254\235\274\264e\311:\263"
 204      C6A8396D 
 204      F1A4AC9D 
 204      BCB465C9 
 204      3AB3
 205 05d9 EA0C2C66 		.ascii	"\352\014,fI'\232\352\356zW\3355Eu\253Q\342M\026\211"
 205      49279AEA 
 205      EE7A57DD 
 205      354575AB 
 205      51E24D16 
 206 05ee A926BC89 		.ascii	"\251&\274\211\261\303\263\030!\243\030-\003\336\305"
 206      B1C3B318 
 206      21A3182D 
 206      03DEC5
 207 05fd F85E1163 		.ascii	"\370^\021c\035\212\261\367\217 \306\001\317b\214\320"
 207      1D8AB1F7 
 207      8F20C601 
 207      CF628CD0 
 208 060d 89810B8F 		.ascii	"\211\201\013\217\205r\306\374\011i\310>\347\243\374"
 208      8572C6FC 
 208      0969C83E 
 208      E7A3FC
 209 061c 6C647F62 		.ascii	"ld\177b\230p\245?>\312\024\312\257s/\267\276=\272LY"
 209      9870A53F 
 209      3ECA14CA 
 209      AF732FB7 
 209      BE3DBA4C 
ARM GAS  /tmp/cca0jqD2.s 			page 16


 210 0631 B3C87B5F 		.ascii	"\263\310{_\207\221wJ;\230Y\220\224\256\353\302t*\203"
 210      8791774A 
 210      3B985990 
 210      94AEEBC2 
 210      742A83
 211 0644 1DBF2FB0 		.ascii	"\035\277/\260\352t\313[\352\202\012\267\242\316\334"
 211      EA74CB5B 
 211      EA820AB7 
 211      A2CEDC
 212 0653 27DCFB5D 		.ascii	"'\334\373]\346\354l\232bv;\344\036m\255y\360\003eE\261"
 212      E6EC6C9A 
 212      62763BE4 
 212      1E6DAD79 
 212      F0036545 
 213 0668 93A50C7D 		.ascii	"\223\245\014}fq\226\343\214i\226I_\350\2328\331p\207"
 213      667196E3 
 213      8C699649 
 213      5FE89A38 
 213      D97087
 214 067b 3E11DEB8 		.ascii	">\021\336\270?\033\200\377\334lTG\\\331\020w\356Ss\267"
 214      3F1B80FF 
 214      DC6C5447 
 214      5CD91077 
 214      EE5373B7 
 215 068f 1543E45A 		.ascii	"\025C\344Z\021\374J\305*@A\252\203\264\3334kZ\020\354"
 215      11FC4AC5 
 215      2A4041AA 
 215      83B4DB34 
 215      6B5A10EC 
 216 06a3 BFD357A3 		.ascii	"\277\323W\243\350\221~\226\333I\317\366\207\245\206"
 216      E8917E96 
 216      DB49CFF6 
 216      87A586
 217 06b2 027985CF 		.ascii	"\002y\205\3171\177`X\005\325n\374\313\355\242\275|\307"
 217      317F6058 
 217      05D56EFC 
 217      CBEDA2BD 
 217      7CC7
 218 06c4 380F7BC3 		.ascii	"8\017{\303\333\224\365\350\0019\315\005\315&\337l\316"
 218      DB94F5E8 
 218      0139CD05 
 218      CD26DF6C 
 218      CE
 219 06d5 EC1EB666 		.ascii	"\354\036\266fY\262]S\221\307i\275v9\271\324~\275K\355"
 219      59B25D53 
 219      91C769BD 
 219      7639B9D4 
 219      7EBD4BED 
 220 06e9 0ADE9703 		.ascii	"\012\336\227\003\200K\035\\-\273T.\027\220\264\323\210"
 220      804B1D5C 
 220      2DBB542E 
 220      1790B4D3 
 220      88
 221 06fa 11D8731A 		.ascii	"\021\330s\032{>b\366\201\255\367:^S6W\216\270\362\201"
 221      7B3E62F6 
 221      81ADF73A 
 221      5E533657 
ARM GAS  /tmp/cca0jqD2.s 			page 17


 221      8EB8F281 
 222 070e 9B363E70 		.ascii	"\2336>pd\220>\000\016}\345#\006\341\344I\344\025\215"
 222      64903E00 
 222      0E7DE523 
 222      06E1E449 
 222      E4158D
 223 0721 498F5650 		.ascii	"I\217VP\340\356\362^\025#{W\272\247\237\246\352\223"
 223      E0EEF25E 
 223      15237B57 
 223      BAA79FA6 
 223      EA93
 224 0733 2CDDB9FA 		.ascii	",\335\271\372\332\342Z\262ft\256\225Q#\307\034e\351"
 224      DAE25AB2 
 224      6674AE95 
 224      5123C71C 
 224      65E9
 225 0745 AE4D174B 		.ascii	"\256M\027Kwm\216a\335\315\352\366n\234\334\342D\306"
 225      776D8E61 
 225      DDCDEAF6 
 225      6E9CDCE2 
 225      44C6
 226 0757 2D38A6CF 		.ascii	"-8\246\317\254F\267s\373\234\335t\352\275\357\326}z"
 226      AC46B773 
 226      FB9CDD74 
 226      EABDEFD6 
 226      7D7A
 227 0769 DFB2F347 		.ascii	"\337\262\363G\375\364\350\302\347a\033i\275\022\266"
 227      FDF4E8C2 
 227      E7611B69 
 227      BD12B6
 228 0778 3D18B6F7 		.ascii	"=\030\266\367,\272\275l\016[7\2739\363B\203\024D\273"
 228      2CBABD6C 
 228      0E5B37BB 
 228      39F34283 
 228      1444BB
 229 078b 609A1B72 		.ascii	"`\232\033r1\315-\264\321\271\232\335[N-t\271#\244m\356"
 229      31CD2DB4 
 229      D1B99ADD 
 229      5B4E2D74 
 229      B923A46D 
 230 07a0 1E99A5EC 		.ascii	"\036\231\245\354\221\236GOk\014\331\357\221f\331ZZ\211"
 230      919E474F 
 230      6B0CD9EF 
 230      9166D95A 
 230      5A89
 231 07b2 2417CC61 		.ascii	"$\027\314a\274\274\345\210\272Gz\301E\030W\247\267\032"
 231      BCBCE588 
 231      BA477AC1 
 231      451857A7 
 231      B71A
 232 07c4 F648550F 		.ascii	"\366HU\017\274\220\335\003\263j\324`"
 232      BC90DD03 
 232      B36AD460 
 233 07d0 C40BBA00 		.ascii	"\304\013\272\000\271\210\001\322\257\017\012\226lq\243"
 233      B98801D2 
 233      AF0F0A96 
 233      6C71A3
ARM GAS  /tmp/cca0jqD2.s 			page 18


 234 07df FD279C5C 		.ascii	"\375'\234\\\021\322P\267\274=\255n7\3576\343\331%\""
 234      11D250B7 
 234      BC3DAD6E 
 234      37EF36E3 
 234      D92522
 235 07f2 039EDE9A 		.ascii	"\003\236\336\232\260\226=\201\363%\331K?t\303\3348g"
 235      B0963D81 
 235      F325D94B 
 235      3F74C3DC 
 235      3867
 236 0804 B0964655 		.ascii	"\260\226FU\271\2358?9\342\006o\274\223\260\325\351\035"
 236      B99D383F 
 236      39E2066F 
 236      BC93B0D5 
 236      E91D
 237 0816 27D4C9A1 		.ascii	"'\324\311\241\274\031{\3223\236\221\277\217\033\015"
 237      BC197BD2 
 237      339E91BF 
 237      8F1B0D
 238 0825 F3B94FDD 		.ascii	"\363\271O\335\300Mpm\373\314\331\003\307\234\306-\355"
 238      C04D706D 
 238      FBCCD903 
 238      C79CC62D 
 238      ED
 239 0836 4F704BFB 		.ascii	"OpK\373\"\326_`\275\000\023\345\233X\327a\335\200\365"
 239      22D65F60 
 239      BD0013E5 
 239      9B58D761 
 239      DD80F5
 240 0849 52AC5761 		.ascii	"R\254Wa\335\206\365\006\254{\261\376\034\353+X_\305"
 240      DD86F506 
 240      AC7BB1FE 
 240      1CEB2B58 
 240      5FC5
 241 085b FA4BACBF 		.ascii	"\372K\254\277v\223pM3@\355\264h\243\234\200L\007F\177"
 241      7693704D 
 241      3340EDB4 
 241      68A39C80 
 241      4C07467F 
 242 086f 3085A62A 		.ascii	"0\205\246*\334u\326\356\300h\357\231}\217h\307_\246"
 242      DC75D6EE 
 242      C068EF99 
 242      7D8F68C7 
 242      5FA6
 243 0881 1323DAAF 		.ascii	"\023#\332\257\023O7X\353\351\3515\207\236o\332\366|"
 243      134F3758 
 243      EBE9E935 
 243      879E6FDA 
 243      F67C
 244 0893 736DCFF3 		.ascii	"sm\317\363\313\267Hs^\227\356\015\274\312x\350\372\026"
 244      CBB74873 
 244      5E97EE0D 
 244      BCCA78E8 
 244      FA16
 245 08a5 6B3DEF57 		.ascii	"k=\357W\356\335g\367\037\333?\373\331&\334)\271\203"
 245      EEDD67F7 
 245      1FDB3FFB 
ARM GAS  /tmp/cca0jqD2.s 			page 19


 245      D926DC29 
 245      B983
 246 08b7 81337F88 		.ascii	"\2013\177\2109\275\007L\331=`\314\356\201p\346&\263"
 246      39BD074C 
 246      D93D60CC 
 246      EE8170E6 
 246      26B3
 247 08c9 B5AFF1D4 		.ascii	"\265\257\361\324/\333\306\376h\225\236\234g\341\355"
 247      2FDBC6FE 
 247      68959E9C 
 247      67E1ED
 248 08d8 E6DA0F46 		.ascii	"\346\332\017F\267!o\003\030\204\015\026\336\332\315"
 248      B7216F03 
 248      18840D16 
 248      DEDACD
 249 08e7 8B8476A3 		.ascii	"\213\204v\243\213\230\264cu\222%C\354M5\333g\353$K\366"
 249      8B98B463 
 249      75922543 
 249      EC4D35DB 
 249      67EB244B 
 250 08fc 8D717292 		.ascii	"\215qr\222\215Y\216\211\347\372L\226\242f\315\341\276"
 250      8D598E89 
 250      E7FA4C96 
 250      A266CDE1 
 250      BE
 251 090d EB1D38AB 		.ascii	"\353\0358\2535r\366gd\205\324\332\320\267\265\341|\003"
 251      3572F667 
 251      6485D4DA 
 251      D0B7B5E1 
 251      7C03
 252 091f D3408F5E 		.ascii	"\323@\217^\2454L\216\037Es\260\344=\015\304\211\265"
 252      A5344C8E 
 252      1F4573B0 
 252      E43D0DC4 
 252      89B5
 253 0931 7919380A 		.ascii	"y\0318\012\365\033z\020\334;\213i\2244(\365\2732\272"
 253      F51B7A10 
 253      DC3B8B69 
 253      943428F5 
 253      BB32BA
 254 0944 355E3ADB 		.ascii	"5^:\3331\202\365D@i\325\252M\333\036\304\327\031`$p"
 254      3182F544 
 254      4069D5AA 
 254      4DDB1EC4 
 254      D7196024 
 255 0959 680539C6 		.ascii	"h\0059\306\247~\033g\215~\246\241{\204\271\261YP+\314"
 255      A77E1B67 
 255      8D7EA6A1 
 255      7B84B9B1 
 255      59502BCC 
 256 096d 5B4649C1 		.ascii	"[FI\301\234\313[>>\3044d$\265;\230\011\2520\"\321\255"
 256      9CCB5B3E 
 256      3EC43464 
 256      24B53B98 
 256      09AA3022 
 257 0983 5E6FAC50 		.ascii	"^o\254Pv\004\353}t\350\372p\210\355,\300\031\210%]H"
 257      7604EB7D 
ARM GAS  /tmp/cca0jqD2.s 			page 20


 257      74E8FA70 
 257      88ED2CC0 
 257      1988255D 
 258 0998 B2D06799 		.ascii	"\262\320g\231\005\364\326(\263\000\372Y\356\311|\375"
 258      05F4D628 
 258      B300FA59 
 258      EEC97CFD 
 259 09a8 59C743DE 		.ascii	"Y\307C\336>M\005\017\353x?{\3723\205\367f\344\275'7"
 259      3E4D050F 
 259      EB783F7B 
 259      FA3385F7 
 259      66E4BD27 
 260 09bd EF462096 		.ascii	"\357F \226\\B\222\245V\336\277\234\253\360\276\324\025"
 260      5C4292A5 
 260      56DEBF9C 
 260      ABF0BED4 
 260      15
 261 09ce EF3B4EEB 		.ascii	"\357;N\353g\000\352R\204\322\016n)\262S>\027\350\307"
 261      6700EA52 
 261      84D20E6E 
 261      29B2533E 
 261      17E8C7
 262 09e1 6DA5AB66 		.ascii	"m\245\253f0O\013\021I=2\222\217\000\347\263^\301\012"
 262      304F0B11 
 262      493D3292 
 262      8F00E7B3 
 262      5EC10A
 263 09f4 0D9C9D68 		.ascii	"\015\234\235h2\316\325\336p\203\227e\337^9\233\221\301"
 263      32CED5DE 
 263      70839765 
 263      DF5E399B 
 263      91C1
 264 0a06 DEF20C66 		.ascii	"\336\362\014fd\356\314i\335!\300\015\315\266Y\300\354"
 264      64EECC69 
 264      DD21C00D 
 264      CDB659C0 
 264      EC
 265 0a17 F6EDED2E 		.ascii	"\366\355\355.\275\223p\314r\037\235I\274\343\243\343"
 265      BD9370CC 
 265      721F9D49 
 265      BCE3A3E3 
 266 0a27 7D0BD6AD 		.ascii	"}\013\326\255X\257\300z%\326\253|\2069\346]-Jl]1\227"
 266      58AFC07A 
 266      25D6AB7C 
 266      8639E65D 
 266      2D4A6C5D 
 267 0a3d 4B48E9C5 		.ascii	"KH\351\305\316\341a\330a\321\"\373\363Y\314\\t\341\265"
 267      CEE161D8 
 267      61D122FB 
 267      F359CC5C 
 267      74E1B5
 268 0a50 181DD5F9 		.ascii	"\030\035\325\3719\243\303\264S\323\214\024\355\226\340"
 268      39A3C3B4 
 268      53D38C14 
 268      ED96E0
 269 0a5f 387F4A0D 		.ascii	"8\177J\015\216v\027\301Q\235\376t\221\273\215\"c\242"
 269      8E7617C1 
ARM GAS  /tmp/cca0jqD2.s 			page 21


 269      519DFE74 
 269      91BB8D22 
 269      63A2
 270 0a71 D3A2FCA2 		.ascii	"\323\242\374\242\372]\216M(\307\246\334r\030\201X\262"
 270      FA5D8E4D 
 270      28C7A6DC 
 270      72188158 
 270      B2
 271 0a82 1F49B658 		.ascii	"\037I\266X\0059\250\012\262\305\225 \313\027\251\276"
 271      0539A80A 
 271      B2C59520 
 271      CB17A9BE 
 272 0a92 BFD19759 		.ascii	"\277\321\227Y\247l\311\356a\216&\255N\277sJ\336\027"
 272      A76CC9EE 
 272      618E26AD 
 272      4EBF734A 
 272      DE17
 273 0aa4 45B00B9E 		.ascii	"E\260\013\236\301\214\276\277\371\324\262\321R\353\007"
 273      C18CBEBF 
 273      F9D4B2D1 
 273      52EB07
 274 0ab3 EAB72AA4 		.ascii	"\352\267*\244\032\351\211\266\214JF\250\010\254^\265"
 274      1AE989B6 
 274      8C4A46A8 
 274      08AC5EB5 
 275 0ac3 EF3D85CB 		.ascii	"\357=\205\313\341\235>\372\376\230I\261\356\201\366"
 275      E19D3EFA 
 275      FE9849B1 
 275      EE81F6
 276 0ad2 D4EC188F 		.ascii	"\324\354\030\217@{\020\350L\276yr\3433M\274|\306\211"
 276      407B10E8 
 276      4CBE7972 
 276      E3334DBC 
 276      7CC689
 277 0ae5 972F9CB9 		.ascii	"\227/\234\271\031\030\360\021o\215a~\254\331\327\216"
 277      1918F011 
 277      6F8D617E 
 277      ACD9D78E 
 278 0af5 C95C0992 		.ascii	"\311\\\011\222nd\035y\333f#+\347\254n\357R\230_({\226"
 278      6E641D79 
 278      DB66232B 
 278      E7AC6EEF 
 278      52985F28 
 279 0b0b 3EDC32B2 		.ascii	">\3342\262H\236kZ\307\222\353f\346\275%d`\376\367\357"
 279      489E6B5A 
 279      C792EB66 
 279      E6BD2564 
 279      60FEF7EF 
 280 0b1f AA1BBBB8 		.ascii	"\252\033\273\270\202\272\345\006\320.#\333]\372\260"
 280      82BAE506 
 280      D02E23DB 
 280      5DFAB0
 281 0b2e E1986D98 		.ascii	"\341\230m\230\367\266c~{\017\353\035X\357\307\372w>"
 281      F7B6637E 
 281      7B0FEB1D 
 281      58EFC7FA 
 281      773E
ARM GAS  /tmp/cca0jqD2.s 			page 22


 282 0b40 172B1FEA 		.ascii	"\027+\037\352\354\032\266\034@\355\203\016\240k\326"
 282      EC1AB61C 
 282      40ED830E 
 282      A06BD6
 283 0b4f 00F20266 		.ascii	"\000\362\002fPd\372\246\022@r<p\314>\237\011\317\233"
 283      5064FAA6 
 283      1240723C 
 283      70CC3E9F 
 283      09CF9B
 284 0b62 57A51736 		.ascii	"W\245\0276\025\034\373\225\032\\?h\271\324-\230\372"
 284      151CFB95 
 284      1A5C3F68 
 284      B9D42D98 
 284      FA
 285 0b73 2D6B5BA3 		.ascii	"-k[\243\264\353\214\262\036\215\262\001Mp\020\353CX"
 285      B4EB8CB2 
 285      1E8DB201 
 285      4D7010EB 
 285      4358
 286 0b85 771807A0 		.ascii	"w\030\007\2409\005\246\001\310\220\355\355\206C\275"
 286      3905A601 
 286      C890EDED 
 286      8643BD
 287 0b94 7AA4F46F 		.ascii	"z\244\364o\316\202\256\335\357.}\251\356.\035\301\254"
 287      CE82AEDD 
 287      EF2E7DA9 
 287      EE2E1DC1 
 287      AC
 288 0ba5 3DBFC0F3 		.ascii	"=\277\300\363\356\322\022$\351\262\316\315\356\251Y"
 288      EED21224 
 288      E9B2CECD 
 288      EEA959
 289 0bb4 BB2B77D6 		.ascii	"\273+w\326\2363;\275x\311\232\314\3603[\213\355\203"
 289      9E333BBD 
 289      78C99ACC 
 289      F0335B8B 
 289      ED83
 290 0bc6 59563907 		.ascii	"YV9\007\364\337\227h\327\370\360\350\244\366\246\353"
 290      F4DF9768 
 290      D7F8F0E8 
 290      A4F6A6EB 
 291 0bd6 D299EE38 		.ascii	"\322\231\3568\232\256\333h\250mfCy\334\215\332uV\235"
 291      9AAEDB68 
 291      A86D6643 
 291      79DC8DDA 
 291      75569D
 292 0be9 8BCADFDB 		.ascii	"\213\312\337\333\334i\3063~K\323\016\320h\371n/\226"
 292      DC69C633 
 292      7E4BD30E 
 292      D068F96E 
 292      2F96
 293 0bfb 6FBA74E5 		.ascii	"o\272t\3459y\217\025\355~\301\253\335\361{\210&\233"
 293      39798F15 
 293      ED7EC1AB 
 293      DDF17B88 
 293      269B
 294 0c0d A7BFE10B 		.ascii	"\247\277\341\013\345\267\271\307\350\333\375\270\211"
ARM GAS  /tmp/cca0jqD2.s 			page 23


 294      E5B7B9C7 
 294      E8DBFDB8 
 294      89
 295 0c1a EF6153F8 		.ascii	"\357aS\370\242r\326{\036\003\365\333\002s\012\037\324"
 295      A272D67B 
 295      1E03F5DB 
 295      02730A1F 
 295      D4
 296 0c2b A6F00F08 		.ascii	"\246\360\017\010s\356\217\3454\347tN\363):M\257\321"
 296      73EE8FE5 
 296      34E7744E 
 296      F3293A4D 
 296      AFD1
 297 0c3d 69AA87BA 		.ascii	"i\252\207\272p\232\244\353\376\026\352\372[\204\375"
 297      709AA4EB 
 297      FE16EAFA 
 297      5B84FD
 298 0c4c 35614E59 		.ascii	"5aNY\203u'\326\247\260\376\304\310\307\334\241\346\325"
 298      837527D6 
 298      A7B0FEC4 
 298      C8C7DCA1 
 298      E6D5
 299 0c5e AB61B548 		.ascii	"\253a\265H\261/\032W\257\255\260N_\324\273B\277z\325"
 299      B12F1A57 
 299      AFADB04E 
 299      5FD4BB42 
 299      BF7AD5
 300 0c71 2FA775DB 		.ascii	"/\247u\333F\326\205\360%\353z\232%\265\026\026,t\237"
 300      46D685F0 
 300      25EB7A9A 
 300      25B51616 
 300      2C749F
 301 0c84 9BB60AD2 		.ascii	"\233\266\012\322}=\363o\255`\032%\311\304\002\375\206"
 301      7D3DF36F 
 301      AD601A25 
 301      C9C402FD 
 301      86
 302 0c95 B061AF40 		.ascii	"\260a\257@\365_\310?9\216q\372\2666\034(\006\307\312"
 302      F55FC83F 
 302      398E71FA 
 302      B6361C28 
 302      06C7CA
 303 0ca8 79EAC331 		.ascii	"y\352\3031_\200\206s6\243\015\2772\007\306\01740\276"
 303      5F808673 
 303      36A30DBF 
 303      3207C60F 
 303      3430BE
 304 0cbb 7215183F 		.ascii	"r\025\030?\376\330!\237n\035\300\031H=.\265\276\032"
 304      FED8219F 
 304      6E1DC019 
 304      483D2EB5 
 304      BE1A
 305 0ccd F4D03B70 		.ascii	"\364\320;p\005\341L\023\246\335\016\023&\334\255\364"
 305      05E14C13 
 305      A6DD0E13 
 305      26DCADF4 
 306 0cdd 99663E75 		.ascii	"\231f>uh(/,\024\032X\250;\210\243\377u\234z-r\003\226"
ARM GAS  /tmp/cca0jqD2.s 			page 24


 306      68282F2C 
 306      141A58A8 
 306      3B88A3FF 
 306      759C7A2D 
 307 0cf4 65B46ED0 		.ascii	"e\264n\320\203\265x\006+\264\204\220\034<_c\360\\\303"
 307      83B57806 
 307      2BB48490 
 307      1C3C5F63 
 307      F05CC3
 308 0d07 50F906EB 		.ascii	"P\371\006\353\033X\177g\014\233\265C\315YG6\252\016"
 308      1B587F67 
 308      0C9BB543 
 308      CD594736 
 308      AA0E
 309 0d19 2F637B92 		.ascii	"/c{\222\033\321\336\006&c]u\220\217\342\337\366\031"
 309      1BD1DE06 
 309      26635D75 
 309      908FE2DF 
 309      F619
 310 0d2b E6AD19C8 		.ascii	"\346\255\031\310\011F\361uq\"\023\3317\343\230;>\257"
 310      0946F175 
 310      712213D9 
 310      37E3983B 
 310      3EAF
 311 0d3d 3F3FFBC1 		.ascii	"??\373\301g\377\3633\375\027\2412\255\3501\2169\360"
 311      67FFF333 
 311      FD17A132 
 311      ADE8318E 
 311      39F0
 312 0d4f 2D4CDC85 		.ascii	"-L\334\205\270\177\204\374n\350rI~\363\014\331*\325"
 312      B87F84FC 
 312      6EE87249 
 312      7EF30CD9 
 312      2AD5
 313 0d61 A62184AE 		.ascii	"\246!\204\256\000w\232[\374\017\271#5K}=\235\267\212"
 313      00779A5B 
 313      FC0FB923 
 313      354B7D3D 
 313      9DB78A
 314 0d74 6599688E 		.ascii	"e\231h\2168v,\275\371\020\035Xa\276\177\0172\204\254"
 314      38762CBD 
 314      F9101D58 
 314      61BE7F0F 
 314      3284AC
 315 0d87 3E96F49A 		.ascii	">\226\364\232;\265F\355,?\253\353m\202L)\233P\356*\275"
 315      3BB546ED 
 315      2C3FABEB 
 315      6D824C29 
 315      9B50EE2A 
 316 0d9c F510E3E6 		.ascii	"\365\020\343\346G}m\032\364(\005z\256\337\253Vk\374"
 316      477D6D1A 
 316      F428057A 
 316      AEDFAB56 
 316      6BFC
 317 0dae F65A7D30 		.ascii	"\366Z}0\253\347p\314\034\277\346\020\217\220\253\240"
 317      ABE770CC 
 317      1CBFE610 
ARM GAS  /tmp/cca0jqD2.s 			page 25


 317      8F90ABA0 
 318 0dbe C1E60999 		.ascii	"\301\346\011\231\356eO\244\024\327\321od\237\324?\177"
 318      EE654FA4 
 318      14D7D16F 
 318      649FD43F 
 318      7F
 319 0dcf A7085B2B 		.ascii	"\247\010[+\245w\006\325\\\240\377\325\225\322\257,\241"
 319      A57706D5 
 319      5CA0FFD5 
 319      95D2AF2C 
 319      A1
 320 0de0 EA7D2687 		.ascii	"\352}&\207\0158\213\365\272\337\3767\207\034\263 cZ"
 320      0D388BF5 
 320      BADFFE37 
 320      871CB320 
 320      635A
 321 0df2 0BD53C47 		.ascii	"\013\325<G\252\372,\2611\337\221\212\236c8Q-p\244\272"
 321      AAFA2CB1 
 321      31DF918A 
 321      9E633851 
 321      2D70A4BA 
 322 0e06 9485C337 		.ascii	"\224\205\3037\034\251nd\351\353MG\252\256,\011\372-"
 322      1CA96E64 
 322      E9EB4D47 
 322      AAAE2C09 
 322      FA2D
 323 0e18 47AACE2C 		.ascii	"G\252\316,Tu\216T\373\262P\325g\250\224\237\"\336\\"
 323      54758E54 
 323      FBB250D5 
 323      67A8949F 
 323      22DE5C
 324 0e2b FBD1E44D 		.ascii	"\373\321\344M\364\253\362\364\360h\326\234\027M\207"
 324      F4ABF2F4 
 324      F068D69C 
 324      174D87
 325 0e3a 12FD59A6 		.ascii	"\022\375Y\246\353\215~\353\311\325\254a\346C\007\374"
 325      EB8D7EEB 
 325      C9D5AC61 
 325      E64307FC 
 326 0e4a DD5FB5B4 		.ascii	"\335_\265\264\245\215\376\214Q>\314\341\230\006\277"
 326      A58DFE8C 
 326      513ECCE1 
 326      9806BF
 327 0e59 FD6F1815 		.ascii	"\375o\030\025\274\205~\273_'\336\356^\246\374:q\277"
 327      BC857EBB 
 327      5F27DEEE 
 327      5EA6FC3A 
 327      71BF
 328 0e6b F4584836 		.ascii	"\364XH6\005K\032\263\367(\177\013\014\246S\331{l2\366"
 328      054B1AB3 
 328      F7287F0B 
 328      0CA653D9 
 328      7B6C32F6 
 329 0e7f F897640D 		.ascii	"\370\227d\015]\364\364t\336\035\271\270.d\371.\231E"
 329      5DF4F474 
 329      DE1DB9B8 
 329      2E64F92E 
ARM GAS  /tmp/cca0jqD2.s 			page 26


 329      9945
 330 0e91 E7F47CC6 		.ascii	"\347\364|\306IMK2:'\376h\031'\344M\372\347_\026N$\343"
 330      494D4B32 
 330      3A27FE68 
 330      1927E44D 
 330      FAE75F16 
 331 0ea8 C78E2D92 		.ascii	"\307\216-\222\377\022\251\242h\242\242\"\021/J&\004"
 331      FF12A9A2 
 331      68A2A222 
 331      112F4A26 
 331      04
 332 0eb9 3155F4E2 		.ascii	"1U\364\342/&O\234<\203\276K\306\312y!U4i\342\304\242"
 332      2F264F9C 
 332      3C83BE4B 
 332      C6CA7921 
 332      553469E2 
 333 0ecf 68993833 		.ascii	"h\23183\311\247\306\226\221@E\2524\"\376gQY\242\202"
 333      C9A7C696 
 333      914045AA 
 333      3422FE67 
 333      5159A282 
 334 0ee3 2FE2CAF9 		.ascii	"/\342\312\371\031E\223\371\270\230\020&\011\\\262,\026"
 334      194593F9 
 334      B8981026 
 334      095CB22C 
 334      16
 335 0ef4 4D154D49 		.ascii	"M\025MIT\012Q^\230\031\231\230(\341_\342\343\321\262"
 335      540A515E 
 335      98199998 
 335      28E15FE2 
 335      E3D1B2
 336 0f07 C83FC544 		.ascii	"\310?\305D>2-!D\000;\362\367/\276\364\217E\234P\361"
 336      3E322D21 
 336      44003BF2 
 336      F72FBEF4 
 336      8F459C50 
 337 0f1c 743C11E7 		.ascii	"t<\021\347\237\346\271\251\261\242X<Z^Y\302\027\245"
 337      9FE6B9A9 
 337      B1A2583C 
 337      5A5E59C2 
 337      17A5
 338 0f2e C492585C 		.ascii	"\304\222X\\\204N\202\360\357\257\377*\"\026k\\\212|"
 338      844E82F0 
 338      EFAFFF2A 
 338      22166B5C 
 338      8A7C
 339 0f40 4A2C12C4 		.ascii	"J,\022\304\242\024\242\313\217\264\212\244\370_WB'|"
 339      A214A2CB 
 339      8FB48AA4 
 339      F85F5742 
 339      277C
 340 0f52 64DCB8E7 		.ascii	"d\334\270\347\306FI>\262W&\360\\I1\223|\020\233\300"
 340      C646493E 
 340      B25726F0 
 340      5C493193 
 340      7C109BC0 
 341 0f66 27508A23 		.ascii	"'P\212#\374\014>Z)\362\017\033A\313cSA\274\010\275\247"
ARM GAS  /tmp/cca0jqD2.s 			page 27


 341      FC0C3E5A 
 341      29F20F1B 
 341      41CB6353 
 341      41BC08BD 
 342 0f7b E2455E4A 		.ascii	"\342E^J$\312G\341c\204K\245x!\323\305\223\271\271\021"
 342      24CA47E1 
 342      63844BA5 
 342      7821D3C5 
 342      93B9B911 
 343 0f8f 12098A32 		.ascii	"\022\011\2122\022\037\252\270\230\250\360\222\032\216"
 343      121FAAB8 
 343      98A8F092 
 343      1A8E
 344 0f9d 6FF80A   		.ascii	"o\370\012"
 345 0fa0 FA26F10A 		.ascii	"\372&\361\012\037\177T\257\177@RU\020-\003\001\000\341"
 345      1F7F54AF 
 345      7F405255 
 345      102D0301 
 345      00E1
 346 0fb2 71C7CF53 		.ascii	"q\307\317S3S\252-B2xD\014S\001\360\276\320\231.ZV\002"
 346      3353AA2D 
 346      42327844 
 346      0C5301F0 
 346      BED0992E 
 347 0fc9 34C31586 		.ascii	"4\303\025\206\" S%\037\021Gh\244\312+\177\234\237!\372"
 347      22205325 
 347      1F114768 
 347      A4CA2B7F 
 347      9C9F21FA 
 348 0fdd 93023F3D 		.ascii	"\223\002?=\200\317A1)\304\022\0211T\251\030\305O\237"
 348      80CF4131 
 348      29C41211 
 348      3154A918 
 348      C54F9F
 349 0ff0 0BA8B344 		.ascii	"\013\250\263D\242\211\270\010\255\237\314\351Le\321"
 349      A289B808 
 349      AD9FCCE9 
 349      4C65D1
 350 0fff 84       		.ascii	"\204"
 351 1000 C043EFF9 		.ascii	"\300C\357\371H\006@Qq\306\323\356\250\"\323\237\253"
 351      48064051 
 351      71C6D3EE 
 351      A822D39F 
 351      AB
 352 1011 A0B20A7C 		.ascii	"\240\262\012|)xMDd\205gX\341oX\341YVx\216\025\306\263"
 352      29784D44 
 352      64856758 
 352      E16F58E1 
 352      5956788E 
 353 1028 C2DFFA84 		.ascii	"\302\337\372\204\342qP\212\331r\201M%}\000\035\210\363"
 353      E271508A 
 353      D972814D 
 353      257D001D 
 353      88F3
 354 103a 55BC1048 		.ascii	"U\274\020H\224\227\360\202?\316U\360CR\342+\\y\2544"
 354      9497F082 
 354      3FCE55F0 
ARM GAS  /tmp/cca0jqD2.s 			page 28


 354      4352E22B 
 354      5C79AC34 
 355 104e AEC8F1EC 		.ascii	"\256\310\361\3543\0211\257\212\233\312\245\370\220\230"
 355      331131AF 
 355      8A9BCAA5 
 355      F89098
 356 105d 1239F04F 		.ascii	"\0229\360O1H?\030\037\021\003\370\034\024+\300\177\341"
 356      31483F18 
 356      1F1103F8 
 356      1C142BC0 
 356      7FE1
 357 106f 695A3957 		.ascii	"iZ9W\232\012\212\002?-\005\262\323\177yB\311L\260R\210"
 357      9A0A8A02 
 357      3F2D05B2 
 357      D37F7942 
 357      C94CB052 
 358 1084 9F1113A3 		.ascii	"\237\021\023\243\320(\257JLL\375\257\344\003\2125\240"
 358      D028AF4A 
 358      4C4CFDAF 
 358      E4038A35 
 358      A0
 359 1095 092FA04B 		.ascii	"\011/\240K\212\201*Q\024\222\301\024D\010\020\024\200"
 359      8A812A51 
 359      1492C114 
 359      44081014 
 359      80
 360 10a6 AA537C05 		.ascii	"\252S|\005\304\011\210\345\354\000\320\204:b4\016\256"
 360      C40988E5 
 360      EC00D084 
 360      3A62340E 
 360      AE
 361 10b7 E2831AE0 		.ascii	"\342\203\032\340\341U2\004\324\025\340\2763\262\270"
 361      E1553204 
 361      D415E0BE 
 361      33B2B8
 362 10c6 8E388352 		.ascii	"\2168\203R&\252\342\274\020\304\266TJ\021^'\363\371"
 362      26AAE2BC 
 362      10C4B654 
 362      4A115E27 
 362      F3F9
 363 10d8 E994092E 		.ascii	"\351\224\011.\365\012\274\342\253\350\015S9L5|y\014"
 363      F50ABCE2 
 363      ABE80D53 
 363      394C357C 
 363      790C
 364 10ea 9C531CAE 		.ascii	"\234S\034\256s\005\372&H\0358\026/\015\001\357\350\012"
 364      7305FA26 
 364      481D3816 
 364      2F0D01EF 
 364      E80A
 365 10fc 213EC9C7 		.ascii	"!>\311\307!DK\203\000I[\200Q\270r\352\016\201\212$\204"
 365      21444B83 
 365      00495B80 
 365      51B872EA 
 365      0E818A24 
 366 1111 0D083839 		.ascii	"\015\01089U\372\013\276\234\007\275\206\361\341\337"
 366      55FA0BBE 
ARM GAS  /tmp/cca0jqD2.s 			page 29


 366      9C07BD86 
 366      F1E1DF
 367 1120 00E2CF1D 		.ascii	"\000\342\317\035\031Vz\003\246\313\3573\241\320(.\215"
 367      19567A03 
 367      A6CBEF33 
 367      A1D0282E 
 367      8D
 368 1131 464D89E5 		.ascii	"FM\211\345\231\261\343\307\026\353\323K\011?\015:\313"
 368      99B1E3C7 
 368      16EBD34B 
 368      093F0D3A 
 368      CB
 369 1142 4BC5FE9B 		.ascii	"K\305\376\233\032\\\234V\031\217F\304\221\321\262\177"
 369      1A5C9C56 
 369      198F46C4 
 369      91D1B27F 
 370 1152 2D2B9908 		.ascii	"-+\231\010\254\210\374\024\260},*\363>\005\204\015\313"
 370      AC88FC14 
 370      B07D2C2A 
 370      F33E0584 
 370      0DCB
 371 1164 4946E493 		.ascii	"IF\344\223l\025\227O\015\010\341\307W\310!'\337\027"
 371      6C15974F 
 371      0D08E1C7 
 371      57C82127 
 371      DF17
 372 1176 5019662A 		.ascii	"P\031f*:\034\012\2573\317\301h\245\000\256 \006\004"
 372      3A1C0AAF 
 372      33CFC168 
 372      A500AE20 
 372      0604
 373 1188 FA346A7A 		.ascii	"\3724jzL\020+\271\362\210\030\253\200\304\252P<\004"
 373      4C102BB9 
 373      F28818AB 
 373      80C4AA50 
 373      3C04
 374 119a 14361F0C 		.ascii	"\0246\037\0147\274\223\343\324\360*L{\207\033\305\243"
 374      37BC93E3 
 374      D4F02A4C 
 374      7B871BC5 
 374      A3
 375 11ab 8B9F0577 		.ascii	"\213\237\005w+\341\313E.4]\221\313O\377\371\222\234"
 375      2BE1CB45 
 375      2E345D91 
 375      CB4FFFF9 
 375      929C
 376 11bd 102AE752 		.ascii	"\020*\347R\"m\2337]\244\330\303\024!J\370\251\225\245"
 376      226D9B37 
 376      5DA4D8C3 
 376      14214AF8 
 376      A995A5
 377 11d0 B2DDF56F 		.ascii	"\262\335\365o\302I.\036\213F\300\352\276\222\251\245"
 377      C2492E1E 
 377      8B46C0EA 
 377      BE92A9A5 
 378 11e0 432A3880 		.ascii	"C*8\200GC=\342lH\352\262#\304\212H\024\242l\252\000"
 378      47433DE2 
ARM GAS  /tmp/cca0jqD2.s 			page 30


 378      6C48EAB2 
 378      23C48A48 
 378      14A26CAA 
 379 11f5 3A4C40A8 		.ascii	":L@\250\005\005\021\2758/1mZ\212\027Y\261\202\215\226"
 379      050511BD 
 379      382F316D 
 379      5A8A1759 
 379      B1828D96 
 380 1209 0515A307 		.ascii	"\005\025\243\007\340Me2$\362\234P\002\036\033T\262\363"
 380      E04D6532 
 380      24F29C50 
 380      021E1B54 
 380      B2F3
 381 121b 10AAF028 		.ascii	"\020\252\360(\370\017\330\305\222\340\307\214\025\022"
 381      F80FD8C5 
 381      92E0C78C 
 381      1512
 382 1229 259CC88D 		.ascii	"%\234\310\215\265|R\240\317\364\243&\363\251\024W\312"
 382      B57C52A0 
 382      CFF4A326 
 382      F3A91457 
 382      CA
 383 123a A70AA7F0 		.ascii	"\247\012\247\360\302t^(,O$\222D6\363$^\374\027pX!&\316"
 383      C2745E28 
 383      2C4F2492 
 383      4436F324 
 383      5EFC1770 
 384 1252 7C79A8FA 		.ascii	"|y\250\372f\012_>\355\345\377\007\262)\3577"
 384      660A5F3E 
 384      EDE5FF07 
 384      B229EF37 
 385              		.text
 386              		.section	.gnu.lto_.symtab.7935f74bde241716,"",%progbits
 387 0000 74657374 		.ascii	"test_sequence_007\000\000\000\000\000\000\000\000\000"
 387      5F736571 
 387      75656E63 
 387      655F3030 
 387      37000000 
 388 001a 000000E8 		.ascii	"\000\000\000\350\001\000\000test_step\000\000\002\000"
 388      01000074 
 388      6573745F 
 388      73746570 
 388      00000200 
 389 002e 00000000 		.ascii	"\000\000\000\000\000\000\000\000\211\001\000\000wa\000"
 389      00000000 
 389      89010000 
 389      776100
 390 003d 00020000 		.ascii	"\000\002\000\000\000\000\000\000\000\000\000\213\001"
 390      00000000 
 390      0000008B 
 390      01
 391 004a 00006368 		.ascii	"\000\000ch\000\000\002\000\000\000\000\000\000\000\000"
 391      00000200 
 391      00000000 
 391      000000
 392 0059 00900100 		.ascii	"\000\220\001\000\000threads\000\000\002\000\000\000"
 392      00746872 
ARM GAS  /tmp/cca0jqD2.s 			page 31


 392      65616473 
 392      00000200 
 392      0000
 393 006b 00000000 		.ascii	"\000\000\000\000\000\000\345\001\000\000_test_asser"
 393      0000E501 
 393      00005F74 
 393      6573745F 
 393      61737365 
 394 0080 745F7365 		.ascii	"t_sequence\000\000\002\000\000\000\000\000\000\000\000"
 394      7175656E 
 394      63650000 
 394      02000000 
 394      00000000 
 395 0095 00BD0000 		.ascii	"\000\275\000\000\000test_wait_threads\000\000\002\000"
 395      00746573 
 395      745F7761 
 395      69745F74 
 395      68726561 
 396 00af 00000000 		.ascii	"\000\000\000\000\000\000\000\000\310\000\000\000tes"
 396      00000000 
 396      C8000000 
 396      746573
 397 00be 745F656D 		.ascii	"t_emit_token\000\000\002\000\000\000\000\000\000\000"
 397      69745F74 
 397      6F6B656E 
 397      00000200 
 397      00000000 
 398 00d4 0000CA00 		.ascii	"\000\000\312\000\000\000chMsgRelease\000\000\002\000"
 398      00006368 
 398      4D736752 
 398      656C6561 
 398      73650000 
 399 00ea 00000000 		.ascii	"\000\000\000\000\000\000\000\000\316\000\000\000chM"
 399      00000000 
 399      CE000000 
 399      63684D
 400 00f9 73675761 		.ascii	"sgWait\000\000\002\000\000\000\000\000\000\000\000\000"
 400      69740000 
 400      02000000 
 400      00000000 
 400      0000
 401 010b 73010000 		.ascii	"s\001\000\000chThdCreateStatic\000\000\002\000\000\000"
 401      63685468 
 401      64437265 
 401      61746553 
 401      74617469 
 402 0126 00000000 		.ascii	"\000\000\000\000\000\000v\001\000\000chMsgSend\000\000"
 402      00007601 
 402      00006368 
 402      4D736753 
 402      656E6400 
 403 013b 02000000 		.ascii	"\002\000\000\000\000\000\000\000\000\000\204\001\000"
 403      00000000 
 403      00008401 
 403      00
 404 0148 00       		.ascii	"\000"
 405              		.text
ARM GAS  /tmp/cca0jqD2.s 			page 32


 406              		.section	.gnu.lto_.opts,"",%progbits
 407 0000 272D6D63 		.ascii	"'-mcpu=cortex-m3' '-mno-thumb-interwork' '-mthumb' "
 407      70753D63 
 407      6F727465 
 407      782D6D33 
 407      2720272D 
 408 0033 272D6767 		.ascii	"'-ggdb' '-O2' '-fomit-frame-pointer' '-falign-funct"
 408      64622720 
 408      272D4F32 
 408      2720272D 
 408      666F6D69 
 409 0066 696F6E73 		.ascii	"ions=16' '-ffunction-sections' '-fdata-sections' '-"
 409      3D313627 
 409      20272D66 
 409      66756E63 
 409      74696F6E 
 410 0099 666E6F2D 		.ascii	"fno-common' '-flto'\000"
 410      636F6D6D 
 410      6F6E2720 
 410      272D666C 
 410      746F2700 
 411              		.text
 412              		.cfi_sections	.debug_frame
 413              		.section	.text.test_007_001_execute,"ax",%progbits
 414              		.align	2
 415              		.p2align 4,,15
 416              		.thumb
 417              		.thumb_func
 418              		.type	test_007_001_execute, %function
 419              	test_007_001_execute:
 420              	.LFB218:
 421              		.file 1 "../../../test/rt/source/test/test_sequence_007.c"
 422              		.loc 1 76 0
 423              		.cfi_startproc
 424              		@ args = 0, pretend = 0, frame = 0
 425              		@ frame_needed = 0, uses_anonymous_args = 0
 426 0000 30B5     		push	{r4, r5, lr}
 427              		.cfi_def_cfa_offset 12
 428              		.cfi_offset 4, -12
 429              		.cfi_offset 5, -8
 430              		.cfi_offset 14, -4
 431              	.LBB13:
 432              	.LBB14:
 433              	.LBB15:
 434              	.LBB16:
 435              		.file 2 "../../../os/rt/include/chthreads.h"
 436              		.loc 2 286 0
 437 0002 40F20003 		movw	r3, #:lower16:ch
 438 0006 C0F20003 		movt	r3, #:upper16:ch
 439 000a 9969     		ldr	r1, [r3, #24]
 440              	.LBE16:
 441              	.LBE15:
 442              	.LBE14:
 443              	.LBE13:
 444              		.loc 1 83 0
 445 000c 40F20003 		movw	r3, #:lower16:wa
 446 0010 8A68     		ldr	r2, [r1, #8]
ARM GAS  /tmp/cca0jqD2.s 			page 33


 447 0012 C0F20003 		movt	r3, #:upper16:wa
 448              		.loc 1 81 0
 449 0016 40F20004 		movw	r4, #:lower16:test_step
 450 001a C0F20004 		movt	r4, #:upper16:test_step
 451              		.loc 1 76 0
 452 001e 83B0     		sub	sp, sp, #12
 453              		.cfi_def_cfa_offset 24
 454              		.loc 1 83 0
 455 0020 1868     		ldr	r0, [r3]
 456              		.loc 1 81 0
 457 0022 0125     		movs	r5, #1
 458              		.loc 1 83 0
 459 0024 40F20003 		movw	r3, #:lower16:msg_thread1
 460 0028 0091     		str	r1, [sp]
 461 002a 0132     		adds	r2, r2, #1
 462 002c C0F20003 		movt	r3, #:upper16:msg_thread1
 463              		.loc 1 81 0
 464 0030 2560     		str	r5, [r4]
 465              		.loc 1 83 0
 466 0032 4FF4A471 		mov	r1, #328
 467 0036 FFF7FEFF 		bl	chThdCreateStatic
 468              	.LVL0:
 469 003a 40F20003 		movw	r3, #:lower16:threads
 470 003e C0F20003 		movt	r3, #:upper16:threads
 471              		.loc 1 89 0
 472 0042 0222     		movs	r2, #2
 473 0044 2260     		str	r2, [r4]
 474              	.LVL1:
 475              		.loc 1 83 0
 476 0046 1860     		str	r0, [r3]
 477              		.loc 1 89 0
 478 0048 0424     		movs	r4, #4
 479              	.LVL2:
 480              	.L3:
 481              	.LBB17:
 482              		.loc 1 94 0 discriminator 2
 483 004a FFF7FEFF 		bl	chMsgWait
 484              	.LVL3:
 485              	.LBE17:
 486              		.loc 1 77 0 discriminator 2
 487 004e 456A     		ldr	r5, [r0, #36]
 488              	.LVL4:
 489              	.LBB18:
 490              		.loc 1 96 0 discriminator 2
 491 0050 2946     		mov	r1, r5
 492 0052 FFF7FEFF 		bl	chMsgRelease
 493              	.LVL5:
 494              		.loc 1 97 0 discriminator 2
 495 0056 E8B2     		uxtb	r0, r5
 496 0058 FFF7FEFF 		bl	test_emit_token
 497              	.LVL6:
 498              		.loc 1 93 0 discriminator 2
 499 005c 013C     		subs	r4, r4, #1
 500              	.LVL7:
 501 005e F4D1     		bne	.L3
 502              		.loc 1 99 0
 503 0060 FFF7FEFF 		bl	test_wait_threads
ARM GAS  /tmp/cca0jqD2.s 			page 34


 504              	.LVL8:
 505              		.loc 1 100 0
 506 0064 40F20000 		movw	r0, #:lower16:.LC0
 507 0068 40F20001 		movw	r1, #:lower16:.LC1
 508 006c C0F20000 		movt	r0, #:upper16:.LC0
 509 0070 C0F20001 		movt	r1, #:upper16:.LC1
 510              	.LBE18:
 511              		.loc 1 102 0
 512 0074 03B0     		add	sp, sp, #12
 513              		@ sp needed
 514 0076 BDE83040 		pop	{r4, r5, lr}
 515              	.LVL9:
 516              	.LBB19:
 517              		.loc 1 100 0
 518 007a FFF7FEBF 		b	_test_assert_sequence
 519              	.LVL10:
 520              	.LBE19:
 521              		.cfi_endproc
 522              	.LFE218:
 523              		.size	test_007_001_execute, .-test_007_001_execute
 524 007e 00BF     		.section	.text.msg_thread1,"ax",%progbits
 525              		.align	2
 526              		.p2align 4,,15
 527              		.thumb
 528              		.thumb_func
 529              		.type	msg_thread1, %function
 530              	msg_thread1:
 531              	.LFB217:
 532              		.loc 1 50 0
 533              		.cfi_startproc
 534              		@ args = 0, pretend = 0, frame = 0
 535              		@ frame_needed = 0, uses_anonymous_args = 0
 536              	.LVL11:
 537 0000 10B5     		push	{r4, lr}
 538              		.cfi_def_cfa_offset 8
 539              		.cfi_offset 4, -8
 540              		.cfi_offset 14, -4
 541              		.loc 1 52 0
 542 0002 4121     		movs	r1, #65
 543              		.loc 1 50 0
 544 0004 0446     		mov	r4, r0
 545              		.loc 1 52 0
 546 0006 FFF7FEFF 		bl	chMsgSend
 547              	.LVL12:
 548              		.loc 1 53 0
 549 000a 2046     		mov	r0, r4
 550 000c 4221     		movs	r1, #66
 551 000e FFF7FEFF 		bl	chMsgSend
 552              	.LVL13:
 553              		.loc 1 54 0
 554 0012 2046     		mov	r0, r4
 555 0014 4321     		movs	r1, #67
 556 0016 FFF7FEFF 		bl	chMsgSend
 557              	.LVL14:
 558              		.loc 1 55 0
 559 001a 2046     		mov	r0, r4
 560 001c 4421     		movs	r1, #68
ARM GAS  /tmp/cca0jqD2.s 			page 35


 561              		.loc 1 56 0
 562 001e BDE81040 		pop	{r4, lr}
 563              	.LVL15:
 564              		.loc 1 55 0
 565 0022 FFF7FEBF 		b	chMsgSend
 566              	.LVL16:
 567              		.cfi_endproc
 568              	.LFE217:
 569              		.size	msg_thread1, .-msg_thread1
 570              		.global	test_sequence_007
 571 0026 00BFAFF3 		.section	.rodata.test_007_001,"a",%progbits
 571      0080AFF3 
 571      0080
 572              		.align	2
 573              		.type	test_007_001, %object
 574              		.size	test_007_001, 16
 575              	test_007_001:
 576 0000 1C000000 		.word	.LC2
 577 0004 00000000 		.word	0
 578 0008 00000000 		.word	0
 579 000c 00000000 		.word	test_007_001_execute
 580              		.section	.rodata.test_sequence_007,"a",%progbits
 581              		.align	2
 582              		.type	test_sequence_007, %object
 583              		.size	test_sequence_007, 8
 584              	test_sequence_007:
 585 0000 00000000 		.word	test_007_001
 586 0004 00000000 		.word	0
 587              		.section	.rodata.str1.4,"aMS",%progbits,1
 588              		.align	2
 589              	.LC0:
 590 0000 41424344 		.ascii	"ABCD\000"
 590      00
 591 0005 000000   		.space	3
 592              	.LC1:
 593 0008 696E7661 		.ascii	"invalid sequence\000"
 593      6C696420 
 593      73657175 
 593      656E6365 
 593      00
 594 0019 000000   		.space	3
 595              	.LC2:
 596 001c 4D657373 		.ascii	"Messages Server loop\000"
 596      61676573 
 596      20536572 
 596      76657220 
 596      6C6F6F70 
 597 0031 000000   		.text
 598              	.Letext0:
 599              		.file 3 "/home/alex/MentorGraphics/Sourcery_CodeBench_Lite_for_ARM_EABI/lib/gcc/arm-none-eabi/4.8.
 600              		.file 4 "/home/alex/MentorGraphics/Sourcery_CodeBench_Lite_for_ARM_EABI/arm-none-eabi/include/stdi
 601              		.file 5 "../../../os/common/ports/ARMCMx/compilers/GCC/chtypes.h"
 602              		.file 6 "../../../os/rt/include/chsystypes.h"
 603              		.file 7 "../../../os/rt/include/chschd.h"
 604              		.file 8 "../../../os/common/ports/ARMCMx/chcore.h"
 605              		.file 9 "../../../os/common/ports/ARMCMx/chcore_v7m.h"
 606              		.file 10 "../../../os/rt/include/chtm.h"
ARM GAS  /tmp/cca0jqD2.s 			page 36


 607              		.file 11 "../../../os/rt/include/chsem.h"
 608              		.file 12 "../../../os/rt/include/chmtx.h"
 609              		.file 13 "../../../test/lib/ch_test.h"
 610              		.file 14 "../../../os/common/ext/CMSIS/include/core_cm3.h"
 611              		.file 15 "../../../test/rt/source/test/test_root.h"
 612              		.file 16 "../../../os/rt/include/chmsg.h"